ARM GAS   			page 1


   1              	 .cpu cortex-m4
   2              	 .arch armv7e-m
   3              	 .fpu fpv4-sp-d16
   4              	 .eabi_attribute 27,1
   5              	 .eabi_attribute 28,1
   6              	 .eabi_attribute 20,1
   7              	 .eabi_attribute 21,1
   8              	 .eabi_attribute 23,3
   9              	 .eabi_attribute 24,1
  10              	 .eabi_attribute 25,1
  11              	 .eabi_attribute 26,1
  12              	 .eabi_attribute 30,6
  13              	 .eabi_attribute 34,0
  14              	 .eabi_attribute 18,4
  15              	 .file "DigProcesAansturing.cpp"
  16              	 .text
  17              	.Ltext0:
  18              	 .cfi_sections .debug_frame
  19              	 .section .rodata._ZL2PI,"a"
  20              	 .align 2
  21              	 .type _ZL2PI,%object
  22              	 .size _ZL2PI,4
  23              	_ZL2PI:
  24 0000 DB0F4940 	 .word 1078530011
  25              	 .section .rodata._ZL6TweePI,"a"
  26              	 .align 2
  27              	 .type _ZL6TweePI,%object
  28              	 .size _ZL6TweePI,4
  29              	_ZL6TweePI:
  30 0000 DB0FC940 	 .word 1086918619
  31              	 .section .rodata._ZL5TwoPI,"a"
  32              	 .align 2
  33              	 .type _ZL5TwoPI,%object
  34              	 .size _ZL5TwoPI,4
  35              	_ZL5TwoPI:
  36 0000 DB0FC940 	 .word 1086918619
  37              	 .section .rodata._ZL2CR,"a"
  38              	 .type _ZL2CR,%object
  39              	 .size _ZL2CR,1
  40              	_ZL2CR:
  41 0000 0D       	 .byte 13
  42              	 .section .rodata._ZL2LF,"a"
  43              	 .type _ZL2LF,%object
  44              	 .size _ZL2LF,1
  45              	_ZL2LF:
  46 0000 0A       	 .byte 10
  47              	 .section .rodata._ZL9BACKSPACE,"a"
  48              	 .type _ZL9BACKSPACE,%object
  49              	 .size _ZL9BACKSPACE,1
  50              	_ZL9BACKSPACE:
  51 0000 08       	 .byte 8
  52              	 .section .rodata._ZL5SPACE,"a"
  53              	 .type _ZL5SPACE,%object
  54              	 .size _ZL5SPACE,1
  55              	_ZL5SPACE:
  56 0000 20       	 .byte 32
  57              	 .section .rodata._ZL3ESC,"a"
ARM GAS   			page 2


  58              	 .type _ZL3ESC,%object
  59              	 .size _ZL3ESC,1
  60              	_ZL3ESC:
  61 0000 1B       	 .byte 27
  62              	 .section .rodata._ZL9cmdLengte,"a"
  63              	 .align 2
  64              	 .type _ZL9cmdLengte,%object
  65              	 .size _ZL9cmdLengte,4
  66              	_ZL9cmdLengte:
  67 0000 0E000000 	 .word 14
  68              	 .section .rodata._ZL27MaxOverdrachtFunktieGrootte,"a"
  69              	 .align 2
  70              	 .type _ZL27MaxOverdrachtFunktieGrootte,%object
  71              	 .size _ZL27MaxOverdrachtFunktieGrootte,4
  72              	_ZL27MaxOverdrachtFunktieGrootte:
  73 0000 00020000 	 .word 512
  74              	 .section .rodata._ZL19TotaalPakketGrootte,"a"
  75              	 .align 2
  76              	 .type _ZL19TotaalPakketGrootte,%object
  77              	 .size _ZL19TotaalPakketGrootte,4
  78              	_ZL19TotaalPakketGrootte:
  79 0000 0E020000 	 .word 526
  80              	 .section .text._ZN19DigProcesAansturing17zetProcesControleENS_14ProcesControleE,"ax",%progbits
  81              	 .align 1
  82              	 .global _ZN19DigProcesAansturing17zetProcesControleENS_14ProcesControleE
  83              	 .syntax unified
  84              	 .thumb
  85              	 .thumb_func
  86              	 .type _ZN19DigProcesAansturing17zetProcesControleENS_14ProcesControleE,%function
  87              	_ZN19DigProcesAansturing17zetProcesControleENS_14ProcesControleE:
  88              	.LFB262:
  89              	 .file 1 "C:\\Users\\niels\\Documents\\GitHub\\DSP\\software\\STM32Basis\\HAL\\gemeenschappelijk\\Third_Party\\ESE_BSP\\DigProcesAansturing\\DigProcesAansturing.cpp"
   1:C:\Users\niels\Documents\GitHub\DSP\software\STM32Basis\HAL\gemeenschappelijk\Third_Party\ESE_BSP\DigProcesAansturing\DigProcesAansturing.cpp **** 
   2:C:\Users\niels\Documents\GitHub\DSP\software\STM32Basis\HAL\gemeenschappelijk\Third_Party\ESE_BSP\DigProcesAansturing\DigProcesAansturing.cpp **** /*!
   3:C:\Users\niels\Documents\GitHub\DSP\software\STM32Basis\HAL\gemeenschappelijk\Third_Party\ESE_BSP\DigProcesAansturing\DigProcesAansturing.cpp ****   @file
   4:C:\Users\niels\Documents\GitHub\DSP\software\STM32Basis\HAL\gemeenschappelijk\Third_Party\ESE_BSP\DigProcesAansturing\DigProcesAansturing.cpp ****   Implementatie om de Digitale Proces Processor aan te sturen
   5:C:\Users\niels\Documents\GitHub\DSP\software\STM32Basis\HAL\gemeenschappelijk\Third_Party\ESE_BSP\DigProcesAansturing\DigProcesAansturing.cpp **** 
   6:C:\Users\niels\Documents\GitHub\DSP\software\STM32Basis\HAL\gemeenschappelijk\Third_Party\ESE_BSP\DigProcesAansturing\DigProcesAansturing.cpp ****   @version $Rev: 3445 $
   7:C:\Users\niels\Documents\GitHub\DSP\software\STM32Basis\HAL\gemeenschappelijk\Third_Party\ESE_BSP\DigProcesAansturing\DigProcesAansturing.cpp ****   @author $Author: ewout $
   8:C:\Users\niels\Documents\GitHub\DSP\software\STM32Basis\HAL\gemeenschappelijk\Third_Party\ESE_BSP\DigProcesAansturing\DigProcesAansturing.cpp **** 
   9:C:\Users\niels\Documents\GitHub\DSP\software\STM32Basis\HAL\gemeenschappelijk\Third_Party\ESE_BSP\DigProcesAansturing\DigProcesAansturing.cpp ****   @copyright Copyright 2002-2017 HAN Embedded Systems Engineering
  10:C:\Users\niels\Documents\GitHub\DSP\software\STM32Basis\HAL\gemeenschappelijk\Third_Party\ESE_BSP\DigProcesAansturing\DigProcesAansturing.cpp **** 
  11:C:\Users\niels\Documents\GitHub\DSP\software\STM32Basis\HAL\gemeenschappelijk\Third_Party\ESE_BSP\DigProcesAansturing\DigProcesAansturing.cpp ****   $Id: DigProcesAansturing.cpp 3445 2019-03-14 16:19:08Z ewout $
  12:C:\Users\niels\Documents\GitHub\DSP\software\STM32Basis\HAL\gemeenschappelijk\Third_Party\ESE_BSP\DigProcesAansturing\DigProcesAansturing.cpp **** ************************************************************************/
  13:C:\Users\niels\Documents\GitHub\DSP\software\STM32Basis\HAL\gemeenschappelijk\Third_Party\ESE_BSP\DigProcesAansturing\DigProcesAansturing.cpp **** 
  14:C:\Users\niels\Documents\GitHub\DSP\software\STM32Basis\HAL\gemeenschappelijk\Third_Party\ESE_BSP\DigProcesAansturing\DigProcesAansturing.cpp **** #include <DigProcesAansturing.h>
  15:C:\Users\niels\Documents\GitHub\DSP\software\STM32Basis\HAL\gemeenschappelijk\Third_Party\ESE_BSP\DigProcesAansturing\DigProcesAansturing.cpp **** 
  16:C:\Users\niels\Documents\GitHub\DSP\software\STM32Basis\HAL\gemeenschappelijk\Third_Party\ESE_BSP\DigProcesAansturing\DigProcesAansturing.cpp **** void DigProcesAansturing::zetProcesControle(const DigProcesAansturing::ProcesControle controle)
  17:C:\Users\niels\Documents\GitHub\DSP\software\STM32Basis\HAL\gemeenschappelijk\Third_Party\ESE_BSP\DigProcesAansturing\DigProcesAansturing.cpp **** {
  90              	 .loc 1 17 1
  91              	 .cfi_startproc
  92              	 
  93              	 
  94 0000 80B5     	 push {r7,lr}
  95              	 .cfi_def_cfa_offset 8
  96              	 .cfi_offset 7,-8
  97              	 .cfi_offset 14,-4
ARM GAS   			page 3


  98 0002 82B0     	 sub sp,sp,#8
  99              	 .cfi_def_cfa_offset 16
 100 0004 00AF     	 add r7,sp,#0
 101              	 .cfi_def_cfa_register 7
 102 0006 7860     	 str r0,[r7,#4]
 103 0008 0B46     	 mov r3,r1
 104 000a FB70     	 strb r3,[r7,#3]
  18:C:\Users\niels\Documents\GitHub\DSP\software\STM32Basis\HAL\gemeenschappelijk\Third_Party\ESE_BSP\DigProcesAansturing\DigProcesAansturing.cpp **** 	this->operator [] (1) = static_cast<UInt8>(controle);
 105              	 .loc 1 18 22
 106 000c 7B68     	 ldr r3,[r7,#4]
 107 000e 0121     	 movs r1,#1
 108 0010 1846     	 mov r0,r3
 109 0012 FFF7FEFF 	 bl _ZNK10DataPakketIhEixEm
 110 0016 0246     	 mov r2,r0
 111              	 .loc 1 18 24
 112 0018 FB78     	 ldrb r3,[r7,#3]
 113 001a 1370     	 strb r3,[r2]
  19:C:\Users\niels\Documents\GitHub\DSP\software\STM32Basis\HAL\gemeenschappelijk\Third_Party\ESE_BSP\DigProcesAansturing\DigProcesAansturing.cpp **** }
 114              	 .loc 1 19 1
 115 001c 00BF     	 nop
 116 001e 0837     	 adds r7,r7,#8
 117              	 .cfi_def_cfa_offset 8
 118 0020 BD46     	 mov sp,r7
 119              	 .cfi_def_cfa_register 13
 120              	 
 121 0022 80BD     	 pop {r7,pc}
 122              	 .cfi_endproc
 123              	.LFE262:
 124              	 .size _ZN19DigProcesAansturing17zetProcesControleENS_14ProcesControleE,.-_ZN19DigProcesAansturing17zetProcesControleENS_14ProcesControleE
 125              	 .section .text._ZN19DigProcesAansturing13zetProcesTypeENS_10ProcesTypeE,"ax",%progbits
 126              	 .align 1
 127              	 .global _ZN19DigProcesAansturing13zetProcesTypeENS_10ProcesTypeE
 128              	 .syntax unified
 129              	 .thumb
 130              	 .thumb_func
 131              	 .type _ZN19DigProcesAansturing13zetProcesTypeENS_10ProcesTypeE,%function
 132              	_ZN19DigProcesAansturing13zetProcesTypeENS_10ProcesTypeE:
 133              	.LFB263:
  20:C:\Users\niels\Documents\GitHub\DSP\software\STM32Basis\HAL\gemeenschappelijk\Third_Party\ESE_BSP\DigProcesAansturing\DigProcesAansturing.cpp **** 
  21:C:\Users\niels\Documents\GitHub\DSP\software\STM32Basis\HAL\gemeenschappelijk\Third_Party\ESE_BSP\DigProcesAansturing\DigProcesAansturing.cpp **** void DigProcesAansturing::zetProcesType(const DigProcesAansturing::ProcesType type)
  22:C:\Users\niels\Documents\GitHub\DSP\software\STM32Basis\HAL\gemeenschappelijk\Third_Party\ESE_BSP\DigProcesAansturing\DigProcesAansturing.cpp **** {
 134              	 .loc 1 22 1
 135              	 .cfi_startproc
 136              	 
 137              	 
 138 0000 80B5     	 push {r7,lr}
 139              	 .cfi_def_cfa_offset 8
 140              	 .cfi_offset 7,-8
 141              	 .cfi_offset 14,-4
 142 0002 82B0     	 sub sp,sp,#8
 143              	 .cfi_def_cfa_offset 16
 144 0004 00AF     	 add r7,sp,#0
 145              	 .cfi_def_cfa_register 7
 146 0006 7860     	 str r0,[r7,#4]
 147 0008 0B46     	 mov r3,r1
 148 000a FB70     	 strb r3,[r7,#3]
  23:C:\Users\niels\Documents\GitHub\DSP\software\STM32Basis\HAL\gemeenschappelijk\Third_Party\ESE_BSP\DigProcesAansturing\DigProcesAansturing.cpp **** 	this->operator [] (1) = static_cast<UInt8>(type);
ARM GAS   			page 4


 149              	 .loc 1 23 22
 150 000c 7B68     	 ldr r3,[r7,#4]
 151 000e 0121     	 movs r1,#1
 152 0010 1846     	 mov r0,r3
 153 0012 FFF7FEFF 	 bl _ZNK10DataPakketIhEixEm
 154 0016 0246     	 mov r2,r0
 155              	 .loc 1 23 24
 156 0018 FB78     	 ldrb r3,[r7,#3]
 157 001a 1370     	 strb r3,[r2]
  24:C:\Users\niels\Documents\GitHub\DSP\software\STM32Basis\HAL\gemeenschappelijk\Third_Party\ESE_BSP\DigProcesAansturing\DigProcesAansturing.cpp **** }
 158              	 .loc 1 24 1
 159 001c 00BF     	 nop
 160 001e 0837     	 adds r7,r7,#8
 161              	 .cfi_def_cfa_offset 8
 162 0020 BD46     	 mov sp,r7
 163              	 .cfi_def_cfa_register 13
 164              	 
 165 0022 80BD     	 pop {r7,pc}
 166              	 .cfi_endproc
 167              	.LFE263:
 168              	 .size _ZN19DigProcesAansturing13zetProcesTypeENS_10ProcesTypeE,.-_ZN19DigProcesAansturing13zetProcesTypeENS_10ProcesTypeE
 169              	 .section .text._ZN19DigProcesAansturing11zetKommandoENS_9ProcesCmdE,"ax",%progbits
 170              	 .align 1
 171              	 .global _ZN19DigProcesAansturing11zetKommandoENS_9ProcesCmdE
 172              	 .syntax unified
 173              	 .thumb
 174              	 .thumb_func
 175              	 .type _ZN19DigProcesAansturing11zetKommandoENS_9ProcesCmdE,%function
 176              	_ZN19DigProcesAansturing11zetKommandoENS_9ProcesCmdE:
 177              	.LFB264:
  25:C:\Users\niels\Documents\GitHub\DSP\software\STM32Basis\HAL\gemeenschappelijk\Third_Party\ESE_BSP\DigProcesAansturing\DigProcesAansturing.cpp **** 
  26:C:\Users\niels\Documents\GitHub\DSP\software\STM32Basis\HAL\gemeenschappelijk\Third_Party\ESE_BSP\DigProcesAansturing\DigProcesAansturing.cpp **** void DigProcesAansturing::zetKommando(const DigProcesAansturing::ProcesCmd cmd)
  27:C:\Users\niels\Documents\GitHub\DSP\software\STM32Basis\HAL\gemeenschappelijk\Third_Party\ESE_BSP\DigProcesAansturing\DigProcesAansturing.cpp **** {
 178              	 .loc 1 27 1
 179              	 .cfi_startproc
 180              	 
 181              	 
 182 0000 80B5     	 push {r7,lr}
 183              	 .cfi_def_cfa_offset 8
 184              	 .cfi_offset 7,-8
 185              	 .cfi_offset 14,-4
 186 0002 82B0     	 sub sp,sp,#8
 187              	 .cfi_def_cfa_offset 16
 188 0004 00AF     	 add r7,sp,#0
 189              	 .cfi_def_cfa_register 7
 190 0006 7860     	 str r0,[r7,#4]
 191 0008 0B46     	 mov r3,r1
 192 000a FB70     	 strb r3,[r7,#3]
  28:C:\Users\niels\Documents\GitHub\DSP\software\STM32Basis\HAL\gemeenschappelijk\Third_Party\ESE_BSP\DigProcesAansturing\DigProcesAansturing.cpp **** 	this->operator [] (0) = static_cast<UInt8>(cmd);
 193              	 .loc 1 28 22
 194 000c 7B68     	 ldr r3,[r7,#4]
 195 000e 0021     	 movs r1,#0
 196 0010 1846     	 mov r0,r3
 197 0012 FFF7FEFF 	 bl _ZNK10DataPakketIhEixEm
 198 0016 0246     	 mov r2,r0
 199              	 .loc 1 28 24
 200 0018 FB78     	 ldrb r3,[r7,#3]
ARM GAS   			page 5


 201 001a 1370     	 strb r3,[r2]
  29:C:\Users\niels\Documents\GitHub\DSP\software\STM32Basis\HAL\gemeenschappelijk\Third_Party\ESE_BSP\DigProcesAansturing\DigProcesAansturing.cpp **** }
 202              	 .loc 1 29 1
 203 001c 00BF     	 nop
 204 001e 0837     	 adds r7,r7,#8
 205              	 .cfi_def_cfa_offset 8
 206 0020 BD46     	 mov sp,r7
 207              	 .cfi_def_cfa_register 13
 208              	 
 209 0022 80BD     	 pop {r7,pc}
 210              	 .cfi_endproc
 211              	.LFE264:
 212              	 .size _ZN19DigProcesAansturing11zetKommandoENS_9ProcesCmdE,.-_ZN19DigProcesAansturing11zetKommandoENS_9ProcesCmdE
 213              	 .section .text._ZN19DigProcesAansturing11zetSampFreqEm,"ax",%progbits
 214              	 .align 1
 215              	 .global _ZN19DigProcesAansturing11zetSampFreqEm
 216              	 .syntax unified
 217              	 .thumb
 218              	 .thumb_func
 219              	 .type _ZN19DigProcesAansturing11zetSampFreqEm,%function
 220              	_ZN19DigProcesAansturing11zetSampFreqEm:
 221              	.LFB265:
  30:C:\Users\niels\Documents\GitHub\DSP\software\STM32Basis\HAL\gemeenschappelijk\Third_Party\ESE_BSP\DigProcesAansturing\DigProcesAansturing.cpp **** 
  31:C:\Users\niels\Documents\GitHub\DSP\software\STM32Basis\HAL\gemeenschappelijk\Third_Party\ESE_BSP\DigProcesAansturing\DigProcesAansturing.cpp **** void DigProcesAansturing::zetSampFreq(const UInt32 freq)
  32:C:\Users\niels\Documents\GitHub\DSP\software\STM32Basis\HAL\gemeenschappelijk\Third_Party\ESE_BSP\DigProcesAansturing\DigProcesAansturing.cpp **** {
 222              	 .loc 1 32 1
 223              	 .cfi_startproc
 224              	 
 225              	 
 226 0000 80B5     	 push {r7,lr}
 227              	 .cfi_def_cfa_offset 8
 228              	 .cfi_offset 7,-8
 229              	 .cfi_offset 14,-4
 230 0002 84B0     	 sub sp,sp,#16
 231              	 .cfi_def_cfa_offset 24
 232 0004 00AF     	 add r7,sp,#0
 233              	 .cfi_def_cfa_register 7
 234 0006 7860     	 str r0,[r7,#4]
 235 0008 3960     	 str r1,[r7]
  33:C:\Users\niels\Documents\GitHub\DSP\software\STM32Basis\HAL\gemeenschappelijk\Third_Party\ESE_BSP\DigProcesAansturing\DigProcesAansturing.cpp **** 	zetKommando(ProcesCmd::ZetSampFreq);
 236              	 .loc 1 33 13
 237 000a 0221     	 movs r1,#2
 238 000c 7868     	 ldr r0,[r7,#4]
 239 000e FFF7FEFF 	 bl _ZN19DigProcesAansturing11zetKommandoENS_9ProcesCmdE
  34:C:\Users\niels\Documents\GitHub\DSP\software\STM32Basis\HAL\gemeenschappelijk\Third_Party\ESE_BSP\DigProcesAansturing\DigProcesAansturing.cpp **** 
  35:C:\Users\niels\Documents\GitHub\DSP\software\STM32Basis\HAL\gemeenschappelijk\Third_Party\ESE_BSP\DigProcesAansturing\DigProcesAansturing.cpp **** 	/* kopieer de parameter naar de array */
  36:C:\Users\niels\Documents\GitHub\DSP\software\STM32Basis\HAL\gemeenschappelijk\Third_Party\ESE_BSP\DigProcesAansturing\DigProcesAansturing.cpp **** 	UInt8 * const dstPtr = &(this->operator [] (1));
 240              	 .loc 1 36 47
 241 0012 7B68     	 ldr r3,[r7,#4]
 242 0014 0121     	 movs r1,#1
 243 0016 1846     	 mov r0,r3
 244 0018 FFF7FEFF 	 bl _ZNK10DataPakketIhEixEm
 245 001c F860     	 str r0,[r7,#12]
  37:C:\Users\niels\Documents\GitHub\DSP\software\STM32Basis\HAL\gemeenschappelijk\Third_Party\ESE_BSP\DigProcesAansturing\DigProcesAansturing.cpp **** 	memcpy(dstPtr, reinterpret_cast<UInt8 *>(const_cast<UInt32 *>(&freq)),sizeof(UInt32));
 246              	 .loc 1 37 8
 247 001e 3B46     	 mov r3,r7
 248 0020 0422     	 movs r2,#4
ARM GAS   			page 6


 249 0022 1946     	 mov r1,r3
 250 0024 F868     	 ldr r0,[r7,#12]
 251 0026 FFF7FEFF 	 bl memcpy
  38:C:\Users\niels\Documents\GitHub\DSP\software\STM32Basis\HAL\gemeenschappelijk\Third_Party\ESE_BSP\DigProcesAansturing\DigProcesAansturing.cpp **** }
 252              	 .loc 1 38 1
 253 002a 00BF     	 nop
 254 002c 1037     	 adds r7,r7,#16
 255              	 .cfi_def_cfa_offset 8
 256 002e BD46     	 mov sp,r7
 257              	 .cfi_def_cfa_register 13
 258              	 
 259 0030 80BD     	 pop {r7,pc}
 260              	 .cfi_endproc
 261              	.LFE265:
 262              	 .size _ZN19DigProcesAansturing11zetSampFreqEm,.-_ZN19DigProcesAansturing11zetSampFreqEm
 263              	 .section .text._ZN19DigProcesAansturing18zetNuldeOrdeParamsEf,"ax",%progbits
 264              	 .align 1
 265              	 .global _ZN19DigProcesAansturing18zetNuldeOrdeParamsEf
 266              	 .syntax unified
 267              	 .thumb
 268              	 .thumb_func
 269              	 .type _ZN19DigProcesAansturing18zetNuldeOrdeParamsEf,%function
 270              	_ZN19DigProcesAansturing18zetNuldeOrdeParamsEf:
 271              	.LFB266:
  39:C:\Users\niels\Documents\GitHub\DSP\software\STM32Basis\HAL\gemeenschappelijk\Third_Party\ESE_BSP\DigProcesAansturing\DigProcesAansturing.cpp **** 
  40:C:\Users\niels\Documents\GitHub\DSP\software\STM32Basis\HAL\gemeenschappelijk\Third_Party\ESE_BSP\DigProcesAansturing\DigProcesAansturing.cpp **** void DigProcesAansturing::zetNuldeOrdeParams(const float param)
  41:C:\Users\niels\Documents\GitHub\DSP\software\STM32Basis\HAL\gemeenschappelijk\Third_Party\ESE_BSP\DigProcesAansturing\DigProcesAansturing.cpp **** {
 272              	 .loc 1 41 1
 273              	 .cfi_startproc
 274              	 
 275              	 
 276 0000 80B5     	 push {r7,lr}
 277              	 .cfi_def_cfa_offset 8
 278              	 .cfi_offset 7,-8
 279              	 .cfi_offset 14,-4
 280 0002 84B0     	 sub sp,sp,#16
 281              	 .cfi_def_cfa_offset 24
 282 0004 00AF     	 add r7,sp,#0
 283              	 .cfi_def_cfa_register 7
 284 0006 7860     	 str r0,[r7,#4]
 285 0008 87ED000A 	 vstr.32 s0,[r7]
  42:C:\Users\niels\Documents\GitHub\DSP\software\STM32Basis\HAL\gemeenschappelijk\Third_Party\ESE_BSP\DigProcesAansturing\DigProcesAansturing.cpp **** 	zetKommando(ProcesCmd::ZetNuldeOrdeParams);
 286              	 .loc 1 42 13
 287 000c 0321     	 movs r1,#3
 288 000e 7868     	 ldr r0,[r7,#4]
 289 0010 FFF7FEFF 	 bl _ZN19DigProcesAansturing11zetKommandoENS_9ProcesCmdE
  43:C:\Users\niels\Documents\GitHub\DSP\software\STM32Basis\HAL\gemeenschappelijk\Third_Party\ESE_BSP\DigProcesAansturing\DigProcesAansturing.cpp **** 
  44:C:\Users\niels\Documents\GitHub\DSP\software\STM32Basis\HAL\gemeenschappelijk\Third_Party\ESE_BSP\DigProcesAansturing\DigProcesAansturing.cpp **** 	/* kopieer de parameter naar de array */
  45:C:\Users\niels\Documents\GitHub\DSP\software\STM32Basis\HAL\gemeenschappelijk\Third_Party\ESE_BSP\DigProcesAansturing\DigProcesAansturing.cpp **** 	UInt8 * const dstPtr = &(this->operator [] (1));
 290              	 .loc 1 45 47
 291 0014 7B68     	 ldr r3,[r7,#4]
 292 0016 0121     	 movs r1,#1
 293 0018 1846     	 mov r0,r3
 294 001a FFF7FEFF 	 bl _ZNK10DataPakketIhEixEm
 295 001e F860     	 str r0,[r7,#12]
  46:C:\Users\niels\Documents\GitHub\DSP\software\STM32Basis\HAL\gemeenschappelijk\Third_Party\ESE_BSP\DigProcesAansturing\DigProcesAansturing.cpp **** 	memcpy(dstPtr, reinterpret_cast<UInt8 *>(const_cast<float *>(&param)),sizeof(float));
 296              	 .loc 1 46 8
ARM GAS   			page 7


 297 0020 3B46     	 mov r3,r7
 298 0022 0422     	 movs r2,#4
 299 0024 1946     	 mov r1,r3
 300 0026 F868     	 ldr r0,[r7,#12]
 301 0028 FFF7FEFF 	 bl memcpy
  47:C:\Users\niels\Documents\GitHub\DSP\software\STM32Basis\HAL\gemeenschappelijk\Third_Party\ESE_BSP\DigProcesAansturing\DigProcesAansturing.cpp **** }
 302              	 .loc 1 47 1
 303 002c 00BF     	 nop
 304 002e 1037     	 adds r7,r7,#16
 305              	 .cfi_def_cfa_offset 8
 306 0030 BD46     	 mov sp,r7
 307              	 .cfi_def_cfa_register 13
 308              	 
 309 0032 80BD     	 pop {r7,pc}
 310              	 .cfi_endproc
 311              	.LFE266:
 312              	 .size _ZN19DigProcesAansturing18zetNuldeOrdeParamsEf,.-_ZN19DigProcesAansturing18zetNuldeOrdeParamsEf
 313              	 .section .text._ZN19DigProcesAansturing19zetEersteOrdeParamsEff,"ax",%progbits
 314              	 .align 1
 315              	 .global _ZN19DigProcesAansturing19zetEersteOrdeParamsEff
 316              	 .syntax unified
 317              	 .thumb
 318              	 .thumb_func
 319              	 .type _ZN19DigProcesAansturing19zetEersteOrdeParamsEff,%function
 320              	_ZN19DigProcesAansturing19zetEersteOrdeParamsEff:
 321              	.LFB267:
  48:C:\Users\niels\Documents\GitHub\DSP\software\STM32Basis\HAL\gemeenschappelijk\Third_Party\ESE_BSP\DigProcesAansturing\DigProcesAansturing.cpp **** 
  49:C:\Users\niels\Documents\GitHub\DSP\software\STM32Basis\HAL\gemeenschappelijk\Third_Party\ESE_BSP\DigProcesAansturing\DigProcesAansturing.cpp **** void DigProcesAansturing::zetEersteOrdeParams(const float kpparam, const float tauparam)
  50:C:\Users\niels\Documents\GitHub\DSP\software\STM32Basis\HAL\gemeenschappelijk\Third_Party\ESE_BSP\DigProcesAansturing\DigProcesAansturing.cpp **** {
 322              	 .loc 1 50 1
 323              	 .cfi_startproc
 324              	 
 325              	 
 326 0000 80B5     	 push {r7,lr}
 327              	 .cfi_def_cfa_offset 8
 328              	 .cfi_offset 7,-8
 329              	 .cfi_offset 14,-4
 330 0002 86B0     	 sub sp,sp,#24
 331              	 .cfi_def_cfa_offset 32
 332 0004 00AF     	 add r7,sp,#0
 333              	 .cfi_def_cfa_register 7
 334 0006 F860     	 str r0,[r7,#12]
 335 0008 87ED020A 	 vstr.32 s0,[r7,#8]
 336 000c C7ED010A 	 vstr.32 s1,[r7,#4]
  51:C:\Users\niels\Documents\GitHub\DSP\software\STM32Basis\HAL\gemeenschappelijk\Third_Party\ESE_BSP\DigProcesAansturing\DigProcesAansturing.cpp **** 	zetKommando(ProcesCmd::ZetEersteOrdeParams);
 337              	 .loc 1 51 13
 338 0010 0421     	 movs r1,#4
 339 0012 F868     	 ldr r0,[r7,#12]
 340 0014 FFF7FEFF 	 bl _ZN19DigProcesAansturing11zetKommandoENS_9ProcesCmdE
  52:C:\Users\niels\Documents\GitHub\DSP\software\STM32Basis\HAL\gemeenschappelijk\Third_Party\ESE_BSP\DigProcesAansturing\DigProcesAansturing.cpp **** 
  53:C:\Users\niels\Documents\GitHub\DSP\software\STM32Basis\HAL\gemeenschappelijk\Third_Party\ESE_BSP\DigProcesAansturing\DigProcesAansturing.cpp **** 	/* kopieer de paramaters naar de array */
  54:C:\Users\niels\Documents\GitHub\DSP\software\STM32Basis\HAL\gemeenschappelijk\Third_Party\ESE_BSP\DigProcesAansturing\DigProcesAansturing.cpp **** 	UInt8 *dstPtr = &(this->operator [] (1));
 341              	 .loc 1 54 40
 342 0018 FB68     	 ldr r3,[r7,#12]
 343 001a 0121     	 movs r1,#1
 344 001c 1846     	 mov r0,r3
 345 001e FFF7FEFF 	 bl _ZNK10DataPakketIhEixEm
ARM GAS   			page 8


 346 0022 7861     	 str r0,[r7,#20]
  55:C:\Users\niels\Documents\GitHub\DSP\software\STM32Basis\HAL\gemeenschappelijk\Third_Party\ESE_BSP\DigProcesAansturing\DigProcesAansturing.cpp **** 	memcpy(dstPtr, reinterpret_cast<UInt8 *>(const_cast<float *>(&kpparam)),sizeof(float));
 347              	 .loc 1 55 8
 348 0024 07F10803 	 add r3,r7,#8
 349 0028 0422     	 movs r2,#4
 350 002a 1946     	 mov r1,r3
 351 002c 7869     	 ldr r0,[r7,#20]
 352 002e FFF7FEFF 	 bl memcpy
  56:C:\Users\niels\Documents\GitHub\DSP\software\STM32Basis\HAL\gemeenschappelijk\Third_Party\ESE_BSP\DigProcesAansturing\DigProcesAansturing.cpp **** 	dstPtr += sizeof(float);
 353              	 .loc 1 56 9
 354 0032 7B69     	 ldr r3,[r7,#20]
 355 0034 0433     	 adds r3,r3,#4
 356 0036 7B61     	 str r3,[r7,#20]
  57:C:\Users\niels\Documents\GitHub\DSP\software\STM32Basis\HAL\gemeenschappelijk\Third_Party\ESE_BSP\DigProcesAansturing\DigProcesAansturing.cpp **** 	memcpy(dstPtr, reinterpret_cast<UInt8 *>(const_cast<float *>(&tauparam)),sizeof(float));
 357              	 .loc 1 57 8
 358 0038 3B1D     	 adds r3,r7,#4
 359 003a 0422     	 movs r2,#4
 360 003c 1946     	 mov r1,r3
 361 003e 7869     	 ldr r0,[r7,#20]
 362 0040 FFF7FEFF 	 bl memcpy
  58:C:\Users\niels\Documents\GitHub\DSP\software\STM32Basis\HAL\gemeenschappelijk\Third_Party\ESE_BSP\DigProcesAansturing\DigProcesAansturing.cpp **** }
 363              	 .loc 1 58 1
 364 0044 00BF     	 nop
 365 0046 1837     	 adds r7,r7,#24
 366              	 .cfi_def_cfa_offset 8
 367 0048 BD46     	 mov sp,r7
 368              	 .cfi_def_cfa_register 13
 369              	 
 370 004a 80BD     	 pop {r7,pc}
 371              	 .cfi_endproc
 372              	.LFE267:
 373              	 .size _ZN19DigProcesAansturing19zetEersteOrdeParamsEff,.-_ZN19DigProcesAansturing19zetEersteOrdeParamsEff
 374              	 .section .text._ZN19DigProcesAansturing19zetTweedeOrdeParamsEfff,"ax",%progbits
 375              	 .align 1
 376              	 .global _ZN19DigProcesAansturing19zetTweedeOrdeParamsEfff
 377              	 .syntax unified
 378              	 .thumb
 379              	 .thumb_func
 380              	 .type _ZN19DigProcesAansturing19zetTweedeOrdeParamsEfff,%function
 381              	_ZN19DigProcesAansturing19zetTweedeOrdeParamsEfff:
 382              	.LFB268:
  59:C:\Users\niels\Documents\GitHub\DSP\software\STM32Basis\HAL\gemeenschappelijk\Third_Party\ESE_BSP\DigProcesAansturing\DigProcesAansturing.cpp **** 
  60:C:\Users\niels\Documents\GitHub\DSP\software\STM32Basis\HAL\gemeenschappelijk\Third_Party\ESE_BSP\DigProcesAansturing\DigProcesAansturing.cpp **** void DigProcesAansturing::zetTweedeOrdeParams(const float kpparam, const float omega0param, const f
  61:C:\Users\niels\Documents\GitHub\DSP\software\STM32Basis\HAL\gemeenschappelijk\Third_Party\ESE_BSP\DigProcesAansturing\DigProcesAansturing.cpp **** {
 383              	 .loc 1 61 1
 384              	 .cfi_startproc
 385              	 
 386              	 
 387 0000 80B5     	 push {r7,lr}
 388              	 .cfi_def_cfa_offset 8
 389              	 .cfi_offset 7,-8
 390              	 .cfi_offset 14,-4
 391 0002 86B0     	 sub sp,sp,#24
 392              	 .cfi_def_cfa_offset 32
 393 0004 00AF     	 add r7,sp,#0
 394              	 .cfi_def_cfa_register 7
 395 0006 F860     	 str r0,[r7,#12]
ARM GAS   			page 9


 396 0008 87ED020A 	 vstr.32 s0,[r7,#8]
 397 000c C7ED010A 	 vstr.32 s1,[r7,#4]
 398 0010 87ED001A 	 vstr.32 s2,[r7]
  62:C:\Users\niels\Documents\GitHub\DSP\software\STM32Basis\HAL\gemeenschappelijk\Third_Party\ESE_BSP\DigProcesAansturing\DigProcesAansturing.cpp **** 	zetKommando(ProcesCmd::ZetTweedeOrdeParams);
 399              	 .loc 1 62 13
 400 0014 0521     	 movs r1,#5
 401 0016 F868     	 ldr r0,[r7,#12]
 402 0018 FFF7FEFF 	 bl _ZN19DigProcesAansturing11zetKommandoENS_9ProcesCmdE
  63:C:\Users\niels\Documents\GitHub\DSP\software\STM32Basis\HAL\gemeenschappelijk\Third_Party\ESE_BSP\DigProcesAansturing\DigProcesAansturing.cpp **** 
  64:C:\Users\niels\Documents\GitHub\DSP\software\STM32Basis\HAL\gemeenschappelijk\Third_Party\ESE_BSP\DigProcesAansturing\DigProcesAansturing.cpp **** 	/* kopieer de paramaters naar de array */
  65:C:\Users\niels\Documents\GitHub\DSP\software\STM32Basis\HAL\gemeenschappelijk\Third_Party\ESE_BSP\DigProcesAansturing\DigProcesAansturing.cpp **** 	UInt8 *dstPtr = &(this->operator [] (1));
 403              	 .loc 1 65 40
 404 001c FB68     	 ldr r3,[r7,#12]
 405 001e 0121     	 movs r1,#1
 406 0020 1846     	 mov r0,r3
 407 0022 FFF7FEFF 	 bl _ZNK10DataPakketIhEixEm
 408 0026 7861     	 str r0,[r7,#20]
  66:C:\Users\niels\Documents\GitHub\DSP\software\STM32Basis\HAL\gemeenschappelijk\Third_Party\ESE_BSP\DigProcesAansturing\DigProcesAansturing.cpp **** 	memcpy(dstPtr, reinterpret_cast<UInt8 *>(const_cast<float *>(&kpparam)),sizeof(float));
 409              	 .loc 1 66 8
 410 0028 07F10803 	 add r3,r7,#8
 411 002c 0422     	 movs r2,#4
 412 002e 1946     	 mov r1,r3
 413 0030 7869     	 ldr r0,[r7,#20]
 414 0032 FFF7FEFF 	 bl memcpy
  67:C:\Users\niels\Documents\GitHub\DSP\software\STM32Basis\HAL\gemeenschappelijk\Third_Party\ESE_BSP\DigProcesAansturing\DigProcesAansturing.cpp **** 	dstPtr += sizeof(float);
 415              	 .loc 1 67 9
 416 0036 7B69     	 ldr r3,[r7,#20]
 417 0038 0433     	 adds r3,r3,#4
 418 003a 7B61     	 str r3,[r7,#20]
  68:C:\Users\niels\Documents\GitHub\DSP\software\STM32Basis\HAL\gemeenschappelijk\Third_Party\ESE_BSP\DigProcesAansturing\DigProcesAansturing.cpp **** 	memcpy(dstPtr, reinterpret_cast<UInt8 *>(const_cast<float *>(&omega0param)),sizeof(float));
 419              	 .loc 1 68 8
 420 003c 3B1D     	 adds r3,r7,#4
 421 003e 0422     	 movs r2,#4
 422 0040 1946     	 mov r1,r3
 423 0042 7869     	 ldr r0,[r7,#20]
 424 0044 FFF7FEFF 	 bl memcpy
  69:C:\Users\niels\Documents\GitHub\DSP\software\STM32Basis\HAL\gemeenschappelijk\Third_Party\ESE_BSP\DigProcesAansturing\DigProcesAansturing.cpp **** 	dstPtr += sizeof(float);
 425              	 .loc 1 69 9
 426 0048 7B69     	 ldr r3,[r7,#20]
 427 004a 0433     	 adds r3,r3,#4
 428 004c 7B61     	 str r3,[r7,#20]
  70:C:\Users\niels\Documents\GitHub\DSP\software\STM32Basis\HAL\gemeenschappelijk\Third_Party\ESE_BSP\DigProcesAansturing\DigProcesAansturing.cpp **** 	memcpy(dstPtr, reinterpret_cast<UInt8 *>(const_cast<float *>(&betaparam)),sizeof(float));
 429              	 .loc 1 70 8
 430 004e 3B46     	 mov r3,r7
 431 0050 0422     	 movs r2,#4
 432 0052 1946     	 mov r1,r3
 433 0054 7869     	 ldr r0,[r7,#20]
 434 0056 FFF7FEFF 	 bl memcpy
  71:C:\Users\niels\Documents\GitHub\DSP\software\STM32Basis\HAL\gemeenschappelijk\Third_Party\ESE_BSP\DigProcesAansturing\DigProcesAansturing.cpp **** }
 435              	 .loc 1 71 1
 436 005a 00BF     	 nop
 437 005c 1837     	 adds r7,r7,#24
 438              	 .cfi_def_cfa_offset 8
 439 005e BD46     	 mov sp,r7
 440              	 .cfi_def_cfa_register 13
 441              	 
 442 0060 80BD     	 pop {r7,pc}
ARM GAS   			page 10


 443              	 .cfi_endproc
 444              	.LFE268:
 445              	 .size _ZN19DigProcesAansturing19zetTweedeOrdeParamsEfff,.-_ZN19DigProcesAansturing19zetTweedeOrdeParamsEfff
 446              	 .section .text._ZN19DigProcesAansturing19zetCustomOverdrachtERK10DataPakketIfE,"ax",%progbits
 447              	 .align 1
 448              	 .global _ZN19DigProcesAansturing19zetCustomOverdrachtERK10DataPakketIfE
 449              	 .syntax unified
 450              	 .thumb
 451              	 .thumb_func
 452              	 .type _ZN19DigProcesAansturing19zetCustomOverdrachtERK10DataPakketIfE,%function
 453              	_ZN19DigProcesAansturing19zetCustomOverdrachtERK10DataPakketIfE:
 454              	.LFB269:
  72:C:\Users\niels\Documents\GitHub\DSP\software\STM32Basis\HAL\gemeenschappelijk\Third_Party\ESE_BSP\DigProcesAansturing\DigProcesAansturing.cpp **** 
  73:C:\Users\niels\Documents\GitHub\DSP\software\STM32Basis\HAL\gemeenschappelijk\Third_Party\ESE_BSP\DigProcesAansturing\DigProcesAansturing.cpp **** void DigProcesAansturing::zetCustomOverdracht(const DataPakket<float> &custom)
  74:C:\Users\niels\Documents\GitHub\DSP\software\STM32Basis\HAL\gemeenschappelijk\Third_Party\ESE_BSP\DigProcesAansturing\DigProcesAansturing.cpp **** {
 455              	 .loc 1 74 1
 456              	 .cfi_startproc
 457              	 
 458              	 
 459 0000 80B5     	 push {r7,lr}
 460              	 .cfi_def_cfa_offset 8
 461              	 .cfi_offset 7,-8
 462              	 .cfi_offset 14,-4
 463 0002 86B0     	 sub sp,sp,#24
 464              	 .cfi_def_cfa_offset 32
 465 0004 00AF     	 add r7,sp,#0
 466              	 .cfi_def_cfa_register 7
 467 0006 7860     	 str r0,[r7,#4]
 468 0008 3960     	 str r1,[r7]
  75:C:\Users\niels\Documents\GitHub\DSP\software\STM32Basis\HAL\gemeenschappelijk\Third_Party\ESE_BSP\DigProcesAansturing\DigProcesAansturing.cpp **** 	zetKommando(ProcesCmd::ZetCustomOverdrachtFunktie);
 469              	 .loc 1 75 13
 470 000a 0721     	 movs r1,#7
 471 000c 7868     	 ldr r0,[r7,#4]
 472 000e FFF7FEFF 	 bl _ZN19DigProcesAansturing11zetKommandoENS_9ProcesCmdE
  76:C:\Users\niels\Documents\GitHub\DSP\software\STM32Basis\HAL\gemeenschappelijk\Third_Party\ESE_BSP\DigProcesAansturing\DigProcesAansturing.cpp **** 
  77:C:\Users\niels\Documents\GitHub\DSP\software\STM32Basis\HAL\gemeenschappelijk\Third_Party\ESE_BSP\DigProcesAansturing\DigProcesAansturing.cpp **** 	const UInt16 customgrootte = static_cast<UInt16>(custom.geefGrootte());
 473              	 .loc 1 77 69
 474 0012 3868     	 ldr r0,[r7]
 475 0014 FFF7FEFF 	 bl _ZNK10DataPakketIfE11geefGrootteEv
 476 0018 0346     	 mov r3,r0
 477              	 .loc 1 77 71
 478 001a 9BB2     	 uxth r3,r3
 479 001c FB81     	 strh r3,[r7,#14]
  78:C:\Users\niels\Documents\GitHub\DSP\software\STM32Basis\HAL\gemeenschappelijk\Third_Party\ESE_BSP\DigProcesAansturing\DigProcesAansturing.cpp **** 
  79:C:\Users\niels\Documents\GitHub\DSP\software\STM32Basis\HAL\gemeenschappelijk\Third_Party\ESE_BSP\DigProcesAansturing\DigProcesAansturing.cpp **** 	UInt8 *dstPtr = &(this->operator [] (1));
 480              	 .loc 1 79 40
 481 001e 7B68     	 ldr r3,[r7,#4]
 482 0020 0121     	 movs r1,#1
 483 0022 1846     	 mov r0,r3
 484 0024 FFF7FEFF 	 bl _ZNK10DataPakketIhEixEm
 485 0028 7861     	 str r0,[r7,#20]
  80:C:\Users\niels\Documents\GitHub\DSP\software\STM32Basis\HAL\gemeenschappelijk\Third_Party\ESE_BSP\DigProcesAansturing\DigProcesAansturing.cpp **** 	memcpy(dstPtr, reinterpret_cast<UInt8 *>(const_cast<UInt16 *>(&customgrootte)),sizeof(UInt16));
 486              	 .loc 1 80 8
 487 002a 07F10E03 	 add r3,r7,#14
 488 002e 0222     	 movs r2,#2
 489 0030 1946     	 mov r1,r3
 490 0032 7869     	 ldr r0,[r7,#20]
ARM GAS   			page 11


 491 0034 FFF7FEFF 	 bl memcpy
  81:C:\Users\niels\Documents\GitHub\DSP\software\STM32Basis\HAL\gemeenschappelijk\Third_Party\ESE_BSP\DigProcesAansturing\DigProcesAansturing.cpp **** 	dstPtr =  &(this->operator [] (cmdLengte));
 492              	 .loc 1 81 42
 493 0038 7B68     	 ldr r3,[r7,#4]
 494 003a 0E21     	 movs r1,#14
 495 003c 1846     	 mov r0,r3
 496 003e FFF7FEFF 	 bl _ZNK10DataPakketIhEixEm
 497 0042 7861     	 str r0,[r7,#20]
  82:C:\Users\niels\Documents\GitHub\DSP\software\STM32Basis\HAL\gemeenschappelijk\Third_Party\ESE_BSP\DigProcesAansturing\DigProcesAansturing.cpp **** 	UInt8 * const srcPtr = reinterpret_cast<UInt8 *>(const_cast<float *>(&(custom[0])));
 498              	 .loc 1 82 81
 499 0044 0021     	 movs r1,#0
 500 0046 3868     	 ldr r0,[r7]
 501 0048 FFF7FEFF 	 bl _ZNK10DataPakketIfEixEm
 502 004c 3861     	 str r0,[r7,#16]
  83:C:\Users\niels\Documents\GitHub\DSP\software\STM32Basis\HAL\gemeenschappelijk\Third_Party\ESE_BSP\DigProcesAansturing\DigProcesAansturing.cpp **** 
  84:C:\Users\niels\Documents\GitHub\DSP\software\STM32Basis\HAL\gemeenschappelijk\Third_Party\ESE_BSP\DigProcesAansturing\DigProcesAansturing.cpp **** 	memcpy(dstPtr, srcPtr, customgrootte*sizeof(float));
 503              	 .loc 1 84 25
 504 004e FB89     	 ldrh r3,[r7,#14]
 505              	 .loc 1 84 8
 506 0050 9B00     	 lsls r3,r3,#2
 507 0052 1A46     	 mov r2,r3
 508 0054 3969     	 ldr r1,[r7,#16]
 509 0056 7869     	 ldr r0,[r7,#20]
 510 0058 FFF7FEFF 	 bl memcpy
  85:C:\Users\niels\Documents\GitHub\DSP\software\STM32Basis\HAL\gemeenschappelijk\Third_Party\ESE_BSP\DigProcesAansturing\DigProcesAansturing.cpp **** }
 511              	 .loc 1 85 1
 512 005c 00BF     	 nop
 513 005e 1837     	 adds r7,r7,#24
 514              	 .cfi_def_cfa_offset 8
 515 0060 BD46     	 mov sp,r7
 516              	 .cfi_def_cfa_register 13
 517              	 
 518 0062 80BD     	 pop {r7,pc}
 519              	 .cfi_endproc
 520              	.LFE269:
 521              	 .size _ZN19DigProcesAansturing19zetCustomOverdrachtERK10DataPakketIfE,.-_ZN19DigProcesAansturing19zetCustomOverdrachtERK10DataPakketIfE
 522              	 .section .text._ZNK19DigProcesAansturing18maakCommandoPakketEv,"ax",%progbits
 523              	 .align 1
 524              	 .global _ZNK19DigProcesAansturing18maakCommandoPakketEv
 525              	 .syntax unified
 526              	 .thumb
 527              	 .thumb_func
 528              	 .type _ZNK19DigProcesAansturing18maakCommandoPakketEv,%function
 529              	_ZNK19DigProcesAansturing18maakCommandoPakketEv:
 530              	.LFB270:
  86:C:\Users\niels\Documents\GitHub\DSP\software\STM32Basis\HAL\gemeenschappelijk\Third_Party\ESE_BSP\DigProcesAansturing\DigProcesAansturing.cpp **** 
  87:C:\Users\niels\Documents\GitHub\DSP\software\STM32Basis\HAL\gemeenschappelijk\Third_Party\ESE_BSP\DigProcesAansturing\DigProcesAansturing.cpp **** DataPakket<UInt8> DigProcesAansturing::maakCommandoPakket() const
  88:C:\Users\niels\Documents\GitHub\DSP\software\STM32Basis\HAL\gemeenschappelijk\Third_Party\ESE_BSP\DigProcesAansturing\DigProcesAansturing.cpp **** {
 531              	 .loc 1 88 1
 532              	 .cfi_startproc
 533              	 
 534              	 
 535 0000 80B5     	 push {r7,lr}
 536              	 .cfi_def_cfa_offset 8
 537              	 .cfi_offset 7,-8
 538              	 .cfi_offset 14,-4
 539 0002 84B0     	 sub sp,sp,#16
ARM GAS   			page 12


 540              	 .cfi_def_cfa_offset 24
 541 0004 00AF     	 add r7,sp,#0
 542              	 .cfi_def_cfa_register 7
 543 0006 7860     	 str r0,[r7,#4]
 544 0008 3960     	 str r1,[r7]
  89:C:\Users\niels\Documents\GitHub\DSP\software\STM32Basis\HAL\gemeenschappelijk\Third_Party\ESE_BSP\DigProcesAansturing\DigProcesAansturing.cpp **** 	const DataPakket<UInt8> pakje(&(this->operator [] (0)),cmdLengte);
 545              	 .loc 1 89 54
 546 000a 3B68     	 ldr r3,[r7]
 547 000c 0021     	 movs r1,#0
 548 000e 1846     	 mov r0,r3
 549 0010 FFF7FEFF 	 bl _ZNK10DataPakketIhEixEm
 550 0014 0146     	 mov r1,r0
 551              	 .loc 1 89 66
 552 0016 07F10803 	 add r3,r7,#8
 553 001a 0E22     	 movs r2,#14
 554 001c 1846     	 mov r0,r3
 555 001e FFF7FEFF 	 bl _ZN10DataPakketIhEC1EPhm
  90:C:\Users\niels\Documents\GitHub\DSP\software\STM32Basis\HAL\gemeenschappelijk\Third_Party\ESE_BSP\DigProcesAansturing\DigProcesAansturing.cpp **** 	return(pakje);
 556              	 .loc 1 90 14
 557 0022 7B68     	 ldr r3,[r7,#4]
 558 0024 1A46     	 mov r2,r3
 559 0026 07F10803 	 add r3,r7,#8
 560 002a 93E80300 	 ldm r3,{r0,r1}
 561 002e 82E80300 	 stm r2,{r0,r1}
  91:C:\Users\niels\Documents\GitHub\DSP\software\STM32Basis\HAL\gemeenschappelijk\Third_Party\ESE_BSP\DigProcesAansturing\DigProcesAansturing.cpp **** }
 562              	 .loc 1 91 1
 563 0032 7868     	 ldr r0,[r7,#4]
 564 0034 1037     	 adds r7,r7,#16
 565              	 .cfi_def_cfa_offset 8
 566 0036 BD46     	 mov sp,r7
 567              	 .cfi_def_cfa_register 13
 568              	 
 569 0038 80BD     	 pop {r7,pc}
 570              	 .cfi_endproc
 571              	.LFE270:
 572              	 .size _ZNK19DigProcesAansturing18maakCommandoPakketEv,.-_ZNK19DigProcesAansturing18maakCommandoPakketEv
 573              	 .section .text._ZNK19DigProcesAansturing16maakCustomPakketEv,"ax",%progbits
 574              	 .align 1
 575              	 .global _ZNK19DigProcesAansturing16maakCustomPakketEv
 576              	 .syntax unified
 577              	 .thumb
 578              	 .thumb_func
 579              	 .type _ZNK19DigProcesAansturing16maakCustomPakketEv,%function
 580              	_ZNK19DigProcesAansturing16maakCustomPakketEv:
 581              	.LFB271:
  92:C:\Users\niels\Documents\GitHub\DSP\software\STM32Basis\HAL\gemeenschappelijk\Third_Party\ESE_BSP\DigProcesAansturing\DigProcesAansturing.cpp **** 
  93:C:\Users\niels\Documents\GitHub\DSP\software\STM32Basis\HAL\gemeenschappelijk\Third_Party\ESE_BSP\DigProcesAansturing\DigProcesAansturing.cpp **** DataPakket<UInt8> DigProcesAansturing::maakCustomPakket() const
  94:C:\Users\niels\Documents\GitHub\DSP\software\STM32Basis\HAL\gemeenschappelijk\Third_Party\ESE_BSP\DigProcesAansturing\DigProcesAansturing.cpp **** {
 582              	 .loc 1 94 1
 583              	 .cfi_startproc
 584              	 
 585              	 
 586 0000 80B5     	 push {r7,lr}
 587              	 .cfi_def_cfa_offset 8
 588              	 .cfi_offset 7,-8
 589              	 .cfi_offset 14,-4
 590 0002 84B0     	 sub sp,sp,#16
ARM GAS   			page 13


 591              	 .cfi_def_cfa_offset 24
 592 0004 00AF     	 add r7,sp,#0
 593              	 .cfi_def_cfa_register 7
 594 0006 7860     	 str r0,[r7,#4]
 595 0008 3960     	 str r1,[r7]
  95:C:\Users\niels\Documents\GitHub\DSP\software\STM32Basis\HAL\gemeenschappelijk\Third_Party\ESE_BSP\DigProcesAansturing\DigProcesAansturing.cpp **** 	const DataPakket<UInt8> pakje(&(this->operator [] (cmdLengte)),MaxOverdrachtFunktieGrootte);
 596              	 .loc 1 95 62
 597 000a 3B68     	 ldr r3,[r7]
 598 000c 0E21     	 movs r1,#14
 599 000e 1846     	 mov r0,r3
 600 0010 FFF7FEFF 	 bl _ZNK10DataPakketIhEixEm
 601 0014 0146     	 mov r1,r0
 602              	 .loc 1 95 92
 603 0016 07F10803 	 add r3,r7,#8
 604 001a 4FF40072 	 mov r2,#512
 605 001e 1846     	 mov r0,r3
 606 0020 FFF7FEFF 	 bl _ZN10DataPakketIhEC1EPhm
  96:C:\Users\niels\Documents\GitHub\DSP\software\STM32Basis\HAL\gemeenschappelijk\Third_Party\ESE_BSP\DigProcesAansturing\DigProcesAansturing.cpp **** 	return(pakje);
 607              	 .loc 1 96 14
 608 0024 7B68     	 ldr r3,[r7,#4]
 609 0026 1A46     	 mov r2,r3
 610 0028 07F10803 	 add r3,r7,#8
 611 002c 93E80300 	 ldm r3,{r0,r1}
 612 0030 82E80300 	 stm r2,{r0,r1}
  97:C:\Users\niels\Documents\GitHub\DSP\software\STM32Basis\HAL\gemeenschappelijk\Third_Party\ESE_BSP\DigProcesAansturing\DigProcesAansturing.cpp **** }
 613              	 .loc 1 97 1
 614 0034 7868     	 ldr r0,[r7,#4]
 615 0036 1037     	 adds r7,r7,#16
 616              	 .cfi_def_cfa_offset 8
 617 0038 BD46     	 mov sp,r7
 618              	 .cfi_def_cfa_register 13
 619              	 
 620 003a 80BD     	 pop {r7,pc}
 621              	 .cfi_endproc
 622              	.LFE271:
 623              	 .size _ZNK19DigProcesAansturing16maakCustomPakketEv,.-_ZNK19DigProcesAansturing16maakCustomPakketEv
 624              	 .section .text._ZNK19DigProcesAansturing20identificeerCommandoEv,"ax",%progbits
 625              	 .align 1
 626              	 .global _ZNK19DigProcesAansturing20identificeerCommandoEv
 627              	 .syntax unified
 628              	 .thumb
 629              	 .thumb_func
 630              	 .type _ZNK19DigProcesAansturing20identificeerCommandoEv,%function
 631              	_ZNK19DigProcesAansturing20identificeerCommandoEv:
 632              	.LFB272:
  98:C:\Users\niels\Documents\GitHub\DSP\software\STM32Basis\HAL\gemeenschappelijk\Third_Party\ESE_BSP\DigProcesAansturing\DigProcesAansturing.cpp **** 
  99:C:\Users\niels\Documents\GitHub\DSP\software\STM32Basis\HAL\gemeenschappelijk\Third_Party\ESE_BSP\DigProcesAansturing\DigProcesAansturing.cpp **** 
 100:C:\Users\niels\Documents\GitHub\DSP\software\STM32Basis\HAL\gemeenschappelijk\Third_Party\ESE_BSP\DigProcesAansturing\DigProcesAansturing.cpp **** DigProcesAansturing::ProcesCmd DigProcesAansturing::identificeerCommando() const
 101:C:\Users\niels\Documents\GitHub\DSP\software\STM32Basis\HAL\gemeenschappelijk\Third_Party\ESE_BSP\DigProcesAansturing\DigProcesAansturing.cpp **** {
 633              	 .loc 1 101 1
 634              	 .cfi_startproc
 635              	 
 636              	 
 637 0000 80B5     	 push {r7,lr}
 638              	 .cfi_def_cfa_offset 8
 639              	 .cfi_offset 7,-8
 640              	 .cfi_offset 14,-4
ARM GAS   			page 14


 641 0002 84B0     	 sub sp,sp,#16
 642              	 .cfi_def_cfa_offset 24
 643 0004 00AF     	 add r7,sp,#0
 644              	 .cfi_def_cfa_register 7
 645 0006 7860     	 str r0,[r7,#4]
 102:C:\Users\niels\Documents\GitHub\DSP\software\STM32Basis\HAL\gemeenschappelijk\Third_Party\ESE_BSP\DigProcesAansturing\DigProcesAansturing.cpp **** 	const auto cmd = static_cast<ProcesCmd>(this->operator [] (0));
 646              	 .loc 1 102 62
 647 0008 7B68     	 ldr r3,[r7,#4]
 648 000a 0021     	 movs r1,#0
 649 000c 1846     	 mov r0,r3
 650 000e FFF7FEFF 	 bl _ZNK10DataPakketIhEixEm
 651 0012 0346     	 mov r3,r0
 652              	 .loc 1 102 63
 653 0014 1B78     	 ldrb r3,[r3]
 654 0016 FB73     	 strb r3,[r7,#15]
 103:C:\Users\niels\Documents\GitHub\DSP\software\STM32Basis\HAL\gemeenschappelijk\Third_Party\ESE_BSP\DigProcesAansturing\DigProcesAansturing.cpp **** 
 104:C:\Users\niels\Documents\GitHub\DSP\software\STM32Basis\HAL\gemeenschappelijk\Third_Party\ESE_BSP\DigProcesAansturing\DigProcesAansturing.cpp **** 	return(cmd);
 655              	 .loc 1 104 12
 656 0018 FB7B     	 ldrb r3,[r7,#15]
 105:C:\Users\niels\Documents\GitHub\DSP\software\STM32Basis\HAL\gemeenschappelijk\Third_Party\ESE_BSP\DigProcesAansturing\DigProcesAansturing.cpp **** }
 657              	 .loc 1 105 1
 658 001a 1846     	 mov r0,r3
 659 001c 1037     	 adds r7,r7,#16
 660              	 .cfi_def_cfa_offset 8
 661 001e BD46     	 mov sp,r7
 662              	 .cfi_def_cfa_register 13
 663              	 
 664 0020 80BD     	 pop {r7,pc}
 665              	 .cfi_endproc
 666              	.LFE272:
 667              	 .size _ZNK19DigProcesAansturing20identificeerCommandoEv,.-_ZNK19DigProcesAansturing20identificeerCommandoEv
 668              	 .section .rodata
 669              	 .align 2
 670              	.LC0:
 671 0000 28696465 	 .ascii "(identificeerCommando() == ProcesCmd::ZetSampFreq)\000"
 671      6E746966 
 671      69636565 
 671      72436F6D 
 671      6D616E64 
 672 0033 00       	 .align 2
 673              	.LC1:
 674 0034 55496E74 	 .ascii "UInt32 DigProcesAansturing::geefSampFreq() const\000"
 674      33322044 
 674      69675072 
 674      6F636573 
 674      41616E73 
 675 0065 000000   	 .align 2
 676              	.LC2:
 677 0068 433A5C55 	 .ascii "C:\\Users\\niels\\Documents\\GitHub\\DSP\\software\\"
 677      73657273 
 677      5C6E6965 
 677      6C735C44 
 677      6F63756D 
 678 0095 53544D33 	 .ascii "STM32Basis\\HAL\\gemeenschappelijk\\Third_Party\\ES"
 678      32426173 
 678      69735C48 
 678      414C5C67 
ARM GAS   			page 15


 678      656D6565 
 679 00c4 455F4253 	 .ascii "E_BSP\\DigProcesAansturing\\DigProcesAansturing.cpp"
 679      505C4469 
 679      6750726F 
 679      63657341 
 679      616E7374 
 680 00f5 00       	 .ascii "\000"
 681              	 .section .text._ZNK19DigProcesAansturing12geefSampFreqEv,"ax",%progbits
 682              	 .align 1
 683              	 .global _ZNK19DigProcesAansturing12geefSampFreqEv
 684              	 .syntax unified
 685              	 .thumb
 686              	 .thumb_func
 687              	 .type _ZNK19DigProcesAansturing12geefSampFreqEv,%function
 688              	_ZNK19DigProcesAansturing12geefSampFreqEv:
 689              	.LFB273:
 106:C:\Users\niels\Documents\GitHub\DSP\software\STM32Basis\HAL\gemeenschappelijk\Third_Party\ESE_BSP\DigProcesAansturing\DigProcesAansturing.cpp **** 
 107:C:\Users\niels\Documents\GitHub\DSP\software\STM32Basis\HAL\gemeenschappelijk\Third_Party\ESE_BSP\DigProcesAansturing\DigProcesAansturing.cpp **** UInt32 DigProcesAansturing::geefSampFreq() const
 108:C:\Users\niels\Documents\GitHub\DSP\software\STM32Basis\HAL\gemeenschappelijk\Third_Party\ESE_BSP\DigProcesAansturing\DigProcesAansturing.cpp **** {
 690              	 .loc 1 108 1
 691              	 .cfi_startproc
 692              	 
 693              	 
 694 0000 80B5     	 push {r7,lr}
 695              	 .cfi_def_cfa_offset 8
 696              	 .cfi_offset 7,-8
 697              	 .cfi_offset 14,-4
 698 0002 84B0     	 sub sp,sp,#16
 699              	 .cfi_def_cfa_offset 24
 700 0004 00AF     	 add r7,sp,#0
 701              	 .cfi_def_cfa_register 7
 702 0006 7860     	 str r0,[r7,#4]
 109:C:\Users\niels\Documents\GitHub\DSP\software\STM32Basis\HAL\gemeenschappelijk\Third_Party\ESE_BSP\DigProcesAansturing\DigProcesAansturing.cpp **** 	assert((identificeerCommando() == ProcesCmd::ZetSampFreq));
 703              	 .loc 1 109 2
 704 0008 7868     	 ldr r0,[r7,#4]
 705 000a FFF7FEFF 	 bl _ZNK19DigProcesAansturing20identificeerCommandoEv
 706 000e 0346     	 mov r3,r0
 707 0010 022B     	 cmp r3,#2
 708 0012 05D0     	 beq .L16
 709              	 .loc 1 109 2 is_stmt 0 discriminator 1
 710 0014 0B4B     	 ldr r3,.L18
 711 0016 0C4A     	 ldr r2,.L18+4
 712 0018 6D21     	 movs r1,#109
 713 001a 0C48     	 ldr r0,.L18+8
 714 001c FFF7FEFF 	 bl __assert_func
 715              	.L16:
 110:C:\Users\niels\Documents\GitHub\DSP\software\STM32Basis\HAL\gemeenschappelijk\Third_Party\ESE_BSP\DigProcesAansturing\DigProcesAansturing.cpp **** 
 111:C:\Users\niels\Documents\GitHub\DSP\software\STM32Basis\HAL\gemeenschappelijk\Third_Party\ESE_BSP\DigProcesAansturing\DigProcesAansturing.cpp **** 	UInt32 fs;
 112:C:\Users\niels\Documents\GitHub\DSP\software\STM32Basis\HAL\gemeenschappelijk\Third_Party\ESE_BSP\DigProcesAansturing\DigProcesAansturing.cpp **** 	UInt8 const * const srcPtr = &(this->operator [] (1));
 716              	 .loc 1 112 53 is_stmt 1
 717 0020 7B68     	 ldr r3,[r7,#4]
 718 0022 0121     	 movs r1,#1
 719 0024 1846     	 mov r0,r3
 720 0026 FFF7FEFF 	 bl _ZNK10DataPakketIhEixEm
 721 002a F860     	 str r0,[r7,#12]
 113:C:\Users\niels\Documents\GitHub\DSP\software\STM32Basis\HAL\gemeenschappelijk\Third_Party\ESE_BSP\DigProcesAansturing\DigProcesAansturing.cpp **** 	memcpy(reinterpret_cast<UInt8 *>(&fs),srcPtr,sizeof(UInt32));
 722              	 .loc 1 113 8
ARM GAS   			page 16


 723 002c 07F10803 	 add r3,r7,#8
 724 0030 0422     	 movs r2,#4
 725 0032 F968     	 ldr r1,[r7,#12]
 726 0034 1846     	 mov r0,r3
 727 0036 FFF7FEFF 	 bl memcpy
 114:C:\Users\niels\Documents\GitHub\DSP\software\STM32Basis\HAL\gemeenschappelijk\Third_Party\ESE_BSP\DigProcesAansturing\DigProcesAansturing.cpp **** 	return(fs);
 728              	 .loc 1 114 11
 729 003a BB68     	 ldr r3,[r7,#8]
 115:C:\Users\niels\Documents\GitHub\DSP\software\STM32Basis\HAL\gemeenschappelijk\Third_Party\ESE_BSP\DigProcesAansturing\DigProcesAansturing.cpp **** }
 730              	 .loc 1 115 1
 731 003c 1846     	 mov r0,r3
 732 003e 1037     	 adds r7,r7,#16
 733              	 .cfi_def_cfa_offset 8
 734 0040 BD46     	 mov sp,r7
 735              	 .cfi_def_cfa_register 13
 736              	 
 737 0042 80BD     	 pop {r7,pc}
 738              	.L19:
 739              	 .align 2
 740              	.L18:
 741 0044 00000000 	 .word .LC0
 742 0048 34000000 	 .word .LC1
 743 004c 68000000 	 .word .LC2
 744              	 .cfi_endproc
 745              	.LFE273:
 746              	 .size _ZNK19DigProcesAansturing12geefSampFreqEv,.-_ZNK19DigProcesAansturing12geefSampFreqEv
 747              	 .section .text._ZNK19DigProcesAansturing18geefProcesControleEv,"ax",%progbits
 748              	 .align 1
 749              	 .global _ZNK19DigProcesAansturing18geefProcesControleEv
 750              	 .syntax unified
 751              	 .thumb
 752              	 .thumb_func
 753              	 .type _ZNK19DigProcesAansturing18geefProcesControleEv,%function
 754              	_ZNK19DigProcesAansturing18geefProcesControleEv:
 755              	.LFB274:
 116:C:\Users\niels\Documents\GitHub\DSP\software\STM32Basis\HAL\gemeenschappelijk\Third_Party\ESE_BSP\DigProcesAansturing\DigProcesAansturing.cpp **** 
 117:C:\Users\niels\Documents\GitHub\DSP\software\STM32Basis\HAL\gemeenschappelijk\Third_Party\ESE_BSP\DigProcesAansturing\DigProcesAansturing.cpp **** DigProcesAansturing::ProcesControle DigProcesAansturing::geefProcesControle() const
 118:C:\Users\niels\Documents\GitHub\DSP\software\STM32Basis\HAL\gemeenschappelijk\Third_Party\ESE_BSP\DigProcesAansturing\DigProcesAansturing.cpp **** {
 756              	 .loc 1 118 1
 757              	 .cfi_startproc
 758              	 
 759              	 
 760 0000 80B5     	 push {r7,lr}
 761              	 .cfi_def_cfa_offset 8
 762              	 .cfi_offset 7,-8
 763              	 .cfi_offset 14,-4
 764 0002 84B0     	 sub sp,sp,#16
 765              	 .cfi_def_cfa_offset 24
 766 0004 00AF     	 add r7,sp,#0
 767              	 .cfi_def_cfa_register 7
 768 0006 7860     	 str r0,[r7,#4]
 119:C:\Users\niels\Documents\GitHub\DSP\software\STM32Basis\HAL\gemeenschappelijk\Third_Party\ESE_BSP\DigProcesAansturing\DigProcesAansturing.cpp **** 	const auto controle = static_cast<ProcesControle>(this->operator [] (1));
 769              	 .loc 1 119 72
 770 0008 7B68     	 ldr r3,[r7,#4]
 771 000a 0121     	 movs r1,#1
 772 000c 1846     	 mov r0,r3
 773 000e FFF7FEFF 	 bl _ZNK10DataPakketIhEixEm
ARM GAS   			page 17


 774 0012 0346     	 mov r3,r0
 775              	 .loc 1 119 73
 776 0014 1B78     	 ldrb r3,[r3]
 777 0016 FB73     	 strb r3,[r7,#15]
 120:C:\Users\niels\Documents\GitHub\DSP\software\STM32Basis\HAL\gemeenschappelijk\Third_Party\ESE_BSP\DigProcesAansturing\DigProcesAansturing.cpp **** 	return(controle);
 778              	 .loc 1 120 17
 779 0018 FB7B     	 ldrb r3,[r7,#15]
 121:C:\Users\niels\Documents\GitHub\DSP\software\STM32Basis\HAL\gemeenschappelijk\Third_Party\ESE_BSP\DigProcesAansturing\DigProcesAansturing.cpp **** }
 780              	 .loc 1 121 1
 781 001a 1846     	 mov r0,r3
 782 001c 1037     	 adds r7,r7,#16
 783              	 .cfi_def_cfa_offset 8
 784 001e BD46     	 mov sp,r7
 785              	 .cfi_def_cfa_register 13
 786              	 
 787 0020 80BD     	 pop {r7,pc}
 788              	 .cfi_endproc
 789              	.LFE274:
 790              	 .size _ZNK19DigProcesAansturing18geefProcesControleEv,.-_ZNK19DigProcesAansturing18geefProcesControleEv
 791              	 .section .text._ZNK19DigProcesAansturing14geefProcestypeEv,"ax",%progbits
 792              	 .align 1
 793              	 .global _ZNK19DigProcesAansturing14geefProcestypeEv
 794              	 .syntax unified
 795              	 .thumb
 796              	 .thumb_func
 797              	 .type _ZNK19DigProcesAansturing14geefProcestypeEv,%function
 798              	_ZNK19DigProcesAansturing14geefProcestypeEv:
 799              	.LFB275:
 122:C:\Users\niels\Documents\GitHub\DSP\software\STM32Basis\HAL\gemeenschappelijk\Third_Party\ESE_BSP\DigProcesAansturing\DigProcesAansturing.cpp **** 
 123:C:\Users\niels\Documents\GitHub\DSP\software\STM32Basis\HAL\gemeenschappelijk\Third_Party\ESE_BSP\DigProcesAansturing\DigProcesAansturing.cpp **** DigProcesAansturing::ProcesType DigProcesAansturing::geefProcestype() const
 124:C:\Users\niels\Documents\GitHub\DSP\software\STM32Basis\HAL\gemeenschappelijk\Third_Party\ESE_BSP\DigProcesAansturing\DigProcesAansturing.cpp **** {
 800              	 .loc 1 124 1
 801              	 .cfi_startproc
 802              	 
 803              	 
 804 0000 80B5     	 push {r7,lr}
 805              	 .cfi_def_cfa_offset 8
 806              	 .cfi_offset 7,-8
 807              	 .cfi_offset 14,-4
 808 0002 84B0     	 sub sp,sp,#16
 809              	 .cfi_def_cfa_offset 24
 810 0004 00AF     	 add r7,sp,#0
 811              	 .cfi_def_cfa_register 7
 812 0006 7860     	 str r0,[r7,#4]
 125:C:\Users\niels\Documents\GitHub\DSP\software\STM32Basis\HAL\gemeenschappelijk\Third_Party\ESE_BSP\DigProcesAansturing\DigProcesAansturing.cpp **** 	const auto type = static_cast<ProcesType>(this->operator [] (1));
 813              	 .loc 1 125 64
 814 0008 7B68     	 ldr r3,[r7,#4]
 815 000a 0121     	 movs r1,#1
 816 000c 1846     	 mov r0,r3
 817 000e FFF7FEFF 	 bl _ZNK10DataPakketIhEixEm
 818 0012 0346     	 mov r3,r0
 819              	 .loc 1 125 65
 820 0014 1B78     	 ldrb r3,[r3]
 821 0016 FB73     	 strb r3,[r7,#15]
 126:C:\Users\niels\Documents\GitHub\DSP\software\STM32Basis\HAL\gemeenschappelijk\Third_Party\ESE_BSP\DigProcesAansturing\DigProcesAansturing.cpp **** 	return(type);
 822              	 .loc 1 126 13
 823 0018 FB7B     	 ldrb r3,[r7,#15]
ARM GAS   			page 18


 127:C:\Users\niels\Documents\GitHub\DSP\software\STM32Basis\HAL\gemeenschappelijk\Third_Party\ESE_BSP\DigProcesAansturing\DigProcesAansturing.cpp **** }
 824              	 .loc 1 127 1
 825 001a 1846     	 mov r0,r3
 826 001c 1037     	 adds r7,r7,#16
 827              	 .cfi_def_cfa_offset 8
 828 001e BD46     	 mov sp,r7
 829              	 .cfi_def_cfa_register 13
 830              	 
 831 0020 80BD     	 pop {r7,pc}
 832              	 .cfi_endproc
 833              	.LFE275:
 834              	 .size _ZNK19DigProcesAansturing14geefProcestypeEv,.-_ZNK19DigProcesAansturing14geefProcestypeEv
 835              	 .section .rodata
 836 00f6 0000     	 .align 2
 837              	.LC3:
 838 00f8 28696465 	 .ascii "(identificeerCommando() >= ProcesCmd::ZetNuldeOrdeP"
 838      6E746966 
 838      69636565 
 838      72436F6D 
 838      6D616E64 
 839 012b 6172616D 	 .ascii "arams) && (identificeerCommando() <= ProcesCmd::Zet"
 839      73292026 
 839      26202869 
 839      64656E74 
 839      69666963 
 840 015e 54776565 	 .ascii "TweedeOrdeParams)\000"
 840      64654F72 
 840      64655061 
 840      72616D73 
 840      2900
 841              	 .align 2
 842              	.LC4:
 843 0170 666C6F61 	 .ascii "float DigProcesAansturing::geefKp() const\000"
 843      74204469 
 843      6750726F 
 843      63657341 
 843      616E7374 
 844              	 .section .text._ZNK19DigProcesAansturing6geefKpEv,"ax",%progbits
 845              	 .align 1
 846              	 .global _ZNK19DigProcesAansturing6geefKpEv
 847              	 .syntax unified
 848              	 .thumb
 849              	 .thumb_func
 850              	 .type _ZNK19DigProcesAansturing6geefKpEv,%function
 851              	_ZNK19DigProcesAansturing6geefKpEv:
 852              	.LFB276:
 128:C:\Users\niels\Documents\GitHub\DSP\software\STM32Basis\HAL\gemeenschappelijk\Third_Party\ESE_BSP\DigProcesAansturing\DigProcesAansturing.cpp **** 
 129:C:\Users\niels\Documents\GitHub\DSP\software\STM32Basis\HAL\gemeenschappelijk\Third_Party\ESE_BSP\DigProcesAansturing\DigProcesAansturing.cpp **** 
 130:C:\Users\niels\Documents\GitHub\DSP\software\STM32Basis\HAL\gemeenschappelijk\Third_Party\ESE_BSP\DigProcesAansturing\DigProcesAansturing.cpp **** float DigProcesAansturing::geefKp() const
 131:C:\Users\niels\Documents\GitHub\DSP\software\STM32Basis\HAL\gemeenschappelijk\Third_Party\ESE_BSP\DigProcesAansturing\DigProcesAansturing.cpp **** {
 853              	 .loc 1 131 1
 854              	 .cfi_startproc
 855              	 
 856              	 
 857 0000 80B5     	 push {r7,lr}
 858              	 .cfi_def_cfa_offset 8
 859              	 .cfi_offset 7,-8
ARM GAS   			page 19


 860              	 .cfi_offset 14,-4
 861 0002 84B0     	 sub sp,sp,#16
 862              	 .cfi_def_cfa_offset 24
 863 0004 00AF     	 add r7,sp,#0
 864              	 .cfi_def_cfa_register 7
 865 0006 7860     	 str r0,[r7,#4]
 132:C:\Users\niels\Documents\GitHub\DSP\software\STM32Basis\HAL\gemeenschappelijk\Third_Party\ESE_BSP\DigProcesAansturing\DigProcesAansturing.cpp **** 	assert((identificeerCommando() >= ProcesCmd::ZetNuldeOrdeParams) &&
 866              	 .loc 1 132 2
 867 0008 7868     	 ldr r0,[r7,#4]
 868 000a FFF7FEFF 	 bl _ZNK19DigProcesAansturing20identificeerCommandoEv
 869 000e 0346     	 mov r3,r0
 870 0010 022B     	 cmp r3,#2
 871 0012 05D9     	 bls .L25
 872              	 .loc 1 132 2 is_stmt 0 discriminator 1
 873 0014 7868     	 ldr r0,[r7,#4]
 874 0016 FFF7FEFF 	 bl _ZNK19DigProcesAansturing20identificeerCommandoEv
 875 001a 0346     	 mov r3,r0
 876 001c 052B     	 cmp r3,#5
 877 001e 05D9     	 bls .L28
 878              	.L25:
 879              	 .loc 1 132 2 discriminator 3
 880 0020 0D4B     	 ldr r3,.L29
 881 0022 0E4A     	 ldr r2,.L29+4
 882 0024 8421     	 movs r1,#132
 883 0026 0E48     	 ldr r0,.L29+8
 884 0028 FFF7FEFF 	 bl __assert_func
 885              	.L28:
 133:C:\Users\niels\Documents\GitHub\DSP\software\STM32Basis\HAL\gemeenschappelijk\Third_Party\ESE_BSP\DigProcesAansturing\DigProcesAansturing.cpp **** 				   (identificeerCommando() <= ProcesCmd::ZetTweedeOrdeParams));
 134:C:\Users\niels\Documents\GitHub\DSP\software\STM32Basis\HAL\gemeenschappelijk\Third_Party\ESE_BSP\DigProcesAansturing\DigProcesAansturing.cpp **** 	float kpparam;
 135:C:\Users\niels\Documents\GitHub\DSP\software\STM32Basis\HAL\gemeenschappelijk\Third_Party\ESE_BSP\DigProcesAansturing\DigProcesAansturing.cpp **** 	auto srcPtr = &(this->operator [] (1));
 886              	 .loc 1 135 38 is_stmt 1
 887 002c 7B68     	 ldr r3,[r7,#4]
 888 002e 0121     	 movs r1,#1
 889 0030 1846     	 mov r0,r3
 890 0032 FFF7FEFF 	 bl _ZNK10DataPakketIhEixEm
 891 0036 F860     	 str r0,[r7,#12]
 136:C:\Users\niels\Documents\GitHub\DSP\software\STM32Basis\HAL\gemeenschappelijk\Third_Party\ESE_BSP\DigProcesAansturing\DigProcesAansturing.cpp **** 	memcpy(reinterpret_cast<UInt8 *>(&kpparam),srcPtr,sizeof(float));
 892              	 .loc 1 136 8
 893 0038 07F10803 	 add r3,r7,#8
 894 003c 0422     	 movs r2,#4
 895 003e F968     	 ldr r1,[r7,#12]
 896 0040 1846     	 mov r0,r3
 897 0042 FFF7FEFF 	 bl memcpy
 137:C:\Users\niels\Documents\GitHub\DSP\software\STM32Basis\HAL\gemeenschappelijk\Third_Party\ESE_BSP\DigProcesAansturing\DigProcesAansturing.cpp **** 	return(kpparam);
 898              	 .loc 1 137 16
 899 0046 BB68     	 ldr r3,[r7,#8]
 900 0048 07EE903A 	 vmov s15,r3
 138:C:\Users\niels\Documents\GitHub\DSP\software\STM32Basis\HAL\gemeenschappelijk\Third_Party\ESE_BSP\DigProcesAansturing\DigProcesAansturing.cpp **** }
 901              	 .loc 1 138 1
 902 004c B0EE670A 	 vmov.f32 s0,s15
 903 0050 1037     	 adds r7,r7,#16
 904              	 .cfi_def_cfa_offset 8
 905 0052 BD46     	 mov sp,r7
 906              	 .cfi_def_cfa_register 13
 907              	 
 908 0054 80BD     	 pop {r7,pc}
 909              	.L30:
ARM GAS   			page 20


 910 0056 00BF     	 .align 2
 911              	.L29:
 912 0058 F8000000 	 .word .LC3
 913 005c 70010000 	 .word .LC4
 914 0060 68000000 	 .word .LC2
 915              	 .cfi_endproc
 916              	.LFE276:
 917              	 .size _ZNK19DigProcesAansturing6geefKpEv,.-_ZNK19DigProcesAansturing6geefKpEv
 918              	 .section .rodata
 919 019a 0000     	 .align 2
 920              	.LC5:
 921 019c 28696465 	 .ascii "(identificeerCommando() == ProcesCmd::ZetEersteOrde"
 921      6E746966 
 921      69636565 
 921      72436F6D 
 921      6D616E64 
 922 01cf 50617261 	 .ascii "Params)\000"
 922      6D732900 
 923 01d7 00       	 .align 2
 924              	.LC6:
 925 01d8 666C6F61 	 .ascii "float DigProcesAansturing::geefTau() const\000"
 925      74204469 
 925      6750726F 
 925      63657341 
 925      616E7374 
 926              	 .section .text._ZNK19DigProcesAansturing7geefTauEv,"ax",%progbits
 927              	 .align 1
 928              	 .global _ZNK19DigProcesAansturing7geefTauEv
 929              	 .syntax unified
 930              	 .thumb
 931              	 .thumb_func
 932              	 .type _ZNK19DigProcesAansturing7geefTauEv,%function
 933              	_ZNK19DigProcesAansturing7geefTauEv:
 934              	.LFB277:
 139:C:\Users\niels\Documents\GitHub\DSP\software\STM32Basis\HAL\gemeenschappelijk\Third_Party\ESE_BSP\DigProcesAansturing\DigProcesAansturing.cpp **** 
 140:C:\Users\niels\Documents\GitHub\DSP\software\STM32Basis\HAL\gemeenschappelijk\Third_Party\ESE_BSP\DigProcesAansturing\DigProcesAansturing.cpp **** float DigProcesAansturing::geefTau() const
 141:C:\Users\niels\Documents\GitHub\DSP\software\STM32Basis\HAL\gemeenschappelijk\Third_Party\ESE_BSP\DigProcesAansturing\DigProcesAansturing.cpp **** {
 935              	 .loc 1 141 1
 936              	 .cfi_startproc
 937              	 
 938              	 
 939 0000 80B5     	 push {r7,lr}
 940              	 .cfi_def_cfa_offset 8
 941              	 .cfi_offset 7,-8
 942              	 .cfi_offset 14,-4
 943 0002 84B0     	 sub sp,sp,#16
 944              	 .cfi_def_cfa_offset 24
 945 0004 00AF     	 add r7,sp,#0
 946              	 .cfi_def_cfa_register 7
 947 0006 7860     	 str r0,[r7,#4]
 142:C:\Users\niels\Documents\GitHub\DSP\software\STM32Basis\HAL\gemeenschappelijk\Third_Party\ESE_BSP\DigProcesAansturing\DigProcesAansturing.cpp **** 	assert((identificeerCommando() == ProcesCmd::ZetEersteOrdeParams));
 948              	 .loc 1 142 2
 949 0008 7868     	 ldr r0,[r7,#4]
 950 000a FFF7FEFF 	 bl _ZNK19DigProcesAansturing20identificeerCommandoEv
 951 000e 0346     	 mov r3,r0
 952 0010 042B     	 cmp r3,#4
 953 0012 05D0     	 beq .L32
ARM GAS   			page 21


 954              	 .loc 1 142 2 is_stmt 0 discriminator 1
 955 0014 0D4B     	 ldr r3,.L34
 956 0016 0E4A     	 ldr r2,.L34+4
 957 0018 8E21     	 movs r1,#142
 958 001a 0E48     	 ldr r0,.L34+8
 959 001c FFF7FEFF 	 bl __assert_func
 960              	.L32:
 143:C:\Users\niels\Documents\GitHub\DSP\software\STM32Basis\HAL\gemeenschappelijk\Third_Party\ESE_BSP\DigProcesAansturing\DigProcesAansturing.cpp **** 
 144:C:\Users\niels\Documents\GitHub\DSP\software\STM32Basis\HAL\gemeenschappelijk\Third_Party\ESE_BSP\DigProcesAansturing\DigProcesAansturing.cpp **** 	float tauparam;
 145:C:\Users\niels\Documents\GitHub\DSP\software\STM32Basis\HAL\gemeenschappelijk\Third_Party\ESE_BSP\DigProcesAansturing\DigProcesAansturing.cpp **** 	auto srcPtr = &(this->operator [] (1+sizeof(float)));
 961              	 .loc 1 145 52 is_stmt 1
 962 0020 7B68     	 ldr r3,[r7,#4]
 963 0022 0521     	 movs r1,#5
 964 0024 1846     	 mov r0,r3
 965 0026 FFF7FEFF 	 bl _ZNK10DataPakketIhEixEm
 966 002a F860     	 str r0,[r7,#12]
 146:C:\Users\niels\Documents\GitHub\DSP\software\STM32Basis\HAL\gemeenschappelijk\Third_Party\ESE_BSP\DigProcesAansturing\DigProcesAansturing.cpp **** 	memcpy(reinterpret_cast<UInt8 *>(&tauparam),srcPtr,sizeof(float));
 967              	 .loc 1 146 8
 968 002c 07F10803 	 add r3,r7,#8
 969 0030 0422     	 movs r2,#4
 970 0032 F968     	 ldr r1,[r7,#12]
 971 0034 1846     	 mov r0,r3
 972 0036 FFF7FEFF 	 bl memcpy
 147:C:\Users\niels\Documents\GitHub\DSP\software\STM32Basis\HAL\gemeenschappelijk\Third_Party\ESE_BSP\DigProcesAansturing\DigProcesAansturing.cpp **** 	return(tauparam);
 973              	 .loc 1 147 17
 974 003a BB68     	 ldr r3,[r7,#8]
 975 003c 07EE903A 	 vmov s15,r3
 148:C:\Users\niels\Documents\GitHub\DSP\software\STM32Basis\HAL\gemeenschappelijk\Third_Party\ESE_BSP\DigProcesAansturing\DigProcesAansturing.cpp **** }
 976              	 .loc 1 148 1
 977 0040 B0EE670A 	 vmov.f32 s0,s15
 978 0044 1037     	 adds r7,r7,#16
 979              	 .cfi_def_cfa_offset 8
 980 0046 BD46     	 mov sp,r7
 981              	 .cfi_def_cfa_register 13
 982              	 
 983 0048 80BD     	 pop {r7,pc}
 984              	.L35:
 985 004a 00BF     	 .align 2
 986              	.L34:
 987 004c 9C010000 	 .word .LC5
 988 0050 D8010000 	 .word .LC6
 989 0054 68000000 	 .word .LC2
 990              	 .cfi_endproc
 991              	.LFE277:
 992              	 .size _ZNK19DigProcesAansturing7geefTauEv,.-_ZNK19DigProcesAansturing7geefTauEv
 993              	 .section .rodata
 994 0203 00       	 .align 2
 995              	.LC7:
 996 0204 28696465 	 .ascii "(identificeerCommando() == ProcesCmd::ZetTweedeOrde"
 996      6E746966 
 996      69636565 
 996      72436F6D 
 996      6D616E64 
 997 0237 50617261 	 .ascii "Params)\000"
 997      6D732900 
 998 023f 00       	 .align 2
 999              	.LC8:
ARM GAS   			page 22


 1000 0240 666C6F61 	 .ascii "float DigProcesAansturing::geefOmega0() const\000"
 1000      74204469 
 1000      6750726F 
 1000      63657341 
 1000      616E7374 
 1001              	 .section .text._ZNK19DigProcesAansturing10geefOmega0Ev,"ax",%progbits
 1002              	 .align 1
 1003              	 .global _ZNK19DigProcesAansturing10geefOmega0Ev
 1004              	 .syntax unified
 1005              	 .thumb
 1006              	 .thumb_func
 1007              	 .type _ZNK19DigProcesAansturing10geefOmega0Ev,%function
 1008              	_ZNK19DigProcesAansturing10geefOmega0Ev:
 1009              	.LFB278:
 149:C:\Users\niels\Documents\GitHub\DSP\software\STM32Basis\HAL\gemeenschappelijk\Third_Party\ESE_BSP\DigProcesAansturing\DigProcesAansturing.cpp **** 
 150:C:\Users\niels\Documents\GitHub\DSP\software\STM32Basis\HAL\gemeenschappelijk\Third_Party\ESE_BSP\DigProcesAansturing\DigProcesAansturing.cpp **** float DigProcesAansturing::geefOmega0() const
 151:C:\Users\niels\Documents\GitHub\DSP\software\STM32Basis\HAL\gemeenschappelijk\Third_Party\ESE_BSP\DigProcesAansturing\DigProcesAansturing.cpp **** {
 1010              	 .loc 1 151 1
 1011              	 .cfi_startproc
 1012              	 
 1013              	 
 1014 0000 80B5     	 push {r7,lr}
 1015              	 .cfi_def_cfa_offset 8
 1016              	 .cfi_offset 7,-8
 1017              	 .cfi_offset 14,-4
 1018 0002 84B0     	 sub sp,sp,#16
 1019              	 .cfi_def_cfa_offset 24
 1020 0004 00AF     	 add r7,sp,#0
 1021              	 .cfi_def_cfa_register 7
 1022 0006 7860     	 str r0,[r7,#4]
 152:C:\Users\niels\Documents\GitHub\DSP\software\STM32Basis\HAL\gemeenschappelijk\Third_Party\ESE_BSP\DigProcesAansturing\DigProcesAansturing.cpp **** 	assert((identificeerCommando() == ProcesCmd::ZetTweedeOrdeParams));
 1023              	 .loc 1 152 2
 1024 0008 7868     	 ldr r0,[r7,#4]
 1025 000a FFF7FEFF 	 bl _ZNK19DigProcesAansturing20identificeerCommandoEv
 1026 000e 0346     	 mov r3,r0
 1027 0010 052B     	 cmp r3,#5
 1028 0012 05D0     	 beq .L37
 1029              	 .loc 1 152 2 is_stmt 0 discriminator 1
 1030 0014 0D4B     	 ldr r3,.L39
 1031 0016 0E4A     	 ldr r2,.L39+4
 1032 0018 9821     	 movs r1,#152
 1033 001a 0E48     	 ldr r0,.L39+8
 1034 001c FFF7FEFF 	 bl __assert_func
 1035              	.L37:
 153:C:\Users\niels\Documents\GitHub\DSP\software\STM32Basis\HAL\gemeenschappelijk\Third_Party\ESE_BSP\DigProcesAansturing\DigProcesAansturing.cpp **** 
 154:C:\Users\niels\Documents\GitHub\DSP\software\STM32Basis\HAL\gemeenschappelijk\Third_Party\ESE_BSP\DigProcesAansturing\DigProcesAansturing.cpp **** 	float omega0param;
 155:C:\Users\niels\Documents\GitHub\DSP\software\STM32Basis\HAL\gemeenschappelijk\Third_Party\ESE_BSP\DigProcesAansturing\DigProcesAansturing.cpp **** 	auto srcPtr = &(this->operator [] (1+sizeof(float)));
 1036              	 .loc 1 155 52 is_stmt 1
 1037 0020 7B68     	 ldr r3,[r7,#4]
 1038 0022 0521     	 movs r1,#5
 1039 0024 1846     	 mov r0,r3
 1040 0026 FFF7FEFF 	 bl _ZNK10DataPakketIhEixEm
 1041 002a F860     	 str r0,[r7,#12]
 156:C:\Users\niels\Documents\GitHub\DSP\software\STM32Basis\HAL\gemeenschappelijk\Third_Party\ESE_BSP\DigProcesAansturing\DigProcesAansturing.cpp **** 	memcpy(reinterpret_cast<UInt8 *>(&omega0param),srcPtr,sizeof(float));
 1042              	 .loc 1 156 8
 1043 002c 07F10803 	 add r3,r7,#8
 1044 0030 0422     	 movs r2,#4
ARM GAS   			page 23


 1045 0032 F968     	 ldr r1,[r7,#12]
 1046 0034 1846     	 mov r0,r3
 1047 0036 FFF7FEFF 	 bl memcpy
 157:C:\Users\niels\Documents\GitHub\DSP\software\STM32Basis\HAL\gemeenschappelijk\Third_Party\ESE_BSP\DigProcesAansturing\DigProcesAansturing.cpp **** 	return(omega0param);
 1048              	 .loc 1 157 20
 1049 003a BB68     	 ldr r3,[r7,#8]
 1050 003c 07EE903A 	 vmov s15,r3
 158:C:\Users\niels\Documents\GitHub\DSP\software\STM32Basis\HAL\gemeenschappelijk\Third_Party\ESE_BSP\DigProcesAansturing\DigProcesAansturing.cpp **** }
 1051              	 .loc 1 158 1
 1052 0040 B0EE670A 	 vmov.f32 s0,s15
 1053 0044 1037     	 adds r7,r7,#16
 1054              	 .cfi_def_cfa_offset 8
 1055 0046 BD46     	 mov sp,r7
 1056              	 .cfi_def_cfa_register 13
 1057              	 
 1058 0048 80BD     	 pop {r7,pc}
 1059              	.L40:
 1060 004a 00BF     	 .align 2
 1061              	.L39:
 1062 004c 04020000 	 .word .LC7
 1063 0050 40020000 	 .word .LC8
 1064 0054 68000000 	 .word .LC2
 1065              	 .cfi_endproc
 1066              	.LFE278:
 1067              	 .size _ZNK19DigProcesAansturing10geefOmega0Ev,.-_ZNK19DigProcesAansturing10geefOmega0Ev
 1068              	 .section .rodata
 1069 026e 0000     	 .align 2
 1070              	.LC9:
 1071 0270 666C6F61 	 .ascii "float DigProcesAansturing::geefBeta() const\000"
 1071      74204469 
 1071      6750726F 
 1071      63657341 
 1071      616E7374 
 1072              	 .section .text._ZNK19DigProcesAansturing8geefBetaEv,"ax",%progbits
 1073              	 .align 1
 1074              	 .global _ZNK19DigProcesAansturing8geefBetaEv
 1075              	 .syntax unified
 1076              	 .thumb
 1077              	 .thumb_func
 1078              	 .type _ZNK19DigProcesAansturing8geefBetaEv,%function
 1079              	_ZNK19DigProcesAansturing8geefBetaEv:
 1080              	.LFB279:
 159:C:\Users\niels\Documents\GitHub\DSP\software\STM32Basis\HAL\gemeenschappelijk\Third_Party\ESE_BSP\DigProcesAansturing\DigProcesAansturing.cpp **** 
 160:C:\Users\niels\Documents\GitHub\DSP\software\STM32Basis\HAL\gemeenschappelijk\Third_Party\ESE_BSP\DigProcesAansturing\DigProcesAansturing.cpp **** float DigProcesAansturing::geefBeta() const
 161:C:\Users\niels\Documents\GitHub\DSP\software\STM32Basis\HAL\gemeenschappelijk\Third_Party\ESE_BSP\DigProcesAansturing\DigProcesAansturing.cpp **** {
 1081              	 .loc 1 161 1
 1082              	 .cfi_startproc
 1083              	 
 1084              	 
 1085 0000 80B5     	 push {r7,lr}
 1086              	 .cfi_def_cfa_offset 8
 1087              	 .cfi_offset 7,-8
 1088              	 .cfi_offset 14,-4
 1089 0002 84B0     	 sub sp,sp,#16
 1090              	 .cfi_def_cfa_offset 24
 1091 0004 00AF     	 add r7,sp,#0
 1092              	 .cfi_def_cfa_register 7
ARM GAS   			page 24


 1093 0006 7860     	 str r0,[r7,#4]
 162:C:\Users\niels\Documents\GitHub\DSP\software\STM32Basis\HAL\gemeenschappelijk\Third_Party\ESE_BSP\DigProcesAansturing\DigProcesAansturing.cpp **** 	assert((identificeerCommando() == ProcesCmd::ZetTweedeOrdeParams));
 1094              	 .loc 1 162 2
 1095 0008 7868     	 ldr r0,[r7,#4]
 1096 000a FFF7FEFF 	 bl _ZNK19DigProcesAansturing20identificeerCommandoEv
 1097 000e 0346     	 mov r3,r0
 1098 0010 052B     	 cmp r3,#5
 1099 0012 05D0     	 beq .L42
 1100              	 .loc 1 162 2 is_stmt 0 discriminator 1
 1101 0014 0D4B     	 ldr r3,.L44
 1102 0016 0E4A     	 ldr r2,.L44+4
 1103 0018 A221     	 movs r1,#162
 1104 001a 0E48     	 ldr r0,.L44+8
 1105 001c FFF7FEFF 	 bl __assert_func
 1106              	.L42:
 163:C:\Users\niels\Documents\GitHub\DSP\software\STM32Basis\HAL\gemeenschappelijk\Third_Party\ESE_BSP\DigProcesAansturing\DigProcesAansturing.cpp **** 
 164:C:\Users\niels\Documents\GitHub\DSP\software\STM32Basis\HAL\gemeenschappelijk\Third_Party\ESE_BSP\DigProcesAansturing\DigProcesAansturing.cpp **** 	float betaparam;
 165:C:\Users\niels\Documents\GitHub\DSP\software\STM32Basis\HAL\gemeenschappelijk\Third_Party\ESE_BSP\DigProcesAansturing\DigProcesAansturing.cpp **** 	auto srcPtr = &(this->operator [] (1+(2*sizeof(float))));
 1107              	 .loc 1 165 56 is_stmt 1
 1108 0020 7B68     	 ldr r3,[r7,#4]
 1109 0022 0921     	 movs r1,#9
 1110 0024 1846     	 mov r0,r3
 1111 0026 FFF7FEFF 	 bl _ZNK10DataPakketIhEixEm
 1112 002a F860     	 str r0,[r7,#12]
 166:C:\Users\niels\Documents\GitHub\DSP\software\STM32Basis\HAL\gemeenschappelijk\Third_Party\ESE_BSP\DigProcesAansturing\DigProcesAansturing.cpp **** 	memcpy(reinterpret_cast<UInt8 *>(&betaparam),srcPtr,sizeof(float));
 1113              	 .loc 1 166 8
 1114 002c 07F10803 	 add r3,r7,#8
 1115 0030 0422     	 movs r2,#4
 1116 0032 F968     	 ldr r1,[r7,#12]
 1117 0034 1846     	 mov r0,r3
 1118 0036 FFF7FEFF 	 bl memcpy
 167:C:\Users\niels\Documents\GitHub\DSP\software\STM32Basis\HAL\gemeenschappelijk\Third_Party\ESE_BSP\DigProcesAansturing\DigProcesAansturing.cpp **** 	return(betaparam);
 1119              	 .loc 1 167 18
 1120 003a BB68     	 ldr r3,[r7,#8]
 1121 003c 07EE903A 	 vmov s15,r3
 168:C:\Users\niels\Documents\GitHub\DSP\software\STM32Basis\HAL\gemeenschappelijk\Third_Party\ESE_BSP\DigProcesAansturing\DigProcesAansturing.cpp **** }
 1122              	 .loc 1 168 1
 1123 0040 B0EE670A 	 vmov.f32 s0,s15
 1124 0044 1037     	 adds r7,r7,#16
 1125              	 .cfi_def_cfa_offset 8
 1126 0046 BD46     	 mov sp,r7
 1127              	 .cfi_def_cfa_register 13
 1128              	 
 1129 0048 80BD     	 pop {r7,pc}
 1130              	.L45:
 1131 004a 00BF     	 .align 2
 1132              	.L44:
 1133 004c 04020000 	 .word .LC7
 1134 0050 70020000 	 .word .LC9
 1135 0054 68000000 	 .word .LC2
 1136              	 .cfi_endproc
 1137              	.LFE279:
 1138              	 .size _ZNK19DigProcesAansturing8geefBetaEv,.-_ZNK19DigProcesAansturing8geefBetaEv
 1139              	 .section .rodata
 1140              	 .align 2
 1141              	.LC10:
 1142 029c 696E6465 	 .ascii "index < grootte\000"
ARM GAS   			page 25


 1142      78203C20 
 1142      67726F6F 
 1142      74746500 
 1143              	 .align 2
 1144              	.LC11:
 1145 02ac 74747970 	 .ascii "ttype& DataPakket<ttype>::operator[](UInt32) const "
 1145      65262044 
 1145      61746150 
 1145      616B6B65 
 1145      743C7474 
 1146 02df 5B776974 	 .ascii "[with ttype = unsigned char; UInt32 = long unsigned"
 1146      68207474 
 1146      79706520 
 1146      3D20756E 
 1146      7369676E 
 1147 0312 20696E74 	 .ascii " int]\000"
 1147      5D00
 1148              	 .align 2
 1149              	.LC12:
 1150 0318 633A5C75 	 .ascii "c:\\users\\niels\\documents\\github\\dsp\\software\\"
 1150      73657273 
 1150      5C6E6965 
 1150      6C735C64 
 1150      6F63756D 
 1151 0345 616C6765 	 .ascii "algemeen\\h\\datapakket.h\000"
 1151      6D65656E 
 1151      5C685C64 
 1151      61746170 
 1151      616B6B65 
 1152              	 .section .text._ZNK10DataPakketIhEixEm,"axG",%progbits,_ZNK10DataPakketIhEixEm,comdat
 1153              	 .align 1
 1154              	 .weak _ZNK10DataPakketIhEixEm
 1155              	 .syntax unified
 1156              	 .thumb
 1157              	 .thumb_func
 1158              	 .type _ZNK10DataPakketIhEixEm,%function
 1159              	_ZNK10DataPakketIhEixEm:
 1160              	.LFB280:
 1161              	 .file 2 "c:\\users\\niels\\documents\\github\\dsp\\software\\algemeen\\h\\datapakket.h"
   1:c:\users\niels\documents\github\dsp\software\algemeen\h\datapakket.h **** /******************************************************************************
   2:c:\users\niels\documents\github\dsp\software\algemeen\h\datapakket.h ****  * Project        : ES2 Project 3 en DSB Practicum
   3:c:\users\niels\documents\github\dsp\software\algemeen\h\datapakket.h ****  * Copyright      : 2010-2015 - H. Arends en E.J Boks
   4:c:\users\niels\documents\github\dsp\software\algemeen\h\datapakket.h ****  ******************************************************************************
   5:c:\users\niels\documents\github\dsp\software\algemeen\h\datapakket.h **** 
   6:c:\users\niels\documents\github\dsp\software\algemeen\h\datapakket.h ****  Template voor het bundelen van data.
   7:c:\users\niels\documents\github\dsp\software\algemeen\h\datapakket.h **** 
   8:c:\users\niels\documents\github\dsp\software\algemeen\h\datapakket.h **** ******************************************************************************/
   9:c:\users\niels\documents\github\dsp\software\algemeen\h\datapakket.h **** /* $Id: dataPakket.h 3672 2019-10-29 12:15:09Z ewout $                       */
  10:c:\users\niels\documents\github\dsp\software\algemeen\h\datapakket.h **** 
  11:c:\users\niels\documents\github\dsp\software\algemeen\h\datapakket.h **** #ifndef HANESE_DataPakket_H_
  12:c:\users\niels\documents\github\dsp\software\algemeen\h\datapakket.h **** #define HANESE_DataPakket_H_
  13:c:\users\niels\documents\github\dsp\software\algemeen\h\datapakket.h **** 
  14:c:\users\niels\documents\github\dsp\software\algemeen\h\datapakket.h **** #include <stdio.h>
  15:c:\users\niels\documents\github\dsp\software\algemeen\h\datapakket.h **** #include <string.h>
  16:c:\users\niels\documents\github\dsp\software\algemeen\h\datapakket.h **** #include <assert.h>
  17:c:\users\niels\documents\github\dsp\software\algemeen\h\datapakket.h **** #include <algdef.h>
  18:c:\users\niels\documents\github\dsp\software\algemeen\h\datapakket.h **** 
ARM GAS   			page 26


  19:c:\users\niels\documents\github\dsp\software\algemeen\h\datapakket.h **** /******************************************************************************
  20:c:\users\niels\documents\github\dsp\software\algemeen\h\datapakket.h ****   Defines
  21:c:\users\niels\documents\github\dsp\software\algemeen\h\datapakket.h **** ******************************************************************************/
  22:c:\users\niels\documents\github\dsp\software\algemeen\h\datapakket.h **** const char CR='\r';
  23:c:\users\niels\documents\github\dsp\software\algemeen\h\datapakket.h **** const char LF='\n';
  24:c:\users\niels\documents\github\dsp\software\algemeen\h\datapakket.h **** const char BACKSPACE='\b';
  25:c:\users\niels\documents\github\dsp\software\algemeen\h\datapakket.h **** const char SPACE=' ';
  26:c:\users\niels\documents\github\dsp\software\algemeen\h\datapakket.h **** const char ESC=0x1B;
  27:c:\users\niels\documents\github\dsp\software\algemeen\h\datapakket.h **** 
  28:c:\users\niels\documents\github\dsp\software\algemeen\h\datapakket.h **** template<typename ttype>
  29:c:\users\niels\documents\github\dsp\software\algemeen\h\datapakket.h **** class DataPakket
  30:c:\users\niels\documents\github\dsp\software\algemeen\h\datapakket.h **** {
  31:c:\users\niels\documents\github\dsp\software\algemeen\h\datapakket.h **** public:
  32:c:\users\niels\documents\github\dsp\software\algemeen\h\datapakket.h **** 
  33:c:\users\niels\documents\github\dsp\software\algemeen\h\datapakket.h **** 	DataPakket(ttype * const dataPtr,
  34:c:\users\niels\documents\github\dsp\software\algemeen\h\datapakket.h **** 			   const UInt32 gr) : data(dataPtr),grootte(gr)
  35:c:\users\niels\documents\github\dsp\software\algemeen\h\datapakket.h **** 	{
  36:c:\users\niels\documents\github\dsp\software\algemeen\h\datapakket.h **** 		assert(nullptr != dataPtr);
  37:c:\users\niels\documents\github\dsp\software\algemeen\h\datapakket.h **** 		assert(0 != grootte);
  38:c:\users\niels\documents\github\dsp\software\algemeen\h\datapakket.h **** 	};
  39:c:\users\niels\documents\github\dsp\software\algemeen\h\datapakket.h **** 
  40:c:\users\niels\documents\github\dsp\software\algemeen\h\datapakket.h **** 	UInt32 geefGrootte() const
  41:c:\users\niels\documents\github\dsp\software\algemeen\h\datapakket.h **** 	{
  42:c:\users\niels\documents\github\dsp\software\algemeen\h\datapakket.h **** 		return(grootte);
  43:c:\users\niels\documents\github\dsp\software\algemeen\h\datapakket.h **** 	};
  44:c:\users\niels\documents\github\dsp\software\algemeen\h\datapakket.h **** 
  45:c:\users\niels\documents\github\dsp\software\algemeen\h\datapakket.h **** 	DataPakket<ttype> & operator =  (ttype const * const dataPtr)
  46:c:\users\niels\documents\github\dsp\software\algemeen\h\datapakket.h **** 	{
  47:c:\users\niels\documents\github\dsp\software\algemeen\h\datapakket.h **** 		const auto hoeveelheidBytes = sizeof(ttype)*grootte;
  48:c:\users\niels\documents\github\dsp\software\algemeen\h\datapakket.h **** 		assert(0!= hoeveelheidBytes);
  49:c:\users\niels\documents\github\dsp\software\algemeen\h\datapakket.h **** 		auto bestemming = reinterpret_cast<UInt8 *>(data);
  50:c:\users\niels\documents\github\dsp\software\algemeen\h\datapakket.h **** 		const auto bron = reinterpret_cast<UInt8 *>(dataPtr);
  51:c:\users\niels\documents\github\dsp\software\algemeen\h\datapakket.h **** 		memcpy(bestemming,bron,hoeveelheidBytes);
  52:c:\users\niels\documents\github\dsp\software\algemeen\h\datapakket.h **** 		return(*this);
  53:c:\users\niels\documents\github\dsp\software\algemeen\h\datapakket.h **** 	}
  54:c:\users\niels\documents\github\dsp\software\algemeen\h\datapakket.h **** 
  55:c:\users\niels\documents\github\dsp\software\algemeen\h\datapakket.h **** 	DataPakket<ttype> & operator = (const DataPakket<ttype> &rhs)
  56:c:\users\niels\documents\github\dsp\software\algemeen\h\datapakket.h **** 	{
  57:c:\users\niels\documents\github\dsp\software\algemeen\h\datapakket.h **** 		assert(grootte == rhs.grootte);
  58:c:\users\niels\documents\github\dsp\software\algemeen\h\datapakket.h **** 		const auto kopieGrootte = sizeof(ttype)*grootte;
  59:c:\users\niels\documents\github\dsp\software\algemeen\h\datapakket.h **** 
  60:c:\users\niels\documents\github\dsp\software\algemeen\h\datapakket.h **** 		auto bestemming = reinterpret_cast<UInt8 *>(data);
  61:c:\users\niels\documents\github\dsp\software\algemeen\h\datapakket.h **** 		const auto bron = reinterpret_cast<UInt8 *>(rhs.data);
  62:c:\users\niels\documents\github\dsp\software\algemeen\h\datapakket.h **** 		memcpy(bestemming,bron,kopieGrootte);
  63:c:\users\niels\documents\github\dsp\software\algemeen\h\datapakket.h **** 		return(*this);
  64:c:\users\niels\documents\github\dsp\software\algemeen\h\datapakket.h **** 	};
  65:c:\users\niels\documents\github\dsp\software\algemeen\h\datapakket.h **** 
  66:c:\users\niels\documents\github\dsp\software\algemeen\h\datapakket.h **** 	ttype & operator [] (const UInt32 index) const
 1162              	 .loc 2 66 10
 1163              	 .cfi_startproc
 1164              	 
 1165              	 
 1166 0000 80B5     	 push {r7,lr}
 1167              	 .cfi_def_cfa_offset 8
 1168              	 .cfi_offset 7,-8
 1169              	 .cfi_offset 14,-4
 1170 0002 82B0     	 sub sp,sp,#8
ARM GAS   			page 27


 1171              	 .cfi_def_cfa_offset 16
 1172 0004 00AF     	 add r7,sp,#0
 1173              	 .cfi_def_cfa_register 7
 1174 0006 7860     	 str r0,[r7,#4]
 1175 0008 3960     	 str r1,[r7]
  67:c:\users\niels\documents\github\dsp\software\algemeen\h\datapakket.h **** 	{
  68:c:\users\niels\documents\github\dsp\software\algemeen\h\datapakket.h **** 		assert(index < grootte);
 1176              	 .loc 2 68 3
 1177 000a 7B68     	 ldr r3,[r7,#4]
 1178 000c 5B68     	 ldr r3,[r3,#4]
 1179 000e 3A68     	 ldr r2,[r7]
 1180 0010 9A42     	 cmp r2,r3
 1181 0012 05D3     	 bcc .L47
 1182              	 .loc 2 68 3 is_stmt 0 discriminator 1
 1183 0014 064B     	 ldr r3,.L49
 1184 0016 074A     	 ldr r2,.L49+4
 1185 0018 4421     	 movs r1,#68
 1186 001a 0748     	 ldr r0,.L49+8
 1187 001c FFF7FEFF 	 bl __assert_func
 1188              	.L47:
  69:c:\users\niels\documents\github\dsp\software\algemeen\h\datapakket.h **** 		return(data[index]);
 1189              	 .loc 2 69 10 is_stmt 1
 1190 0020 7B68     	 ldr r3,[r7,#4]
 1191 0022 1A68     	 ldr r2,[r3]
 1192              	 .loc 2 69 21
 1193 0024 3B68     	 ldr r3,[r7]
 1194 0026 1344     	 add r3,r3,r2
  70:c:\users\niels\documents\github\dsp\software\algemeen\h\datapakket.h **** 	};
 1195              	 .loc 2 70 2
 1196 0028 1846     	 mov r0,r3
 1197 002a 0837     	 adds r7,r7,#8
 1198              	 .cfi_def_cfa_offset 8
 1199 002c BD46     	 mov sp,r7
 1200              	 .cfi_def_cfa_register 13
 1201              	 
 1202 002e 80BD     	 pop {r7,pc}
 1203              	.L50:
 1204              	 .align 2
 1205              	.L49:
 1206 0030 9C020000 	 .word .LC10
 1207 0034 AC020000 	 .word .LC11
 1208 0038 18030000 	 .word .LC12
 1209              	 .cfi_endproc
 1210              	.LFE280:
 1211              	 .size _ZNK10DataPakketIhEixEm,.-_ZNK10DataPakketIhEixEm
 1212              	 .section .text._ZNK10DataPakketIfE11geefGrootteEv,"axG",%progbits,_ZNK10DataPakketIfE11geefGrootteEv,comdat
 1213              	 .align 1
 1214              	 .weak _ZNK10DataPakketIfE11geefGrootteEv
 1215              	 .syntax unified
 1216              	 .thumb
 1217              	 .thumb_func
 1218              	 .type _ZNK10DataPakketIfE11geefGrootteEv,%function
 1219              	_ZNK10DataPakketIfE11geefGrootteEv:
 1220              	.LFB281:
  40:c:\users\niels\documents\github\dsp\software\algemeen\h\datapakket.h **** 	{
 1221              	 .loc 2 40 9
 1222              	 .cfi_startproc
ARM GAS   			page 28


 1223              	 
 1224              	 
 1225              	 
 1226 0000 80B4     	 push {r7}
 1227              	 .cfi_def_cfa_offset 4
 1228              	 .cfi_offset 7,-4
 1229 0002 83B0     	 sub sp,sp,#12
 1230              	 .cfi_def_cfa_offset 16
 1231 0004 00AF     	 add r7,sp,#0
 1232              	 .cfi_def_cfa_register 7
 1233 0006 7860     	 str r0,[r7,#4]
  42:c:\users\niels\documents\github\dsp\software\algemeen\h\datapakket.h **** 	};
 1234              	 .loc 2 42 17
 1235 0008 7B68     	 ldr r3,[r7,#4]
 1236 000a 5B68     	 ldr r3,[r3,#4]
  43:c:\users\niels\documents\github\dsp\software\algemeen\h\datapakket.h **** 
 1237              	 .loc 2 43 2
 1238 000c 1846     	 mov r0,r3
 1239 000e 0C37     	 adds r7,r7,#12
 1240              	 .cfi_def_cfa_offset 4
 1241 0010 BD46     	 mov sp,r7
 1242              	 .cfi_def_cfa_register 13
 1243              	 
 1244 0012 5DF8047B 	 ldr r7,[sp],#4
 1245              	 .cfi_restore 7
 1246              	 .cfi_def_cfa_offset 0
 1247 0016 7047     	 bx lr
 1248              	 .cfi_endproc
 1249              	.LFE281:
 1250              	 .size _ZNK10DataPakketIfE11geefGrootteEv,.-_ZNK10DataPakketIfE11geefGrootteEv
 1251              	 .section .rodata
 1252 035d 000000   	 .align 2
 1253              	.LC13:
 1254 0360 74747970 	 .ascii "ttype& DataPakket<ttype>::operator[](UInt32) const "
 1254      65262044 
 1254      61746150 
 1254      616B6B65 
 1254      743C7474 
 1255 0393 5B776974 	 .ascii "[with ttype = float; UInt32 = long unsigned int]\000"
 1255      68207474 
 1255      79706520 
 1255      3D20666C 
 1255      6F61743B 
 1256              	 .section .text._ZNK10DataPakketIfEixEm,"axG",%progbits,_ZNK10DataPakketIfEixEm,comdat
 1257              	 .align 1
 1258              	 .weak _ZNK10DataPakketIfEixEm
 1259              	 .syntax unified
 1260              	 .thumb
 1261              	 .thumb_func
 1262              	 .type _ZNK10DataPakketIfEixEm,%function
 1263              	_ZNK10DataPakketIfEixEm:
 1264              	.LFB282:
  66:c:\users\niels\documents\github\dsp\software\algemeen\h\datapakket.h **** 	{
 1265              	 .loc 2 66 10
 1266              	 .cfi_startproc
 1267              	 
 1268              	 
ARM GAS   			page 29


 1269 0000 80B5     	 push {r7,lr}
 1270              	 .cfi_def_cfa_offset 8
 1271              	 .cfi_offset 7,-8
 1272              	 .cfi_offset 14,-4
 1273 0002 82B0     	 sub sp,sp,#8
 1274              	 .cfi_def_cfa_offset 16
 1275 0004 00AF     	 add r7,sp,#0
 1276              	 .cfi_def_cfa_register 7
 1277 0006 7860     	 str r0,[r7,#4]
 1278 0008 3960     	 str r1,[r7]
  68:c:\users\niels\documents\github\dsp\software\algemeen\h\datapakket.h **** 		return(data[index]);
 1279              	 .loc 2 68 3
 1280 000a 7B68     	 ldr r3,[r7,#4]
 1281 000c 5B68     	 ldr r3,[r3,#4]
 1282 000e 3A68     	 ldr r2,[r7]
 1283 0010 9A42     	 cmp r2,r3
 1284 0012 05D3     	 bcc .L54
  68:c:\users\niels\documents\github\dsp\software\algemeen\h\datapakket.h **** 		return(data[index]);
 1285              	 .loc 2 68 3 is_stmt 0 discriminator 1
 1286 0014 074B     	 ldr r3,.L56
 1287 0016 084A     	 ldr r2,.L56+4
 1288 0018 4421     	 movs r1,#68
 1289 001a 0848     	 ldr r0,.L56+8
 1290 001c FFF7FEFF 	 bl __assert_func
 1291              	.L54:
  69:c:\users\niels\documents\github\dsp\software\algemeen\h\datapakket.h **** 	};
 1292              	 .loc 2 69 10 is_stmt 1
 1293 0020 7B68     	 ldr r3,[r7,#4]
 1294 0022 1A68     	 ldr r2,[r3]
  69:c:\users\niels\documents\github\dsp\software\algemeen\h\datapakket.h **** 	};
 1295              	 .loc 2 69 14
 1296 0024 3B68     	 ldr r3,[r7]
 1297 0026 9B00     	 lsls r3,r3,#2
  69:c:\users\niels\documents\github\dsp\software\algemeen\h\datapakket.h **** 	};
 1298              	 .loc 2 69 21
 1299 0028 1344     	 add r3,r3,r2
 1300              	 .loc 2 70 2
 1301 002a 1846     	 mov r0,r3
 1302 002c 0837     	 adds r7,r7,#8
 1303              	 .cfi_def_cfa_offset 8
 1304 002e BD46     	 mov sp,r7
 1305              	 .cfi_def_cfa_register 13
 1306              	 
 1307 0030 80BD     	 pop {r7,pc}
 1308              	.L57:
 1309 0032 00BF     	 .align 2
 1310              	.L56:
 1311 0034 9C020000 	 .word .LC10
 1312 0038 60030000 	 .word .LC13
 1313 003c 18030000 	 .word .LC12
 1314              	 .cfi_endproc
 1315              	.LFE282:
 1316              	 .size _ZNK10DataPakketIfEixEm,.-_ZNK10DataPakketIfEixEm
 1317              	 .section .rodata
 1318              	 .align 2
 1319              	.LC14:
 1320 03c4 6E756C6C 	 .ascii "nullptr != dataPtr\000"
ARM GAS   			page 30


 1320      70747220 
 1320      213D2064 
 1320      61746150 
 1320      747200
 1321 03d7 00       	 .align 2
 1322              	.LC15:
 1323 03d8 44617461 	 .ascii "DataPakket<ttype>::DataPakket(ttype*, UInt32) [with"
 1323      50616B6B 
 1323      65743C74 
 1323      74797065 
 1323      3E3A3A44 
 1324 040b 20747479 	 .ascii " ttype = unsigned char; UInt32 = long unsigned int]"
 1324      7065203D 
 1324      20756E73 
 1324      69676E65 
 1324      64206368 
 1325 043e 00       	 .ascii "\000"
 1326 043f 00       	 .align 2
 1327              	.LC16:
 1328 0440 3020213D 	 .ascii "0 != grootte\000"
 1328      2067726F 
 1328      6F747465 
 1328      00
 1329              	 .section .text._ZN10DataPakketIhEC2EPhm,"axG",%progbits,_ZN10DataPakketIhEC5EPhm,comdat
 1330              	 .align 1
 1331              	 .weak _ZN10DataPakketIhEC2EPhm
 1332              	 .syntax unified
 1333              	 .thumb
 1334              	 .thumb_func
 1335              	 .type _ZN10DataPakketIhEC2EPhm,%function
 1336              	_ZN10DataPakketIhEC2EPhm:
 1337              	.LFB284:
  33:c:\users\niels\documents\github\dsp\software\algemeen\h\datapakket.h **** 			   const UInt32 gr) : data(dataPtr),grootte(gr)
 1338              	 .loc 2 33 2
 1339              	 .cfi_startproc
 1340              	 
 1341              	 
 1342 0000 80B5     	 push {r7,lr}
 1343              	 .cfi_def_cfa_offset 8
 1344              	 .cfi_offset 7,-8
 1345              	 .cfi_offset 14,-4
 1346 0002 84B0     	 sub sp,sp,#16
 1347              	 .cfi_def_cfa_offset 24
 1348 0004 00AF     	 add r7,sp,#0
 1349              	 .cfi_def_cfa_register 7
 1350 0006 F860     	 str r0,[r7,#12]
 1351 0008 B960     	 str r1,[r7,#8]
 1352 000a 7A60     	 str r2,[r7,#4]
 1353              	.LBB2:
  34:c:\users\niels\documents\github\dsp\software\algemeen\h\datapakket.h **** 	{
 1354              	 .loc 2 34 50
 1355 000c FB68     	 ldr r3,[r7,#12]
 1356 000e BA68     	 ldr r2,[r7,#8]
 1357 0010 1A60     	 str r2,[r3]
 1358 0012 FB68     	 ldr r3,[r7,#12]
 1359 0014 7A68     	 ldr r2,[r7,#4]
 1360 0016 5A60     	 str r2,[r3,#4]
ARM GAS   			page 31


  36:c:\users\niels\documents\github\dsp\software\algemeen\h\datapakket.h **** 		assert(0 != grootte);
 1361              	 .loc 2 36 3
 1362 0018 BB68     	 ldr r3,[r7,#8]
 1363 001a 002B     	 cmp r3,#0
 1364 001c 05D1     	 bne .L59
  36:c:\users\niels\documents\github\dsp\software\algemeen\h\datapakket.h **** 		assert(0 != grootte);
 1365              	 .loc 2 36 3 is_stmt 0 discriminator 1
 1366 001e 0A4B     	 ldr r3,.L62
 1367 0020 0A4A     	 ldr r2,.L62+4
 1368 0022 2421     	 movs r1,#36
 1369 0024 0A48     	 ldr r0,.L62+8
 1370 0026 FFF7FEFF 	 bl __assert_func
 1371              	.L59:
  37:c:\users\niels\documents\github\dsp\software\algemeen\h\datapakket.h **** 	};
 1372              	 .loc 2 37 3 is_stmt 1
 1373 002a FB68     	 ldr r3,[r7,#12]
 1374 002c 5B68     	 ldr r3,[r3,#4]
 1375 002e 002B     	 cmp r3,#0
 1376 0030 05D1     	 bne .L60
  37:c:\users\niels\documents\github\dsp\software\algemeen\h\datapakket.h **** 	};
 1377              	 .loc 2 37 3 is_stmt 0 discriminator 1
 1378 0032 084B     	 ldr r3,.L62+12
 1379 0034 054A     	 ldr r2,.L62+4
 1380 0036 2521     	 movs r1,#37
 1381 0038 0548     	 ldr r0,.L62+8
 1382 003a FFF7FEFF 	 bl __assert_func
 1383              	.L60:
 1384              	.LBE2:
  38:c:\users\niels\documents\github\dsp\software\algemeen\h\datapakket.h **** 
 1385              	 .loc 2 38 2 is_stmt 1
 1386 003e FB68     	 ldr r3,[r7,#12]
 1387 0040 1846     	 mov r0,r3
 1388 0042 1037     	 adds r7,r7,#16
 1389              	 .cfi_def_cfa_offset 8
 1390 0044 BD46     	 mov sp,r7
 1391              	 .cfi_def_cfa_register 13
 1392              	 
 1393 0046 80BD     	 pop {r7,pc}
 1394              	.L63:
 1395              	 .align 2
 1396              	.L62:
 1397 0048 C4030000 	 .word .LC14
 1398 004c D8030000 	 .word .LC15
 1399 0050 18030000 	 .word .LC12
 1400 0054 40040000 	 .word .LC16
 1401              	 .cfi_endproc
 1402              	.LFE284:
 1403              	 .size _ZN10DataPakketIhEC2EPhm,.-_ZN10DataPakketIhEC2EPhm
 1404              	 .weak _ZN10DataPakketIhEC1EPhm
 1405              	 .thumb_set _ZN10DataPakketIhEC1EPhm,_ZN10DataPakketIhEC2EPhm
 1406              	 .text
 1407              	.Letext0:
 1408              	 .file 3 "c:\\progra~2\\gnuarm~1\\102021~1.10\\arm-none-eabi\\include\\machine\\_default_types.h"
 1409              	 .file 4 "c:\\progra~2\\gnuarm~1\\102021~1.10\\arm-none-eabi\\include\\sys\\_stdint.h"
 1410              	 .file 5 "c:\\progra~2\\gnuarm~1\\102021~1.10\\arm-none-eabi\\include\\c++\\10.3.1\\bits\\cpp_type_traits.h"
 1411              	 .file 6 "c:\\progra~2\\gnuarm~1\\102021~1.10\\arm-none-eabi\\include\\c++\\10.3.1\\cmath"
 1412              	 .file 7 "c:\\progra~2\\gnuarm~1\\102021~1.10\\arm-none-eabi\\include\\c++\\10.3.1\\bits\\std_abs.h"
ARM GAS   			page 32


 1413              	 .file 8 "c:\\progra~2\\gnuarm~1\\102021~1.10\\arm-none-eabi\\include\\c++\\10.3.1\\arm-none-eabi\\thumb\\v7e-m+fp\\hard\\bits\\c++config.h"
 1414              	 .file 9 "c:\\progra~2\\gnuarm~1\\102021~1.10\\arm-none-eabi\\include\\math.h"
 1415              	 .file 10 "c:\\progra~2\\gnuarm~1\\102021~1.10\\arm-none-eabi\\include\\c++\\10.3.1\\math.h"
 1416              	 .file 11 "c:\\users\\niels\\documents\\github\\dsp\\software\\algemeen\\h\\algdef.h"
 1417              	 .file 12 "c:\\users\\niels\\documents\\github\\dsp\\software\\stm32basis\\hal\\gemeenschappelijk\\third_party\\ese_bsp\\digprocesaansturing\\h\\digprocesaansturing.h"
 1418              	 .file 13 "<built-in>"