ARM GAS   			page 1


   1              	 .cpu cortex-m4
   2              	 .arch armv7e-m
   3              	 .fpu fpv4-sp-d16
   4              	 .eabi_attribute 27,1
   5              	 .eabi_attribute 28,1
   6              	 .eabi_attribute 20,1
   7              	 .eabi_attribute 21,1
   8              	 .eabi_attribute 23,3
   9              	 .eabi_attribute 24,1
  10              	 .eabi_attribute 25,1
  11              	 .eabi_attribute 26,1
  12              	 .eabi_attribute 30,6
  13              	 .eabi_attribute 34,0
  14              	 .eabi_attribute 18,4
  15              	 .file "ESEBoardComponents.cpp"
  16              	 .text
  17              	.Ltext0:
  18              	 .cfi_sections .debug_frame
  19              	 .section .rodata._ZL2PI,"a"
  20              	 .align 2
  21              	 .type _ZL2PI,%object
  22              	 .size _ZL2PI,4
  23              	_ZL2PI:
  24 0000 DB0F4940 	 .word 1078530011
  25              	 .section .rodata._ZL6TweePI,"a"
  26              	 .align 2
  27              	 .type _ZL6TweePI,%object
  28              	 .size _ZL6TweePI,4
  29              	_ZL6TweePI:
  30 0000 DB0FC940 	 .word 1086918619
  31              	 .section .rodata._ZL5TwoPI,"a"
  32              	 .align 2
  33              	 .type _ZL5TwoPI,%object
  34              	 .size _ZL5TwoPI,4
  35              	_ZL5TwoPI:
  36 0000 DB0FC940 	 .word 1086918619
  37              	 .section .rodata._ZL2CR,"a"
  38              	 .type _ZL2CR,%object
  39              	 .size _ZL2CR,1
  40              	_ZL2CR:
  41 0000 0D       	 .byte 13
  42              	 .section .rodata._ZL2LF,"a"
  43              	 .type _ZL2LF,%object
  44              	 .size _ZL2LF,1
  45              	_ZL2LF:
  46 0000 0A       	 .byte 10
  47              	 .section .rodata._ZL9BACKSPACE,"a"
  48              	 .type _ZL9BACKSPACE,%object
  49              	 .size _ZL9BACKSPACE,1
  50              	_ZL9BACKSPACE:
  51 0000 08       	 .byte 8
  52              	 .section .rodata._ZL5SPACE,"a"
  53              	 .type _ZL5SPACE,%object
  54              	 .size _ZL5SPACE,1
  55              	_ZL5SPACE:
  56 0000 20       	 .byte 32
  57              	 .section .rodata._ZL3ESC,"a"
ARM GAS   			page 2


  58              	 .type _ZL3ESC,%object
  59              	 .size _ZL3ESC,1
  60              	_ZL3ESC:
  61 0000 1B       	 .byte 27
  62              	 .section .rodata._ZStL19piecewise_construct,"a"
  63              	 .align 2
  64              	 .type _ZStL19piecewise_construct,%object
  65              	 .size _ZStL19piecewise_construct,1
  66              	_ZStL19piecewise_construct:
  67 0000 00       	 .space 1
  68              	 .section .text._ZL20__gthread_key_deletei,"ax",%progbits
  69              	 .align 1
  70              	 .syntax unified
  71              	 .thumb
  72              	 .thumb_func
  73              	 .type _ZL20__gthread_key_deletei,%function
  74              	_ZL20__gthread_key_deletei:
  75              	.LFB910:
  76              	 .file 1 "c:\\progra~2\\gnuarm~1\\102021~1.10\\arm-none-eabi\\include\\c++\\10.3.1\\arm-none-eabi\\thumb\\v7e-m+fp\\hard\\bits\\gthr-default.h"
   1:c:\progra~2\gnuarm~1\102021~1.10\arm-none-eabi\include\c++\10.3.1\arm-none-eabi\thumb\v7e-m+fp\hard\bits\gthr-default.h **** /* Threads compatibility routines for libgcc2 and libobjc.  */
   2:c:\progra~2\gnuarm~1\102021~1.10\arm-none-eabi\include\c++\10.3.1\arm-none-eabi\thumb\v7e-m+fp\hard\bits\gthr-default.h **** /* Compile this one with gcc.  */
   3:c:\progra~2\gnuarm~1\102021~1.10\arm-none-eabi\include\c++\10.3.1\arm-none-eabi\thumb\v7e-m+fp\hard\bits\gthr-default.h **** /* Copyright (C) 1997-2020 Free Software Foundation, Inc.
   4:c:\progra~2\gnuarm~1\102021~1.10\arm-none-eabi\include\c++\10.3.1\arm-none-eabi\thumb\v7e-m+fp\hard\bits\gthr-default.h **** 
   5:c:\progra~2\gnuarm~1\102021~1.10\arm-none-eabi\include\c++\10.3.1\arm-none-eabi\thumb\v7e-m+fp\hard\bits\gthr-default.h **** This file is part of GCC.
   6:c:\progra~2\gnuarm~1\102021~1.10\arm-none-eabi\include\c++\10.3.1\arm-none-eabi\thumb\v7e-m+fp\hard\bits\gthr-default.h **** 
   7:c:\progra~2\gnuarm~1\102021~1.10\arm-none-eabi\include\c++\10.3.1\arm-none-eabi\thumb\v7e-m+fp\hard\bits\gthr-default.h **** GCC is free software; you can redistribute it and/or modify it under
   8:c:\progra~2\gnuarm~1\102021~1.10\arm-none-eabi\include\c++\10.3.1\arm-none-eabi\thumb\v7e-m+fp\hard\bits\gthr-default.h **** the terms of the GNU General Public License as published by the Free
   9:c:\progra~2\gnuarm~1\102021~1.10\arm-none-eabi\include\c++\10.3.1\arm-none-eabi\thumb\v7e-m+fp\hard\bits\gthr-default.h **** Software Foundation; either version 3, or (at your option) any later
  10:c:\progra~2\gnuarm~1\102021~1.10\arm-none-eabi\include\c++\10.3.1\arm-none-eabi\thumb\v7e-m+fp\hard\bits\gthr-default.h **** version.
  11:c:\progra~2\gnuarm~1\102021~1.10\arm-none-eabi\include\c++\10.3.1\arm-none-eabi\thumb\v7e-m+fp\hard\bits\gthr-default.h **** 
  12:c:\progra~2\gnuarm~1\102021~1.10\arm-none-eabi\include\c++\10.3.1\arm-none-eabi\thumb\v7e-m+fp\hard\bits\gthr-default.h **** GCC is distributed in the hope that it will be useful, but WITHOUT ANY
  13:c:\progra~2\gnuarm~1\102021~1.10\arm-none-eabi\include\c++\10.3.1\arm-none-eabi\thumb\v7e-m+fp\hard\bits\gthr-default.h **** WARRANTY; without even the implied warranty of MERCHANTABILITY or
  14:c:\progra~2\gnuarm~1\102021~1.10\arm-none-eabi\include\c++\10.3.1\arm-none-eabi\thumb\v7e-m+fp\hard\bits\gthr-default.h **** FITNESS FOR A PARTICULAR PURPOSE.  See the GNU General Public License
  15:c:\progra~2\gnuarm~1\102021~1.10\arm-none-eabi\include\c++\10.3.1\arm-none-eabi\thumb\v7e-m+fp\hard\bits\gthr-default.h **** for more details.
  16:c:\progra~2\gnuarm~1\102021~1.10\arm-none-eabi\include\c++\10.3.1\arm-none-eabi\thumb\v7e-m+fp\hard\bits\gthr-default.h **** 
  17:c:\progra~2\gnuarm~1\102021~1.10\arm-none-eabi\include\c++\10.3.1\arm-none-eabi\thumb\v7e-m+fp\hard\bits\gthr-default.h **** Under Section 7 of GPL version 3, you are granted additional
  18:c:\progra~2\gnuarm~1\102021~1.10\arm-none-eabi\include\c++\10.3.1\arm-none-eabi\thumb\v7e-m+fp\hard\bits\gthr-default.h **** permissions described in the GCC Runtime Library Exception, version
  19:c:\progra~2\gnuarm~1\102021~1.10\arm-none-eabi\include\c++\10.3.1\arm-none-eabi\thumb\v7e-m+fp\hard\bits\gthr-default.h **** 3.1, as published by the Free Software Foundation.
  20:c:\progra~2\gnuarm~1\102021~1.10\arm-none-eabi\include\c++\10.3.1\arm-none-eabi\thumb\v7e-m+fp\hard\bits\gthr-default.h **** 
  21:c:\progra~2\gnuarm~1\102021~1.10\arm-none-eabi\include\c++\10.3.1\arm-none-eabi\thumb\v7e-m+fp\hard\bits\gthr-default.h **** You should have received a copy of the GNU General Public License and
  22:c:\progra~2\gnuarm~1\102021~1.10\arm-none-eabi\include\c++\10.3.1\arm-none-eabi\thumb\v7e-m+fp\hard\bits\gthr-default.h **** a copy of the GCC Runtime Library Exception along with this program;
  23:c:\progra~2\gnuarm~1\102021~1.10\arm-none-eabi\include\c++\10.3.1\arm-none-eabi\thumb\v7e-m+fp\hard\bits\gthr-default.h **** see the files COPYING3 and COPYING.RUNTIME respectively.  If not, see
  24:c:\progra~2\gnuarm~1\102021~1.10\arm-none-eabi\include\c++\10.3.1\arm-none-eabi\thumb\v7e-m+fp\hard\bits\gthr-default.h **** <http://www.gnu.org/licenses/>.  */
  25:c:\progra~2\gnuarm~1\102021~1.10\arm-none-eabi\include\c++\10.3.1\arm-none-eabi\thumb\v7e-m+fp\hard\bits\gthr-default.h **** 
  26:c:\progra~2\gnuarm~1\102021~1.10\arm-none-eabi\include\c++\10.3.1\arm-none-eabi\thumb\v7e-m+fp\hard\bits\gthr-default.h **** #ifndef _GLIBCXX_GCC_GTHR_SINGLE_H
  27:c:\progra~2\gnuarm~1\102021~1.10\arm-none-eabi\include\c++\10.3.1\arm-none-eabi\thumb\v7e-m+fp\hard\bits\gthr-default.h **** #define _GLIBCXX_GCC_GTHR_SINGLE_H
  28:c:\progra~2\gnuarm~1\102021~1.10\arm-none-eabi\include\c++\10.3.1\arm-none-eabi\thumb\v7e-m+fp\hard\bits\gthr-default.h **** 
  29:c:\progra~2\gnuarm~1\102021~1.10\arm-none-eabi\include\c++\10.3.1\arm-none-eabi\thumb\v7e-m+fp\hard\bits\gthr-default.h **** /* Just provide compatibility for mutex handling.  */
  30:c:\progra~2\gnuarm~1\102021~1.10\arm-none-eabi\include\c++\10.3.1\arm-none-eabi\thumb\v7e-m+fp\hard\bits\gthr-default.h **** 
  31:c:\progra~2\gnuarm~1\102021~1.10\arm-none-eabi\include\c++\10.3.1\arm-none-eabi\thumb\v7e-m+fp\hard\bits\gthr-default.h **** typedef int __gthread_key_t;
  32:c:\progra~2\gnuarm~1\102021~1.10\arm-none-eabi\include\c++\10.3.1\arm-none-eabi\thumb\v7e-m+fp\hard\bits\gthr-default.h **** typedef int __gthread_once_t;
  33:c:\progra~2\gnuarm~1\102021~1.10\arm-none-eabi\include\c++\10.3.1\arm-none-eabi\thumb\v7e-m+fp\hard\bits\gthr-default.h **** typedef int __gthread_mutex_t;
  34:c:\progra~2\gnuarm~1\102021~1.10\arm-none-eabi\include\c++\10.3.1\arm-none-eabi\thumb\v7e-m+fp\hard\bits\gthr-default.h **** typedef int __gthread_recursive_mutex_t;
  35:c:\progra~2\gnuarm~1\102021~1.10\arm-none-eabi\include\c++\10.3.1\arm-none-eabi\thumb\v7e-m+fp\hard\bits\gthr-default.h **** 
  36:c:\progra~2\gnuarm~1\102021~1.10\arm-none-eabi\include\c++\10.3.1\arm-none-eabi\thumb\v7e-m+fp\hard\bits\gthr-default.h **** #define __GTHREAD_ONCE_INIT 0
  37:c:\progra~2\gnuarm~1\102021~1.10\arm-none-eabi\include\c++\10.3.1\arm-none-eabi\thumb\v7e-m+fp\hard\bits\gthr-default.h **** #define __GTHREAD_MUTEX_INIT 0
  38:c:\progra~2\gnuarm~1\102021~1.10\arm-none-eabi\include\c++\10.3.1\arm-none-eabi\thumb\v7e-m+fp\hard\bits\gthr-default.h **** #define __GTHREAD_MUTEX_INIT_FUNCTION(mx) do {} while (0)
ARM GAS   			page 3


  39:c:\progra~2\gnuarm~1\102021~1.10\arm-none-eabi\include\c++\10.3.1\arm-none-eabi\thumb\v7e-m+fp\hard\bits\gthr-default.h **** #define __GTHREAD_RECURSIVE_MUTEX_INIT 0
  40:c:\progra~2\gnuarm~1\102021~1.10\arm-none-eabi\include\c++\10.3.1\arm-none-eabi\thumb\v7e-m+fp\hard\bits\gthr-default.h **** 
  41:c:\progra~2\gnuarm~1\102021~1.10\arm-none-eabi\include\c++\10.3.1\arm-none-eabi\thumb\v7e-m+fp\hard\bits\gthr-default.h **** #define _GLIBCXX_UNUSED __attribute__((__unused__))
  42:c:\progra~2\gnuarm~1\102021~1.10\arm-none-eabi\include\c++\10.3.1\arm-none-eabi\thumb\v7e-m+fp\hard\bits\gthr-default.h **** 
  43:c:\progra~2\gnuarm~1\102021~1.10\arm-none-eabi\include\c++\10.3.1\arm-none-eabi\thumb\v7e-m+fp\hard\bits\gthr-default.h **** #ifdef _LIBOBJC
  44:c:\progra~2\gnuarm~1\102021~1.10\arm-none-eabi\include\c++\10.3.1\arm-none-eabi\thumb\v7e-m+fp\hard\bits\gthr-default.h **** 
  45:c:\progra~2\gnuarm~1\102021~1.10\arm-none-eabi\include\c++\10.3.1\arm-none-eabi\thumb\v7e-m+fp\hard\bits\gthr-default.h **** /* Thread local storage for a single thread */
  46:c:\progra~2\gnuarm~1\102021~1.10\arm-none-eabi\include\c++\10.3.1\arm-none-eabi\thumb\v7e-m+fp\hard\bits\gthr-default.h **** static void *thread_local_storage = NULL;
  47:c:\progra~2\gnuarm~1\102021~1.10\arm-none-eabi\include\c++\10.3.1\arm-none-eabi\thumb\v7e-m+fp\hard\bits\gthr-default.h **** 
  48:c:\progra~2\gnuarm~1\102021~1.10\arm-none-eabi\include\c++\10.3.1\arm-none-eabi\thumb\v7e-m+fp\hard\bits\gthr-default.h **** /* Backend initialization functions */
  49:c:\progra~2\gnuarm~1\102021~1.10\arm-none-eabi\include\c++\10.3.1\arm-none-eabi\thumb\v7e-m+fp\hard\bits\gthr-default.h **** 
  50:c:\progra~2\gnuarm~1\102021~1.10\arm-none-eabi\include\c++\10.3.1\arm-none-eabi\thumb\v7e-m+fp\hard\bits\gthr-default.h **** /* Initialize the threads subsystem.  */
  51:c:\progra~2\gnuarm~1\102021~1.10\arm-none-eabi\include\c++\10.3.1\arm-none-eabi\thumb\v7e-m+fp\hard\bits\gthr-default.h **** static inline int
  52:c:\progra~2\gnuarm~1\102021~1.10\arm-none-eabi\include\c++\10.3.1\arm-none-eabi\thumb\v7e-m+fp\hard\bits\gthr-default.h **** __gthread_objc_init_thread_system (void)
  53:c:\progra~2\gnuarm~1\102021~1.10\arm-none-eabi\include\c++\10.3.1\arm-none-eabi\thumb\v7e-m+fp\hard\bits\gthr-default.h **** {
  54:c:\progra~2\gnuarm~1\102021~1.10\arm-none-eabi\include\c++\10.3.1\arm-none-eabi\thumb\v7e-m+fp\hard\bits\gthr-default.h ****   /* No thread support available */
  55:c:\progra~2\gnuarm~1\102021~1.10\arm-none-eabi\include\c++\10.3.1\arm-none-eabi\thumb\v7e-m+fp\hard\bits\gthr-default.h ****   return -1;
  56:c:\progra~2\gnuarm~1\102021~1.10\arm-none-eabi\include\c++\10.3.1\arm-none-eabi\thumb\v7e-m+fp\hard\bits\gthr-default.h **** }
  57:c:\progra~2\gnuarm~1\102021~1.10\arm-none-eabi\include\c++\10.3.1\arm-none-eabi\thumb\v7e-m+fp\hard\bits\gthr-default.h **** 
  58:c:\progra~2\gnuarm~1\102021~1.10\arm-none-eabi\include\c++\10.3.1\arm-none-eabi\thumb\v7e-m+fp\hard\bits\gthr-default.h **** /* Close the threads subsystem.  */
  59:c:\progra~2\gnuarm~1\102021~1.10\arm-none-eabi\include\c++\10.3.1\arm-none-eabi\thumb\v7e-m+fp\hard\bits\gthr-default.h **** static inline int
  60:c:\progra~2\gnuarm~1\102021~1.10\arm-none-eabi\include\c++\10.3.1\arm-none-eabi\thumb\v7e-m+fp\hard\bits\gthr-default.h **** __gthread_objc_close_thread_system (void)
  61:c:\progra~2\gnuarm~1\102021~1.10\arm-none-eabi\include\c++\10.3.1\arm-none-eabi\thumb\v7e-m+fp\hard\bits\gthr-default.h **** {
  62:c:\progra~2\gnuarm~1\102021~1.10\arm-none-eabi\include\c++\10.3.1\arm-none-eabi\thumb\v7e-m+fp\hard\bits\gthr-default.h ****   /* No thread support available */
  63:c:\progra~2\gnuarm~1\102021~1.10\arm-none-eabi\include\c++\10.3.1\arm-none-eabi\thumb\v7e-m+fp\hard\bits\gthr-default.h ****   return -1;
  64:c:\progra~2\gnuarm~1\102021~1.10\arm-none-eabi\include\c++\10.3.1\arm-none-eabi\thumb\v7e-m+fp\hard\bits\gthr-default.h **** }
  65:c:\progra~2\gnuarm~1\102021~1.10\arm-none-eabi\include\c++\10.3.1\arm-none-eabi\thumb\v7e-m+fp\hard\bits\gthr-default.h **** 
  66:c:\progra~2\gnuarm~1\102021~1.10\arm-none-eabi\include\c++\10.3.1\arm-none-eabi\thumb\v7e-m+fp\hard\bits\gthr-default.h **** /* Backend thread functions */
  67:c:\progra~2\gnuarm~1\102021~1.10\arm-none-eabi\include\c++\10.3.1\arm-none-eabi\thumb\v7e-m+fp\hard\bits\gthr-default.h **** 
  68:c:\progra~2\gnuarm~1\102021~1.10\arm-none-eabi\include\c++\10.3.1\arm-none-eabi\thumb\v7e-m+fp\hard\bits\gthr-default.h **** /* Create a new thread of execution.  */
  69:c:\progra~2\gnuarm~1\102021~1.10\arm-none-eabi\include\c++\10.3.1\arm-none-eabi\thumb\v7e-m+fp\hard\bits\gthr-default.h **** static inline objc_thread_t
  70:c:\progra~2\gnuarm~1\102021~1.10\arm-none-eabi\include\c++\10.3.1\arm-none-eabi\thumb\v7e-m+fp\hard\bits\gthr-default.h **** __gthread_objc_thread_detach (void (* func)(void *), void * arg _GLIBCXX_UNUSED)
  71:c:\progra~2\gnuarm~1\102021~1.10\arm-none-eabi\include\c++\10.3.1\arm-none-eabi\thumb\v7e-m+fp\hard\bits\gthr-default.h **** {
  72:c:\progra~2\gnuarm~1\102021~1.10\arm-none-eabi\include\c++\10.3.1\arm-none-eabi\thumb\v7e-m+fp\hard\bits\gthr-default.h ****   /* No thread support available */
  73:c:\progra~2\gnuarm~1\102021~1.10\arm-none-eabi\include\c++\10.3.1\arm-none-eabi\thumb\v7e-m+fp\hard\bits\gthr-default.h ****   return NULL;
  74:c:\progra~2\gnuarm~1\102021~1.10\arm-none-eabi\include\c++\10.3.1\arm-none-eabi\thumb\v7e-m+fp\hard\bits\gthr-default.h **** }
  75:c:\progra~2\gnuarm~1\102021~1.10\arm-none-eabi\include\c++\10.3.1\arm-none-eabi\thumb\v7e-m+fp\hard\bits\gthr-default.h **** 
  76:c:\progra~2\gnuarm~1\102021~1.10\arm-none-eabi\include\c++\10.3.1\arm-none-eabi\thumb\v7e-m+fp\hard\bits\gthr-default.h **** /* Set the current thread's priority.  */
  77:c:\progra~2\gnuarm~1\102021~1.10\arm-none-eabi\include\c++\10.3.1\arm-none-eabi\thumb\v7e-m+fp\hard\bits\gthr-default.h **** static inline int
  78:c:\progra~2\gnuarm~1\102021~1.10\arm-none-eabi\include\c++\10.3.1\arm-none-eabi\thumb\v7e-m+fp\hard\bits\gthr-default.h **** __gthread_objc_thread_set_priority (int priority _GLIBCXX_UNUSED)
  79:c:\progra~2\gnuarm~1\102021~1.10\arm-none-eabi\include\c++\10.3.1\arm-none-eabi\thumb\v7e-m+fp\hard\bits\gthr-default.h **** {
  80:c:\progra~2\gnuarm~1\102021~1.10\arm-none-eabi\include\c++\10.3.1\arm-none-eabi\thumb\v7e-m+fp\hard\bits\gthr-default.h ****   /* No thread support available */
  81:c:\progra~2\gnuarm~1\102021~1.10\arm-none-eabi\include\c++\10.3.1\arm-none-eabi\thumb\v7e-m+fp\hard\bits\gthr-default.h ****   return -1;
  82:c:\progra~2\gnuarm~1\102021~1.10\arm-none-eabi\include\c++\10.3.1\arm-none-eabi\thumb\v7e-m+fp\hard\bits\gthr-default.h **** }
  83:c:\progra~2\gnuarm~1\102021~1.10\arm-none-eabi\include\c++\10.3.1\arm-none-eabi\thumb\v7e-m+fp\hard\bits\gthr-default.h **** 
  84:c:\progra~2\gnuarm~1\102021~1.10\arm-none-eabi\include\c++\10.3.1\arm-none-eabi\thumb\v7e-m+fp\hard\bits\gthr-default.h **** /* Return the current thread's priority.  */
  85:c:\progra~2\gnuarm~1\102021~1.10\arm-none-eabi\include\c++\10.3.1\arm-none-eabi\thumb\v7e-m+fp\hard\bits\gthr-default.h **** static inline int
  86:c:\progra~2\gnuarm~1\102021~1.10\arm-none-eabi\include\c++\10.3.1\arm-none-eabi\thumb\v7e-m+fp\hard\bits\gthr-default.h **** __gthread_objc_thread_get_priority (void)
  87:c:\progra~2\gnuarm~1\102021~1.10\arm-none-eabi\include\c++\10.3.1\arm-none-eabi\thumb\v7e-m+fp\hard\bits\gthr-default.h **** {
  88:c:\progra~2\gnuarm~1\102021~1.10\arm-none-eabi\include\c++\10.3.1\arm-none-eabi\thumb\v7e-m+fp\hard\bits\gthr-default.h ****   return OBJC_THREAD_INTERACTIVE_PRIORITY;
  89:c:\progra~2\gnuarm~1\102021~1.10\arm-none-eabi\include\c++\10.3.1\arm-none-eabi\thumb\v7e-m+fp\hard\bits\gthr-default.h **** }
  90:c:\progra~2\gnuarm~1\102021~1.10\arm-none-eabi\include\c++\10.3.1\arm-none-eabi\thumb\v7e-m+fp\hard\bits\gthr-default.h **** 
  91:c:\progra~2\gnuarm~1\102021~1.10\arm-none-eabi\include\c++\10.3.1\arm-none-eabi\thumb\v7e-m+fp\hard\bits\gthr-default.h **** /* Yield our process time to another thread.  */
  92:c:\progra~2\gnuarm~1\102021~1.10\arm-none-eabi\include\c++\10.3.1\arm-none-eabi\thumb\v7e-m+fp\hard\bits\gthr-default.h **** static inline void
  93:c:\progra~2\gnuarm~1\102021~1.10\arm-none-eabi\include\c++\10.3.1\arm-none-eabi\thumb\v7e-m+fp\hard\bits\gthr-default.h **** __gthread_objc_thread_yield (void)
  94:c:\progra~2\gnuarm~1\102021~1.10\arm-none-eabi\include\c++\10.3.1\arm-none-eabi\thumb\v7e-m+fp\hard\bits\gthr-default.h **** {
  95:c:\progra~2\gnuarm~1\102021~1.10\arm-none-eabi\include\c++\10.3.1\arm-none-eabi\thumb\v7e-m+fp\hard\bits\gthr-default.h ****   return;
ARM GAS   			page 4


  96:c:\progra~2\gnuarm~1\102021~1.10\arm-none-eabi\include\c++\10.3.1\arm-none-eabi\thumb\v7e-m+fp\hard\bits\gthr-default.h **** }
  97:c:\progra~2\gnuarm~1\102021~1.10\arm-none-eabi\include\c++\10.3.1\arm-none-eabi\thumb\v7e-m+fp\hard\bits\gthr-default.h **** 
  98:c:\progra~2\gnuarm~1\102021~1.10\arm-none-eabi\include\c++\10.3.1\arm-none-eabi\thumb\v7e-m+fp\hard\bits\gthr-default.h **** /* Terminate the current thread.  */
  99:c:\progra~2\gnuarm~1\102021~1.10\arm-none-eabi\include\c++\10.3.1\arm-none-eabi\thumb\v7e-m+fp\hard\bits\gthr-default.h **** static inline int
 100:c:\progra~2\gnuarm~1\102021~1.10\arm-none-eabi\include\c++\10.3.1\arm-none-eabi\thumb\v7e-m+fp\hard\bits\gthr-default.h **** __gthread_objc_thread_exit (void)
 101:c:\progra~2\gnuarm~1\102021~1.10\arm-none-eabi\include\c++\10.3.1\arm-none-eabi\thumb\v7e-m+fp\hard\bits\gthr-default.h **** {
 102:c:\progra~2\gnuarm~1\102021~1.10\arm-none-eabi\include\c++\10.3.1\arm-none-eabi\thumb\v7e-m+fp\hard\bits\gthr-default.h ****   /* No thread support available */
 103:c:\progra~2\gnuarm~1\102021~1.10\arm-none-eabi\include\c++\10.3.1\arm-none-eabi\thumb\v7e-m+fp\hard\bits\gthr-default.h ****   /* Should we really exit the program */
 104:c:\progra~2\gnuarm~1\102021~1.10\arm-none-eabi\include\c++\10.3.1\arm-none-eabi\thumb\v7e-m+fp\hard\bits\gthr-default.h ****   /* exit (&__objc_thread_exit_status); */
 105:c:\progra~2\gnuarm~1\102021~1.10\arm-none-eabi\include\c++\10.3.1\arm-none-eabi\thumb\v7e-m+fp\hard\bits\gthr-default.h ****   return -1;
 106:c:\progra~2\gnuarm~1\102021~1.10\arm-none-eabi\include\c++\10.3.1\arm-none-eabi\thumb\v7e-m+fp\hard\bits\gthr-default.h **** }
 107:c:\progra~2\gnuarm~1\102021~1.10\arm-none-eabi\include\c++\10.3.1\arm-none-eabi\thumb\v7e-m+fp\hard\bits\gthr-default.h **** 
 108:c:\progra~2\gnuarm~1\102021~1.10\arm-none-eabi\include\c++\10.3.1\arm-none-eabi\thumb\v7e-m+fp\hard\bits\gthr-default.h **** /* Returns an integer value which uniquely describes a thread.  */
 109:c:\progra~2\gnuarm~1\102021~1.10\arm-none-eabi\include\c++\10.3.1\arm-none-eabi\thumb\v7e-m+fp\hard\bits\gthr-default.h **** static inline objc_thread_t
 110:c:\progra~2\gnuarm~1\102021~1.10\arm-none-eabi\include\c++\10.3.1\arm-none-eabi\thumb\v7e-m+fp\hard\bits\gthr-default.h **** __gthread_objc_thread_id (void)
 111:c:\progra~2\gnuarm~1\102021~1.10\arm-none-eabi\include\c++\10.3.1\arm-none-eabi\thumb\v7e-m+fp\hard\bits\gthr-default.h **** {
 112:c:\progra~2\gnuarm~1\102021~1.10\arm-none-eabi\include\c++\10.3.1\arm-none-eabi\thumb\v7e-m+fp\hard\bits\gthr-default.h ****   /* No thread support, use 1.  */
 113:c:\progra~2\gnuarm~1\102021~1.10\arm-none-eabi\include\c++\10.3.1\arm-none-eabi\thumb\v7e-m+fp\hard\bits\gthr-default.h ****   return (objc_thread_t) 1;
 114:c:\progra~2\gnuarm~1\102021~1.10\arm-none-eabi\include\c++\10.3.1\arm-none-eabi\thumb\v7e-m+fp\hard\bits\gthr-default.h **** }
 115:c:\progra~2\gnuarm~1\102021~1.10\arm-none-eabi\include\c++\10.3.1\arm-none-eabi\thumb\v7e-m+fp\hard\bits\gthr-default.h **** 
 116:c:\progra~2\gnuarm~1\102021~1.10\arm-none-eabi\include\c++\10.3.1\arm-none-eabi\thumb\v7e-m+fp\hard\bits\gthr-default.h **** /* Sets the thread's local storage pointer.  */
 117:c:\progra~2\gnuarm~1\102021~1.10\arm-none-eabi\include\c++\10.3.1\arm-none-eabi\thumb\v7e-m+fp\hard\bits\gthr-default.h **** static inline int
 118:c:\progra~2\gnuarm~1\102021~1.10\arm-none-eabi\include\c++\10.3.1\arm-none-eabi\thumb\v7e-m+fp\hard\bits\gthr-default.h **** __gthread_objc_thread_set_data (void *value)
 119:c:\progra~2\gnuarm~1\102021~1.10\arm-none-eabi\include\c++\10.3.1\arm-none-eabi\thumb\v7e-m+fp\hard\bits\gthr-default.h **** {
 120:c:\progra~2\gnuarm~1\102021~1.10\arm-none-eabi\include\c++\10.3.1\arm-none-eabi\thumb\v7e-m+fp\hard\bits\gthr-default.h ****   thread_local_storage = value;
 121:c:\progra~2\gnuarm~1\102021~1.10\arm-none-eabi\include\c++\10.3.1\arm-none-eabi\thumb\v7e-m+fp\hard\bits\gthr-default.h ****   return 0;
 122:c:\progra~2\gnuarm~1\102021~1.10\arm-none-eabi\include\c++\10.3.1\arm-none-eabi\thumb\v7e-m+fp\hard\bits\gthr-default.h **** }
 123:c:\progra~2\gnuarm~1\102021~1.10\arm-none-eabi\include\c++\10.3.1\arm-none-eabi\thumb\v7e-m+fp\hard\bits\gthr-default.h **** 
 124:c:\progra~2\gnuarm~1\102021~1.10\arm-none-eabi\include\c++\10.3.1\arm-none-eabi\thumb\v7e-m+fp\hard\bits\gthr-default.h **** /* Returns the thread's local storage pointer.  */
 125:c:\progra~2\gnuarm~1\102021~1.10\arm-none-eabi\include\c++\10.3.1\arm-none-eabi\thumb\v7e-m+fp\hard\bits\gthr-default.h **** static inline void *
 126:c:\progra~2\gnuarm~1\102021~1.10\arm-none-eabi\include\c++\10.3.1\arm-none-eabi\thumb\v7e-m+fp\hard\bits\gthr-default.h **** __gthread_objc_thread_get_data (void)
 127:c:\progra~2\gnuarm~1\102021~1.10\arm-none-eabi\include\c++\10.3.1\arm-none-eabi\thumb\v7e-m+fp\hard\bits\gthr-default.h **** {
 128:c:\progra~2\gnuarm~1\102021~1.10\arm-none-eabi\include\c++\10.3.1\arm-none-eabi\thumb\v7e-m+fp\hard\bits\gthr-default.h ****   return thread_local_storage;
 129:c:\progra~2\gnuarm~1\102021~1.10\arm-none-eabi\include\c++\10.3.1\arm-none-eabi\thumb\v7e-m+fp\hard\bits\gthr-default.h **** }
 130:c:\progra~2\gnuarm~1\102021~1.10\arm-none-eabi\include\c++\10.3.1\arm-none-eabi\thumb\v7e-m+fp\hard\bits\gthr-default.h **** 
 131:c:\progra~2\gnuarm~1\102021~1.10\arm-none-eabi\include\c++\10.3.1\arm-none-eabi\thumb\v7e-m+fp\hard\bits\gthr-default.h **** /* Backend mutex functions */
 132:c:\progra~2\gnuarm~1\102021~1.10\arm-none-eabi\include\c++\10.3.1\arm-none-eabi\thumb\v7e-m+fp\hard\bits\gthr-default.h **** 
 133:c:\progra~2\gnuarm~1\102021~1.10\arm-none-eabi\include\c++\10.3.1\arm-none-eabi\thumb\v7e-m+fp\hard\bits\gthr-default.h **** /* Allocate a mutex.  */
 134:c:\progra~2\gnuarm~1\102021~1.10\arm-none-eabi\include\c++\10.3.1\arm-none-eabi\thumb\v7e-m+fp\hard\bits\gthr-default.h **** static inline int
 135:c:\progra~2\gnuarm~1\102021~1.10\arm-none-eabi\include\c++\10.3.1\arm-none-eabi\thumb\v7e-m+fp\hard\bits\gthr-default.h **** __gthread_objc_mutex_allocate (objc_mutex_t mutex _GLIBCXX_UNUSED)
 136:c:\progra~2\gnuarm~1\102021~1.10\arm-none-eabi\include\c++\10.3.1\arm-none-eabi\thumb\v7e-m+fp\hard\bits\gthr-default.h **** {
 137:c:\progra~2\gnuarm~1\102021~1.10\arm-none-eabi\include\c++\10.3.1\arm-none-eabi\thumb\v7e-m+fp\hard\bits\gthr-default.h ****   return 0;
 138:c:\progra~2\gnuarm~1\102021~1.10\arm-none-eabi\include\c++\10.3.1\arm-none-eabi\thumb\v7e-m+fp\hard\bits\gthr-default.h **** }
 139:c:\progra~2\gnuarm~1\102021~1.10\arm-none-eabi\include\c++\10.3.1\arm-none-eabi\thumb\v7e-m+fp\hard\bits\gthr-default.h **** 
 140:c:\progra~2\gnuarm~1\102021~1.10\arm-none-eabi\include\c++\10.3.1\arm-none-eabi\thumb\v7e-m+fp\hard\bits\gthr-default.h **** /* Deallocate a mutex.  */
 141:c:\progra~2\gnuarm~1\102021~1.10\arm-none-eabi\include\c++\10.3.1\arm-none-eabi\thumb\v7e-m+fp\hard\bits\gthr-default.h **** static inline int
 142:c:\progra~2\gnuarm~1\102021~1.10\arm-none-eabi\include\c++\10.3.1\arm-none-eabi\thumb\v7e-m+fp\hard\bits\gthr-default.h **** __gthread_objc_mutex_deallocate (objc_mutex_t mutex _GLIBCXX_UNUSED)
 143:c:\progra~2\gnuarm~1\102021~1.10\arm-none-eabi\include\c++\10.3.1\arm-none-eabi\thumb\v7e-m+fp\hard\bits\gthr-default.h **** {
 144:c:\progra~2\gnuarm~1\102021~1.10\arm-none-eabi\include\c++\10.3.1\arm-none-eabi\thumb\v7e-m+fp\hard\bits\gthr-default.h ****   return 0;
 145:c:\progra~2\gnuarm~1\102021~1.10\arm-none-eabi\include\c++\10.3.1\arm-none-eabi\thumb\v7e-m+fp\hard\bits\gthr-default.h **** }
 146:c:\progra~2\gnuarm~1\102021~1.10\arm-none-eabi\include\c++\10.3.1\arm-none-eabi\thumb\v7e-m+fp\hard\bits\gthr-default.h **** 
 147:c:\progra~2\gnuarm~1\102021~1.10\arm-none-eabi\include\c++\10.3.1\arm-none-eabi\thumb\v7e-m+fp\hard\bits\gthr-default.h **** /* Grab a lock on a mutex.  */
 148:c:\progra~2\gnuarm~1\102021~1.10\arm-none-eabi\include\c++\10.3.1\arm-none-eabi\thumb\v7e-m+fp\hard\bits\gthr-default.h **** static inline int
 149:c:\progra~2\gnuarm~1\102021~1.10\arm-none-eabi\include\c++\10.3.1\arm-none-eabi\thumb\v7e-m+fp\hard\bits\gthr-default.h **** __gthread_objc_mutex_lock (objc_mutex_t mutex _GLIBCXX_UNUSED)
 150:c:\progra~2\gnuarm~1\102021~1.10\arm-none-eabi\include\c++\10.3.1\arm-none-eabi\thumb\v7e-m+fp\hard\bits\gthr-default.h **** {
 151:c:\progra~2\gnuarm~1\102021~1.10\arm-none-eabi\include\c++\10.3.1\arm-none-eabi\thumb\v7e-m+fp\hard\bits\gthr-default.h ****   /* There can only be one thread, so we always get the lock */
 152:c:\progra~2\gnuarm~1\102021~1.10\arm-none-eabi\include\c++\10.3.1\arm-none-eabi\thumb\v7e-m+fp\hard\bits\gthr-default.h ****   return 0;
ARM GAS   			page 5


 153:c:\progra~2\gnuarm~1\102021~1.10\arm-none-eabi\include\c++\10.3.1\arm-none-eabi\thumb\v7e-m+fp\hard\bits\gthr-default.h **** }
 154:c:\progra~2\gnuarm~1\102021~1.10\arm-none-eabi\include\c++\10.3.1\arm-none-eabi\thumb\v7e-m+fp\hard\bits\gthr-default.h **** 
 155:c:\progra~2\gnuarm~1\102021~1.10\arm-none-eabi\include\c++\10.3.1\arm-none-eabi\thumb\v7e-m+fp\hard\bits\gthr-default.h **** /* Try to grab a lock on a mutex.  */
 156:c:\progra~2\gnuarm~1\102021~1.10\arm-none-eabi\include\c++\10.3.1\arm-none-eabi\thumb\v7e-m+fp\hard\bits\gthr-default.h **** static inline int
 157:c:\progra~2\gnuarm~1\102021~1.10\arm-none-eabi\include\c++\10.3.1\arm-none-eabi\thumb\v7e-m+fp\hard\bits\gthr-default.h **** __gthread_objc_mutex_trylock (objc_mutex_t mutex _GLIBCXX_UNUSED)
 158:c:\progra~2\gnuarm~1\102021~1.10\arm-none-eabi\include\c++\10.3.1\arm-none-eabi\thumb\v7e-m+fp\hard\bits\gthr-default.h **** {
 159:c:\progra~2\gnuarm~1\102021~1.10\arm-none-eabi\include\c++\10.3.1\arm-none-eabi\thumb\v7e-m+fp\hard\bits\gthr-default.h ****   /* There can only be one thread, so we always get the lock */
 160:c:\progra~2\gnuarm~1\102021~1.10\arm-none-eabi\include\c++\10.3.1\arm-none-eabi\thumb\v7e-m+fp\hard\bits\gthr-default.h ****   return 0;
 161:c:\progra~2\gnuarm~1\102021~1.10\arm-none-eabi\include\c++\10.3.1\arm-none-eabi\thumb\v7e-m+fp\hard\bits\gthr-default.h **** }
 162:c:\progra~2\gnuarm~1\102021~1.10\arm-none-eabi\include\c++\10.3.1\arm-none-eabi\thumb\v7e-m+fp\hard\bits\gthr-default.h **** 
 163:c:\progra~2\gnuarm~1\102021~1.10\arm-none-eabi\include\c++\10.3.1\arm-none-eabi\thumb\v7e-m+fp\hard\bits\gthr-default.h **** /* Unlock the mutex */
 164:c:\progra~2\gnuarm~1\102021~1.10\arm-none-eabi\include\c++\10.3.1\arm-none-eabi\thumb\v7e-m+fp\hard\bits\gthr-default.h **** static inline int
 165:c:\progra~2\gnuarm~1\102021~1.10\arm-none-eabi\include\c++\10.3.1\arm-none-eabi\thumb\v7e-m+fp\hard\bits\gthr-default.h **** __gthread_objc_mutex_unlock (objc_mutex_t mutex _GLIBCXX_UNUSED)
 166:c:\progra~2\gnuarm~1\102021~1.10\arm-none-eabi\include\c++\10.3.1\arm-none-eabi\thumb\v7e-m+fp\hard\bits\gthr-default.h **** {
 167:c:\progra~2\gnuarm~1\102021~1.10\arm-none-eabi\include\c++\10.3.1\arm-none-eabi\thumb\v7e-m+fp\hard\bits\gthr-default.h ****   return 0;
 168:c:\progra~2\gnuarm~1\102021~1.10\arm-none-eabi\include\c++\10.3.1\arm-none-eabi\thumb\v7e-m+fp\hard\bits\gthr-default.h **** }
 169:c:\progra~2\gnuarm~1\102021~1.10\arm-none-eabi\include\c++\10.3.1\arm-none-eabi\thumb\v7e-m+fp\hard\bits\gthr-default.h **** 
 170:c:\progra~2\gnuarm~1\102021~1.10\arm-none-eabi\include\c++\10.3.1\arm-none-eabi\thumb\v7e-m+fp\hard\bits\gthr-default.h **** /* Backend condition mutex functions */
 171:c:\progra~2\gnuarm~1\102021~1.10\arm-none-eabi\include\c++\10.3.1\arm-none-eabi\thumb\v7e-m+fp\hard\bits\gthr-default.h **** 
 172:c:\progra~2\gnuarm~1\102021~1.10\arm-none-eabi\include\c++\10.3.1\arm-none-eabi\thumb\v7e-m+fp\hard\bits\gthr-default.h **** /* Allocate a condition.  */
 173:c:\progra~2\gnuarm~1\102021~1.10\arm-none-eabi\include\c++\10.3.1\arm-none-eabi\thumb\v7e-m+fp\hard\bits\gthr-default.h **** static inline int
 174:c:\progra~2\gnuarm~1\102021~1.10\arm-none-eabi\include\c++\10.3.1\arm-none-eabi\thumb\v7e-m+fp\hard\bits\gthr-default.h **** __gthread_objc_condition_allocate (objc_condition_t condition _GLIBCXX_UNUSED)
 175:c:\progra~2\gnuarm~1\102021~1.10\arm-none-eabi\include\c++\10.3.1\arm-none-eabi\thumb\v7e-m+fp\hard\bits\gthr-default.h **** {
 176:c:\progra~2\gnuarm~1\102021~1.10\arm-none-eabi\include\c++\10.3.1\arm-none-eabi\thumb\v7e-m+fp\hard\bits\gthr-default.h ****   return 0;
 177:c:\progra~2\gnuarm~1\102021~1.10\arm-none-eabi\include\c++\10.3.1\arm-none-eabi\thumb\v7e-m+fp\hard\bits\gthr-default.h **** }
 178:c:\progra~2\gnuarm~1\102021~1.10\arm-none-eabi\include\c++\10.3.1\arm-none-eabi\thumb\v7e-m+fp\hard\bits\gthr-default.h **** 
 179:c:\progra~2\gnuarm~1\102021~1.10\arm-none-eabi\include\c++\10.3.1\arm-none-eabi\thumb\v7e-m+fp\hard\bits\gthr-default.h **** /* Deallocate a condition.  */
 180:c:\progra~2\gnuarm~1\102021~1.10\arm-none-eabi\include\c++\10.3.1\arm-none-eabi\thumb\v7e-m+fp\hard\bits\gthr-default.h **** static inline int
 181:c:\progra~2\gnuarm~1\102021~1.10\arm-none-eabi\include\c++\10.3.1\arm-none-eabi\thumb\v7e-m+fp\hard\bits\gthr-default.h **** __gthread_objc_condition_deallocate (objc_condition_t condition _GLIBCXX_UNUSED)
 182:c:\progra~2\gnuarm~1\102021~1.10\arm-none-eabi\include\c++\10.3.1\arm-none-eabi\thumb\v7e-m+fp\hard\bits\gthr-default.h **** {
 183:c:\progra~2\gnuarm~1\102021~1.10\arm-none-eabi\include\c++\10.3.1\arm-none-eabi\thumb\v7e-m+fp\hard\bits\gthr-default.h ****   return 0;
 184:c:\progra~2\gnuarm~1\102021~1.10\arm-none-eabi\include\c++\10.3.1\arm-none-eabi\thumb\v7e-m+fp\hard\bits\gthr-default.h **** }
 185:c:\progra~2\gnuarm~1\102021~1.10\arm-none-eabi\include\c++\10.3.1\arm-none-eabi\thumb\v7e-m+fp\hard\bits\gthr-default.h **** 
 186:c:\progra~2\gnuarm~1\102021~1.10\arm-none-eabi\include\c++\10.3.1\arm-none-eabi\thumb\v7e-m+fp\hard\bits\gthr-default.h **** /* Wait on the condition */
 187:c:\progra~2\gnuarm~1\102021~1.10\arm-none-eabi\include\c++\10.3.1\arm-none-eabi\thumb\v7e-m+fp\hard\bits\gthr-default.h **** static inline int
 188:c:\progra~2\gnuarm~1\102021~1.10\arm-none-eabi\include\c++\10.3.1\arm-none-eabi\thumb\v7e-m+fp\hard\bits\gthr-default.h **** __gthread_objc_condition_wait (objc_condition_t condition _GLIBCXX_UNUSED,
 189:c:\progra~2\gnuarm~1\102021~1.10\arm-none-eabi\include\c++\10.3.1\arm-none-eabi\thumb\v7e-m+fp\hard\bits\gthr-default.h **** 			       objc_mutex_t mutex _GLIBCXX_UNUSED)
 190:c:\progra~2\gnuarm~1\102021~1.10\arm-none-eabi\include\c++\10.3.1\arm-none-eabi\thumb\v7e-m+fp\hard\bits\gthr-default.h **** {
 191:c:\progra~2\gnuarm~1\102021~1.10\arm-none-eabi\include\c++\10.3.1\arm-none-eabi\thumb\v7e-m+fp\hard\bits\gthr-default.h ****   return 0;
 192:c:\progra~2\gnuarm~1\102021~1.10\arm-none-eabi\include\c++\10.3.1\arm-none-eabi\thumb\v7e-m+fp\hard\bits\gthr-default.h **** }
 193:c:\progra~2\gnuarm~1\102021~1.10\arm-none-eabi\include\c++\10.3.1\arm-none-eabi\thumb\v7e-m+fp\hard\bits\gthr-default.h **** 
 194:c:\progra~2\gnuarm~1\102021~1.10\arm-none-eabi\include\c++\10.3.1\arm-none-eabi\thumb\v7e-m+fp\hard\bits\gthr-default.h **** /* Wake up all threads waiting on this condition.  */
 195:c:\progra~2\gnuarm~1\102021~1.10\arm-none-eabi\include\c++\10.3.1\arm-none-eabi\thumb\v7e-m+fp\hard\bits\gthr-default.h **** static inline int
 196:c:\progra~2\gnuarm~1\102021~1.10\arm-none-eabi\include\c++\10.3.1\arm-none-eabi\thumb\v7e-m+fp\hard\bits\gthr-default.h **** __gthread_objc_condition_broadcast (objc_condition_t condition _GLIBCXX_UNUSED)
 197:c:\progra~2\gnuarm~1\102021~1.10\arm-none-eabi\include\c++\10.3.1\arm-none-eabi\thumb\v7e-m+fp\hard\bits\gthr-default.h **** {
 198:c:\progra~2\gnuarm~1\102021~1.10\arm-none-eabi\include\c++\10.3.1\arm-none-eabi\thumb\v7e-m+fp\hard\bits\gthr-default.h ****   return 0;
 199:c:\progra~2\gnuarm~1\102021~1.10\arm-none-eabi\include\c++\10.3.1\arm-none-eabi\thumb\v7e-m+fp\hard\bits\gthr-default.h **** }
 200:c:\progra~2\gnuarm~1\102021~1.10\arm-none-eabi\include\c++\10.3.1\arm-none-eabi\thumb\v7e-m+fp\hard\bits\gthr-default.h **** 
 201:c:\progra~2\gnuarm~1\102021~1.10\arm-none-eabi\include\c++\10.3.1\arm-none-eabi\thumb\v7e-m+fp\hard\bits\gthr-default.h **** /* Wake up one thread waiting on this condition.  */
 202:c:\progra~2\gnuarm~1\102021~1.10\arm-none-eabi\include\c++\10.3.1\arm-none-eabi\thumb\v7e-m+fp\hard\bits\gthr-default.h **** static inline int
 203:c:\progra~2\gnuarm~1\102021~1.10\arm-none-eabi\include\c++\10.3.1\arm-none-eabi\thumb\v7e-m+fp\hard\bits\gthr-default.h **** __gthread_objc_condition_signal (objc_condition_t condition _GLIBCXX_UNUSED)
 204:c:\progra~2\gnuarm~1\102021~1.10\arm-none-eabi\include\c++\10.3.1\arm-none-eabi\thumb\v7e-m+fp\hard\bits\gthr-default.h **** {
 205:c:\progra~2\gnuarm~1\102021~1.10\arm-none-eabi\include\c++\10.3.1\arm-none-eabi\thumb\v7e-m+fp\hard\bits\gthr-default.h ****   return 0;
 206:c:\progra~2\gnuarm~1\102021~1.10\arm-none-eabi\include\c++\10.3.1\arm-none-eabi\thumb\v7e-m+fp\hard\bits\gthr-default.h **** }
 207:c:\progra~2\gnuarm~1\102021~1.10\arm-none-eabi\include\c++\10.3.1\arm-none-eabi\thumb\v7e-m+fp\hard\bits\gthr-default.h **** 
 208:c:\progra~2\gnuarm~1\102021~1.10\arm-none-eabi\include\c++\10.3.1\arm-none-eabi\thumb\v7e-m+fp\hard\bits\gthr-default.h **** #else /* _LIBOBJC */
 209:c:\progra~2\gnuarm~1\102021~1.10\arm-none-eabi\include\c++\10.3.1\arm-none-eabi\thumb\v7e-m+fp\hard\bits\gthr-default.h **** 
ARM GAS   			page 6


 210:c:\progra~2\gnuarm~1\102021~1.10\arm-none-eabi\include\c++\10.3.1\arm-none-eabi\thumb\v7e-m+fp\hard\bits\gthr-default.h **** static inline int
 211:c:\progra~2\gnuarm~1\102021~1.10\arm-none-eabi\include\c++\10.3.1\arm-none-eabi\thumb\v7e-m+fp\hard\bits\gthr-default.h **** __gthread_active_p (void)
 212:c:\progra~2\gnuarm~1\102021~1.10\arm-none-eabi\include\c++\10.3.1\arm-none-eabi\thumb\v7e-m+fp\hard\bits\gthr-default.h **** {
 213:c:\progra~2\gnuarm~1\102021~1.10\arm-none-eabi\include\c++\10.3.1\arm-none-eabi\thumb\v7e-m+fp\hard\bits\gthr-default.h ****   return 0;
 214:c:\progra~2\gnuarm~1\102021~1.10\arm-none-eabi\include\c++\10.3.1\arm-none-eabi\thumb\v7e-m+fp\hard\bits\gthr-default.h **** }
 215:c:\progra~2\gnuarm~1\102021~1.10\arm-none-eabi\include\c++\10.3.1\arm-none-eabi\thumb\v7e-m+fp\hard\bits\gthr-default.h **** 
 216:c:\progra~2\gnuarm~1\102021~1.10\arm-none-eabi\include\c++\10.3.1\arm-none-eabi\thumb\v7e-m+fp\hard\bits\gthr-default.h **** static inline int
 217:c:\progra~2\gnuarm~1\102021~1.10\arm-none-eabi\include\c++\10.3.1\arm-none-eabi\thumb\v7e-m+fp\hard\bits\gthr-default.h **** __gthread_once (__gthread_once_t *__once _GLIBCXX_UNUSED, void (*__func) (void) _GLIBCXX_UNUSED)
 218:c:\progra~2\gnuarm~1\102021~1.10\arm-none-eabi\include\c++\10.3.1\arm-none-eabi\thumb\v7e-m+fp\hard\bits\gthr-default.h **** {
 219:c:\progra~2\gnuarm~1\102021~1.10\arm-none-eabi\include\c++\10.3.1\arm-none-eabi\thumb\v7e-m+fp\hard\bits\gthr-default.h ****   return 0;
 220:c:\progra~2\gnuarm~1\102021~1.10\arm-none-eabi\include\c++\10.3.1\arm-none-eabi\thumb\v7e-m+fp\hard\bits\gthr-default.h **** }
 221:c:\progra~2\gnuarm~1\102021~1.10\arm-none-eabi\include\c++\10.3.1\arm-none-eabi\thumb\v7e-m+fp\hard\bits\gthr-default.h **** 
 222:c:\progra~2\gnuarm~1\102021~1.10\arm-none-eabi\include\c++\10.3.1\arm-none-eabi\thumb\v7e-m+fp\hard\bits\gthr-default.h **** static inline int _GLIBCXX_UNUSED
 223:c:\progra~2\gnuarm~1\102021~1.10\arm-none-eabi\include\c++\10.3.1\arm-none-eabi\thumb\v7e-m+fp\hard\bits\gthr-default.h **** __gthread_key_create (__gthread_key_t *__key _GLIBCXX_UNUSED, void (*__func) (void *) _GLIBCXX_UNUS
 224:c:\progra~2\gnuarm~1\102021~1.10\arm-none-eabi\include\c++\10.3.1\arm-none-eabi\thumb\v7e-m+fp\hard\bits\gthr-default.h **** {
 225:c:\progra~2\gnuarm~1\102021~1.10\arm-none-eabi\include\c++\10.3.1\arm-none-eabi\thumb\v7e-m+fp\hard\bits\gthr-default.h ****   return 0;
 226:c:\progra~2\gnuarm~1\102021~1.10\arm-none-eabi\include\c++\10.3.1\arm-none-eabi\thumb\v7e-m+fp\hard\bits\gthr-default.h **** }
 227:c:\progra~2\gnuarm~1\102021~1.10\arm-none-eabi\include\c++\10.3.1\arm-none-eabi\thumb\v7e-m+fp\hard\bits\gthr-default.h **** 
 228:c:\progra~2\gnuarm~1\102021~1.10\arm-none-eabi\include\c++\10.3.1\arm-none-eabi\thumb\v7e-m+fp\hard\bits\gthr-default.h **** static int _GLIBCXX_UNUSED
 229:c:\progra~2\gnuarm~1\102021~1.10\arm-none-eabi\include\c++\10.3.1\arm-none-eabi\thumb\v7e-m+fp\hard\bits\gthr-default.h **** __gthread_key_delete (__gthread_key_t __key _GLIBCXX_UNUSED)
 230:c:\progra~2\gnuarm~1\102021~1.10\arm-none-eabi\include\c++\10.3.1\arm-none-eabi\thumb\v7e-m+fp\hard\bits\gthr-default.h **** {
  77              	 .loc 1 230 1
  78              	 .cfi_startproc
  79              	 
  80              	 
  81              	 
  82 0000 80B4     	 push {r7}
  83              	 .cfi_def_cfa_offset 4
  84              	 .cfi_offset 7,-4
  85 0002 83B0     	 sub sp,sp,#12
  86              	 .cfi_def_cfa_offset 16
  87 0004 00AF     	 add r7,sp,#0
  88              	 .cfi_def_cfa_register 7
  89 0006 7860     	 str r0,[r7,#4]
 231:c:\progra~2\gnuarm~1\102021~1.10\arm-none-eabi\include\c++\10.3.1\arm-none-eabi\thumb\v7e-m+fp\hard\bits\gthr-default.h ****   return 0;
  90              	 .loc 1 231 10
  91 0008 0023     	 movs r3,#0
 232:c:\progra~2\gnuarm~1\102021~1.10\arm-none-eabi\include\c++\10.3.1\arm-none-eabi\thumb\v7e-m+fp\hard\bits\gthr-default.h **** }
  92              	 .loc 1 232 1
  93 000a 1846     	 mov r0,r3
  94 000c 0C37     	 adds r7,r7,#12
  95              	 .cfi_def_cfa_offset 4
  96 000e BD46     	 mov sp,r7
  97              	 .cfi_def_cfa_register 13
  98              	 
  99 0010 5DF8047B 	 ldr r7,[sp],#4
 100              	 .cfi_restore 7
 101              	 .cfi_def_cfa_offset 0
 102 0014 7047     	 bx lr
 103              	 .cfi_endproc
 104              	.LFE910:
 105              	 .size _ZL20__gthread_key_deletei,.-_ZL20__gthread_key_deletei
 106              	 .section .rodata._ZL9cmdLengte,"a"
 107              	 .align 2
 108              	 .type _ZL9cmdLengte,%object
 109              	 .size _ZL9cmdLengte,4
 110              	_ZL9cmdLengte:
ARM GAS   			page 7


 111 0000 0E000000 	 .word 14
 112              	 .section .rodata._ZL27MaxOverdrachtFunktieGrootte,"a"
 113              	 .align 2
 114              	 .type _ZL27MaxOverdrachtFunktieGrootte,%object
 115              	 .size _ZL27MaxOverdrachtFunktieGrootte,4
 116              	_ZL27MaxOverdrachtFunktieGrootte:
 117 0000 00020000 	 .word 512
 118              	 .section .rodata._ZL19TotaalPakketGrootte,"a"
 119              	 .align 2
 120              	 .type _ZL19TotaalPakketGrootte,%object
 121              	 .size _ZL19TotaalPakketGrootte,4
 122              	_ZL19TotaalPakketGrootte:
 123 0000 0E020000 	 .word 526
 124              	 .section .text.NVIC_EnableIRQ,"ax",%progbits
 125              	 .align 1
 126              	 .syntax unified
 127              	 .thumb
 128              	 .thumb_func
 129              	 .type NVIC_EnableIRQ,%function
 130              	NVIC_EnableIRQ:
 131              	.LFB1392:
 132              	 .file 2 "c:\\users\\niels\\docume~1\\elektr~1\\jaar3~1\\dspl\\software\\stm32b~1\\hal\\gemeen~1\\librar~1\\cmsis\\include\\core_cm4.h"
   1:c:\users\niels\docume~1\elektr~1\jaar3~1\dspl\software\stm32b~1\hal\gemeen~1\librar~1\cmsis\include\core_cm4.h **** /**************************************************************************//**
   2:c:\users\niels\docume~1\elektr~1\jaar3~1\dspl\software\stm32b~1\hal\gemeen~1\librar~1\cmsis\include\core_cm4.h ****  * @file     core_cm4.h
   3:c:\users\niels\docume~1\elektr~1\jaar3~1\dspl\software\stm32b~1\hal\gemeen~1\librar~1\cmsis\include\core_cm4.h ****  * @brief    CMSIS Cortex-M4 Core Peripheral Access Layer Header File
   4:c:\users\niels\docume~1\elektr~1\jaar3~1\dspl\software\stm32b~1\hal\gemeen~1\librar~1\cmsis\include\core_cm4.h ****  * @version  V4.30
   5:c:\users\niels\docume~1\elektr~1\jaar3~1\dspl\software\stm32b~1\hal\gemeen~1\librar~1\cmsis\include\core_cm4.h ****  * @date     20. October 2015
   6:c:\users\niels\docume~1\elektr~1\jaar3~1\dspl\software\stm32b~1\hal\gemeen~1\librar~1\cmsis\include\core_cm4.h ****  ******************************************************************************/
   7:c:\users\niels\docume~1\elektr~1\jaar3~1\dspl\software\stm32b~1\hal\gemeen~1\librar~1\cmsis\include\core_cm4.h **** /* Copyright (c) 2009 - 2015 ARM LIMITED
   8:c:\users\niels\docume~1\elektr~1\jaar3~1\dspl\software\stm32b~1\hal\gemeen~1\librar~1\cmsis\include\core_cm4.h **** 
   9:c:\users\niels\docume~1\elektr~1\jaar3~1\dspl\software\stm32b~1\hal\gemeen~1\librar~1\cmsis\include\core_cm4.h ****    All rights reserved.
  10:c:\users\niels\docume~1\elektr~1\jaar3~1\dspl\software\stm32b~1\hal\gemeen~1\librar~1\cmsis\include\core_cm4.h ****    Redistribution and use in source and binary forms, with or without
  11:c:\users\niels\docume~1\elektr~1\jaar3~1\dspl\software\stm32b~1\hal\gemeen~1\librar~1\cmsis\include\core_cm4.h ****    modification, are permitted provided that the following conditions are met:
  12:c:\users\niels\docume~1\elektr~1\jaar3~1\dspl\software\stm32b~1\hal\gemeen~1\librar~1\cmsis\include\core_cm4.h ****    - Redistributions of source code must retain the above copyright
  13:c:\users\niels\docume~1\elektr~1\jaar3~1\dspl\software\stm32b~1\hal\gemeen~1\librar~1\cmsis\include\core_cm4.h ****      notice, this list of conditions and the following disclaimer.
  14:c:\users\niels\docume~1\elektr~1\jaar3~1\dspl\software\stm32b~1\hal\gemeen~1\librar~1\cmsis\include\core_cm4.h ****    - Redistributions in binary form must reproduce the above copyright
  15:c:\users\niels\docume~1\elektr~1\jaar3~1\dspl\software\stm32b~1\hal\gemeen~1\librar~1\cmsis\include\core_cm4.h ****      notice, this list of conditions and the following disclaimer in the
  16:c:\users\niels\docume~1\elektr~1\jaar3~1\dspl\software\stm32b~1\hal\gemeen~1\librar~1\cmsis\include\core_cm4.h ****      documentation and/or other materials provided with the distribution.
  17:c:\users\niels\docume~1\elektr~1\jaar3~1\dspl\software\stm32b~1\hal\gemeen~1\librar~1\cmsis\include\core_cm4.h ****    - Neither the name of ARM nor the names of its contributors may be used
  18:c:\users\niels\docume~1\elektr~1\jaar3~1\dspl\software\stm32b~1\hal\gemeen~1\librar~1\cmsis\include\core_cm4.h ****      to endorse or promote products derived from this software without
  19:c:\users\niels\docume~1\elektr~1\jaar3~1\dspl\software\stm32b~1\hal\gemeen~1\librar~1\cmsis\include\core_cm4.h ****      specific prior written permission.
  20:c:\users\niels\docume~1\elektr~1\jaar3~1\dspl\software\stm32b~1\hal\gemeen~1\librar~1\cmsis\include\core_cm4.h ****    *
  21:c:\users\niels\docume~1\elektr~1\jaar3~1\dspl\software\stm32b~1\hal\gemeen~1\librar~1\cmsis\include\core_cm4.h ****    THIS SOFTWARE IS PROVIDED BY THE COPYRIGHT HOLDERS AND CONTRIBUTORS "AS IS"
  22:c:\users\niels\docume~1\elektr~1\jaar3~1\dspl\software\stm32b~1\hal\gemeen~1\librar~1\cmsis\include\core_cm4.h ****    AND ANY EXPRESS OR IMPLIED WARRANTIES, INCLUDING, BUT NOT LIMITED TO, THE
  23:c:\users\niels\docume~1\elektr~1\jaar3~1\dspl\software\stm32b~1\hal\gemeen~1\librar~1\cmsis\include\core_cm4.h ****    IMPLIED WARRANTIES OF MERCHANTABILITY AND FITNESS FOR A PARTICULAR PURPOSE
  24:c:\users\niels\docume~1\elektr~1\jaar3~1\dspl\software\stm32b~1\hal\gemeen~1\librar~1\cmsis\include\core_cm4.h ****    ARE DISCLAIMED. IN NO EVENT SHALL COPYRIGHT HOLDERS AND CONTRIBUTORS BE
  25:c:\users\niels\docume~1\elektr~1\jaar3~1\dspl\software\stm32b~1\hal\gemeen~1\librar~1\cmsis\include\core_cm4.h ****    LIABLE FOR ANY DIRECT, INDIRECT, INCIDENTAL, SPECIAL, EXEMPLARY, OR
  26:c:\users\niels\docume~1\elektr~1\jaar3~1\dspl\software\stm32b~1\hal\gemeen~1\librar~1\cmsis\include\core_cm4.h ****    CONSEQUENTIAL DAMAGES (INCLUDING, BUT NOT LIMITED TO, PROCUREMENT OF
  27:c:\users\niels\docume~1\elektr~1\jaar3~1\dspl\software\stm32b~1\hal\gemeen~1\librar~1\cmsis\include\core_cm4.h ****    SUBSTITUTE GOODS OR SERVICES; LOSS OF USE, DATA, OR PROFITS; OR BUSINESS
  28:c:\users\niels\docume~1\elektr~1\jaar3~1\dspl\software\stm32b~1\hal\gemeen~1\librar~1\cmsis\include\core_cm4.h ****    INTERRUPTION) HOWEVER CAUSED AND ON ANY THEORY OF LIABILITY, WHETHER IN
  29:c:\users\niels\docume~1\elektr~1\jaar3~1\dspl\software\stm32b~1\hal\gemeen~1\librar~1\cmsis\include\core_cm4.h ****    CONTRACT, STRICT LIABILITY, OR TORT (INCLUDING NEGLIGENCE OR OTHERWISE)
  30:c:\users\niels\docume~1\elektr~1\jaar3~1\dspl\software\stm32b~1\hal\gemeen~1\librar~1\cmsis\include\core_cm4.h ****    ARISING IN ANY WAY OUT OF THE USE OF THIS SOFTWARE, EVEN IF ADVISED OF THE
  31:c:\users\niels\docume~1\elektr~1\jaar3~1\dspl\software\stm32b~1\hal\gemeen~1\librar~1\cmsis\include\core_cm4.h ****    POSSIBILITY OF SUCH DAMAGE.
  32:c:\users\niels\docume~1\elektr~1\jaar3~1\dspl\software\stm32b~1\hal\gemeen~1\librar~1\cmsis\include\core_cm4.h ****    ---------------------------------------------------------------------------*/
  33:c:\users\niels\docume~1\elektr~1\jaar3~1\dspl\software\stm32b~1\hal\gemeen~1\librar~1\cmsis\include\core_cm4.h **** 
  34:c:\users\niels\docume~1\elektr~1\jaar3~1\dspl\software\stm32b~1\hal\gemeen~1\librar~1\cmsis\include\core_cm4.h **** 
  35:c:\users\niels\docume~1\elektr~1\jaar3~1\dspl\software\stm32b~1\hal\gemeen~1\librar~1\cmsis\include\core_cm4.h **** #if   defined ( __ICCARM__ )
ARM GAS   			page 8


  36:c:\users\niels\docume~1\elektr~1\jaar3~1\dspl\software\stm32b~1\hal\gemeen~1\librar~1\cmsis\include\core_cm4.h ****  #pragma system_include         /* treat file as system include file for MISRA check */
  37:c:\users\niels\docume~1\elektr~1\jaar3~1\dspl\software\stm32b~1\hal\gemeen~1\librar~1\cmsis\include\core_cm4.h **** #elif defined(__ARMCC_VERSION) && (__ARMCC_VERSION >= 6010050)
  38:c:\users\niels\docume~1\elektr~1\jaar3~1\dspl\software\stm32b~1\hal\gemeen~1\librar~1\cmsis\include\core_cm4.h ****   #pragma clang system_header   /* treat file as system include file */
  39:c:\users\niels\docume~1\elektr~1\jaar3~1\dspl\software\stm32b~1\hal\gemeen~1\librar~1\cmsis\include\core_cm4.h **** #endif
  40:c:\users\niels\docume~1\elektr~1\jaar3~1\dspl\software\stm32b~1\hal\gemeen~1\librar~1\cmsis\include\core_cm4.h **** 
  41:c:\users\niels\docume~1\elektr~1\jaar3~1\dspl\software\stm32b~1\hal\gemeen~1\librar~1\cmsis\include\core_cm4.h **** #ifndef __CORE_CM4_H_GENERIC
  42:c:\users\niels\docume~1\elektr~1\jaar3~1\dspl\software\stm32b~1\hal\gemeen~1\librar~1\cmsis\include\core_cm4.h **** #define __CORE_CM4_H_GENERIC
  43:c:\users\niels\docume~1\elektr~1\jaar3~1\dspl\software\stm32b~1\hal\gemeen~1\librar~1\cmsis\include\core_cm4.h **** 
  44:c:\users\niels\docume~1\elektr~1\jaar3~1\dspl\software\stm32b~1\hal\gemeen~1\librar~1\cmsis\include\core_cm4.h **** #include <stdint.h>
  45:c:\users\niels\docume~1\elektr~1\jaar3~1\dspl\software\stm32b~1\hal\gemeen~1\librar~1\cmsis\include\core_cm4.h **** 
  46:c:\users\niels\docume~1\elektr~1\jaar3~1\dspl\software\stm32b~1\hal\gemeen~1\librar~1\cmsis\include\core_cm4.h **** #ifdef __cplusplus
  47:c:\users\niels\docume~1\elektr~1\jaar3~1\dspl\software\stm32b~1\hal\gemeen~1\librar~1\cmsis\include\core_cm4.h ****  extern "C" {
  48:c:\users\niels\docume~1\elektr~1\jaar3~1\dspl\software\stm32b~1\hal\gemeen~1\librar~1\cmsis\include\core_cm4.h **** #endif
  49:c:\users\niels\docume~1\elektr~1\jaar3~1\dspl\software\stm32b~1\hal\gemeen~1\librar~1\cmsis\include\core_cm4.h **** 
  50:c:\users\niels\docume~1\elektr~1\jaar3~1\dspl\software\stm32b~1\hal\gemeen~1\librar~1\cmsis\include\core_cm4.h **** /**
  51:c:\users\niels\docume~1\elektr~1\jaar3~1\dspl\software\stm32b~1\hal\gemeen~1\librar~1\cmsis\include\core_cm4.h ****   \page CMSIS_MISRA_Exceptions  MISRA-C:2004 Compliance Exceptions
  52:c:\users\niels\docume~1\elektr~1\jaar3~1\dspl\software\stm32b~1\hal\gemeen~1\librar~1\cmsis\include\core_cm4.h ****   CMSIS violates the following MISRA-C:2004 rules:
  53:c:\users\niels\docume~1\elektr~1\jaar3~1\dspl\software\stm32b~1\hal\gemeen~1\librar~1\cmsis\include\core_cm4.h **** 
  54:c:\users\niels\docume~1\elektr~1\jaar3~1\dspl\software\stm32b~1\hal\gemeen~1\librar~1\cmsis\include\core_cm4.h ****    \li Required Rule 8.5, object/function definition in header file.<br>
  55:c:\users\niels\docume~1\elektr~1\jaar3~1\dspl\software\stm32b~1\hal\gemeen~1\librar~1\cmsis\include\core_cm4.h ****      Function definitions in header files are used to allow 'inlining'.
  56:c:\users\niels\docume~1\elektr~1\jaar3~1\dspl\software\stm32b~1\hal\gemeen~1\librar~1\cmsis\include\core_cm4.h **** 
  57:c:\users\niels\docume~1\elektr~1\jaar3~1\dspl\software\stm32b~1\hal\gemeen~1\librar~1\cmsis\include\core_cm4.h ****    \li Required Rule 18.4, declaration of union type or object of union type: '{...}'.<br>
  58:c:\users\niels\docume~1\elektr~1\jaar3~1\dspl\software\stm32b~1\hal\gemeen~1\librar~1\cmsis\include\core_cm4.h ****      Unions are used for effective representation of core registers.
  59:c:\users\niels\docume~1\elektr~1\jaar3~1\dspl\software\stm32b~1\hal\gemeen~1\librar~1\cmsis\include\core_cm4.h **** 
  60:c:\users\niels\docume~1\elektr~1\jaar3~1\dspl\software\stm32b~1\hal\gemeen~1\librar~1\cmsis\include\core_cm4.h ****    \li Advisory Rule 19.7, Function-like macro defined.<br>
  61:c:\users\niels\docume~1\elektr~1\jaar3~1\dspl\software\stm32b~1\hal\gemeen~1\librar~1\cmsis\include\core_cm4.h ****      Function-like macros are used to allow more efficient code.
  62:c:\users\niels\docume~1\elektr~1\jaar3~1\dspl\software\stm32b~1\hal\gemeen~1\librar~1\cmsis\include\core_cm4.h ****  */
  63:c:\users\niels\docume~1\elektr~1\jaar3~1\dspl\software\stm32b~1\hal\gemeen~1\librar~1\cmsis\include\core_cm4.h **** 
  64:c:\users\niels\docume~1\elektr~1\jaar3~1\dspl\software\stm32b~1\hal\gemeen~1\librar~1\cmsis\include\core_cm4.h **** 
  65:c:\users\niels\docume~1\elektr~1\jaar3~1\dspl\software\stm32b~1\hal\gemeen~1\librar~1\cmsis\include\core_cm4.h **** /*******************************************************************************
  66:c:\users\niels\docume~1\elektr~1\jaar3~1\dspl\software\stm32b~1\hal\gemeen~1\librar~1\cmsis\include\core_cm4.h ****  *                 CMSIS definitions
  67:c:\users\niels\docume~1\elektr~1\jaar3~1\dspl\software\stm32b~1\hal\gemeen~1\librar~1\cmsis\include\core_cm4.h ****  ******************************************************************************/
  68:c:\users\niels\docume~1\elektr~1\jaar3~1\dspl\software\stm32b~1\hal\gemeen~1\librar~1\cmsis\include\core_cm4.h **** /**
  69:c:\users\niels\docume~1\elektr~1\jaar3~1\dspl\software\stm32b~1\hal\gemeen~1\librar~1\cmsis\include\core_cm4.h ****   \ingroup Cortex_M4
  70:c:\users\niels\docume~1\elektr~1\jaar3~1\dspl\software\stm32b~1\hal\gemeen~1\librar~1\cmsis\include\core_cm4.h ****   @{
  71:c:\users\niels\docume~1\elektr~1\jaar3~1\dspl\software\stm32b~1\hal\gemeen~1\librar~1\cmsis\include\core_cm4.h ****  */
  72:c:\users\niels\docume~1\elektr~1\jaar3~1\dspl\software\stm32b~1\hal\gemeen~1\librar~1\cmsis\include\core_cm4.h **** 
  73:c:\users\niels\docume~1\elektr~1\jaar3~1\dspl\software\stm32b~1\hal\gemeen~1\librar~1\cmsis\include\core_cm4.h **** /*  CMSIS CM4 definitions */
  74:c:\users\niels\docume~1\elektr~1\jaar3~1\dspl\software\stm32b~1\hal\gemeen~1\librar~1\cmsis\include\core_cm4.h **** #define __CM4_CMSIS_VERSION_MAIN  (0x04U)                                      /*!< [31:16] CMSIS H
  75:c:\users\niels\docume~1\elektr~1\jaar3~1\dspl\software\stm32b~1\hal\gemeen~1\librar~1\cmsis\include\core_cm4.h **** #define __CM4_CMSIS_VERSION_SUB   (0x1EU)                                      /*!< [15:0]  CMSIS H
  76:c:\users\niels\docume~1\elektr~1\jaar3~1\dspl\software\stm32b~1\hal\gemeen~1\librar~1\cmsis\include\core_cm4.h **** #define __CM4_CMSIS_VERSION       ((__CM4_CMSIS_VERSION_MAIN << 16U) | \
  77:c:\users\niels\docume~1\elektr~1\jaar3~1\dspl\software\stm32b~1\hal\gemeen~1\librar~1\cmsis\include\core_cm4.h ****                                     __CM4_CMSIS_VERSION_SUB           )        /*!< CMSIS HAL versi
  78:c:\users\niels\docume~1\elektr~1\jaar3~1\dspl\software\stm32b~1\hal\gemeen~1\librar~1\cmsis\include\core_cm4.h **** 
  79:c:\users\niels\docume~1\elektr~1\jaar3~1\dspl\software\stm32b~1\hal\gemeen~1\librar~1\cmsis\include\core_cm4.h **** #define __CORTEX_M                (0x04U)                                      /*!< Cortex-M Core *
  80:c:\users\niels\docume~1\elektr~1\jaar3~1\dspl\software\stm32b~1\hal\gemeen~1\librar~1\cmsis\include\core_cm4.h **** 
  81:c:\users\niels\docume~1\elektr~1\jaar3~1\dspl\software\stm32b~1\hal\gemeen~1\librar~1\cmsis\include\core_cm4.h **** 
  82:c:\users\niels\docume~1\elektr~1\jaar3~1\dspl\software\stm32b~1\hal\gemeen~1\librar~1\cmsis\include\core_cm4.h **** #if   defined ( __CC_ARM )
  83:c:\users\niels\docume~1\elektr~1\jaar3~1\dspl\software\stm32b~1\hal\gemeen~1\librar~1\cmsis\include\core_cm4.h ****   #define __ASM            __asm                                      /*!< asm keyword for ARM Comp
  84:c:\users\niels\docume~1\elektr~1\jaar3~1\dspl\software\stm32b~1\hal\gemeen~1\librar~1\cmsis\include\core_cm4.h ****   #define __INLINE         __inline                                   /*!< inline keyword for ARM C
  85:c:\users\niels\docume~1\elektr~1\jaar3~1\dspl\software\stm32b~1\hal\gemeen~1\librar~1\cmsis\include\core_cm4.h ****   #define __STATIC_INLINE  static __inline
  86:c:\users\niels\docume~1\elektr~1\jaar3~1\dspl\software\stm32b~1\hal\gemeen~1\librar~1\cmsis\include\core_cm4.h **** 
  87:c:\users\niels\docume~1\elektr~1\jaar3~1\dspl\software\stm32b~1\hal\gemeen~1\librar~1\cmsis\include\core_cm4.h **** #elif defined(__ARMCC_VERSION) && (__ARMCC_VERSION >= 6010050)
  88:c:\users\niels\docume~1\elektr~1\jaar3~1\dspl\software\stm32b~1\hal\gemeen~1\librar~1\cmsis\include\core_cm4.h ****   #define __ASM            __asm                                      /*!< asm keyword for ARM Comp
  89:c:\users\niels\docume~1\elektr~1\jaar3~1\dspl\software\stm32b~1\hal\gemeen~1\librar~1\cmsis\include\core_cm4.h ****   #define __INLINE         __inline                                   /*!< inline keyword for ARM C
  90:c:\users\niels\docume~1\elektr~1\jaar3~1\dspl\software\stm32b~1\hal\gemeen~1\librar~1\cmsis\include\core_cm4.h ****   #define __STATIC_INLINE  static __inline
  91:c:\users\niels\docume~1\elektr~1\jaar3~1\dspl\software\stm32b~1\hal\gemeen~1\librar~1\cmsis\include\core_cm4.h **** 
  92:c:\users\niels\docume~1\elektr~1\jaar3~1\dspl\software\stm32b~1\hal\gemeen~1\librar~1\cmsis\include\core_cm4.h **** #elif defined ( __GNUC__ )
ARM GAS   			page 9


  93:c:\users\niels\docume~1\elektr~1\jaar3~1\dspl\software\stm32b~1\hal\gemeen~1\librar~1\cmsis\include\core_cm4.h ****   #define __ASM            __asm                                      /*!< asm keyword for GNU Comp
  94:c:\users\niels\docume~1\elektr~1\jaar3~1\dspl\software\stm32b~1\hal\gemeen~1\librar~1\cmsis\include\core_cm4.h ****   #define __INLINE         inline                                     /*!< inline keyword for GNU C
  95:c:\users\niels\docume~1\elektr~1\jaar3~1\dspl\software\stm32b~1\hal\gemeen~1\librar~1\cmsis\include\core_cm4.h ****   #define __STATIC_INLINE    static inline
  96:c:\users\niels\docume~1\elektr~1\jaar3~1\dspl\software\stm32b~1\hal\gemeen~1\librar~1\cmsis\include\core_cm4.h **** 
  97:c:\users\niels\docume~1\elektr~1\jaar3~1\dspl\software\stm32b~1\hal\gemeen~1\librar~1\cmsis\include\core_cm4.h **** #elif defined ( __ICCARM__ )
  98:c:\users\niels\docume~1\elektr~1\jaar3~1\dspl\software\stm32b~1\hal\gemeen~1\librar~1\cmsis\include\core_cm4.h ****   #define __ASM            __asm                                      /*!< asm keyword for IAR Comp
  99:c:\users\niels\docume~1\elektr~1\jaar3~1\dspl\software\stm32b~1\hal\gemeen~1\librar~1\cmsis\include\core_cm4.h ****   #define __INLINE         inline                                     /*!< inline keyword for IAR C
 100:c:\users\niels\docume~1\elektr~1\jaar3~1\dspl\software\stm32b~1\hal\gemeen~1\librar~1\cmsis\include\core_cm4.h ****   #define __STATIC_INLINE  static inline
 101:c:\users\niels\docume~1\elektr~1\jaar3~1\dspl\software\stm32b~1\hal\gemeen~1\librar~1\cmsis\include\core_cm4.h **** 
 102:c:\users\niels\docume~1\elektr~1\jaar3~1\dspl\software\stm32b~1\hal\gemeen~1\librar~1\cmsis\include\core_cm4.h **** #elif defined ( __TMS470__ )
 103:c:\users\niels\docume~1\elektr~1\jaar3~1\dspl\software\stm32b~1\hal\gemeen~1\librar~1\cmsis\include\core_cm4.h ****   #define __ASM            __asm                                      /*!< asm keyword for TI CCS C
 104:c:\users\niels\docume~1\elektr~1\jaar3~1\dspl\software\stm32b~1\hal\gemeen~1\librar~1\cmsis\include\core_cm4.h ****   #define __STATIC_INLINE  static inline
 105:c:\users\niels\docume~1\elektr~1\jaar3~1\dspl\software\stm32b~1\hal\gemeen~1\librar~1\cmsis\include\core_cm4.h **** 
 106:c:\users\niels\docume~1\elektr~1\jaar3~1\dspl\software\stm32b~1\hal\gemeen~1\librar~1\cmsis\include\core_cm4.h **** #elif defined ( __TASKING__ )
 107:c:\users\niels\docume~1\elektr~1\jaar3~1\dspl\software\stm32b~1\hal\gemeen~1\librar~1\cmsis\include\core_cm4.h ****   #define __ASM            __asm                                      /*!< asm keyword for TASKING 
 108:c:\users\niels\docume~1\elektr~1\jaar3~1\dspl\software\stm32b~1\hal\gemeen~1\librar~1\cmsis\include\core_cm4.h ****   #define __INLINE         inline                                     /*!< inline keyword for TASKI
 109:c:\users\niels\docume~1\elektr~1\jaar3~1\dspl\software\stm32b~1\hal\gemeen~1\librar~1\cmsis\include\core_cm4.h ****   #define __STATIC_INLINE  static inline
 110:c:\users\niels\docume~1\elektr~1\jaar3~1\dspl\software\stm32b~1\hal\gemeen~1\librar~1\cmsis\include\core_cm4.h **** 
 111:c:\users\niels\docume~1\elektr~1\jaar3~1\dspl\software\stm32b~1\hal\gemeen~1\librar~1\cmsis\include\core_cm4.h **** #elif defined ( __CSMC__ )
 112:c:\users\niels\docume~1\elektr~1\jaar3~1\dspl\software\stm32b~1\hal\gemeen~1\librar~1\cmsis\include\core_cm4.h ****   #define __packed
 113:c:\users\niels\docume~1\elektr~1\jaar3~1\dspl\software\stm32b~1\hal\gemeen~1\librar~1\cmsis\include\core_cm4.h ****   #define __ASM            _asm                                      /*!< asm keyword for COSMIC Co
 114:c:\users\niels\docume~1\elektr~1\jaar3~1\dspl\software\stm32b~1\hal\gemeen~1\librar~1\cmsis\include\core_cm4.h ****   #define __INLINE         inline                                    /*!< inline keyword for COSMIC
 115:c:\users\niels\docume~1\elektr~1\jaar3~1\dspl\software\stm32b~1\hal\gemeen~1\librar~1\cmsis\include\core_cm4.h ****   #define __STATIC_INLINE  static inline
 116:c:\users\niels\docume~1\elektr~1\jaar3~1\dspl\software\stm32b~1\hal\gemeen~1\librar~1\cmsis\include\core_cm4.h **** 
 117:c:\users\niels\docume~1\elektr~1\jaar3~1\dspl\software\stm32b~1\hal\gemeen~1\librar~1\cmsis\include\core_cm4.h **** #else
 118:c:\users\niels\docume~1\elektr~1\jaar3~1\dspl\software\stm32b~1\hal\gemeen~1\librar~1\cmsis\include\core_cm4.h ****   #error Unknown compiler
 119:c:\users\niels\docume~1\elektr~1\jaar3~1\dspl\software\stm32b~1\hal\gemeen~1\librar~1\cmsis\include\core_cm4.h **** #endif
 120:c:\users\niels\docume~1\elektr~1\jaar3~1\dspl\software\stm32b~1\hal\gemeen~1\librar~1\cmsis\include\core_cm4.h **** 
 121:c:\users\niels\docume~1\elektr~1\jaar3~1\dspl\software\stm32b~1\hal\gemeen~1\librar~1\cmsis\include\core_cm4.h **** /** __FPU_USED indicates whether an FPU is used or not.
 122:c:\users\niels\docume~1\elektr~1\jaar3~1\dspl\software\stm32b~1\hal\gemeen~1\librar~1\cmsis\include\core_cm4.h ****     For this, __FPU_PRESENT has to be checked prior to making use of FPU specific registers and fun
 123:c:\users\niels\docume~1\elektr~1\jaar3~1\dspl\software\stm32b~1\hal\gemeen~1\librar~1\cmsis\include\core_cm4.h **** */
 124:c:\users\niels\docume~1\elektr~1\jaar3~1\dspl\software\stm32b~1\hal\gemeen~1\librar~1\cmsis\include\core_cm4.h **** #if defined ( __CC_ARM )
 125:c:\users\niels\docume~1\elektr~1\jaar3~1\dspl\software\stm32b~1\hal\gemeen~1\librar~1\cmsis\include\core_cm4.h ****   #if defined __TARGET_FPU_VFP
 126:c:\users\niels\docume~1\elektr~1\jaar3~1\dspl\software\stm32b~1\hal\gemeen~1\librar~1\cmsis\include\core_cm4.h ****     #if (__FPU_PRESENT == 1U)
 127:c:\users\niels\docume~1\elektr~1\jaar3~1\dspl\software\stm32b~1\hal\gemeen~1\librar~1\cmsis\include\core_cm4.h ****       #define __FPU_USED       1U
 128:c:\users\niels\docume~1\elektr~1\jaar3~1\dspl\software\stm32b~1\hal\gemeen~1\librar~1\cmsis\include\core_cm4.h ****     #else
 129:c:\users\niels\docume~1\elektr~1\jaar3~1\dspl\software\stm32b~1\hal\gemeen~1\librar~1\cmsis\include\core_cm4.h ****       #error "Compiler generates FPU instructions for a device without an FPU (check __FPU_PRESENT)
 130:c:\users\niels\docume~1\elektr~1\jaar3~1\dspl\software\stm32b~1\hal\gemeen~1\librar~1\cmsis\include\core_cm4.h ****       #define __FPU_USED       0U
 131:c:\users\niels\docume~1\elektr~1\jaar3~1\dspl\software\stm32b~1\hal\gemeen~1\librar~1\cmsis\include\core_cm4.h ****     #endif
 132:c:\users\niels\docume~1\elektr~1\jaar3~1\dspl\software\stm32b~1\hal\gemeen~1\librar~1\cmsis\include\core_cm4.h ****   #else
 133:c:\users\niels\docume~1\elektr~1\jaar3~1\dspl\software\stm32b~1\hal\gemeen~1\librar~1\cmsis\include\core_cm4.h ****     #define __FPU_USED         0U
 134:c:\users\niels\docume~1\elektr~1\jaar3~1\dspl\software\stm32b~1\hal\gemeen~1\librar~1\cmsis\include\core_cm4.h ****   #endif
 135:c:\users\niels\docume~1\elektr~1\jaar3~1\dspl\software\stm32b~1\hal\gemeen~1\librar~1\cmsis\include\core_cm4.h **** 
 136:c:\users\niels\docume~1\elektr~1\jaar3~1\dspl\software\stm32b~1\hal\gemeen~1\librar~1\cmsis\include\core_cm4.h **** #elif defined(__ARMCC_VERSION) && (__ARMCC_VERSION >= 6010050)
 137:c:\users\niels\docume~1\elektr~1\jaar3~1\dspl\software\stm32b~1\hal\gemeen~1\librar~1\cmsis\include\core_cm4.h ****   #if defined __ARM_PCS_VFP
 138:c:\users\niels\docume~1\elektr~1\jaar3~1\dspl\software\stm32b~1\hal\gemeen~1\librar~1\cmsis\include\core_cm4.h ****     #if (__FPU_PRESENT == 1)
 139:c:\users\niels\docume~1\elektr~1\jaar3~1\dspl\software\stm32b~1\hal\gemeen~1\librar~1\cmsis\include\core_cm4.h ****       #define __FPU_USED       1U
 140:c:\users\niels\docume~1\elektr~1\jaar3~1\dspl\software\stm32b~1\hal\gemeen~1\librar~1\cmsis\include\core_cm4.h ****     #else
 141:c:\users\niels\docume~1\elektr~1\jaar3~1\dspl\software\stm32b~1\hal\gemeen~1\librar~1\cmsis\include\core_cm4.h ****       #warning "Compiler generates FPU instructions for a device without an FPU (check __FPU_PRESEN
 142:c:\users\niels\docume~1\elektr~1\jaar3~1\dspl\software\stm32b~1\hal\gemeen~1\librar~1\cmsis\include\core_cm4.h ****       #define __FPU_USED       0U
 143:c:\users\niels\docume~1\elektr~1\jaar3~1\dspl\software\stm32b~1\hal\gemeen~1\librar~1\cmsis\include\core_cm4.h ****     #endif
 144:c:\users\niels\docume~1\elektr~1\jaar3~1\dspl\software\stm32b~1\hal\gemeen~1\librar~1\cmsis\include\core_cm4.h ****   #else
 145:c:\users\niels\docume~1\elektr~1\jaar3~1\dspl\software\stm32b~1\hal\gemeen~1\librar~1\cmsis\include\core_cm4.h ****     #define __FPU_USED         0U
 146:c:\users\niels\docume~1\elektr~1\jaar3~1\dspl\software\stm32b~1\hal\gemeen~1\librar~1\cmsis\include\core_cm4.h ****   #endif
 147:c:\users\niels\docume~1\elektr~1\jaar3~1\dspl\software\stm32b~1\hal\gemeen~1\librar~1\cmsis\include\core_cm4.h **** 
 148:c:\users\niels\docume~1\elektr~1\jaar3~1\dspl\software\stm32b~1\hal\gemeen~1\librar~1\cmsis\include\core_cm4.h **** #elif defined ( __GNUC__ )
 149:c:\users\niels\docume~1\elektr~1\jaar3~1\dspl\software\stm32b~1\hal\gemeen~1\librar~1\cmsis\include\core_cm4.h ****   #if defined (__VFP_FP__) && !defined(__SOFTFP__)
ARM GAS   			page 10


 150:c:\users\niels\docume~1\elektr~1\jaar3~1\dspl\software\stm32b~1\hal\gemeen~1\librar~1\cmsis\include\core_cm4.h ****     #if (__FPU_PRESENT == 1U)
 151:c:\users\niels\docume~1\elektr~1\jaar3~1\dspl\software\stm32b~1\hal\gemeen~1\librar~1\cmsis\include\core_cm4.h ****       #define __FPU_USED       1U
 152:c:\users\niels\docume~1\elektr~1\jaar3~1\dspl\software\stm32b~1\hal\gemeen~1\librar~1\cmsis\include\core_cm4.h ****     #else
 153:c:\users\niels\docume~1\elektr~1\jaar3~1\dspl\software\stm32b~1\hal\gemeen~1\librar~1\cmsis\include\core_cm4.h ****       #error "Compiler generates FPU instructions for a device without an FPU (check __FPU_PRESENT)
 154:c:\users\niels\docume~1\elektr~1\jaar3~1\dspl\software\stm32b~1\hal\gemeen~1\librar~1\cmsis\include\core_cm4.h ****       #define __FPU_USED       0U
 155:c:\users\niels\docume~1\elektr~1\jaar3~1\dspl\software\stm32b~1\hal\gemeen~1\librar~1\cmsis\include\core_cm4.h ****     #endif
 156:c:\users\niels\docume~1\elektr~1\jaar3~1\dspl\software\stm32b~1\hal\gemeen~1\librar~1\cmsis\include\core_cm4.h ****   #else
 157:c:\users\niels\docume~1\elektr~1\jaar3~1\dspl\software\stm32b~1\hal\gemeen~1\librar~1\cmsis\include\core_cm4.h ****     #define __FPU_USED         0U
 158:c:\users\niels\docume~1\elektr~1\jaar3~1\dspl\software\stm32b~1\hal\gemeen~1\librar~1\cmsis\include\core_cm4.h ****   #endif
 159:c:\users\niels\docume~1\elektr~1\jaar3~1\dspl\software\stm32b~1\hal\gemeen~1\librar~1\cmsis\include\core_cm4.h **** 
 160:c:\users\niels\docume~1\elektr~1\jaar3~1\dspl\software\stm32b~1\hal\gemeen~1\librar~1\cmsis\include\core_cm4.h **** #elif defined ( __ICCARM__ )
 161:c:\users\niels\docume~1\elektr~1\jaar3~1\dspl\software\stm32b~1\hal\gemeen~1\librar~1\cmsis\include\core_cm4.h ****   #if defined __ARMVFP__
 162:c:\users\niels\docume~1\elektr~1\jaar3~1\dspl\software\stm32b~1\hal\gemeen~1\librar~1\cmsis\include\core_cm4.h ****     #if (__FPU_PRESENT == 1U)
 163:c:\users\niels\docume~1\elektr~1\jaar3~1\dspl\software\stm32b~1\hal\gemeen~1\librar~1\cmsis\include\core_cm4.h ****       #define __FPU_USED       1U
 164:c:\users\niels\docume~1\elektr~1\jaar3~1\dspl\software\stm32b~1\hal\gemeen~1\librar~1\cmsis\include\core_cm4.h ****     #else
 165:c:\users\niels\docume~1\elektr~1\jaar3~1\dspl\software\stm32b~1\hal\gemeen~1\librar~1\cmsis\include\core_cm4.h ****       #error "Compiler generates FPU instructions for a device without an FPU (check __FPU_PRESENT)
 166:c:\users\niels\docume~1\elektr~1\jaar3~1\dspl\software\stm32b~1\hal\gemeen~1\librar~1\cmsis\include\core_cm4.h ****       #define __FPU_USED       0U
 167:c:\users\niels\docume~1\elektr~1\jaar3~1\dspl\software\stm32b~1\hal\gemeen~1\librar~1\cmsis\include\core_cm4.h ****     #endif
 168:c:\users\niels\docume~1\elektr~1\jaar3~1\dspl\software\stm32b~1\hal\gemeen~1\librar~1\cmsis\include\core_cm4.h ****   #else
 169:c:\users\niels\docume~1\elektr~1\jaar3~1\dspl\software\stm32b~1\hal\gemeen~1\librar~1\cmsis\include\core_cm4.h ****     #define __FPU_USED         0U
 170:c:\users\niels\docume~1\elektr~1\jaar3~1\dspl\software\stm32b~1\hal\gemeen~1\librar~1\cmsis\include\core_cm4.h ****   #endif
 171:c:\users\niels\docume~1\elektr~1\jaar3~1\dspl\software\stm32b~1\hal\gemeen~1\librar~1\cmsis\include\core_cm4.h **** 
 172:c:\users\niels\docume~1\elektr~1\jaar3~1\dspl\software\stm32b~1\hal\gemeen~1\librar~1\cmsis\include\core_cm4.h **** #elif defined ( __TMS470__ )
 173:c:\users\niels\docume~1\elektr~1\jaar3~1\dspl\software\stm32b~1\hal\gemeen~1\librar~1\cmsis\include\core_cm4.h ****   #if defined __TI_VFP_SUPPORT__
 174:c:\users\niels\docume~1\elektr~1\jaar3~1\dspl\software\stm32b~1\hal\gemeen~1\librar~1\cmsis\include\core_cm4.h ****     #if (__FPU_PRESENT == 1U)
 175:c:\users\niels\docume~1\elektr~1\jaar3~1\dspl\software\stm32b~1\hal\gemeen~1\librar~1\cmsis\include\core_cm4.h ****       #define __FPU_USED       1U
 176:c:\users\niels\docume~1\elektr~1\jaar3~1\dspl\software\stm32b~1\hal\gemeen~1\librar~1\cmsis\include\core_cm4.h ****     #else
 177:c:\users\niels\docume~1\elektr~1\jaar3~1\dspl\software\stm32b~1\hal\gemeen~1\librar~1\cmsis\include\core_cm4.h ****       #error "Compiler generates FPU instructions for a device without an FPU (check __FPU_PRESENT)
 178:c:\users\niels\docume~1\elektr~1\jaar3~1\dspl\software\stm32b~1\hal\gemeen~1\librar~1\cmsis\include\core_cm4.h ****       #define __FPU_USED       0U
 179:c:\users\niels\docume~1\elektr~1\jaar3~1\dspl\software\stm32b~1\hal\gemeen~1\librar~1\cmsis\include\core_cm4.h ****     #endif
 180:c:\users\niels\docume~1\elektr~1\jaar3~1\dspl\software\stm32b~1\hal\gemeen~1\librar~1\cmsis\include\core_cm4.h ****   #else
 181:c:\users\niels\docume~1\elektr~1\jaar3~1\dspl\software\stm32b~1\hal\gemeen~1\librar~1\cmsis\include\core_cm4.h ****     #define __FPU_USED         0U
 182:c:\users\niels\docume~1\elektr~1\jaar3~1\dspl\software\stm32b~1\hal\gemeen~1\librar~1\cmsis\include\core_cm4.h ****   #endif
 183:c:\users\niels\docume~1\elektr~1\jaar3~1\dspl\software\stm32b~1\hal\gemeen~1\librar~1\cmsis\include\core_cm4.h **** 
 184:c:\users\niels\docume~1\elektr~1\jaar3~1\dspl\software\stm32b~1\hal\gemeen~1\librar~1\cmsis\include\core_cm4.h **** #elif defined ( __TASKING__ )
 185:c:\users\niels\docume~1\elektr~1\jaar3~1\dspl\software\stm32b~1\hal\gemeen~1\librar~1\cmsis\include\core_cm4.h ****   #if defined __FPU_VFP__
 186:c:\users\niels\docume~1\elektr~1\jaar3~1\dspl\software\stm32b~1\hal\gemeen~1\librar~1\cmsis\include\core_cm4.h ****     #if (__FPU_PRESENT == 1U)
 187:c:\users\niels\docume~1\elektr~1\jaar3~1\dspl\software\stm32b~1\hal\gemeen~1\librar~1\cmsis\include\core_cm4.h ****       #define __FPU_USED       1U
 188:c:\users\niels\docume~1\elektr~1\jaar3~1\dspl\software\stm32b~1\hal\gemeen~1\librar~1\cmsis\include\core_cm4.h ****     #else
 189:c:\users\niels\docume~1\elektr~1\jaar3~1\dspl\software\stm32b~1\hal\gemeen~1\librar~1\cmsis\include\core_cm4.h ****       #error "Compiler generates FPU instructions for a device without an FPU (check __FPU_PRESENT)
 190:c:\users\niels\docume~1\elektr~1\jaar3~1\dspl\software\stm32b~1\hal\gemeen~1\librar~1\cmsis\include\core_cm4.h ****       #define __FPU_USED       0U
 191:c:\users\niels\docume~1\elektr~1\jaar3~1\dspl\software\stm32b~1\hal\gemeen~1\librar~1\cmsis\include\core_cm4.h ****     #endif
 192:c:\users\niels\docume~1\elektr~1\jaar3~1\dspl\software\stm32b~1\hal\gemeen~1\librar~1\cmsis\include\core_cm4.h ****   #else
 193:c:\users\niels\docume~1\elektr~1\jaar3~1\dspl\software\stm32b~1\hal\gemeen~1\librar~1\cmsis\include\core_cm4.h ****     #define __FPU_USED         0U
 194:c:\users\niels\docume~1\elektr~1\jaar3~1\dspl\software\stm32b~1\hal\gemeen~1\librar~1\cmsis\include\core_cm4.h ****   #endif
 195:c:\users\niels\docume~1\elektr~1\jaar3~1\dspl\software\stm32b~1\hal\gemeen~1\librar~1\cmsis\include\core_cm4.h **** 
 196:c:\users\niels\docume~1\elektr~1\jaar3~1\dspl\software\stm32b~1\hal\gemeen~1\librar~1\cmsis\include\core_cm4.h **** #elif defined ( __CSMC__ )
 197:c:\users\niels\docume~1\elektr~1\jaar3~1\dspl\software\stm32b~1\hal\gemeen~1\librar~1\cmsis\include\core_cm4.h ****   #if ( __CSMC__ & 0x400U)
 198:c:\users\niels\docume~1\elektr~1\jaar3~1\dspl\software\stm32b~1\hal\gemeen~1\librar~1\cmsis\include\core_cm4.h ****     #if (__FPU_PRESENT == 1U)
 199:c:\users\niels\docume~1\elektr~1\jaar3~1\dspl\software\stm32b~1\hal\gemeen~1\librar~1\cmsis\include\core_cm4.h ****       #define __FPU_USED       1U
 200:c:\users\niels\docume~1\elektr~1\jaar3~1\dspl\software\stm32b~1\hal\gemeen~1\librar~1\cmsis\include\core_cm4.h ****     #else
 201:c:\users\niels\docume~1\elektr~1\jaar3~1\dspl\software\stm32b~1\hal\gemeen~1\librar~1\cmsis\include\core_cm4.h ****       #error "Compiler generates FPU instructions for a device without an FPU (check __FPU_PRESENT)
 202:c:\users\niels\docume~1\elektr~1\jaar3~1\dspl\software\stm32b~1\hal\gemeen~1\librar~1\cmsis\include\core_cm4.h ****       #define __FPU_USED       0U
 203:c:\users\niels\docume~1\elektr~1\jaar3~1\dspl\software\stm32b~1\hal\gemeen~1\librar~1\cmsis\include\core_cm4.h ****     #endif
 204:c:\users\niels\docume~1\elektr~1\jaar3~1\dspl\software\stm32b~1\hal\gemeen~1\librar~1\cmsis\include\core_cm4.h ****   #else
 205:c:\users\niels\docume~1\elektr~1\jaar3~1\dspl\software\stm32b~1\hal\gemeen~1\librar~1\cmsis\include\core_cm4.h ****     #define __FPU_USED         0U
 206:c:\users\niels\docume~1\elektr~1\jaar3~1\dspl\software\stm32b~1\hal\gemeen~1\librar~1\cmsis\include\core_cm4.h ****   #endif
ARM GAS   			page 11


 207:c:\users\niels\docume~1\elektr~1\jaar3~1\dspl\software\stm32b~1\hal\gemeen~1\librar~1\cmsis\include\core_cm4.h **** 
 208:c:\users\niels\docume~1\elektr~1\jaar3~1\dspl\software\stm32b~1\hal\gemeen~1\librar~1\cmsis\include\core_cm4.h **** #endif
 209:c:\users\niels\docume~1\elektr~1\jaar3~1\dspl\software\stm32b~1\hal\gemeen~1\librar~1\cmsis\include\core_cm4.h **** 
 210:c:\users\niels\docume~1\elektr~1\jaar3~1\dspl\software\stm32b~1\hal\gemeen~1\librar~1\cmsis\include\core_cm4.h **** #include "core_cmInstr.h"                /* Core Instruction Access */
 211:c:\users\niels\docume~1\elektr~1\jaar3~1\dspl\software\stm32b~1\hal\gemeen~1\librar~1\cmsis\include\core_cm4.h **** #include "core_cmFunc.h"                 /* Core Function Access */
 212:c:\users\niels\docume~1\elektr~1\jaar3~1\dspl\software\stm32b~1\hal\gemeen~1\librar~1\cmsis\include\core_cm4.h **** #include "core_cmSimd.h"                 /* Compiler specific SIMD Intrinsics */
 213:c:\users\niels\docume~1\elektr~1\jaar3~1\dspl\software\stm32b~1\hal\gemeen~1\librar~1\cmsis\include\core_cm4.h **** 
 214:c:\users\niels\docume~1\elektr~1\jaar3~1\dspl\software\stm32b~1\hal\gemeen~1\librar~1\cmsis\include\core_cm4.h **** #ifdef __cplusplus
 215:c:\users\niels\docume~1\elektr~1\jaar3~1\dspl\software\stm32b~1\hal\gemeen~1\librar~1\cmsis\include\core_cm4.h **** }
 216:c:\users\niels\docume~1\elektr~1\jaar3~1\dspl\software\stm32b~1\hal\gemeen~1\librar~1\cmsis\include\core_cm4.h **** #endif
 217:c:\users\niels\docume~1\elektr~1\jaar3~1\dspl\software\stm32b~1\hal\gemeen~1\librar~1\cmsis\include\core_cm4.h **** 
 218:c:\users\niels\docume~1\elektr~1\jaar3~1\dspl\software\stm32b~1\hal\gemeen~1\librar~1\cmsis\include\core_cm4.h **** #endif /* __CORE_CM4_H_GENERIC */
 219:c:\users\niels\docume~1\elektr~1\jaar3~1\dspl\software\stm32b~1\hal\gemeen~1\librar~1\cmsis\include\core_cm4.h **** 
 220:c:\users\niels\docume~1\elektr~1\jaar3~1\dspl\software\stm32b~1\hal\gemeen~1\librar~1\cmsis\include\core_cm4.h **** #ifndef __CMSIS_GENERIC
 221:c:\users\niels\docume~1\elektr~1\jaar3~1\dspl\software\stm32b~1\hal\gemeen~1\librar~1\cmsis\include\core_cm4.h **** 
 222:c:\users\niels\docume~1\elektr~1\jaar3~1\dspl\software\stm32b~1\hal\gemeen~1\librar~1\cmsis\include\core_cm4.h **** #ifndef __CORE_CM4_H_DEPENDANT
 223:c:\users\niels\docume~1\elektr~1\jaar3~1\dspl\software\stm32b~1\hal\gemeen~1\librar~1\cmsis\include\core_cm4.h **** #define __CORE_CM4_H_DEPENDANT
 224:c:\users\niels\docume~1\elektr~1\jaar3~1\dspl\software\stm32b~1\hal\gemeen~1\librar~1\cmsis\include\core_cm4.h **** 
 225:c:\users\niels\docume~1\elektr~1\jaar3~1\dspl\software\stm32b~1\hal\gemeen~1\librar~1\cmsis\include\core_cm4.h **** #ifdef __cplusplus
 226:c:\users\niels\docume~1\elektr~1\jaar3~1\dspl\software\stm32b~1\hal\gemeen~1\librar~1\cmsis\include\core_cm4.h ****  extern "C" {
 227:c:\users\niels\docume~1\elektr~1\jaar3~1\dspl\software\stm32b~1\hal\gemeen~1\librar~1\cmsis\include\core_cm4.h **** #endif
 228:c:\users\niels\docume~1\elektr~1\jaar3~1\dspl\software\stm32b~1\hal\gemeen~1\librar~1\cmsis\include\core_cm4.h **** 
 229:c:\users\niels\docume~1\elektr~1\jaar3~1\dspl\software\stm32b~1\hal\gemeen~1\librar~1\cmsis\include\core_cm4.h **** /* check device defines and use defaults */
 230:c:\users\niels\docume~1\elektr~1\jaar3~1\dspl\software\stm32b~1\hal\gemeen~1\librar~1\cmsis\include\core_cm4.h **** #if defined __CHECK_DEVICE_DEFINES
 231:c:\users\niels\docume~1\elektr~1\jaar3~1\dspl\software\stm32b~1\hal\gemeen~1\librar~1\cmsis\include\core_cm4.h ****   #ifndef __CM4_REV
 232:c:\users\niels\docume~1\elektr~1\jaar3~1\dspl\software\stm32b~1\hal\gemeen~1\librar~1\cmsis\include\core_cm4.h ****     #define __CM4_REV               0x0000U
 233:c:\users\niels\docume~1\elektr~1\jaar3~1\dspl\software\stm32b~1\hal\gemeen~1\librar~1\cmsis\include\core_cm4.h ****     #warning "__CM4_REV not defined in device header file; using default!"
 234:c:\users\niels\docume~1\elektr~1\jaar3~1\dspl\software\stm32b~1\hal\gemeen~1\librar~1\cmsis\include\core_cm4.h ****   #endif
 235:c:\users\niels\docume~1\elektr~1\jaar3~1\dspl\software\stm32b~1\hal\gemeen~1\librar~1\cmsis\include\core_cm4.h **** 
 236:c:\users\niels\docume~1\elektr~1\jaar3~1\dspl\software\stm32b~1\hal\gemeen~1\librar~1\cmsis\include\core_cm4.h ****   #ifndef __FPU_PRESENT
 237:c:\users\niels\docume~1\elektr~1\jaar3~1\dspl\software\stm32b~1\hal\gemeen~1\librar~1\cmsis\include\core_cm4.h ****     #define __FPU_PRESENT             0U
 238:c:\users\niels\docume~1\elektr~1\jaar3~1\dspl\software\stm32b~1\hal\gemeen~1\librar~1\cmsis\include\core_cm4.h ****     #warning "__FPU_PRESENT not defined in device header file; using default!"
 239:c:\users\niels\docume~1\elektr~1\jaar3~1\dspl\software\stm32b~1\hal\gemeen~1\librar~1\cmsis\include\core_cm4.h ****   #endif
 240:c:\users\niels\docume~1\elektr~1\jaar3~1\dspl\software\stm32b~1\hal\gemeen~1\librar~1\cmsis\include\core_cm4.h **** 
 241:c:\users\niels\docume~1\elektr~1\jaar3~1\dspl\software\stm32b~1\hal\gemeen~1\librar~1\cmsis\include\core_cm4.h ****   #ifndef __MPU_PRESENT
 242:c:\users\niels\docume~1\elektr~1\jaar3~1\dspl\software\stm32b~1\hal\gemeen~1\librar~1\cmsis\include\core_cm4.h ****     #define __MPU_PRESENT             0U
 243:c:\users\niels\docume~1\elektr~1\jaar3~1\dspl\software\stm32b~1\hal\gemeen~1\librar~1\cmsis\include\core_cm4.h ****     #warning "__MPU_PRESENT not defined in device header file; using default!"
 244:c:\users\niels\docume~1\elektr~1\jaar3~1\dspl\software\stm32b~1\hal\gemeen~1\librar~1\cmsis\include\core_cm4.h ****   #endif
 245:c:\users\niels\docume~1\elektr~1\jaar3~1\dspl\software\stm32b~1\hal\gemeen~1\librar~1\cmsis\include\core_cm4.h **** 
 246:c:\users\niels\docume~1\elektr~1\jaar3~1\dspl\software\stm32b~1\hal\gemeen~1\librar~1\cmsis\include\core_cm4.h ****   #ifndef __NVIC_PRIO_BITS
 247:c:\users\niels\docume~1\elektr~1\jaar3~1\dspl\software\stm32b~1\hal\gemeen~1\librar~1\cmsis\include\core_cm4.h ****     #define __NVIC_PRIO_BITS          4U
 248:c:\users\niels\docume~1\elektr~1\jaar3~1\dspl\software\stm32b~1\hal\gemeen~1\librar~1\cmsis\include\core_cm4.h ****     #warning "__NVIC_PRIO_BITS not defined in device header file; using default!"
 249:c:\users\niels\docume~1\elektr~1\jaar3~1\dspl\software\stm32b~1\hal\gemeen~1\librar~1\cmsis\include\core_cm4.h ****   #endif
 250:c:\users\niels\docume~1\elektr~1\jaar3~1\dspl\software\stm32b~1\hal\gemeen~1\librar~1\cmsis\include\core_cm4.h **** 
 251:c:\users\niels\docume~1\elektr~1\jaar3~1\dspl\software\stm32b~1\hal\gemeen~1\librar~1\cmsis\include\core_cm4.h ****   #ifndef __Vendor_SysTickConfig
 252:c:\users\niels\docume~1\elektr~1\jaar3~1\dspl\software\stm32b~1\hal\gemeen~1\librar~1\cmsis\include\core_cm4.h ****     #define __Vendor_SysTickConfig    0U
 253:c:\users\niels\docume~1\elektr~1\jaar3~1\dspl\software\stm32b~1\hal\gemeen~1\librar~1\cmsis\include\core_cm4.h ****     #warning "__Vendor_SysTickConfig not defined in device header file; using default!"
 254:c:\users\niels\docume~1\elektr~1\jaar3~1\dspl\software\stm32b~1\hal\gemeen~1\librar~1\cmsis\include\core_cm4.h ****   #endif
 255:c:\users\niels\docume~1\elektr~1\jaar3~1\dspl\software\stm32b~1\hal\gemeen~1\librar~1\cmsis\include\core_cm4.h **** #endif
 256:c:\users\niels\docume~1\elektr~1\jaar3~1\dspl\software\stm32b~1\hal\gemeen~1\librar~1\cmsis\include\core_cm4.h **** 
 257:c:\users\niels\docume~1\elektr~1\jaar3~1\dspl\software\stm32b~1\hal\gemeen~1\librar~1\cmsis\include\core_cm4.h **** /* IO definitions (access restrictions to peripheral registers) */
 258:c:\users\niels\docume~1\elektr~1\jaar3~1\dspl\software\stm32b~1\hal\gemeen~1\librar~1\cmsis\include\core_cm4.h **** /**
 259:c:\users\niels\docume~1\elektr~1\jaar3~1\dspl\software\stm32b~1\hal\gemeen~1\librar~1\cmsis\include\core_cm4.h ****     \defgroup CMSIS_glob_defs CMSIS Global Defines
 260:c:\users\niels\docume~1\elektr~1\jaar3~1\dspl\software\stm32b~1\hal\gemeen~1\librar~1\cmsis\include\core_cm4.h **** 
 261:c:\users\niels\docume~1\elektr~1\jaar3~1\dspl\software\stm32b~1\hal\gemeen~1\librar~1\cmsis\include\core_cm4.h ****     <strong>IO Type Qualifiers</strong> are used
 262:c:\users\niels\docume~1\elektr~1\jaar3~1\dspl\software\stm32b~1\hal\gemeen~1\librar~1\cmsis\include\core_cm4.h ****     \li to specify the access to peripheral variables.
 263:c:\users\niels\docume~1\elektr~1\jaar3~1\dspl\software\stm32b~1\hal\gemeen~1\librar~1\cmsis\include\core_cm4.h ****     \li for automatic generation of peripheral register debug information.
ARM GAS   			page 12


 264:c:\users\niels\docume~1\elektr~1\jaar3~1\dspl\software\stm32b~1\hal\gemeen~1\librar~1\cmsis\include\core_cm4.h **** */
 265:c:\users\niels\docume~1\elektr~1\jaar3~1\dspl\software\stm32b~1\hal\gemeen~1\librar~1\cmsis\include\core_cm4.h **** #ifdef __cplusplus
 266:c:\users\niels\docume~1\elektr~1\jaar3~1\dspl\software\stm32b~1\hal\gemeen~1\librar~1\cmsis\include\core_cm4.h ****   #define   __I     volatile             /*!< Defines 'read only' permissions */
 267:c:\users\niels\docume~1\elektr~1\jaar3~1\dspl\software\stm32b~1\hal\gemeen~1\librar~1\cmsis\include\core_cm4.h **** #else
 268:c:\users\niels\docume~1\elektr~1\jaar3~1\dspl\software\stm32b~1\hal\gemeen~1\librar~1\cmsis\include\core_cm4.h ****   #define   __I     volatile const       /*!< Defines 'read only' permissions */
 269:c:\users\niels\docume~1\elektr~1\jaar3~1\dspl\software\stm32b~1\hal\gemeen~1\librar~1\cmsis\include\core_cm4.h **** #endif
 270:c:\users\niels\docume~1\elektr~1\jaar3~1\dspl\software\stm32b~1\hal\gemeen~1\librar~1\cmsis\include\core_cm4.h **** #define     __O     volatile             /*!< Defines 'write only' permissions */
 271:c:\users\niels\docume~1\elektr~1\jaar3~1\dspl\software\stm32b~1\hal\gemeen~1\librar~1\cmsis\include\core_cm4.h **** #define     __IO    volatile             /*!< Defines 'read / write' permissions */
 272:c:\users\niels\docume~1\elektr~1\jaar3~1\dspl\software\stm32b~1\hal\gemeen~1\librar~1\cmsis\include\core_cm4.h **** 
 273:c:\users\niels\docume~1\elektr~1\jaar3~1\dspl\software\stm32b~1\hal\gemeen~1\librar~1\cmsis\include\core_cm4.h **** /* following defines should be used for structure members */
 274:c:\users\niels\docume~1\elektr~1\jaar3~1\dspl\software\stm32b~1\hal\gemeen~1\librar~1\cmsis\include\core_cm4.h **** #define     __IM     volatile const      /*! Defines 'read only' structure member permissions */
 275:c:\users\niels\docume~1\elektr~1\jaar3~1\dspl\software\stm32b~1\hal\gemeen~1\librar~1\cmsis\include\core_cm4.h **** #define     __OM     volatile            /*! Defines 'write only' structure member permissions */
 276:c:\users\niels\docume~1\elektr~1\jaar3~1\dspl\software\stm32b~1\hal\gemeen~1\librar~1\cmsis\include\core_cm4.h **** #define     __IOM    volatile            /*! Defines 'read / write' structure member permissions */
 277:c:\users\niels\docume~1\elektr~1\jaar3~1\dspl\software\stm32b~1\hal\gemeen~1\librar~1\cmsis\include\core_cm4.h **** 
 278:c:\users\niels\docume~1\elektr~1\jaar3~1\dspl\software\stm32b~1\hal\gemeen~1\librar~1\cmsis\include\core_cm4.h **** /*@} end of group Cortex_M4 */
 279:c:\users\niels\docume~1\elektr~1\jaar3~1\dspl\software\stm32b~1\hal\gemeen~1\librar~1\cmsis\include\core_cm4.h **** 
 280:c:\users\niels\docume~1\elektr~1\jaar3~1\dspl\software\stm32b~1\hal\gemeen~1\librar~1\cmsis\include\core_cm4.h **** 
 281:c:\users\niels\docume~1\elektr~1\jaar3~1\dspl\software\stm32b~1\hal\gemeen~1\librar~1\cmsis\include\core_cm4.h **** 
 282:c:\users\niels\docume~1\elektr~1\jaar3~1\dspl\software\stm32b~1\hal\gemeen~1\librar~1\cmsis\include\core_cm4.h **** /*******************************************************************************
 283:c:\users\niels\docume~1\elektr~1\jaar3~1\dspl\software\stm32b~1\hal\gemeen~1\librar~1\cmsis\include\core_cm4.h ****  *                 Register Abstraction
 284:c:\users\niels\docume~1\elektr~1\jaar3~1\dspl\software\stm32b~1\hal\gemeen~1\librar~1\cmsis\include\core_cm4.h ****   Core Register contain:
 285:c:\users\niels\docume~1\elektr~1\jaar3~1\dspl\software\stm32b~1\hal\gemeen~1\librar~1\cmsis\include\core_cm4.h ****   - Core Register
 286:c:\users\niels\docume~1\elektr~1\jaar3~1\dspl\software\stm32b~1\hal\gemeen~1\librar~1\cmsis\include\core_cm4.h ****   - Core NVIC Register
 287:c:\users\niels\docume~1\elektr~1\jaar3~1\dspl\software\stm32b~1\hal\gemeen~1\librar~1\cmsis\include\core_cm4.h ****   - Core SCB Register
 288:c:\users\niels\docume~1\elektr~1\jaar3~1\dspl\software\stm32b~1\hal\gemeen~1\librar~1\cmsis\include\core_cm4.h ****   - Core SysTick Register
 289:c:\users\niels\docume~1\elektr~1\jaar3~1\dspl\software\stm32b~1\hal\gemeen~1\librar~1\cmsis\include\core_cm4.h ****   - Core Debug Register
 290:c:\users\niels\docume~1\elektr~1\jaar3~1\dspl\software\stm32b~1\hal\gemeen~1\librar~1\cmsis\include\core_cm4.h ****   - Core MPU Register
 291:c:\users\niels\docume~1\elektr~1\jaar3~1\dspl\software\stm32b~1\hal\gemeen~1\librar~1\cmsis\include\core_cm4.h ****   - Core FPU Register
 292:c:\users\niels\docume~1\elektr~1\jaar3~1\dspl\software\stm32b~1\hal\gemeen~1\librar~1\cmsis\include\core_cm4.h ****  ******************************************************************************/
 293:c:\users\niels\docume~1\elektr~1\jaar3~1\dspl\software\stm32b~1\hal\gemeen~1\librar~1\cmsis\include\core_cm4.h **** /**
 294:c:\users\niels\docume~1\elektr~1\jaar3~1\dspl\software\stm32b~1\hal\gemeen~1\librar~1\cmsis\include\core_cm4.h ****   \defgroup CMSIS_core_register Defines and Type Definitions
 295:c:\users\niels\docume~1\elektr~1\jaar3~1\dspl\software\stm32b~1\hal\gemeen~1\librar~1\cmsis\include\core_cm4.h ****   \brief Type definitions and defines for Cortex-M processor based devices.
 296:c:\users\niels\docume~1\elektr~1\jaar3~1\dspl\software\stm32b~1\hal\gemeen~1\librar~1\cmsis\include\core_cm4.h **** */
 297:c:\users\niels\docume~1\elektr~1\jaar3~1\dspl\software\stm32b~1\hal\gemeen~1\librar~1\cmsis\include\core_cm4.h **** 
 298:c:\users\niels\docume~1\elektr~1\jaar3~1\dspl\software\stm32b~1\hal\gemeen~1\librar~1\cmsis\include\core_cm4.h **** /**
 299:c:\users\niels\docume~1\elektr~1\jaar3~1\dspl\software\stm32b~1\hal\gemeen~1\librar~1\cmsis\include\core_cm4.h ****   \ingroup    CMSIS_core_register
 300:c:\users\niels\docume~1\elektr~1\jaar3~1\dspl\software\stm32b~1\hal\gemeen~1\librar~1\cmsis\include\core_cm4.h ****   \defgroup   CMSIS_CORE  Status and Control Registers
 301:c:\users\niels\docume~1\elektr~1\jaar3~1\dspl\software\stm32b~1\hal\gemeen~1\librar~1\cmsis\include\core_cm4.h ****   \brief      Core Register type definitions.
 302:c:\users\niels\docume~1\elektr~1\jaar3~1\dspl\software\stm32b~1\hal\gemeen~1\librar~1\cmsis\include\core_cm4.h ****   @{
 303:c:\users\niels\docume~1\elektr~1\jaar3~1\dspl\software\stm32b~1\hal\gemeen~1\librar~1\cmsis\include\core_cm4.h ****  */
 304:c:\users\niels\docume~1\elektr~1\jaar3~1\dspl\software\stm32b~1\hal\gemeen~1\librar~1\cmsis\include\core_cm4.h **** 
 305:c:\users\niels\docume~1\elektr~1\jaar3~1\dspl\software\stm32b~1\hal\gemeen~1\librar~1\cmsis\include\core_cm4.h **** /**
 306:c:\users\niels\docume~1\elektr~1\jaar3~1\dspl\software\stm32b~1\hal\gemeen~1\librar~1\cmsis\include\core_cm4.h ****   \brief  Union type to access the Application Program Status Register (APSR).
 307:c:\users\niels\docume~1\elektr~1\jaar3~1\dspl\software\stm32b~1\hal\gemeen~1\librar~1\cmsis\include\core_cm4.h ****  */
 308:c:\users\niels\docume~1\elektr~1\jaar3~1\dspl\software\stm32b~1\hal\gemeen~1\librar~1\cmsis\include\core_cm4.h **** typedef union
 309:c:\users\niels\docume~1\elektr~1\jaar3~1\dspl\software\stm32b~1\hal\gemeen~1\librar~1\cmsis\include\core_cm4.h **** {
 310:c:\users\niels\docume~1\elektr~1\jaar3~1\dspl\software\stm32b~1\hal\gemeen~1\librar~1\cmsis\include\core_cm4.h ****   struct
 311:c:\users\niels\docume~1\elektr~1\jaar3~1\dspl\software\stm32b~1\hal\gemeen~1\librar~1\cmsis\include\core_cm4.h ****   {
 312:c:\users\niels\docume~1\elektr~1\jaar3~1\dspl\software\stm32b~1\hal\gemeen~1\librar~1\cmsis\include\core_cm4.h ****     uint32_t _reserved0:16;              /*!< bit:  0..15  Reserved */
 313:c:\users\niels\docume~1\elektr~1\jaar3~1\dspl\software\stm32b~1\hal\gemeen~1\librar~1\cmsis\include\core_cm4.h ****     uint32_t GE:4;                       /*!< bit: 16..19  Greater than or Equal flags */
 314:c:\users\niels\docume~1\elektr~1\jaar3~1\dspl\software\stm32b~1\hal\gemeen~1\librar~1\cmsis\include\core_cm4.h ****     uint32_t _reserved1:7;               /*!< bit: 20..26  Reserved */
 315:c:\users\niels\docume~1\elektr~1\jaar3~1\dspl\software\stm32b~1\hal\gemeen~1\librar~1\cmsis\include\core_cm4.h ****     uint32_t Q:1;                        /*!< bit:     27  Saturation condition flag */
 316:c:\users\niels\docume~1\elektr~1\jaar3~1\dspl\software\stm32b~1\hal\gemeen~1\librar~1\cmsis\include\core_cm4.h ****     uint32_t V:1;                        /*!< bit:     28  Overflow condition code flag */
 317:c:\users\niels\docume~1\elektr~1\jaar3~1\dspl\software\stm32b~1\hal\gemeen~1\librar~1\cmsis\include\core_cm4.h ****     uint32_t C:1;                        /*!< bit:     29  Carry condition code flag */
 318:c:\users\niels\docume~1\elektr~1\jaar3~1\dspl\software\stm32b~1\hal\gemeen~1\librar~1\cmsis\include\core_cm4.h ****     uint32_t Z:1;                        /*!< bit:     30  Zero condition code flag */
 319:c:\users\niels\docume~1\elektr~1\jaar3~1\dspl\software\stm32b~1\hal\gemeen~1\librar~1\cmsis\include\core_cm4.h ****     uint32_t N:1;                        /*!< bit:     31  Negative condition code flag */
 320:c:\users\niels\docume~1\elektr~1\jaar3~1\dspl\software\stm32b~1\hal\gemeen~1\librar~1\cmsis\include\core_cm4.h ****   } b;                                   /*!< Structure used for bit  access */
ARM GAS   			page 13


 321:c:\users\niels\docume~1\elektr~1\jaar3~1\dspl\software\stm32b~1\hal\gemeen~1\librar~1\cmsis\include\core_cm4.h ****   uint32_t w;                            /*!< Type      used for word access */
 322:c:\users\niels\docume~1\elektr~1\jaar3~1\dspl\software\stm32b~1\hal\gemeen~1\librar~1\cmsis\include\core_cm4.h **** } APSR_Type;
 323:c:\users\niels\docume~1\elektr~1\jaar3~1\dspl\software\stm32b~1\hal\gemeen~1\librar~1\cmsis\include\core_cm4.h **** 
 324:c:\users\niels\docume~1\elektr~1\jaar3~1\dspl\software\stm32b~1\hal\gemeen~1\librar~1\cmsis\include\core_cm4.h **** /* APSR Register Definitions */
 325:c:\users\niels\docume~1\elektr~1\jaar3~1\dspl\software\stm32b~1\hal\gemeen~1\librar~1\cmsis\include\core_cm4.h **** #define APSR_N_Pos                         31U                                            /*!< APSR
 326:c:\users\niels\docume~1\elektr~1\jaar3~1\dspl\software\stm32b~1\hal\gemeen~1\librar~1\cmsis\include\core_cm4.h **** #define APSR_N_Msk                         (1UL << APSR_N_Pos)                            /*!< APSR
 327:c:\users\niels\docume~1\elektr~1\jaar3~1\dspl\software\stm32b~1\hal\gemeen~1\librar~1\cmsis\include\core_cm4.h **** 
 328:c:\users\niels\docume~1\elektr~1\jaar3~1\dspl\software\stm32b~1\hal\gemeen~1\librar~1\cmsis\include\core_cm4.h **** #define APSR_Z_Pos                         30U                                            /*!< APSR
 329:c:\users\niels\docume~1\elektr~1\jaar3~1\dspl\software\stm32b~1\hal\gemeen~1\librar~1\cmsis\include\core_cm4.h **** #define APSR_Z_Msk                         (1UL << APSR_Z_Pos)                            /*!< APSR
 330:c:\users\niels\docume~1\elektr~1\jaar3~1\dspl\software\stm32b~1\hal\gemeen~1\librar~1\cmsis\include\core_cm4.h **** 
 331:c:\users\niels\docume~1\elektr~1\jaar3~1\dspl\software\stm32b~1\hal\gemeen~1\librar~1\cmsis\include\core_cm4.h **** #define APSR_C_Pos                         29U                                            /*!< APSR
 332:c:\users\niels\docume~1\elektr~1\jaar3~1\dspl\software\stm32b~1\hal\gemeen~1\librar~1\cmsis\include\core_cm4.h **** #define APSR_C_Msk                         (1UL << APSR_C_Pos)                            /*!< APSR
 333:c:\users\niels\docume~1\elektr~1\jaar3~1\dspl\software\stm32b~1\hal\gemeen~1\librar~1\cmsis\include\core_cm4.h **** 
 334:c:\users\niels\docume~1\elektr~1\jaar3~1\dspl\software\stm32b~1\hal\gemeen~1\librar~1\cmsis\include\core_cm4.h **** #define APSR_V_Pos                         28U                                            /*!< APSR
 335:c:\users\niels\docume~1\elektr~1\jaar3~1\dspl\software\stm32b~1\hal\gemeen~1\librar~1\cmsis\include\core_cm4.h **** #define APSR_V_Msk                         (1UL << APSR_V_Pos)                            /*!< APSR
 336:c:\users\niels\docume~1\elektr~1\jaar3~1\dspl\software\stm32b~1\hal\gemeen~1\librar~1\cmsis\include\core_cm4.h **** 
 337:c:\users\niels\docume~1\elektr~1\jaar3~1\dspl\software\stm32b~1\hal\gemeen~1\librar~1\cmsis\include\core_cm4.h **** #define APSR_Q_Pos                         27U                                            /*!< APSR
 338:c:\users\niels\docume~1\elektr~1\jaar3~1\dspl\software\stm32b~1\hal\gemeen~1\librar~1\cmsis\include\core_cm4.h **** #define APSR_Q_Msk                         (1UL << APSR_Q_Pos)                            /*!< APSR
 339:c:\users\niels\docume~1\elektr~1\jaar3~1\dspl\software\stm32b~1\hal\gemeen~1\librar~1\cmsis\include\core_cm4.h **** 
 340:c:\users\niels\docume~1\elektr~1\jaar3~1\dspl\software\stm32b~1\hal\gemeen~1\librar~1\cmsis\include\core_cm4.h **** #define APSR_GE_Pos                        16U                                            /*!< APSR
 341:c:\users\niels\docume~1\elektr~1\jaar3~1\dspl\software\stm32b~1\hal\gemeen~1\librar~1\cmsis\include\core_cm4.h **** #define APSR_GE_Msk                        (0xFUL << APSR_GE_Pos)                         /*!< APSR
 342:c:\users\niels\docume~1\elektr~1\jaar3~1\dspl\software\stm32b~1\hal\gemeen~1\librar~1\cmsis\include\core_cm4.h **** 
 343:c:\users\niels\docume~1\elektr~1\jaar3~1\dspl\software\stm32b~1\hal\gemeen~1\librar~1\cmsis\include\core_cm4.h **** 
 344:c:\users\niels\docume~1\elektr~1\jaar3~1\dspl\software\stm32b~1\hal\gemeen~1\librar~1\cmsis\include\core_cm4.h **** /**
 345:c:\users\niels\docume~1\elektr~1\jaar3~1\dspl\software\stm32b~1\hal\gemeen~1\librar~1\cmsis\include\core_cm4.h ****   \brief  Union type to access the Interrupt Program Status Register (IPSR).
 346:c:\users\niels\docume~1\elektr~1\jaar3~1\dspl\software\stm32b~1\hal\gemeen~1\librar~1\cmsis\include\core_cm4.h ****  */
 347:c:\users\niels\docume~1\elektr~1\jaar3~1\dspl\software\stm32b~1\hal\gemeen~1\librar~1\cmsis\include\core_cm4.h **** typedef union
 348:c:\users\niels\docume~1\elektr~1\jaar3~1\dspl\software\stm32b~1\hal\gemeen~1\librar~1\cmsis\include\core_cm4.h **** {
 349:c:\users\niels\docume~1\elektr~1\jaar3~1\dspl\software\stm32b~1\hal\gemeen~1\librar~1\cmsis\include\core_cm4.h ****   struct
 350:c:\users\niels\docume~1\elektr~1\jaar3~1\dspl\software\stm32b~1\hal\gemeen~1\librar~1\cmsis\include\core_cm4.h ****   {
 351:c:\users\niels\docume~1\elektr~1\jaar3~1\dspl\software\stm32b~1\hal\gemeen~1\librar~1\cmsis\include\core_cm4.h ****     uint32_t ISR:9;                      /*!< bit:  0.. 8  Exception number */
 352:c:\users\niels\docume~1\elektr~1\jaar3~1\dspl\software\stm32b~1\hal\gemeen~1\librar~1\cmsis\include\core_cm4.h ****     uint32_t _reserved0:23;              /*!< bit:  9..31  Reserved */
 353:c:\users\niels\docume~1\elektr~1\jaar3~1\dspl\software\stm32b~1\hal\gemeen~1\librar~1\cmsis\include\core_cm4.h ****   } b;                                   /*!< Structure used for bit  access */
 354:c:\users\niels\docume~1\elektr~1\jaar3~1\dspl\software\stm32b~1\hal\gemeen~1\librar~1\cmsis\include\core_cm4.h ****   uint32_t w;                            /*!< Type      used for word access */
 355:c:\users\niels\docume~1\elektr~1\jaar3~1\dspl\software\stm32b~1\hal\gemeen~1\librar~1\cmsis\include\core_cm4.h **** } IPSR_Type;
 356:c:\users\niels\docume~1\elektr~1\jaar3~1\dspl\software\stm32b~1\hal\gemeen~1\librar~1\cmsis\include\core_cm4.h **** 
 357:c:\users\niels\docume~1\elektr~1\jaar3~1\dspl\software\stm32b~1\hal\gemeen~1\librar~1\cmsis\include\core_cm4.h **** /* IPSR Register Definitions */
 358:c:\users\niels\docume~1\elektr~1\jaar3~1\dspl\software\stm32b~1\hal\gemeen~1\librar~1\cmsis\include\core_cm4.h **** #define IPSR_ISR_Pos                        0U                                            /*!< IPSR
 359:c:\users\niels\docume~1\elektr~1\jaar3~1\dspl\software\stm32b~1\hal\gemeen~1\librar~1\cmsis\include\core_cm4.h **** #define IPSR_ISR_Msk                       (0x1FFUL /*<< IPSR_ISR_Pos*/)                  /*!< IPSR
 360:c:\users\niels\docume~1\elektr~1\jaar3~1\dspl\software\stm32b~1\hal\gemeen~1\librar~1\cmsis\include\core_cm4.h **** 
 361:c:\users\niels\docume~1\elektr~1\jaar3~1\dspl\software\stm32b~1\hal\gemeen~1\librar~1\cmsis\include\core_cm4.h **** 
 362:c:\users\niels\docume~1\elektr~1\jaar3~1\dspl\software\stm32b~1\hal\gemeen~1\librar~1\cmsis\include\core_cm4.h **** /**
 363:c:\users\niels\docume~1\elektr~1\jaar3~1\dspl\software\stm32b~1\hal\gemeen~1\librar~1\cmsis\include\core_cm4.h ****   \brief  Union type to access the Special-Purpose Program Status Registers (xPSR).
 364:c:\users\niels\docume~1\elektr~1\jaar3~1\dspl\software\stm32b~1\hal\gemeen~1\librar~1\cmsis\include\core_cm4.h ****  */
 365:c:\users\niels\docume~1\elektr~1\jaar3~1\dspl\software\stm32b~1\hal\gemeen~1\librar~1\cmsis\include\core_cm4.h **** typedef union
 366:c:\users\niels\docume~1\elektr~1\jaar3~1\dspl\software\stm32b~1\hal\gemeen~1\librar~1\cmsis\include\core_cm4.h **** {
 367:c:\users\niels\docume~1\elektr~1\jaar3~1\dspl\software\stm32b~1\hal\gemeen~1\librar~1\cmsis\include\core_cm4.h ****   struct
 368:c:\users\niels\docume~1\elektr~1\jaar3~1\dspl\software\stm32b~1\hal\gemeen~1\librar~1\cmsis\include\core_cm4.h ****   {
 369:c:\users\niels\docume~1\elektr~1\jaar3~1\dspl\software\stm32b~1\hal\gemeen~1\librar~1\cmsis\include\core_cm4.h ****     uint32_t ISR:9;                      /*!< bit:  0.. 8  Exception number */
 370:c:\users\niels\docume~1\elektr~1\jaar3~1\dspl\software\stm32b~1\hal\gemeen~1\librar~1\cmsis\include\core_cm4.h ****     uint32_t _reserved0:7;               /*!< bit:  9..15  Reserved */
 371:c:\users\niels\docume~1\elektr~1\jaar3~1\dspl\software\stm32b~1\hal\gemeen~1\librar~1\cmsis\include\core_cm4.h ****     uint32_t GE:4;                       /*!< bit: 16..19  Greater than or Equal flags */
 372:c:\users\niels\docume~1\elektr~1\jaar3~1\dspl\software\stm32b~1\hal\gemeen~1\librar~1\cmsis\include\core_cm4.h ****     uint32_t _reserved1:4;               /*!< bit: 20..23  Reserved */
 373:c:\users\niels\docume~1\elektr~1\jaar3~1\dspl\software\stm32b~1\hal\gemeen~1\librar~1\cmsis\include\core_cm4.h ****     uint32_t T:1;                        /*!< bit:     24  Thumb bit        (read 0) */
 374:c:\users\niels\docume~1\elektr~1\jaar3~1\dspl\software\stm32b~1\hal\gemeen~1\librar~1\cmsis\include\core_cm4.h ****     uint32_t IT:2;                       /*!< bit: 25..26  saved IT state   (read 0) */
 375:c:\users\niels\docume~1\elektr~1\jaar3~1\dspl\software\stm32b~1\hal\gemeen~1\librar~1\cmsis\include\core_cm4.h ****     uint32_t Q:1;                        /*!< bit:     27  Saturation condition flag */
 376:c:\users\niels\docume~1\elektr~1\jaar3~1\dspl\software\stm32b~1\hal\gemeen~1\librar~1\cmsis\include\core_cm4.h ****     uint32_t V:1;                        /*!< bit:     28  Overflow condition code flag */
 377:c:\users\niels\docume~1\elektr~1\jaar3~1\dspl\software\stm32b~1\hal\gemeen~1\librar~1\cmsis\include\core_cm4.h ****     uint32_t C:1;                        /*!< bit:     29  Carry condition code flag */
ARM GAS   			page 14


 378:c:\users\niels\docume~1\elektr~1\jaar3~1\dspl\software\stm32b~1\hal\gemeen~1\librar~1\cmsis\include\core_cm4.h ****     uint32_t Z:1;                        /*!< bit:     30  Zero condition code flag */
 379:c:\users\niels\docume~1\elektr~1\jaar3~1\dspl\software\stm32b~1\hal\gemeen~1\librar~1\cmsis\include\core_cm4.h ****     uint32_t N:1;                        /*!< bit:     31  Negative condition code flag */
 380:c:\users\niels\docume~1\elektr~1\jaar3~1\dspl\software\stm32b~1\hal\gemeen~1\librar~1\cmsis\include\core_cm4.h ****   } b;                                   /*!< Structure used for bit  access */
 381:c:\users\niels\docume~1\elektr~1\jaar3~1\dspl\software\stm32b~1\hal\gemeen~1\librar~1\cmsis\include\core_cm4.h ****   uint32_t w;                            /*!< Type      used for word access */
 382:c:\users\niels\docume~1\elektr~1\jaar3~1\dspl\software\stm32b~1\hal\gemeen~1\librar~1\cmsis\include\core_cm4.h **** } xPSR_Type;
 383:c:\users\niels\docume~1\elektr~1\jaar3~1\dspl\software\stm32b~1\hal\gemeen~1\librar~1\cmsis\include\core_cm4.h **** 
 384:c:\users\niels\docume~1\elektr~1\jaar3~1\dspl\software\stm32b~1\hal\gemeen~1\librar~1\cmsis\include\core_cm4.h **** /* xPSR Register Definitions */
 385:c:\users\niels\docume~1\elektr~1\jaar3~1\dspl\software\stm32b~1\hal\gemeen~1\librar~1\cmsis\include\core_cm4.h **** #define xPSR_N_Pos                         31U                                            /*!< xPSR
 386:c:\users\niels\docume~1\elektr~1\jaar3~1\dspl\software\stm32b~1\hal\gemeen~1\librar~1\cmsis\include\core_cm4.h **** #define xPSR_N_Msk                         (1UL << xPSR_N_Pos)                            /*!< xPSR
 387:c:\users\niels\docume~1\elektr~1\jaar3~1\dspl\software\stm32b~1\hal\gemeen~1\librar~1\cmsis\include\core_cm4.h **** 
 388:c:\users\niels\docume~1\elektr~1\jaar3~1\dspl\software\stm32b~1\hal\gemeen~1\librar~1\cmsis\include\core_cm4.h **** #define xPSR_Z_Pos                         30U                                            /*!< xPSR
 389:c:\users\niels\docume~1\elektr~1\jaar3~1\dspl\software\stm32b~1\hal\gemeen~1\librar~1\cmsis\include\core_cm4.h **** #define xPSR_Z_Msk                         (1UL << xPSR_Z_Pos)                            /*!< xPSR
 390:c:\users\niels\docume~1\elektr~1\jaar3~1\dspl\software\stm32b~1\hal\gemeen~1\librar~1\cmsis\include\core_cm4.h **** 
 391:c:\users\niels\docume~1\elektr~1\jaar3~1\dspl\software\stm32b~1\hal\gemeen~1\librar~1\cmsis\include\core_cm4.h **** #define xPSR_C_Pos                         29U                                            /*!< xPSR
 392:c:\users\niels\docume~1\elektr~1\jaar3~1\dspl\software\stm32b~1\hal\gemeen~1\librar~1\cmsis\include\core_cm4.h **** #define xPSR_C_Msk                         (1UL << xPSR_C_Pos)                            /*!< xPSR
 393:c:\users\niels\docume~1\elektr~1\jaar3~1\dspl\software\stm32b~1\hal\gemeen~1\librar~1\cmsis\include\core_cm4.h **** 
 394:c:\users\niels\docume~1\elektr~1\jaar3~1\dspl\software\stm32b~1\hal\gemeen~1\librar~1\cmsis\include\core_cm4.h **** #define xPSR_V_Pos                         28U                                            /*!< xPSR
 395:c:\users\niels\docume~1\elektr~1\jaar3~1\dspl\software\stm32b~1\hal\gemeen~1\librar~1\cmsis\include\core_cm4.h **** #define xPSR_V_Msk                         (1UL << xPSR_V_Pos)                            /*!< xPSR
 396:c:\users\niels\docume~1\elektr~1\jaar3~1\dspl\software\stm32b~1\hal\gemeen~1\librar~1\cmsis\include\core_cm4.h **** 
 397:c:\users\niels\docume~1\elektr~1\jaar3~1\dspl\software\stm32b~1\hal\gemeen~1\librar~1\cmsis\include\core_cm4.h **** #define xPSR_Q_Pos                         27U                                            /*!< xPSR
 398:c:\users\niels\docume~1\elektr~1\jaar3~1\dspl\software\stm32b~1\hal\gemeen~1\librar~1\cmsis\include\core_cm4.h **** #define xPSR_Q_Msk                         (1UL << xPSR_Q_Pos)                            /*!< xPSR
 399:c:\users\niels\docume~1\elektr~1\jaar3~1\dspl\software\stm32b~1\hal\gemeen~1\librar~1\cmsis\include\core_cm4.h **** 
 400:c:\users\niels\docume~1\elektr~1\jaar3~1\dspl\software\stm32b~1\hal\gemeen~1\librar~1\cmsis\include\core_cm4.h **** #define xPSR_IT_Pos                        25U                                            /*!< xPSR
 401:c:\users\niels\docume~1\elektr~1\jaar3~1\dspl\software\stm32b~1\hal\gemeen~1\librar~1\cmsis\include\core_cm4.h **** #define xPSR_IT_Msk                        (3UL << xPSR_IT_Pos)                           /*!< xPSR
 402:c:\users\niels\docume~1\elektr~1\jaar3~1\dspl\software\stm32b~1\hal\gemeen~1\librar~1\cmsis\include\core_cm4.h **** 
 403:c:\users\niels\docume~1\elektr~1\jaar3~1\dspl\software\stm32b~1\hal\gemeen~1\librar~1\cmsis\include\core_cm4.h **** #define xPSR_T_Pos                         24U                                            /*!< xPSR
 404:c:\users\niels\docume~1\elektr~1\jaar3~1\dspl\software\stm32b~1\hal\gemeen~1\librar~1\cmsis\include\core_cm4.h **** #define xPSR_T_Msk                         (1UL << xPSR_T_Pos)                            /*!< xPSR
 405:c:\users\niels\docume~1\elektr~1\jaar3~1\dspl\software\stm32b~1\hal\gemeen~1\librar~1\cmsis\include\core_cm4.h **** 
 406:c:\users\niels\docume~1\elektr~1\jaar3~1\dspl\software\stm32b~1\hal\gemeen~1\librar~1\cmsis\include\core_cm4.h **** #define xPSR_GE_Pos                        16U                                            /*!< xPSR
 407:c:\users\niels\docume~1\elektr~1\jaar3~1\dspl\software\stm32b~1\hal\gemeen~1\librar~1\cmsis\include\core_cm4.h **** #define xPSR_GE_Msk                        (0xFUL << xPSR_GE_Pos)                         /*!< xPSR
 408:c:\users\niels\docume~1\elektr~1\jaar3~1\dspl\software\stm32b~1\hal\gemeen~1\librar~1\cmsis\include\core_cm4.h **** 
 409:c:\users\niels\docume~1\elektr~1\jaar3~1\dspl\software\stm32b~1\hal\gemeen~1\librar~1\cmsis\include\core_cm4.h **** #define xPSR_ISR_Pos                        0U                                            /*!< xPSR
 410:c:\users\niels\docume~1\elektr~1\jaar3~1\dspl\software\stm32b~1\hal\gemeen~1\librar~1\cmsis\include\core_cm4.h **** #define xPSR_ISR_Msk                       (0x1FFUL /*<< xPSR_ISR_Pos*/)                  /*!< xPSR
 411:c:\users\niels\docume~1\elektr~1\jaar3~1\dspl\software\stm32b~1\hal\gemeen~1\librar~1\cmsis\include\core_cm4.h **** 
 412:c:\users\niels\docume~1\elektr~1\jaar3~1\dspl\software\stm32b~1\hal\gemeen~1\librar~1\cmsis\include\core_cm4.h **** 
 413:c:\users\niels\docume~1\elektr~1\jaar3~1\dspl\software\stm32b~1\hal\gemeen~1\librar~1\cmsis\include\core_cm4.h **** /**
 414:c:\users\niels\docume~1\elektr~1\jaar3~1\dspl\software\stm32b~1\hal\gemeen~1\librar~1\cmsis\include\core_cm4.h ****   \brief  Union type to access the Control Registers (CONTROL).
 415:c:\users\niels\docume~1\elektr~1\jaar3~1\dspl\software\stm32b~1\hal\gemeen~1\librar~1\cmsis\include\core_cm4.h ****  */
 416:c:\users\niels\docume~1\elektr~1\jaar3~1\dspl\software\stm32b~1\hal\gemeen~1\librar~1\cmsis\include\core_cm4.h **** typedef union
 417:c:\users\niels\docume~1\elektr~1\jaar3~1\dspl\software\stm32b~1\hal\gemeen~1\librar~1\cmsis\include\core_cm4.h **** {
 418:c:\users\niels\docume~1\elektr~1\jaar3~1\dspl\software\stm32b~1\hal\gemeen~1\librar~1\cmsis\include\core_cm4.h ****   struct
 419:c:\users\niels\docume~1\elektr~1\jaar3~1\dspl\software\stm32b~1\hal\gemeen~1\librar~1\cmsis\include\core_cm4.h ****   {
 420:c:\users\niels\docume~1\elektr~1\jaar3~1\dspl\software\stm32b~1\hal\gemeen~1\librar~1\cmsis\include\core_cm4.h ****     uint32_t nPRIV:1;                    /*!< bit:      0  Execution privilege in Thread mode */
 421:c:\users\niels\docume~1\elektr~1\jaar3~1\dspl\software\stm32b~1\hal\gemeen~1\librar~1\cmsis\include\core_cm4.h ****     uint32_t SPSEL:1;                    /*!< bit:      1  Stack to be used */
 422:c:\users\niels\docume~1\elektr~1\jaar3~1\dspl\software\stm32b~1\hal\gemeen~1\librar~1\cmsis\include\core_cm4.h ****     uint32_t FPCA:1;                     /*!< bit:      2  FP extension active flag */
 423:c:\users\niels\docume~1\elektr~1\jaar3~1\dspl\software\stm32b~1\hal\gemeen~1\librar~1\cmsis\include\core_cm4.h ****     uint32_t _reserved0:29;              /*!< bit:  3..31  Reserved */
 424:c:\users\niels\docume~1\elektr~1\jaar3~1\dspl\software\stm32b~1\hal\gemeen~1\librar~1\cmsis\include\core_cm4.h ****   } b;                                   /*!< Structure used for bit  access */
 425:c:\users\niels\docume~1\elektr~1\jaar3~1\dspl\software\stm32b~1\hal\gemeen~1\librar~1\cmsis\include\core_cm4.h ****   uint32_t w;                            /*!< Type      used for word access */
 426:c:\users\niels\docume~1\elektr~1\jaar3~1\dspl\software\stm32b~1\hal\gemeen~1\librar~1\cmsis\include\core_cm4.h **** } CONTROL_Type;
 427:c:\users\niels\docume~1\elektr~1\jaar3~1\dspl\software\stm32b~1\hal\gemeen~1\librar~1\cmsis\include\core_cm4.h **** 
 428:c:\users\niels\docume~1\elektr~1\jaar3~1\dspl\software\stm32b~1\hal\gemeen~1\librar~1\cmsis\include\core_cm4.h **** /* CONTROL Register Definitions */
 429:c:\users\niels\docume~1\elektr~1\jaar3~1\dspl\software\stm32b~1\hal\gemeen~1\librar~1\cmsis\include\core_cm4.h **** #define CONTROL_FPCA_Pos                    2U                                            /*!< CONT
 430:c:\users\niels\docume~1\elektr~1\jaar3~1\dspl\software\stm32b~1\hal\gemeen~1\librar~1\cmsis\include\core_cm4.h **** #define CONTROL_FPCA_Msk                   (1UL << CONTROL_FPCA_Pos)                      /*!< CONT
 431:c:\users\niels\docume~1\elektr~1\jaar3~1\dspl\software\stm32b~1\hal\gemeen~1\librar~1\cmsis\include\core_cm4.h **** 
 432:c:\users\niels\docume~1\elektr~1\jaar3~1\dspl\software\stm32b~1\hal\gemeen~1\librar~1\cmsis\include\core_cm4.h **** #define CONTROL_SPSEL_Pos                   1U                                            /*!< CONT
 433:c:\users\niels\docume~1\elektr~1\jaar3~1\dspl\software\stm32b~1\hal\gemeen~1\librar~1\cmsis\include\core_cm4.h **** #define CONTROL_SPSEL_Msk                  (1UL << CONTROL_SPSEL_Pos)                     /*!< CONT
 434:c:\users\niels\docume~1\elektr~1\jaar3~1\dspl\software\stm32b~1\hal\gemeen~1\librar~1\cmsis\include\core_cm4.h **** 
ARM GAS   			page 15


 435:c:\users\niels\docume~1\elektr~1\jaar3~1\dspl\software\stm32b~1\hal\gemeen~1\librar~1\cmsis\include\core_cm4.h **** #define CONTROL_nPRIV_Pos                   0U                                            /*!< CONT
 436:c:\users\niels\docume~1\elektr~1\jaar3~1\dspl\software\stm32b~1\hal\gemeen~1\librar~1\cmsis\include\core_cm4.h **** #define CONTROL_nPRIV_Msk                  (1UL /*<< CONTROL_nPRIV_Pos*/)                 /*!< CONT
 437:c:\users\niels\docume~1\elektr~1\jaar3~1\dspl\software\stm32b~1\hal\gemeen~1\librar~1\cmsis\include\core_cm4.h **** 
 438:c:\users\niels\docume~1\elektr~1\jaar3~1\dspl\software\stm32b~1\hal\gemeen~1\librar~1\cmsis\include\core_cm4.h **** /*@} end of group CMSIS_CORE */
 439:c:\users\niels\docume~1\elektr~1\jaar3~1\dspl\software\stm32b~1\hal\gemeen~1\librar~1\cmsis\include\core_cm4.h **** 
 440:c:\users\niels\docume~1\elektr~1\jaar3~1\dspl\software\stm32b~1\hal\gemeen~1\librar~1\cmsis\include\core_cm4.h **** 
 441:c:\users\niels\docume~1\elektr~1\jaar3~1\dspl\software\stm32b~1\hal\gemeen~1\librar~1\cmsis\include\core_cm4.h **** /**
 442:c:\users\niels\docume~1\elektr~1\jaar3~1\dspl\software\stm32b~1\hal\gemeen~1\librar~1\cmsis\include\core_cm4.h ****   \ingroup    CMSIS_core_register
 443:c:\users\niels\docume~1\elektr~1\jaar3~1\dspl\software\stm32b~1\hal\gemeen~1\librar~1\cmsis\include\core_cm4.h ****   \defgroup   CMSIS_NVIC  Nested Vectored Interrupt Controller (NVIC)
 444:c:\users\niels\docume~1\elektr~1\jaar3~1\dspl\software\stm32b~1\hal\gemeen~1\librar~1\cmsis\include\core_cm4.h ****   \brief      Type definitions for the NVIC Registers
 445:c:\users\niels\docume~1\elektr~1\jaar3~1\dspl\software\stm32b~1\hal\gemeen~1\librar~1\cmsis\include\core_cm4.h ****   @{
 446:c:\users\niels\docume~1\elektr~1\jaar3~1\dspl\software\stm32b~1\hal\gemeen~1\librar~1\cmsis\include\core_cm4.h ****  */
 447:c:\users\niels\docume~1\elektr~1\jaar3~1\dspl\software\stm32b~1\hal\gemeen~1\librar~1\cmsis\include\core_cm4.h **** 
 448:c:\users\niels\docume~1\elektr~1\jaar3~1\dspl\software\stm32b~1\hal\gemeen~1\librar~1\cmsis\include\core_cm4.h **** /**
 449:c:\users\niels\docume~1\elektr~1\jaar3~1\dspl\software\stm32b~1\hal\gemeen~1\librar~1\cmsis\include\core_cm4.h ****   \brief  Structure type to access the Nested Vectored Interrupt Controller (NVIC).
 450:c:\users\niels\docume~1\elektr~1\jaar3~1\dspl\software\stm32b~1\hal\gemeen~1\librar~1\cmsis\include\core_cm4.h ****  */
 451:c:\users\niels\docume~1\elektr~1\jaar3~1\dspl\software\stm32b~1\hal\gemeen~1\librar~1\cmsis\include\core_cm4.h **** typedef struct
 452:c:\users\niels\docume~1\elektr~1\jaar3~1\dspl\software\stm32b~1\hal\gemeen~1\librar~1\cmsis\include\core_cm4.h **** {
 453:c:\users\niels\docume~1\elektr~1\jaar3~1\dspl\software\stm32b~1\hal\gemeen~1\librar~1\cmsis\include\core_cm4.h ****   __IOM uint32_t ISER[8U];               /*!< Offset: 0x000 (R/W)  Interrupt Set Enable Register */
 454:c:\users\niels\docume~1\elektr~1\jaar3~1\dspl\software\stm32b~1\hal\gemeen~1\librar~1\cmsis\include\core_cm4.h ****         uint32_t RESERVED0[24U];
 455:c:\users\niels\docume~1\elektr~1\jaar3~1\dspl\software\stm32b~1\hal\gemeen~1\librar~1\cmsis\include\core_cm4.h ****   __IOM uint32_t ICER[8U];               /*!< Offset: 0x080 (R/W)  Interrupt Clear Enable Register 
 456:c:\users\niels\docume~1\elektr~1\jaar3~1\dspl\software\stm32b~1\hal\gemeen~1\librar~1\cmsis\include\core_cm4.h ****         uint32_t RSERVED1[24U];
 457:c:\users\niels\docume~1\elektr~1\jaar3~1\dspl\software\stm32b~1\hal\gemeen~1\librar~1\cmsis\include\core_cm4.h ****   __IOM uint32_t ISPR[8U];               /*!< Offset: 0x100 (R/W)  Interrupt Set Pending Register *
 458:c:\users\niels\docume~1\elektr~1\jaar3~1\dspl\software\stm32b~1\hal\gemeen~1\librar~1\cmsis\include\core_cm4.h ****         uint32_t RESERVED2[24U];
 459:c:\users\niels\docume~1\elektr~1\jaar3~1\dspl\software\stm32b~1\hal\gemeen~1\librar~1\cmsis\include\core_cm4.h ****   __IOM uint32_t ICPR[8U];               /*!< Offset: 0x180 (R/W)  Interrupt Clear Pending Register
 460:c:\users\niels\docume~1\elektr~1\jaar3~1\dspl\software\stm32b~1\hal\gemeen~1\librar~1\cmsis\include\core_cm4.h ****         uint32_t RESERVED3[24U];
 461:c:\users\niels\docume~1\elektr~1\jaar3~1\dspl\software\stm32b~1\hal\gemeen~1\librar~1\cmsis\include\core_cm4.h ****   __IOM uint32_t IABR[8U];               /*!< Offset: 0x200 (R/W)  Interrupt Active bit Register */
 462:c:\users\niels\docume~1\elektr~1\jaar3~1\dspl\software\stm32b~1\hal\gemeen~1\librar~1\cmsis\include\core_cm4.h ****         uint32_t RESERVED4[56U];
 463:c:\users\niels\docume~1\elektr~1\jaar3~1\dspl\software\stm32b~1\hal\gemeen~1\librar~1\cmsis\include\core_cm4.h ****   __IOM uint8_t  IP[240U];               /*!< Offset: 0x300 (R/W)  Interrupt Priority Register (8Bi
 464:c:\users\niels\docume~1\elektr~1\jaar3~1\dspl\software\stm32b~1\hal\gemeen~1\librar~1\cmsis\include\core_cm4.h ****         uint32_t RESERVED5[644U];
 465:c:\users\niels\docume~1\elektr~1\jaar3~1\dspl\software\stm32b~1\hal\gemeen~1\librar~1\cmsis\include\core_cm4.h ****   __OM  uint32_t STIR;                   /*!< Offset: 0xE00 ( /W)  Software Trigger Interrupt Regis
 466:c:\users\niels\docume~1\elektr~1\jaar3~1\dspl\software\stm32b~1\hal\gemeen~1\librar~1\cmsis\include\core_cm4.h **** }  NVIC_Type;
 467:c:\users\niels\docume~1\elektr~1\jaar3~1\dspl\software\stm32b~1\hal\gemeen~1\librar~1\cmsis\include\core_cm4.h **** 
 468:c:\users\niels\docume~1\elektr~1\jaar3~1\dspl\software\stm32b~1\hal\gemeen~1\librar~1\cmsis\include\core_cm4.h **** /* Software Triggered Interrupt Register Definitions */
 469:c:\users\niels\docume~1\elektr~1\jaar3~1\dspl\software\stm32b~1\hal\gemeen~1\librar~1\cmsis\include\core_cm4.h **** #define NVIC_STIR_INTID_Pos                 0U                                         /*!< STIR: I
 470:c:\users\niels\docume~1\elektr~1\jaar3~1\dspl\software\stm32b~1\hal\gemeen~1\librar~1\cmsis\include\core_cm4.h **** #define NVIC_STIR_INTID_Msk                (0x1FFUL /*<< NVIC_STIR_INTID_Pos*/)        /*!< STIR: I
 471:c:\users\niels\docume~1\elektr~1\jaar3~1\dspl\software\stm32b~1\hal\gemeen~1\librar~1\cmsis\include\core_cm4.h **** 
 472:c:\users\niels\docume~1\elektr~1\jaar3~1\dspl\software\stm32b~1\hal\gemeen~1\librar~1\cmsis\include\core_cm4.h **** /*@} end of group CMSIS_NVIC */
 473:c:\users\niels\docume~1\elektr~1\jaar3~1\dspl\software\stm32b~1\hal\gemeen~1\librar~1\cmsis\include\core_cm4.h **** 
 474:c:\users\niels\docume~1\elektr~1\jaar3~1\dspl\software\stm32b~1\hal\gemeen~1\librar~1\cmsis\include\core_cm4.h **** 
 475:c:\users\niels\docume~1\elektr~1\jaar3~1\dspl\software\stm32b~1\hal\gemeen~1\librar~1\cmsis\include\core_cm4.h **** /**
 476:c:\users\niels\docume~1\elektr~1\jaar3~1\dspl\software\stm32b~1\hal\gemeen~1\librar~1\cmsis\include\core_cm4.h ****   \ingroup  CMSIS_core_register
 477:c:\users\niels\docume~1\elektr~1\jaar3~1\dspl\software\stm32b~1\hal\gemeen~1\librar~1\cmsis\include\core_cm4.h ****   \defgroup CMSIS_SCB     System Control Block (SCB)
 478:c:\users\niels\docume~1\elektr~1\jaar3~1\dspl\software\stm32b~1\hal\gemeen~1\librar~1\cmsis\include\core_cm4.h ****   \brief    Type definitions for the System Control Block Registers
 479:c:\users\niels\docume~1\elektr~1\jaar3~1\dspl\software\stm32b~1\hal\gemeen~1\librar~1\cmsis\include\core_cm4.h ****   @{
 480:c:\users\niels\docume~1\elektr~1\jaar3~1\dspl\software\stm32b~1\hal\gemeen~1\librar~1\cmsis\include\core_cm4.h ****  */
 481:c:\users\niels\docume~1\elektr~1\jaar3~1\dspl\software\stm32b~1\hal\gemeen~1\librar~1\cmsis\include\core_cm4.h **** 
 482:c:\users\niels\docume~1\elektr~1\jaar3~1\dspl\software\stm32b~1\hal\gemeen~1\librar~1\cmsis\include\core_cm4.h **** /**
 483:c:\users\niels\docume~1\elektr~1\jaar3~1\dspl\software\stm32b~1\hal\gemeen~1\librar~1\cmsis\include\core_cm4.h ****   \brief  Structure type to access the System Control Block (SCB).
 484:c:\users\niels\docume~1\elektr~1\jaar3~1\dspl\software\stm32b~1\hal\gemeen~1\librar~1\cmsis\include\core_cm4.h ****  */
 485:c:\users\niels\docume~1\elektr~1\jaar3~1\dspl\software\stm32b~1\hal\gemeen~1\librar~1\cmsis\include\core_cm4.h **** typedef struct
 486:c:\users\niels\docume~1\elektr~1\jaar3~1\dspl\software\stm32b~1\hal\gemeen~1\librar~1\cmsis\include\core_cm4.h **** {
 487:c:\users\niels\docume~1\elektr~1\jaar3~1\dspl\software\stm32b~1\hal\gemeen~1\librar~1\cmsis\include\core_cm4.h ****   __IM  uint32_t CPUID;                  /*!< Offset: 0x000 (R/ )  CPUID Base Register */
 488:c:\users\niels\docume~1\elektr~1\jaar3~1\dspl\software\stm32b~1\hal\gemeen~1\librar~1\cmsis\include\core_cm4.h ****   __IOM uint32_t ICSR;                   /*!< Offset: 0x004 (R/W)  Interrupt Control and State Regi
 489:c:\users\niels\docume~1\elektr~1\jaar3~1\dspl\software\stm32b~1\hal\gemeen~1\librar~1\cmsis\include\core_cm4.h ****   __IOM uint32_t VTOR;                   /*!< Offset: 0x008 (R/W)  Vector Table Offset Register */
 490:c:\users\niels\docume~1\elektr~1\jaar3~1\dspl\software\stm32b~1\hal\gemeen~1\librar~1\cmsis\include\core_cm4.h ****   __IOM uint32_t AIRCR;                  /*!< Offset: 0x00C (R/W)  Application Interrupt and Reset 
 491:c:\users\niels\docume~1\elektr~1\jaar3~1\dspl\software\stm32b~1\hal\gemeen~1\librar~1\cmsis\include\core_cm4.h ****   __IOM uint32_t SCR;                    /*!< Offset: 0x010 (R/W)  System Control Register */
ARM GAS   			page 16


 492:c:\users\niels\docume~1\elektr~1\jaar3~1\dspl\software\stm32b~1\hal\gemeen~1\librar~1\cmsis\include\core_cm4.h ****   __IOM uint32_t CCR;                    /*!< Offset: 0x014 (R/W)  Configuration Control Register *
 493:c:\users\niels\docume~1\elektr~1\jaar3~1\dspl\software\stm32b~1\hal\gemeen~1\librar~1\cmsis\include\core_cm4.h ****   __IOM uint8_t  SHP[12U];               /*!< Offset: 0x018 (R/W)  System Handlers Priority Registe
 494:c:\users\niels\docume~1\elektr~1\jaar3~1\dspl\software\stm32b~1\hal\gemeen~1\librar~1\cmsis\include\core_cm4.h ****   __IOM uint32_t SHCSR;                  /*!< Offset: 0x024 (R/W)  System Handler Control and State
 495:c:\users\niels\docume~1\elektr~1\jaar3~1\dspl\software\stm32b~1\hal\gemeen~1\librar~1\cmsis\include\core_cm4.h ****   __IOM uint32_t CFSR;                   /*!< Offset: 0x028 (R/W)  Configurable Fault Status Regist
 496:c:\users\niels\docume~1\elektr~1\jaar3~1\dspl\software\stm32b~1\hal\gemeen~1\librar~1\cmsis\include\core_cm4.h ****   __IOM uint32_t HFSR;                   /*!< Offset: 0x02C (R/W)  HardFault Status Register */
 497:c:\users\niels\docume~1\elektr~1\jaar3~1\dspl\software\stm32b~1\hal\gemeen~1\librar~1\cmsis\include\core_cm4.h ****   __IOM uint32_t DFSR;                   /*!< Offset: 0x030 (R/W)  Debug Fault Status Register */
 498:c:\users\niels\docume~1\elektr~1\jaar3~1\dspl\software\stm32b~1\hal\gemeen~1\librar~1\cmsis\include\core_cm4.h ****   __IOM uint32_t MMFAR;                  /*!< Offset: 0x034 (R/W)  MemManage Fault Address Register
 499:c:\users\niels\docume~1\elektr~1\jaar3~1\dspl\software\stm32b~1\hal\gemeen~1\librar~1\cmsis\include\core_cm4.h ****   __IOM uint32_t BFAR;                   /*!< Offset: 0x038 (R/W)  BusFault Address Register */
 500:c:\users\niels\docume~1\elektr~1\jaar3~1\dspl\software\stm32b~1\hal\gemeen~1\librar~1\cmsis\include\core_cm4.h ****   __IOM uint32_t AFSR;                   /*!< Offset: 0x03C (R/W)  Auxiliary Fault Status Register 
 501:c:\users\niels\docume~1\elektr~1\jaar3~1\dspl\software\stm32b~1\hal\gemeen~1\librar~1\cmsis\include\core_cm4.h ****   __IM  uint32_t PFR[2U];                /*!< Offset: 0x040 (R/ )  Processor Feature Register */
 502:c:\users\niels\docume~1\elektr~1\jaar3~1\dspl\software\stm32b~1\hal\gemeen~1\librar~1\cmsis\include\core_cm4.h ****   __IM  uint32_t DFR;                    /*!< Offset: 0x048 (R/ )  Debug Feature Register */
 503:c:\users\niels\docume~1\elektr~1\jaar3~1\dspl\software\stm32b~1\hal\gemeen~1\librar~1\cmsis\include\core_cm4.h ****   __IM  uint32_t ADR;                    /*!< Offset: 0x04C (R/ )  Auxiliary Feature Register */
 504:c:\users\niels\docume~1\elektr~1\jaar3~1\dspl\software\stm32b~1\hal\gemeen~1\librar~1\cmsis\include\core_cm4.h ****   __IM  uint32_t MMFR[4U];               /*!< Offset: 0x050 (R/ )  Memory Model Feature Register */
 505:c:\users\niels\docume~1\elektr~1\jaar3~1\dspl\software\stm32b~1\hal\gemeen~1\librar~1\cmsis\include\core_cm4.h ****   __IM  uint32_t ISAR[5U];               /*!< Offset: 0x060 (R/ )  Instruction Set Attributes Regis
 506:c:\users\niels\docume~1\elektr~1\jaar3~1\dspl\software\stm32b~1\hal\gemeen~1\librar~1\cmsis\include\core_cm4.h ****         uint32_t RESERVED0[5U];
 507:c:\users\niels\docume~1\elektr~1\jaar3~1\dspl\software\stm32b~1\hal\gemeen~1\librar~1\cmsis\include\core_cm4.h ****   __IOM uint32_t CPACR;                  /*!< Offset: 0x088 (R/W)  Coprocessor Access Control Regis
 508:c:\users\niels\docume~1\elektr~1\jaar3~1\dspl\software\stm32b~1\hal\gemeen~1\librar~1\cmsis\include\core_cm4.h **** } SCB_Type;
 509:c:\users\niels\docume~1\elektr~1\jaar3~1\dspl\software\stm32b~1\hal\gemeen~1\librar~1\cmsis\include\core_cm4.h **** 
 510:c:\users\niels\docume~1\elektr~1\jaar3~1\dspl\software\stm32b~1\hal\gemeen~1\librar~1\cmsis\include\core_cm4.h **** /* SCB CPUID Register Definitions */
 511:c:\users\niels\docume~1\elektr~1\jaar3~1\dspl\software\stm32b~1\hal\gemeen~1\librar~1\cmsis\include\core_cm4.h **** #define SCB_CPUID_IMPLEMENTER_Pos          24U                                            /*!< SCB 
 512:c:\users\niels\docume~1\elektr~1\jaar3~1\dspl\software\stm32b~1\hal\gemeen~1\librar~1\cmsis\include\core_cm4.h **** #define SCB_CPUID_IMPLEMENTER_Msk          (0xFFUL << SCB_CPUID_IMPLEMENTER_Pos)          /*!< SCB 
 513:c:\users\niels\docume~1\elektr~1\jaar3~1\dspl\software\stm32b~1\hal\gemeen~1\librar~1\cmsis\include\core_cm4.h **** 
 514:c:\users\niels\docume~1\elektr~1\jaar3~1\dspl\software\stm32b~1\hal\gemeen~1\librar~1\cmsis\include\core_cm4.h **** #define SCB_CPUID_VARIANT_Pos              20U                                            /*!< SCB 
 515:c:\users\niels\docume~1\elektr~1\jaar3~1\dspl\software\stm32b~1\hal\gemeen~1\librar~1\cmsis\include\core_cm4.h **** #define SCB_CPUID_VARIANT_Msk              (0xFUL << SCB_CPUID_VARIANT_Pos)               /*!< SCB 
 516:c:\users\niels\docume~1\elektr~1\jaar3~1\dspl\software\stm32b~1\hal\gemeen~1\librar~1\cmsis\include\core_cm4.h **** 
 517:c:\users\niels\docume~1\elektr~1\jaar3~1\dspl\software\stm32b~1\hal\gemeen~1\librar~1\cmsis\include\core_cm4.h **** #define SCB_CPUID_ARCHITECTURE_Pos         16U                                            /*!< SCB 
 518:c:\users\niels\docume~1\elektr~1\jaar3~1\dspl\software\stm32b~1\hal\gemeen~1\librar~1\cmsis\include\core_cm4.h **** #define SCB_CPUID_ARCHITECTURE_Msk         (0xFUL << SCB_CPUID_ARCHITECTURE_Pos)          /*!< SCB 
 519:c:\users\niels\docume~1\elektr~1\jaar3~1\dspl\software\stm32b~1\hal\gemeen~1\librar~1\cmsis\include\core_cm4.h **** 
 520:c:\users\niels\docume~1\elektr~1\jaar3~1\dspl\software\stm32b~1\hal\gemeen~1\librar~1\cmsis\include\core_cm4.h **** #define SCB_CPUID_PARTNO_Pos                4U                                            /*!< SCB 
 521:c:\users\niels\docume~1\elektr~1\jaar3~1\dspl\software\stm32b~1\hal\gemeen~1\librar~1\cmsis\include\core_cm4.h **** #define SCB_CPUID_PARTNO_Msk               (0xFFFUL << SCB_CPUID_PARTNO_Pos)              /*!< SCB 
 522:c:\users\niels\docume~1\elektr~1\jaar3~1\dspl\software\stm32b~1\hal\gemeen~1\librar~1\cmsis\include\core_cm4.h **** 
 523:c:\users\niels\docume~1\elektr~1\jaar3~1\dspl\software\stm32b~1\hal\gemeen~1\librar~1\cmsis\include\core_cm4.h **** #define SCB_CPUID_REVISION_Pos              0U                                            /*!< SCB 
 524:c:\users\niels\docume~1\elektr~1\jaar3~1\dspl\software\stm32b~1\hal\gemeen~1\librar~1\cmsis\include\core_cm4.h **** #define SCB_CPUID_REVISION_Msk             (0xFUL /*<< SCB_CPUID_REVISION_Pos*/)          /*!< SCB 
 525:c:\users\niels\docume~1\elektr~1\jaar3~1\dspl\software\stm32b~1\hal\gemeen~1\librar~1\cmsis\include\core_cm4.h **** 
 526:c:\users\niels\docume~1\elektr~1\jaar3~1\dspl\software\stm32b~1\hal\gemeen~1\librar~1\cmsis\include\core_cm4.h **** /* SCB Interrupt Control State Register Definitions */
 527:c:\users\niels\docume~1\elektr~1\jaar3~1\dspl\software\stm32b~1\hal\gemeen~1\librar~1\cmsis\include\core_cm4.h **** #define SCB_ICSR_NMIPENDSET_Pos            31U                                            /*!< SCB 
 528:c:\users\niels\docume~1\elektr~1\jaar3~1\dspl\software\stm32b~1\hal\gemeen~1\librar~1\cmsis\include\core_cm4.h **** #define SCB_ICSR_NMIPENDSET_Msk            (1UL << SCB_ICSR_NMIPENDSET_Pos)               /*!< SCB 
 529:c:\users\niels\docume~1\elektr~1\jaar3~1\dspl\software\stm32b~1\hal\gemeen~1\librar~1\cmsis\include\core_cm4.h **** 
 530:c:\users\niels\docume~1\elektr~1\jaar3~1\dspl\software\stm32b~1\hal\gemeen~1\librar~1\cmsis\include\core_cm4.h **** #define SCB_ICSR_PENDSVSET_Pos             28U                                            /*!< SCB 
 531:c:\users\niels\docume~1\elektr~1\jaar3~1\dspl\software\stm32b~1\hal\gemeen~1\librar~1\cmsis\include\core_cm4.h **** #define SCB_ICSR_PENDSVSET_Msk             (1UL << SCB_ICSR_PENDSVSET_Pos)                /*!< SCB 
 532:c:\users\niels\docume~1\elektr~1\jaar3~1\dspl\software\stm32b~1\hal\gemeen~1\librar~1\cmsis\include\core_cm4.h **** 
 533:c:\users\niels\docume~1\elektr~1\jaar3~1\dspl\software\stm32b~1\hal\gemeen~1\librar~1\cmsis\include\core_cm4.h **** #define SCB_ICSR_PENDSVCLR_Pos             27U                                            /*!< SCB 
 534:c:\users\niels\docume~1\elektr~1\jaar3~1\dspl\software\stm32b~1\hal\gemeen~1\librar~1\cmsis\include\core_cm4.h **** #define SCB_ICSR_PENDSVCLR_Msk             (1UL << SCB_ICSR_PENDSVCLR_Pos)                /*!< SCB 
 535:c:\users\niels\docume~1\elektr~1\jaar3~1\dspl\software\stm32b~1\hal\gemeen~1\librar~1\cmsis\include\core_cm4.h **** 
 536:c:\users\niels\docume~1\elektr~1\jaar3~1\dspl\software\stm32b~1\hal\gemeen~1\librar~1\cmsis\include\core_cm4.h **** #define SCB_ICSR_PENDSTSET_Pos             26U                                            /*!< SCB 
 537:c:\users\niels\docume~1\elektr~1\jaar3~1\dspl\software\stm32b~1\hal\gemeen~1\librar~1\cmsis\include\core_cm4.h **** #define SCB_ICSR_PENDSTSET_Msk             (1UL << SCB_ICSR_PENDSTSET_Pos)                /*!< SCB 
 538:c:\users\niels\docume~1\elektr~1\jaar3~1\dspl\software\stm32b~1\hal\gemeen~1\librar~1\cmsis\include\core_cm4.h **** 
 539:c:\users\niels\docume~1\elektr~1\jaar3~1\dspl\software\stm32b~1\hal\gemeen~1\librar~1\cmsis\include\core_cm4.h **** #define SCB_ICSR_PENDSTCLR_Pos             25U                                            /*!< SCB 
 540:c:\users\niels\docume~1\elektr~1\jaar3~1\dspl\software\stm32b~1\hal\gemeen~1\librar~1\cmsis\include\core_cm4.h **** #define SCB_ICSR_PENDSTCLR_Msk             (1UL << SCB_ICSR_PENDSTCLR_Pos)                /*!< SCB 
 541:c:\users\niels\docume~1\elektr~1\jaar3~1\dspl\software\stm32b~1\hal\gemeen~1\librar~1\cmsis\include\core_cm4.h **** 
 542:c:\users\niels\docume~1\elektr~1\jaar3~1\dspl\software\stm32b~1\hal\gemeen~1\librar~1\cmsis\include\core_cm4.h **** #define SCB_ICSR_ISRPREEMPT_Pos            23U                                            /*!< SCB 
 543:c:\users\niels\docume~1\elektr~1\jaar3~1\dspl\software\stm32b~1\hal\gemeen~1\librar~1\cmsis\include\core_cm4.h **** #define SCB_ICSR_ISRPREEMPT_Msk            (1UL << SCB_ICSR_ISRPREEMPT_Pos)               /*!< SCB 
 544:c:\users\niels\docume~1\elektr~1\jaar3~1\dspl\software\stm32b~1\hal\gemeen~1\librar~1\cmsis\include\core_cm4.h **** 
 545:c:\users\niels\docume~1\elektr~1\jaar3~1\dspl\software\stm32b~1\hal\gemeen~1\librar~1\cmsis\include\core_cm4.h **** #define SCB_ICSR_ISRPENDING_Pos            22U                                            /*!< SCB 
 546:c:\users\niels\docume~1\elektr~1\jaar3~1\dspl\software\stm32b~1\hal\gemeen~1\librar~1\cmsis\include\core_cm4.h **** #define SCB_ICSR_ISRPENDING_Msk            (1UL << SCB_ICSR_ISRPENDING_Pos)               /*!< SCB 
 547:c:\users\niels\docume~1\elektr~1\jaar3~1\dspl\software\stm32b~1\hal\gemeen~1\librar~1\cmsis\include\core_cm4.h **** 
 548:c:\users\niels\docume~1\elektr~1\jaar3~1\dspl\software\stm32b~1\hal\gemeen~1\librar~1\cmsis\include\core_cm4.h **** #define SCB_ICSR_VECTPENDING_Pos           12U                                            /*!< SCB 
ARM GAS   			page 17


 549:c:\users\niels\docume~1\elektr~1\jaar3~1\dspl\software\stm32b~1\hal\gemeen~1\librar~1\cmsis\include\core_cm4.h **** #define SCB_ICSR_VECTPENDING_Msk           (0x1FFUL << SCB_ICSR_VECTPENDING_Pos)          /*!< SCB 
 550:c:\users\niels\docume~1\elektr~1\jaar3~1\dspl\software\stm32b~1\hal\gemeen~1\librar~1\cmsis\include\core_cm4.h **** 
 551:c:\users\niels\docume~1\elektr~1\jaar3~1\dspl\software\stm32b~1\hal\gemeen~1\librar~1\cmsis\include\core_cm4.h **** #define SCB_ICSR_RETTOBASE_Pos             11U                                            /*!< SCB 
 552:c:\users\niels\docume~1\elektr~1\jaar3~1\dspl\software\stm32b~1\hal\gemeen~1\librar~1\cmsis\include\core_cm4.h **** #define SCB_ICSR_RETTOBASE_Msk             (1UL << SCB_ICSR_RETTOBASE_Pos)                /*!< SCB 
 553:c:\users\niels\docume~1\elektr~1\jaar3~1\dspl\software\stm32b~1\hal\gemeen~1\librar~1\cmsis\include\core_cm4.h **** 
 554:c:\users\niels\docume~1\elektr~1\jaar3~1\dspl\software\stm32b~1\hal\gemeen~1\librar~1\cmsis\include\core_cm4.h **** #define SCB_ICSR_VECTACTIVE_Pos             0U                                            /*!< SCB 
 555:c:\users\niels\docume~1\elektr~1\jaar3~1\dspl\software\stm32b~1\hal\gemeen~1\librar~1\cmsis\include\core_cm4.h **** #define SCB_ICSR_VECTACTIVE_Msk            (0x1FFUL /*<< SCB_ICSR_VECTACTIVE_Pos*/)       /*!< SCB 
 556:c:\users\niels\docume~1\elektr~1\jaar3~1\dspl\software\stm32b~1\hal\gemeen~1\librar~1\cmsis\include\core_cm4.h **** 
 557:c:\users\niels\docume~1\elektr~1\jaar3~1\dspl\software\stm32b~1\hal\gemeen~1\librar~1\cmsis\include\core_cm4.h **** /* SCB Vector Table Offset Register Definitions */
 558:c:\users\niels\docume~1\elektr~1\jaar3~1\dspl\software\stm32b~1\hal\gemeen~1\librar~1\cmsis\include\core_cm4.h **** #define SCB_VTOR_TBLOFF_Pos                 7U                                            /*!< SCB 
 559:c:\users\niels\docume~1\elektr~1\jaar3~1\dspl\software\stm32b~1\hal\gemeen~1\librar~1\cmsis\include\core_cm4.h **** #define SCB_VTOR_TBLOFF_Msk                (0x1FFFFFFUL << SCB_VTOR_TBLOFF_Pos)           /*!< SCB 
 560:c:\users\niels\docume~1\elektr~1\jaar3~1\dspl\software\stm32b~1\hal\gemeen~1\librar~1\cmsis\include\core_cm4.h **** 
 561:c:\users\niels\docume~1\elektr~1\jaar3~1\dspl\software\stm32b~1\hal\gemeen~1\librar~1\cmsis\include\core_cm4.h **** /* SCB Application Interrupt and Reset Control Register Definitions */
 562:c:\users\niels\docume~1\elektr~1\jaar3~1\dspl\software\stm32b~1\hal\gemeen~1\librar~1\cmsis\include\core_cm4.h **** #define SCB_AIRCR_VECTKEY_Pos              16U                                            /*!< SCB 
 563:c:\users\niels\docume~1\elektr~1\jaar3~1\dspl\software\stm32b~1\hal\gemeen~1\librar~1\cmsis\include\core_cm4.h **** #define SCB_AIRCR_VECTKEY_Msk              (0xFFFFUL << SCB_AIRCR_VECTKEY_Pos)            /*!< SCB 
 564:c:\users\niels\docume~1\elektr~1\jaar3~1\dspl\software\stm32b~1\hal\gemeen~1\librar~1\cmsis\include\core_cm4.h **** 
 565:c:\users\niels\docume~1\elektr~1\jaar3~1\dspl\software\stm32b~1\hal\gemeen~1\librar~1\cmsis\include\core_cm4.h **** #define SCB_AIRCR_VECTKEYSTAT_Pos          16U                                            /*!< SCB 
 566:c:\users\niels\docume~1\elektr~1\jaar3~1\dspl\software\stm32b~1\hal\gemeen~1\librar~1\cmsis\include\core_cm4.h **** #define SCB_AIRCR_VECTKEYSTAT_Msk          (0xFFFFUL << SCB_AIRCR_VECTKEYSTAT_Pos)        /*!< SCB 
 567:c:\users\niels\docume~1\elektr~1\jaar3~1\dspl\software\stm32b~1\hal\gemeen~1\librar~1\cmsis\include\core_cm4.h **** 
 568:c:\users\niels\docume~1\elektr~1\jaar3~1\dspl\software\stm32b~1\hal\gemeen~1\librar~1\cmsis\include\core_cm4.h **** #define SCB_AIRCR_ENDIANESS_Pos            15U                                            /*!< SCB 
 569:c:\users\niels\docume~1\elektr~1\jaar3~1\dspl\software\stm32b~1\hal\gemeen~1\librar~1\cmsis\include\core_cm4.h **** #define SCB_AIRCR_ENDIANESS_Msk            (1UL << SCB_AIRCR_ENDIANESS_Pos)               /*!< SCB 
 570:c:\users\niels\docume~1\elektr~1\jaar3~1\dspl\software\stm32b~1\hal\gemeen~1\librar~1\cmsis\include\core_cm4.h **** 
 571:c:\users\niels\docume~1\elektr~1\jaar3~1\dspl\software\stm32b~1\hal\gemeen~1\librar~1\cmsis\include\core_cm4.h **** #define SCB_AIRCR_PRIGROUP_Pos              8U                                            /*!< SCB 
 572:c:\users\niels\docume~1\elektr~1\jaar3~1\dspl\software\stm32b~1\hal\gemeen~1\librar~1\cmsis\include\core_cm4.h **** #define SCB_AIRCR_PRIGROUP_Msk             (7UL << SCB_AIRCR_PRIGROUP_Pos)                /*!< SCB 
 573:c:\users\niels\docume~1\elektr~1\jaar3~1\dspl\software\stm32b~1\hal\gemeen~1\librar~1\cmsis\include\core_cm4.h **** 
 574:c:\users\niels\docume~1\elektr~1\jaar3~1\dspl\software\stm32b~1\hal\gemeen~1\librar~1\cmsis\include\core_cm4.h **** #define SCB_AIRCR_SYSRESETREQ_Pos           2U                                            /*!< SCB 
 575:c:\users\niels\docume~1\elektr~1\jaar3~1\dspl\software\stm32b~1\hal\gemeen~1\librar~1\cmsis\include\core_cm4.h **** #define SCB_AIRCR_SYSRESETREQ_Msk          (1UL << SCB_AIRCR_SYSRESETREQ_Pos)             /*!< SCB 
 576:c:\users\niels\docume~1\elektr~1\jaar3~1\dspl\software\stm32b~1\hal\gemeen~1\librar~1\cmsis\include\core_cm4.h **** 
 577:c:\users\niels\docume~1\elektr~1\jaar3~1\dspl\software\stm32b~1\hal\gemeen~1\librar~1\cmsis\include\core_cm4.h **** #define SCB_AIRCR_VECTCLRACTIVE_Pos         1U                                            /*!< SCB 
 578:c:\users\niels\docume~1\elektr~1\jaar3~1\dspl\software\stm32b~1\hal\gemeen~1\librar~1\cmsis\include\core_cm4.h **** #define SCB_AIRCR_VECTCLRACTIVE_Msk        (1UL << SCB_AIRCR_VECTCLRACTIVE_Pos)           /*!< SCB 
 579:c:\users\niels\docume~1\elektr~1\jaar3~1\dspl\software\stm32b~1\hal\gemeen~1\librar~1\cmsis\include\core_cm4.h **** 
 580:c:\users\niels\docume~1\elektr~1\jaar3~1\dspl\software\stm32b~1\hal\gemeen~1\librar~1\cmsis\include\core_cm4.h **** #define SCB_AIRCR_VECTRESET_Pos             0U                                            /*!< SCB 
 581:c:\users\niels\docume~1\elektr~1\jaar3~1\dspl\software\stm32b~1\hal\gemeen~1\librar~1\cmsis\include\core_cm4.h **** #define SCB_AIRCR_VECTRESET_Msk            (1UL /*<< SCB_AIRCR_VECTRESET_Pos*/)           /*!< SCB 
 582:c:\users\niels\docume~1\elektr~1\jaar3~1\dspl\software\stm32b~1\hal\gemeen~1\librar~1\cmsis\include\core_cm4.h **** 
 583:c:\users\niels\docume~1\elektr~1\jaar3~1\dspl\software\stm32b~1\hal\gemeen~1\librar~1\cmsis\include\core_cm4.h **** /* SCB System Control Register Definitions */
 584:c:\users\niels\docume~1\elektr~1\jaar3~1\dspl\software\stm32b~1\hal\gemeen~1\librar~1\cmsis\include\core_cm4.h **** #define SCB_SCR_SEVONPEND_Pos               4U                                            /*!< SCB 
 585:c:\users\niels\docume~1\elektr~1\jaar3~1\dspl\software\stm32b~1\hal\gemeen~1\librar~1\cmsis\include\core_cm4.h **** #define SCB_SCR_SEVONPEND_Msk              (1UL << SCB_SCR_SEVONPEND_Pos)                 /*!< SCB 
 586:c:\users\niels\docume~1\elektr~1\jaar3~1\dspl\software\stm32b~1\hal\gemeen~1\librar~1\cmsis\include\core_cm4.h **** 
 587:c:\users\niels\docume~1\elektr~1\jaar3~1\dspl\software\stm32b~1\hal\gemeen~1\librar~1\cmsis\include\core_cm4.h **** #define SCB_SCR_SLEEPDEEP_Pos               2U                                            /*!< SCB 
 588:c:\users\niels\docume~1\elektr~1\jaar3~1\dspl\software\stm32b~1\hal\gemeen~1\librar~1\cmsis\include\core_cm4.h **** #define SCB_SCR_SLEEPDEEP_Msk              (1UL << SCB_SCR_SLEEPDEEP_Pos)                 /*!< SCB 
 589:c:\users\niels\docume~1\elektr~1\jaar3~1\dspl\software\stm32b~1\hal\gemeen~1\librar~1\cmsis\include\core_cm4.h **** 
 590:c:\users\niels\docume~1\elektr~1\jaar3~1\dspl\software\stm32b~1\hal\gemeen~1\librar~1\cmsis\include\core_cm4.h **** #define SCB_SCR_SLEEPONEXIT_Pos             1U                                            /*!< SCB 
 591:c:\users\niels\docume~1\elektr~1\jaar3~1\dspl\software\stm32b~1\hal\gemeen~1\librar~1\cmsis\include\core_cm4.h **** #define SCB_SCR_SLEEPONEXIT_Msk            (1UL << SCB_SCR_SLEEPONEXIT_Pos)               /*!< SCB 
 592:c:\users\niels\docume~1\elektr~1\jaar3~1\dspl\software\stm32b~1\hal\gemeen~1\librar~1\cmsis\include\core_cm4.h **** 
 593:c:\users\niels\docume~1\elektr~1\jaar3~1\dspl\software\stm32b~1\hal\gemeen~1\librar~1\cmsis\include\core_cm4.h **** /* SCB Configuration Control Register Definitions */
 594:c:\users\niels\docume~1\elektr~1\jaar3~1\dspl\software\stm32b~1\hal\gemeen~1\librar~1\cmsis\include\core_cm4.h **** #define SCB_CCR_STKALIGN_Pos                9U                                            /*!< SCB 
 595:c:\users\niels\docume~1\elektr~1\jaar3~1\dspl\software\stm32b~1\hal\gemeen~1\librar~1\cmsis\include\core_cm4.h **** #define SCB_CCR_STKALIGN_Msk               (1UL << SCB_CCR_STKALIGN_Pos)                  /*!< SCB 
 596:c:\users\niels\docume~1\elektr~1\jaar3~1\dspl\software\stm32b~1\hal\gemeen~1\librar~1\cmsis\include\core_cm4.h **** 
 597:c:\users\niels\docume~1\elektr~1\jaar3~1\dspl\software\stm32b~1\hal\gemeen~1\librar~1\cmsis\include\core_cm4.h **** #define SCB_CCR_BFHFNMIGN_Pos               8U                                            /*!< SCB 
 598:c:\users\niels\docume~1\elektr~1\jaar3~1\dspl\software\stm32b~1\hal\gemeen~1\librar~1\cmsis\include\core_cm4.h **** #define SCB_CCR_BFHFNMIGN_Msk              (1UL << SCB_CCR_BFHFNMIGN_Pos)                 /*!< SCB 
 599:c:\users\niels\docume~1\elektr~1\jaar3~1\dspl\software\stm32b~1\hal\gemeen~1\librar~1\cmsis\include\core_cm4.h **** 
 600:c:\users\niels\docume~1\elektr~1\jaar3~1\dspl\software\stm32b~1\hal\gemeen~1\librar~1\cmsis\include\core_cm4.h **** #define SCB_CCR_DIV_0_TRP_Pos               4U                                            /*!< SCB 
 601:c:\users\niels\docume~1\elektr~1\jaar3~1\dspl\software\stm32b~1\hal\gemeen~1\librar~1\cmsis\include\core_cm4.h **** #define SCB_CCR_DIV_0_TRP_Msk              (1UL << SCB_CCR_DIV_0_TRP_Pos)                 /*!< SCB 
 602:c:\users\niels\docume~1\elektr~1\jaar3~1\dspl\software\stm32b~1\hal\gemeen~1\librar~1\cmsis\include\core_cm4.h **** 
 603:c:\users\niels\docume~1\elektr~1\jaar3~1\dspl\software\stm32b~1\hal\gemeen~1\librar~1\cmsis\include\core_cm4.h **** #define SCB_CCR_UNALIGN_TRP_Pos             3U                                            /*!< SCB 
 604:c:\users\niels\docume~1\elektr~1\jaar3~1\dspl\software\stm32b~1\hal\gemeen~1\librar~1\cmsis\include\core_cm4.h **** #define SCB_CCR_UNALIGN_TRP_Msk            (1UL << SCB_CCR_UNALIGN_TRP_Pos)               /*!< SCB 
 605:c:\users\niels\docume~1\elektr~1\jaar3~1\dspl\software\stm32b~1\hal\gemeen~1\librar~1\cmsis\include\core_cm4.h **** 
ARM GAS   			page 18


 606:c:\users\niels\docume~1\elektr~1\jaar3~1\dspl\software\stm32b~1\hal\gemeen~1\librar~1\cmsis\include\core_cm4.h **** #define SCB_CCR_USERSETMPEND_Pos            1U                                            /*!< SCB 
 607:c:\users\niels\docume~1\elektr~1\jaar3~1\dspl\software\stm32b~1\hal\gemeen~1\librar~1\cmsis\include\core_cm4.h **** #define SCB_CCR_USERSETMPEND_Msk           (1UL << SCB_CCR_USERSETMPEND_Pos)              /*!< SCB 
 608:c:\users\niels\docume~1\elektr~1\jaar3~1\dspl\software\stm32b~1\hal\gemeen~1\librar~1\cmsis\include\core_cm4.h **** 
 609:c:\users\niels\docume~1\elektr~1\jaar3~1\dspl\software\stm32b~1\hal\gemeen~1\librar~1\cmsis\include\core_cm4.h **** #define SCB_CCR_NONBASETHRDENA_Pos          0U                                            /*!< SCB 
 610:c:\users\niels\docume~1\elektr~1\jaar3~1\dspl\software\stm32b~1\hal\gemeen~1\librar~1\cmsis\include\core_cm4.h **** #define SCB_CCR_NONBASETHRDENA_Msk         (1UL /*<< SCB_CCR_NONBASETHRDENA_Pos*/)        /*!< SCB 
 611:c:\users\niels\docume~1\elektr~1\jaar3~1\dspl\software\stm32b~1\hal\gemeen~1\librar~1\cmsis\include\core_cm4.h **** 
 612:c:\users\niels\docume~1\elektr~1\jaar3~1\dspl\software\stm32b~1\hal\gemeen~1\librar~1\cmsis\include\core_cm4.h **** /* SCB System Handler Control and State Register Definitions */
 613:c:\users\niels\docume~1\elektr~1\jaar3~1\dspl\software\stm32b~1\hal\gemeen~1\librar~1\cmsis\include\core_cm4.h **** #define SCB_SHCSR_USGFAULTENA_Pos          18U                                            /*!< SCB 
 614:c:\users\niels\docume~1\elektr~1\jaar3~1\dspl\software\stm32b~1\hal\gemeen~1\librar~1\cmsis\include\core_cm4.h **** #define SCB_SHCSR_USGFAULTENA_Msk          (1UL << SCB_SHCSR_USGFAULTENA_Pos)             /*!< SCB 
 615:c:\users\niels\docume~1\elektr~1\jaar3~1\dspl\software\stm32b~1\hal\gemeen~1\librar~1\cmsis\include\core_cm4.h **** 
 616:c:\users\niels\docume~1\elektr~1\jaar3~1\dspl\software\stm32b~1\hal\gemeen~1\librar~1\cmsis\include\core_cm4.h **** #define SCB_SHCSR_BUSFAULTENA_Pos          17U                                            /*!< SCB 
 617:c:\users\niels\docume~1\elektr~1\jaar3~1\dspl\software\stm32b~1\hal\gemeen~1\librar~1\cmsis\include\core_cm4.h **** #define SCB_SHCSR_BUSFAULTENA_Msk          (1UL << SCB_SHCSR_BUSFAULTENA_Pos)             /*!< SCB 
 618:c:\users\niels\docume~1\elektr~1\jaar3~1\dspl\software\stm32b~1\hal\gemeen~1\librar~1\cmsis\include\core_cm4.h **** 
 619:c:\users\niels\docume~1\elektr~1\jaar3~1\dspl\software\stm32b~1\hal\gemeen~1\librar~1\cmsis\include\core_cm4.h **** #define SCB_SHCSR_MEMFAULTENA_Pos          16U                                            /*!< SCB 
 620:c:\users\niels\docume~1\elektr~1\jaar3~1\dspl\software\stm32b~1\hal\gemeen~1\librar~1\cmsis\include\core_cm4.h **** #define SCB_SHCSR_MEMFAULTENA_Msk          (1UL << SCB_SHCSR_MEMFAULTENA_Pos)             /*!< SCB 
 621:c:\users\niels\docume~1\elektr~1\jaar3~1\dspl\software\stm32b~1\hal\gemeen~1\librar~1\cmsis\include\core_cm4.h **** 
 622:c:\users\niels\docume~1\elektr~1\jaar3~1\dspl\software\stm32b~1\hal\gemeen~1\librar~1\cmsis\include\core_cm4.h **** #define SCB_SHCSR_SVCALLPENDED_Pos         15U                                            /*!< SCB 
 623:c:\users\niels\docume~1\elektr~1\jaar3~1\dspl\software\stm32b~1\hal\gemeen~1\librar~1\cmsis\include\core_cm4.h **** #define SCB_SHCSR_SVCALLPENDED_Msk         (1UL << SCB_SHCSR_SVCALLPENDED_Pos)            /*!< SCB 
 624:c:\users\niels\docume~1\elektr~1\jaar3~1\dspl\software\stm32b~1\hal\gemeen~1\librar~1\cmsis\include\core_cm4.h **** 
 625:c:\users\niels\docume~1\elektr~1\jaar3~1\dspl\software\stm32b~1\hal\gemeen~1\librar~1\cmsis\include\core_cm4.h **** #define SCB_SHCSR_BUSFAULTPENDED_Pos       14U                                            /*!< SCB 
 626:c:\users\niels\docume~1\elektr~1\jaar3~1\dspl\software\stm32b~1\hal\gemeen~1\librar~1\cmsis\include\core_cm4.h **** #define SCB_SHCSR_BUSFAULTPENDED_Msk       (1UL << SCB_SHCSR_BUSFAULTPENDED_Pos)          /*!< SCB 
 627:c:\users\niels\docume~1\elektr~1\jaar3~1\dspl\software\stm32b~1\hal\gemeen~1\librar~1\cmsis\include\core_cm4.h **** 
 628:c:\users\niels\docume~1\elektr~1\jaar3~1\dspl\software\stm32b~1\hal\gemeen~1\librar~1\cmsis\include\core_cm4.h **** #define SCB_SHCSR_MEMFAULTPENDED_Pos       13U                                            /*!< SCB 
 629:c:\users\niels\docume~1\elektr~1\jaar3~1\dspl\software\stm32b~1\hal\gemeen~1\librar~1\cmsis\include\core_cm4.h **** #define SCB_SHCSR_MEMFAULTPENDED_Msk       (1UL << SCB_SHCSR_MEMFAULTPENDED_Pos)          /*!< SCB 
 630:c:\users\niels\docume~1\elektr~1\jaar3~1\dspl\software\stm32b~1\hal\gemeen~1\librar~1\cmsis\include\core_cm4.h **** 
 631:c:\users\niels\docume~1\elektr~1\jaar3~1\dspl\software\stm32b~1\hal\gemeen~1\librar~1\cmsis\include\core_cm4.h **** #define SCB_SHCSR_USGFAULTPENDED_Pos       12U                                            /*!< SCB 
 632:c:\users\niels\docume~1\elektr~1\jaar3~1\dspl\software\stm32b~1\hal\gemeen~1\librar~1\cmsis\include\core_cm4.h **** #define SCB_SHCSR_USGFAULTPENDED_Msk       (1UL << SCB_SHCSR_USGFAULTPENDED_Pos)          /*!< SCB 
 633:c:\users\niels\docume~1\elektr~1\jaar3~1\dspl\software\stm32b~1\hal\gemeen~1\librar~1\cmsis\include\core_cm4.h **** 
 634:c:\users\niels\docume~1\elektr~1\jaar3~1\dspl\software\stm32b~1\hal\gemeen~1\librar~1\cmsis\include\core_cm4.h **** #define SCB_SHCSR_SYSTICKACT_Pos           11U                                            /*!< SCB 
 635:c:\users\niels\docume~1\elektr~1\jaar3~1\dspl\software\stm32b~1\hal\gemeen~1\librar~1\cmsis\include\core_cm4.h **** #define SCB_SHCSR_SYSTICKACT_Msk           (1UL << SCB_SHCSR_SYSTICKACT_Pos)              /*!< SCB 
 636:c:\users\niels\docume~1\elektr~1\jaar3~1\dspl\software\stm32b~1\hal\gemeen~1\librar~1\cmsis\include\core_cm4.h **** 
 637:c:\users\niels\docume~1\elektr~1\jaar3~1\dspl\software\stm32b~1\hal\gemeen~1\librar~1\cmsis\include\core_cm4.h **** #define SCB_SHCSR_PENDSVACT_Pos            10U                                            /*!< SCB 
 638:c:\users\niels\docume~1\elektr~1\jaar3~1\dspl\software\stm32b~1\hal\gemeen~1\librar~1\cmsis\include\core_cm4.h **** #define SCB_SHCSR_PENDSVACT_Msk            (1UL << SCB_SHCSR_PENDSVACT_Pos)               /*!< SCB 
 639:c:\users\niels\docume~1\elektr~1\jaar3~1\dspl\software\stm32b~1\hal\gemeen~1\librar~1\cmsis\include\core_cm4.h **** 
 640:c:\users\niels\docume~1\elektr~1\jaar3~1\dspl\software\stm32b~1\hal\gemeen~1\librar~1\cmsis\include\core_cm4.h **** #define SCB_SHCSR_MONITORACT_Pos            8U                                            /*!< SCB 
 641:c:\users\niels\docume~1\elektr~1\jaar3~1\dspl\software\stm32b~1\hal\gemeen~1\librar~1\cmsis\include\core_cm4.h **** #define SCB_SHCSR_MONITORACT_Msk           (1UL << SCB_SHCSR_MONITORACT_Pos)              /*!< SCB 
 642:c:\users\niels\docume~1\elektr~1\jaar3~1\dspl\software\stm32b~1\hal\gemeen~1\librar~1\cmsis\include\core_cm4.h **** 
 643:c:\users\niels\docume~1\elektr~1\jaar3~1\dspl\software\stm32b~1\hal\gemeen~1\librar~1\cmsis\include\core_cm4.h **** #define SCB_SHCSR_SVCALLACT_Pos             7U                                            /*!< SCB 
 644:c:\users\niels\docume~1\elektr~1\jaar3~1\dspl\software\stm32b~1\hal\gemeen~1\librar~1\cmsis\include\core_cm4.h **** #define SCB_SHCSR_SVCALLACT_Msk            (1UL << SCB_SHCSR_SVCALLACT_Pos)               /*!< SCB 
 645:c:\users\niels\docume~1\elektr~1\jaar3~1\dspl\software\stm32b~1\hal\gemeen~1\librar~1\cmsis\include\core_cm4.h **** 
 646:c:\users\niels\docume~1\elektr~1\jaar3~1\dspl\software\stm32b~1\hal\gemeen~1\librar~1\cmsis\include\core_cm4.h **** #define SCB_SHCSR_USGFAULTACT_Pos           3U                                            /*!< SCB 
 647:c:\users\niels\docume~1\elektr~1\jaar3~1\dspl\software\stm32b~1\hal\gemeen~1\librar~1\cmsis\include\core_cm4.h **** #define SCB_SHCSR_USGFAULTACT_Msk          (1UL << SCB_SHCSR_USGFAULTACT_Pos)             /*!< SCB 
 648:c:\users\niels\docume~1\elektr~1\jaar3~1\dspl\software\stm32b~1\hal\gemeen~1\librar~1\cmsis\include\core_cm4.h **** 
 649:c:\users\niels\docume~1\elektr~1\jaar3~1\dspl\software\stm32b~1\hal\gemeen~1\librar~1\cmsis\include\core_cm4.h **** #define SCB_SHCSR_BUSFAULTACT_Pos           1U                                            /*!< SCB 
 650:c:\users\niels\docume~1\elektr~1\jaar3~1\dspl\software\stm32b~1\hal\gemeen~1\librar~1\cmsis\include\core_cm4.h **** #define SCB_SHCSR_BUSFAULTACT_Msk          (1UL << SCB_SHCSR_BUSFAULTACT_Pos)             /*!< SCB 
 651:c:\users\niels\docume~1\elektr~1\jaar3~1\dspl\software\stm32b~1\hal\gemeen~1\librar~1\cmsis\include\core_cm4.h **** 
 652:c:\users\niels\docume~1\elektr~1\jaar3~1\dspl\software\stm32b~1\hal\gemeen~1\librar~1\cmsis\include\core_cm4.h **** #define SCB_SHCSR_MEMFAULTACT_Pos           0U                                            /*!< SCB 
 653:c:\users\niels\docume~1\elektr~1\jaar3~1\dspl\software\stm32b~1\hal\gemeen~1\librar~1\cmsis\include\core_cm4.h **** #define SCB_SHCSR_MEMFAULTACT_Msk          (1UL /*<< SCB_SHCSR_MEMFAULTACT_Pos*/)         /*!< SCB 
 654:c:\users\niels\docume~1\elektr~1\jaar3~1\dspl\software\stm32b~1\hal\gemeen~1\librar~1\cmsis\include\core_cm4.h **** 
 655:c:\users\niels\docume~1\elektr~1\jaar3~1\dspl\software\stm32b~1\hal\gemeen~1\librar~1\cmsis\include\core_cm4.h **** /* SCB Configurable Fault Status Register Definitions */
 656:c:\users\niels\docume~1\elektr~1\jaar3~1\dspl\software\stm32b~1\hal\gemeen~1\librar~1\cmsis\include\core_cm4.h **** #define SCB_CFSR_USGFAULTSR_Pos            16U                                            /*!< SCB 
 657:c:\users\niels\docume~1\elektr~1\jaar3~1\dspl\software\stm32b~1\hal\gemeen~1\librar~1\cmsis\include\core_cm4.h **** #define SCB_CFSR_USGFAULTSR_Msk            (0xFFFFUL << SCB_CFSR_USGFAULTSR_Pos)          /*!< SCB 
 658:c:\users\niels\docume~1\elektr~1\jaar3~1\dspl\software\stm32b~1\hal\gemeen~1\librar~1\cmsis\include\core_cm4.h **** 
 659:c:\users\niels\docume~1\elektr~1\jaar3~1\dspl\software\stm32b~1\hal\gemeen~1\librar~1\cmsis\include\core_cm4.h **** #define SCB_CFSR_BUSFAULTSR_Pos             8U                                            /*!< SCB 
 660:c:\users\niels\docume~1\elektr~1\jaar3~1\dspl\software\stm32b~1\hal\gemeen~1\librar~1\cmsis\include\core_cm4.h **** #define SCB_CFSR_BUSFAULTSR_Msk            (0xFFUL << SCB_CFSR_BUSFAULTSR_Pos)            /*!< SCB 
 661:c:\users\niels\docume~1\elektr~1\jaar3~1\dspl\software\stm32b~1\hal\gemeen~1\librar~1\cmsis\include\core_cm4.h **** 
 662:c:\users\niels\docume~1\elektr~1\jaar3~1\dspl\software\stm32b~1\hal\gemeen~1\librar~1\cmsis\include\core_cm4.h **** #define SCB_CFSR_MEMFAULTSR_Pos             0U                                            /*!< SCB 
ARM GAS   			page 19


 663:c:\users\niels\docume~1\elektr~1\jaar3~1\dspl\software\stm32b~1\hal\gemeen~1\librar~1\cmsis\include\core_cm4.h **** #define SCB_CFSR_MEMFAULTSR_Msk            (0xFFUL /*<< SCB_CFSR_MEMFAULTSR_Pos*/)        /*!< SCB 
 664:c:\users\niels\docume~1\elektr~1\jaar3~1\dspl\software\stm32b~1\hal\gemeen~1\librar~1\cmsis\include\core_cm4.h **** 
 665:c:\users\niels\docume~1\elektr~1\jaar3~1\dspl\software\stm32b~1\hal\gemeen~1\librar~1\cmsis\include\core_cm4.h **** /* SCB Hard Fault Status Register Definitions */
 666:c:\users\niels\docume~1\elektr~1\jaar3~1\dspl\software\stm32b~1\hal\gemeen~1\librar~1\cmsis\include\core_cm4.h **** #define SCB_HFSR_DEBUGEVT_Pos              31U                                            /*!< SCB 
 667:c:\users\niels\docume~1\elektr~1\jaar3~1\dspl\software\stm32b~1\hal\gemeen~1\librar~1\cmsis\include\core_cm4.h **** #define SCB_HFSR_DEBUGEVT_Msk              (1UL << SCB_HFSR_DEBUGEVT_Pos)                 /*!< SCB 
 668:c:\users\niels\docume~1\elektr~1\jaar3~1\dspl\software\stm32b~1\hal\gemeen~1\librar~1\cmsis\include\core_cm4.h **** 
 669:c:\users\niels\docume~1\elektr~1\jaar3~1\dspl\software\stm32b~1\hal\gemeen~1\librar~1\cmsis\include\core_cm4.h **** #define SCB_HFSR_FORCED_Pos                30U                                            /*!< SCB 
 670:c:\users\niels\docume~1\elektr~1\jaar3~1\dspl\software\stm32b~1\hal\gemeen~1\librar~1\cmsis\include\core_cm4.h **** #define SCB_HFSR_FORCED_Msk                (1UL << SCB_HFSR_FORCED_Pos)                   /*!< SCB 
 671:c:\users\niels\docume~1\elektr~1\jaar3~1\dspl\software\stm32b~1\hal\gemeen~1\librar~1\cmsis\include\core_cm4.h **** 
 672:c:\users\niels\docume~1\elektr~1\jaar3~1\dspl\software\stm32b~1\hal\gemeen~1\librar~1\cmsis\include\core_cm4.h **** #define SCB_HFSR_VECTTBL_Pos                1U                                            /*!< SCB 
 673:c:\users\niels\docume~1\elektr~1\jaar3~1\dspl\software\stm32b~1\hal\gemeen~1\librar~1\cmsis\include\core_cm4.h **** #define SCB_HFSR_VECTTBL_Msk               (1UL << SCB_HFSR_VECTTBL_Pos)                  /*!< SCB 
 674:c:\users\niels\docume~1\elektr~1\jaar3~1\dspl\software\stm32b~1\hal\gemeen~1\librar~1\cmsis\include\core_cm4.h **** 
 675:c:\users\niels\docume~1\elektr~1\jaar3~1\dspl\software\stm32b~1\hal\gemeen~1\librar~1\cmsis\include\core_cm4.h **** /* SCB Debug Fault Status Register Definitions */
 676:c:\users\niels\docume~1\elektr~1\jaar3~1\dspl\software\stm32b~1\hal\gemeen~1\librar~1\cmsis\include\core_cm4.h **** #define SCB_DFSR_EXTERNAL_Pos               4U                                            /*!< SCB 
 677:c:\users\niels\docume~1\elektr~1\jaar3~1\dspl\software\stm32b~1\hal\gemeen~1\librar~1\cmsis\include\core_cm4.h **** #define SCB_DFSR_EXTERNAL_Msk              (1UL << SCB_DFSR_EXTERNAL_Pos)                 /*!< SCB 
 678:c:\users\niels\docume~1\elektr~1\jaar3~1\dspl\software\stm32b~1\hal\gemeen~1\librar~1\cmsis\include\core_cm4.h **** 
 679:c:\users\niels\docume~1\elektr~1\jaar3~1\dspl\software\stm32b~1\hal\gemeen~1\librar~1\cmsis\include\core_cm4.h **** #define SCB_DFSR_VCATCH_Pos                 3U                                            /*!< SCB 
 680:c:\users\niels\docume~1\elektr~1\jaar3~1\dspl\software\stm32b~1\hal\gemeen~1\librar~1\cmsis\include\core_cm4.h **** #define SCB_DFSR_VCATCH_Msk                (1UL << SCB_DFSR_VCATCH_Pos)                   /*!< SCB 
 681:c:\users\niels\docume~1\elektr~1\jaar3~1\dspl\software\stm32b~1\hal\gemeen~1\librar~1\cmsis\include\core_cm4.h **** 
 682:c:\users\niels\docume~1\elektr~1\jaar3~1\dspl\software\stm32b~1\hal\gemeen~1\librar~1\cmsis\include\core_cm4.h **** #define SCB_DFSR_DWTTRAP_Pos                2U                                            /*!< SCB 
 683:c:\users\niels\docume~1\elektr~1\jaar3~1\dspl\software\stm32b~1\hal\gemeen~1\librar~1\cmsis\include\core_cm4.h **** #define SCB_DFSR_DWTTRAP_Msk               (1UL << SCB_DFSR_DWTTRAP_Pos)                  /*!< SCB 
 684:c:\users\niels\docume~1\elektr~1\jaar3~1\dspl\software\stm32b~1\hal\gemeen~1\librar~1\cmsis\include\core_cm4.h **** 
 685:c:\users\niels\docume~1\elektr~1\jaar3~1\dspl\software\stm32b~1\hal\gemeen~1\librar~1\cmsis\include\core_cm4.h **** #define SCB_DFSR_BKPT_Pos                   1U                                            /*!< SCB 
 686:c:\users\niels\docume~1\elektr~1\jaar3~1\dspl\software\stm32b~1\hal\gemeen~1\librar~1\cmsis\include\core_cm4.h **** #define SCB_DFSR_BKPT_Msk                  (1UL << SCB_DFSR_BKPT_Pos)                     /*!< SCB 
 687:c:\users\niels\docume~1\elektr~1\jaar3~1\dspl\software\stm32b~1\hal\gemeen~1\librar~1\cmsis\include\core_cm4.h **** 
 688:c:\users\niels\docume~1\elektr~1\jaar3~1\dspl\software\stm32b~1\hal\gemeen~1\librar~1\cmsis\include\core_cm4.h **** #define SCB_DFSR_HALTED_Pos                 0U                                            /*!< SCB 
 689:c:\users\niels\docume~1\elektr~1\jaar3~1\dspl\software\stm32b~1\hal\gemeen~1\librar~1\cmsis\include\core_cm4.h **** #define SCB_DFSR_HALTED_Msk                (1UL /*<< SCB_DFSR_HALTED_Pos*/)               /*!< SCB 
 690:c:\users\niels\docume~1\elektr~1\jaar3~1\dspl\software\stm32b~1\hal\gemeen~1\librar~1\cmsis\include\core_cm4.h **** 
 691:c:\users\niels\docume~1\elektr~1\jaar3~1\dspl\software\stm32b~1\hal\gemeen~1\librar~1\cmsis\include\core_cm4.h **** /*@} end of group CMSIS_SCB */
 692:c:\users\niels\docume~1\elektr~1\jaar3~1\dspl\software\stm32b~1\hal\gemeen~1\librar~1\cmsis\include\core_cm4.h **** 
 693:c:\users\niels\docume~1\elektr~1\jaar3~1\dspl\software\stm32b~1\hal\gemeen~1\librar~1\cmsis\include\core_cm4.h **** 
 694:c:\users\niels\docume~1\elektr~1\jaar3~1\dspl\software\stm32b~1\hal\gemeen~1\librar~1\cmsis\include\core_cm4.h **** /**
 695:c:\users\niels\docume~1\elektr~1\jaar3~1\dspl\software\stm32b~1\hal\gemeen~1\librar~1\cmsis\include\core_cm4.h ****   \ingroup  CMSIS_core_register
 696:c:\users\niels\docume~1\elektr~1\jaar3~1\dspl\software\stm32b~1\hal\gemeen~1\librar~1\cmsis\include\core_cm4.h ****   \defgroup CMSIS_SCnSCB System Controls not in SCB (SCnSCB)
 697:c:\users\niels\docume~1\elektr~1\jaar3~1\dspl\software\stm32b~1\hal\gemeen~1\librar~1\cmsis\include\core_cm4.h ****   \brief    Type definitions for the System Control and ID Register not in the SCB
 698:c:\users\niels\docume~1\elektr~1\jaar3~1\dspl\software\stm32b~1\hal\gemeen~1\librar~1\cmsis\include\core_cm4.h ****   @{
 699:c:\users\niels\docume~1\elektr~1\jaar3~1\dspl\software\stm32b~1\hal\gemeen~1\librar~1\cmsis\include\core_cm4.h ****  */
 700:c:\users\niels\docume~1\elektr~1\jaar3~1\dspl\software\stm32b~1\hal\gemeen~1\librar~1\cmsis\include\core_cm4.h **** 
 701:c:\users\niels\docume~1\elektr~1\jaar3~1\dspl\software\stm32b~1\hal\gemeen~1\librar~1\cmsis\include\core_cm4.h **** /**
 702:c:\users\niels\docume~1\elektr~1\jaar3~1\dspl\software\stm32b~1\hal\gemeen~1\librar~1\cmsis\include\core_cm4.h ****   \brief  Structure type to access the System Control and ID Register not in the SCB.
 703:c:\users\niels\docume~1\elektr~1\jaar3~1\dspl\software\stm32b~1\hal\gemeen~1\librar~1\cmsis\include\core_cm4.h ****  */
 704:c:\users\niels\docume~1\elektr~1\jaar3~1\dspl\software\stm32b~1\hal\gemeen~1\librar~1\cmsis\include\core_cm4.h **** typedef struct
 705:c:\users\niels\docume~1\elektr~1\jaar3~1\dspl\software\stm32b~1\hal\gemeen~1\librar~1\cmsis\include\core_cm4.h **** {
 706:c:\users\niels\docume~1\elektr~1\jaar3~1\dspl\software\stm32b~1\hal\gemeen~1\librar~1\cmsis\include\core_cm4.h ****         uint32_t RESERVED0[1U];
 707:c:\users\niels\docume~1\elektr~1\jaar3~1\dspl\software\stm32b~1\hal\gemeen~1\librar~1\cmsis\include\core_cm4.h ****   __IM  uint32_t ICTR;                   /*!< Offset: 0x004 (R/ )  Interrupt Controller Type Regist
 708:c:\users\niels\docume~1\elektr~1\jaar3~1\dspl\software\stm32b~1\hal\gemeen~1\librar~1\cmsis\include\core_cm4.h ****   __IOM uint32_t ACTLR;                  /*!< Offset: 0x008 (R/W)  Auxiliary Control Register */
 709:c:\users\niels\docume~1\elektr~1\jaar3~1\dspl\software\stm32b~1\hal\gemeen~1\librar~1\cmsis\include\core_cm4.h **** } SCnSCB_Type;
 710:c:\users\niels\docume~1\elektr~1\jaar3~1\dspl\software\stm32b~1\hal\gemeen~1\librar~1\cmsis\include\core_cm4.h **** 
 711:c:\users\niels\docume~1\elektr~1\jaar3~1\dspl\software\stm32b~1\hal\gemeen~1\librar~1\cmsis\include\core_cm4.h **** /* Interrupt Controller Type Register Definitions */
 712:c:\users\niels\docume~1\elektr~1\jaar3~1\dspl\software\stm32b~1\hal\gemeen~1\librar~1\cmsis\include\core_cm4.h **** #define SCnSCB_ICTR_INTLINESNUM_Pos         0U                                         /*!< ICTR: I
 713:c:\users\niels\docume~1\elektr~1\jaar3~1\dspl\software\stm32b~1\hal\gemeen~1\librar~1\cmsis\include\core_cm4.h **** #define SCnSCB_ICTR_INTLINESNUM_Msk        (0xFUL /*<< SCnSCB_ICTR_INTLINESNUM_Pos*/)  /*!< ICTR: I
 714:c:\users\niels\docume~1\elektr~1\jaar3~1\dspl\software\stm32b~1\hal\gemeen~1\librar~1\cmsis\include\core_cm4.h **** 
 715:c:\users\niels\docume~1\elektr~1\jaar3~1\dspl\software\stm32b~1\hal\gemeen~1\librar~1\cmsis\include\core_cm4.h **** /* Auxiliary Control Register Definitions */
 716:c:\users\niels\docume~1\elektr~1\jaar3~1\dspl\software\stm32b~1\hal\gemeen~1\librar~1\cmsis\include\core_cm4.h **** #define SCnSCB_ACTLR_DISOOFP_Pos            9U                                         /*!< ACTLR: 
 717:c:\users\niels\docume~1\elektr~1\jaar3~1\dspl\software\stm32b~1\hal\gemeen~1\librar~1\cmsis\include\core_cm4.h **** #define SCnSCB_ACTLR_DISOOFP_Msk           (1UL << SCnSCB_ACTLR_DISOOFP_Pos)           /*!< ACTLR: 
 718:c:\users\niels\docume~1\elektr~1\jaar3~1\dspl\software\stm32b~1\hal\gemeen~1\librar~1\cmsis\include\core_cm4.h **** 
 719:c:\users\niels\docume~1\elektr~1\jaar3~1\dspl\software\stm32b~1\hal\gemeen~1\librar~1\cmsis\include\core_cm4.h **** #define SCnSCB_ACTLR_DISFPCA_Pos            8U                                         /*!< ACTLR: 
ARM GAS   			page 20


 720:c:\users\niels\docume~1\elektr~1\jaar3~1\dspl\software\stm32b~1\hal\gemeen~1\librar~1\cmsis\include\core_cm4.h **** #define SCnSCB_ACTLR_DISFPCA_Msk           (1UL << SCnSCB_ACTLR_DISFPCA_Pos)           /*!< ACTLR: 
 721:c:\users\niels\docume~1\elektr~1\jaar3~1\dspl\software\stm32b~1\hal\gemeen~1\librar~1\cmsis\include\core_cm4.h **** 
 722:c:\users\niels\docume~1\elektr~1\jaar3~1\dspl\software\stm32b~1\hal\gemeen~1\librar~1\cmsis\include\core_cm4.h **** #define SCnSCB_ACTLR_DISFOLD_Pos            2U                                         /*!< ACTLR: 
 723:c:\users\niels\docume~1\elektr~1\jaar3~1\dspl\software\stm32b~1\hal\gemeen~1\librar~1\cmsis\include\core_cm4.h **** #define SCnSCB_ACTLR_DISFOLD_Msk           (1UL << SCnSCB_ACTLR_DISFOLD_Pos)           /*!< ACTLR: 
 724:c:\users\niels\docume~1\elektr~1\jaar3~1\dspl\software\stm32b~1\hal\gemeen~1\librar~1\cmsis\include\core_cm4.h **** 
 725:c:\users\niels\docume~1\elektr~1\jaar3~1\dspl\software\stm32b~1\hal\gemeen~1\librar~1\cmsis\include\core_cm4.h **** #define SCnSCB_ACTLR_DISDEFWBUF_Pos         1U                                         /*!< ACTLR: 
 726:c:\users\niels\docume~1\elektr~1\jaar3~1\dspl\software\stm32b~1\hal\gemeen~1\librar~1\cmsis\include\core_cm4.h **** #define SCnSCB_ACTLR_DISDEFWBUF_Msk        (1UL << SCnSCB_ACTLR_DISDEFWBUF_Pos)        /*!< ACTLR: 
 727:c:\users\niels\docume~1\elektr~1\jaar3~1\dspl\software\stm32b~1\hal\gemeen~1\librar~1\cmsis\include\core_cm4.h **** 
 728:c:\users\niels\docume~1\elektr~1\jaar3~1\dspl\software\stm32b~1\hal\gemeen~1\librar~1\cmsis\include\core_cm4.h **** #define SCnSCB_ACTLR_DISMCYCINT_Pos         0U                                         /*!< ACTLR: 
 729:c:\users\niels\docume~1\elektr~1\jaar3~1\dspl\software\stm32b~1\hal\gemeen~1\librar~1\cmsis\include\core_cm4.h **** #define SCnSCB_ACTLR_DISMCYCINT_Msk        (1UL /*<< SCnSCB_ACTLR_DISMCYCINT_Pos*/)    /*!< ACTLR: 
 730:c:\users\niels\docume~1\elektr~1\jaar3~1\dspl\software\stm32b~1\hal\gemeen~1\librar~1\cmsis\include\core_cm4.h **** 
 731:c:\users\niels\docume~1\elektr~1\jaar3~1\dspl\software\stm32b~1\hal\gemeen~1\librar~1\cmsis\include\core_cm4.h **** /*@} end of group CMSIS_SCnotSCB */
 732:c:\users\niels\docume~1\elektr~1\jaar3~1\dspl\software\stm32b~1\hal\gemeen~1\librar~1\cmsis\include\core_cm4.h **** 
 733:c:\users\niels\docume~1\elektr~1\jaar3~1\dspl\software\stm32b~1\hal\gemeen~1\librar~1\cmsis\include\core_cm4.h **** 
 734:c:\users\niels\docume~1\elektr~1\jaar3~1\dspl\software\stm32b~1\hal\gemeen~1\librar~1\cmsis\include\core_cm4.h **** /**
 735:c:\users\niels\docume~1\elektr~1\jaar3~1\dspl\software\stm32b~1\hal\gemeen~1\librar~1\cmsis\include\core_cm4.h ****   \ingroup  CMSIS_core_register
 736:c:\users\niels\docume~1\elektr~1\jaar3~1\dspl\software\stm32b~1\hal\gemeen~1\librar~1\cmsis\include\core_cm4.h ****   \defgroup CMSIS_SysTick     System Tick Timer (SysTick)
 737:c:\users\niels\docume~1\elektr~1\jaar3~1\dspl\software\stm32b~1\hal\gemeen~1\librar~1\cmsis\include\core_cm4.h ****   \brief    Type definitions for the System Timer Registers.
 738:c:\users\niels\docume~1\elektr~1\jaar3~1\dspl\software\stm32b~1\hal\gemeen~1\librar~1\cmsis\include\core_cm4.h ****   @{
 739:c:\users\niels\docume~1\elektr~1\jaar3~1\dspl\software\stm32b~1\hal\gemeen~1\librar~1\cmsis\include\core_cm4.h ****  */
 740:c:\users\niels\docume~1\elektr~1\jaar3~1\dspl\software\stm32b~1\hal\gemeen~1\librar~1\cmsis\include\core_cm4.h **** 
 741:c:\users\niels\docume~1\elektr~1\jaar3~1\dspl\software\stm32b~1\hal\gemeen~1\librar~1\cmsis\include\core_cm4.h **** /**
 742:c:\users\niels\docume~1\elektr~1\jaar3~1\dspl\software\stm32b~1\hal\gemeen~1\librar~1\cmsis\include\core_cm4.h ****   \brief  Structure type to access the System Timer (SysTick).
 743:c:\users\niels\docume~1\elektr~1\jaar3~1\dspl\software\stm32b~1\hal\gemeen~1\librar~1\cmsis\include\core_cm4.h ****  */
 744:c:\users\niels\docume~1\elektr~1\jaar3~1\dspl\software\stm32b~1\hal\gemeen~1\librar~1\cmsis\include\core_cm4.h **** typedef struct
 745:c:\users\niels\docume~1\elektr~1\jaar3~1\dspl\software\stm32b~1\hal\gemeen~1\librar~1\cmsis\include\core_cm4.h **** {
 746:c:\users\niels\docume~1\elektr~1\jaar3~1\dspl\software\stm32b~1\hal\gemeen~1\librar~1\cmsis\include\core_cm4.h ****   __IOM uint32_t CTRL;                   /*!< Offset: 0x000 (R/W)  SysTick Control and Status Regis
 747:c:\users\niels\docume~1\elektr~1\jaar3~1\dspl\software\stm32b~1\hal\gemeen~1\librar~1\cmsis\include\core_cm4.h ****   __IOM uint32_t LOAD;                   /*!< Offset: 0x004 (R/W)  SysTick Reload Value Register */
 748:c:\users\niels\docume~1\elektr~1\jaar3~1\dspl\software\stm32b~1\hal\gemeen~1\librar~1\cmsis\include\core_cm4.h ****   __IOM uint32_t VAL;                    /*!< Offset: 0x008 (R/W)  SysTick Current Value Register *
 749:c:\users\niels\docume~1\elektr~1\jaar3~1\dspl\software\stm32b~1\hal\gemeen~1\librar~1\cmsis\include\core_cm4.h ****   __IM  uint32_t CALIB;                  /*!< Offset: 0x00C (R/ )  SysTick Calibration Register */
 750:c:\users\niels\docume~1\elektr~1\jaar3~1\dspl\software\stm32b~1\hal\gemeen~1\librar~1\cmsis\include\core_cm4.h **** } SysTick_Type;
 751:c:\users\niels\docume~1\elektr~1\jaar3~1\dspl\software\stm32b~1\hal\gemeen~1\librar~1\cmsis\include\core_cm4.h **** 
 752:c:\users\niels\docume~1\elektr~1\jaar3~1\dspl\software\stm32b~1\hal\gemeen~1\librar~1\cmsis\include\core_cm4.h **** /* SysTick Control / Status Register Definitions */
 753:c:\users\niels\docume~1\elektr~1\jaar3~1\dspl\software\stm32b~1\hal\gemeen~1\librar~1\cmsis\include\core_cm4.h **** #define SysTick_CTRL_COUNTFLAG_Pos         16U                                            /*!< SysT
 754:c:\users\niels\docume~1\elektr~1\jaar3~1\dspl\software\stm32b~1\hal\gemeen~1\librar~1\cmsis\include\core_cm4.h **** #define SysTick_CTRL_COUNTFLAG_Msk         (1UL << SysTick_CTRL_COUNTFLAG_Pos)            /*!< SysT
 755:c:\users\niels\docume~1\elektr~1\jaar3~1\dspl\software\stm32b~1\hal\gemeen~1\librar~1\cmsis\include\core_cm4.h **** 
 756:c:\users\niels\docume~1\elektr~1\jaar3~1\dspl\software\stm32b~1\hal\gemeen~1\librar~1\cmsis\include\core_cm4.h **** #define SysTick_CTRL_CLKSOURCE_Pos          2U                                            /*!< SysT
 757:c:\users\niels\docume~1\elektr~1\jaar3~1\dspl\software\stm32b~1\hal\gemeen~1\librar~1\cmsis\include\core_cm4.h **** #define SysTick_CTRL_CLKSOURCE_Msk         (1UL << SysTick_CTRL_CLKSOURCE_Pos)            /*!< SysT
 758:c:\users\niels\docume~1\elektr~1\jaar3~1\dspl\software\stm32b~1\hal\gemeen~1\librar~1\cmsis\include\core_cm4.h **** 
 759:c:\users\niels\docume~1\elektr~1\jaar3~1\dspl\software\stm32b~1\hal\gemeen~1\librar~1\cmsis\include\core_cm4.h **** #define SysTick_CTRL_TICKINT_Pos            1U                                            /*!< SysT
 760:c:\users\niels\docume~1\elektr~1\jaar3~1\dspl\software\stm32b~1\hal\gemeen~1\librar~1\cmsis\include\core_cm4.h **** #define SysTick_CTRL_TICKINT_Msk           (1UL << SysTick_CTRL_TICKINT_Pos)              /*!< SysT
 761:c:\users\niels\docume~1\elektr~1\jaar3~1\dspl\software\stm32b~1\hal\gemeen~1\librar~1\cmsis\include\core_cm4.h **** 
 762:c:\users\niels\docume~1\elektr~1\jaar3~1\dspl\software\stm32b~1\hal\gemeen~1\librar~1\cmsis\include\core_cm4.h **** #define SysTick_CTRL_ENABLE_Pos             0U                                            /*!< SysT
 763:c:\users\niels\docume~1\elektr~1\jaar3~1\dspl\software\stm32b~1\hal\gemeen~1\librar~1\cmsis\include\core_cm4.h **** #define SysTick_CTRL_ENABLE_Msk            (1UL /*<< SysTick_CTRL_ENABLE_Pos*/)           /*!< SysT
 764:c:\users\niels\docume~1\elektr~1\jaar3~1\dspl\software\stm32b~1\hal\gemeen~1\librar~1\cmsis\include\core_cm4.h **** 
 765:c:\users\niels\docume~1\elektr~1\jaar3~1\dspl\software\stm32b~1\hal\gemeen~1\librar~1\cmsis\include\core_cm4.h **** /* SysTick Reload Register Definitions */
 766:c:\users\niels\docume~1\elektr~1\jaar3~1\dspl\software\stm32b~1\hal\gemeen~1\librar~1\cmsis\include\core_cm4.h **** #define SysTick_LOAD_RELOAD_Pos             0U                                            /*!< SysT
 767:c:\users\niels\docume~1\elektr~1\jaar3~1\dspl\software\stm32b~1\hal\gemeen~1\librar~1\cmsis\include\core_cm4.h **** #define SysTick_LOAD_RELOAD_Msk            (0xFFFFFFUL /*<< SysTick_LOAD_RELOAD_Pos*/)    /*!< SysT
 768:c:\users\niels\docume~1\elektr~1\jaar3~1\dspl\software\stm32b~1\hal\gemeen~1\librar~1\cmsis\include\core_cm4.h **** 
 769:c:\users\niels\docume~1\elektr~1\jaar3~1\dspl\software\stm32b~1\hal\gemeen~1\librar~1\cmsis\include\core_cm4.h **** /* SysTick Current Register Definitions */
 770:c:\users\niels\docume~1\elektr~1\jaar3~1\dspl\software\stm32b~1\hal\gemeen~1\librar~1\cmsis\include\core_cm4.h **** #define SysTick_VAL_CURRENT_Pos             0U                                            /*!< SysT
 771:c:\users\niels\docume~1\elektr~1\jaar3~1\dspl\software\stm32b~1\hal\gemeen~1\librar~1\cmsis\include\core_cm4.h **** #define SysTick_VAL_CURRENT_Msk            (0xFFFFFFUL /*<< SysTick_VAL_CURRENT_Pos*/)    /*!< SysT
 772:c:\users\niels\docume~1\elektr~1\jaar3~1\dspl\software\stm32b~1\hal\gemeen~1\librar~1\cmsis\include\core_cm4.h **** 
 773:c:\users\niels\docume~1\elektr~1\jaar3~1\dspl\software\stm32b~1\hal\gemeen~1\librar~1\cmsis\include\core_cm4.h **** /* SysTick Calibration Register Definitions */
 774:c:\users\niels\docume~1\elektr~1\jaar3~1\dspl\software\stm32b~1\hal\gemeen~1\librar~1\cmsis\include\core_cm4.h **** #define SysTick_CALIB_NOREF_Pos            31U                                            /*!< SysT
 775:c:\users\niels\docume~1\elektr~1\jaar3~1\dspl\software\stm32b~1\hal\gemeen~1\librar~1\cmsis\include\core_cm4.h **** #define SysTick_CALIB_NOREF_Msk            (1UL << SysTick_CALIB_NOREF_Pos)               /*!< SysT
 776:c:\users\niels\docume~1\elektr~1\jaar3~1\dspl\software\stm32b~1\hal\gemeen~1\librar~1\cmsis\include\core_cm4.h **** 
ARM GAS   			page 21


 777:c:\users\niels\docume~1\elektr~1\jaar3~1\dspl\software\stm32b~1\hal\gemeen~1\librar~1\cmsis\include\core_cm4.h **** #define SysTick_CALIB_SKEW_Pos             30U                                            /*!< SysT
 778:c:\users\niels\docume~1\elektr~1\jaar3~1\dspl\software\stm32b~1\hal\gemeen~1\librar~1\cmsis\include\core_cm4.h **** #define SysTick_CALIB_SKEW_Msk             (1UL << SysTick_CALIB_SKEW_Pos)                /*!< SysT
 779:c:\users\niels\docume~1\elektr~1\jaar3~1\dspl\software\stm32b~1\hal\gemeen~1\librar~1\cmsis\include\core_cm4.h **** 
 780:c:\users\niels\docume~1\elektr~1\jaar3~1\dspl\software\stm32b~1\hal\gemeen~1\librar~1\cmsis\include\core_cm4.h **** #define SysTick_CALIB_TENMS_Pos             0U                                            /*!< SysT
 781:c:\users\niels\docume~1\elektr~1\jaar3~1\dspl\software\stm32b~1\hal\gemeen~1\librar~1\cmsis\include\core_cm4.h **** #define SysTick_CALIB_TENMS_Msk            (0xFFFFFFUL /*<< SysTick_CALIB_TENMS_Pos*/)    /*!< SysT
 782:c:\users\niels\docume~1\elektr~1\jaar3~1\dspl\software\stm32b~1\hal\gemeen~1\librar~1\cmsis\include\core_cm4.h **** 
 783:c:\users\niels\docume~1\elektr~1\jaar3~1\dspl\software\stm32b~1\hal\gemeen~1\librar~1\cmsis\include\core_cm4.h **** /*@} end of group CMSIS_SysTick */
 784:c:\users\niels\docume~1\elektr~1\jaar3~1\dspl\software\stm32b~1\hal\gemeen~1\librar~1\cmsis\include\core_cm4.h **** 
 785:c:\users\niels\docume~1\elektr~1\jaar3~1\dspl\software\stm32b~1\hal\gemeen~1\librar~1\cmsis\include\core_cm4.h **** 
 786:c:\users\niels\docume~1\elektr~1\jaar3~1\dspl\software\stm32b~1\hal\gemeen~1\librar~1\cmsis\include\core_cm4.h **** /**
 787:c:\users\niels\docume~1\elektr~1\jaar3~1\dspl\software\stm32b~1\hal\gemeen~1\librar~1\cmsis\include\core_cm4.h ****   \ingroup  CMSIS_core_register
 788:c:\users\niels\docume~1\elektr~1\jaar3~1\dspl\software\stm32b~1\hal\gemeen~1\librar~1\cmsis\include\core_cm4.h ****   \defgroup CMSIS_ITM     Instrumentation Trace Macrocell (ITM)
 789:c:\users\niels\docume~1\elektr~1\jaar3~1\dspl\software\stm32b~1\hal\gemeen~1\librar~1\cmsis\include\core_cm4.h ****   \brief    Type definitions for the Instrumentation Trace Macrocell (ITM)
 790:c:\users\niels\docume~1\elektr~1\jaar3~1\dspl\software\stm32b~1\hal\gemeen~1\librar~1\cmsis\include\core_cm4.h ****   @{
 791:c:\users\niels\docume~1\elektr~1\jaar3~1\dspl\software\stm32b~1\hal\gemeen~1\librar~1\cmsis\include\core_cm4.h ****  */
 792:c:\users\niels\docume~1\elektr~1\jaar3~1\dspl\software\stm32b~1\hal\gemeen~1\librar~1\cmsis\include\core_cm4.h **** 
 793:c:\users\niels\docume~1\elektr~1\jaar3~1\dspl\software\stm32b~1\hal\gemeen~1\librar~1\cmsis\include\core_cm4.h **** /**
 794:c:\users\niels\docume~1\elektr~1\jaar3~1\dspl\software\stm32b~1\hal\gemeen~1\librar~1\cmsis\include\core_cm4.h ****   \brief  Structure type to access the Instrumentation Trace Macrocell Register (ITM).
 795:c:\users\niels\docume~1\elektr~1\jaar3~1\dspl\software\stm32b~1\hal\gemeen~1\librar~1\cmsis\include\core_cm4.h ****  */
 796:c:\users\niels\docume~1\elektr~1\jaar3~1\dspl\software\stm32b~1\hal\gemeen~1\librar~1\cmsis\include\core_cm4.h **** typedef struct
 797:c:\users\niels\docume~1\elektr~1\jaar3~1\dspl\software\stm32b~1\hal\gemeen~1\librar~1\cmsis\include\core_cm4.h **** {
 798:c:\users\niels\docume~1\elektr~1\jaar3~1\dspl\software\stm32b~1\hal\gemeen~1\librar~1\cmsis\include\core_cm4.h ****   __OM  union
 799:c:\users\niels\docume~1\elektr~1\jaar3~1\dspl\software\stm32b~1\hal\gemeen~1\librar~1\cmsis\include\core_cm4.h ****   {
 800:c:\users\niels\docume~1\elektr~1\jaar3~1\dspl\software\stm32b~1\hal\gemeen~1\librar~1\cmsis\include\core_cm4.h ****     __OM  uint8_t    u8;                 /*!< Offset: 0x000 ( /W)  ITM Stimulus Port 8-bit */
 801:c:\users\niels\docume~1\elektr~1\jaar3~1\dspl\software\stm32b~1\hal\gemeen~1\librar~1\cmsis\include\core_cm4.h ****     __OM  uint16_t   u16;                /*!< Offset: 0x000 ( /W)  ITM Stimulus Port 16-bit */
 802:c:\users\niels\docume~1\elektr~1\jaar3~1\dspl\software\stm32b~1\hal\gemeen~1\librar~1\cmsis\include\core_cm4.h ****     __OM  uint32_t   u32;                /*!< Offset: 0x000 ( /W)  ITM Stimulus Port 32-bit */
 803:c:\users\niels\docume~1\elektr~1\jaar3~1\dspl\software\stm32b~1\hal\gemeen~1\librar~1\cmsis\include\core_cm4.h ****   }  PORT [32U];                         /*!< Offset: 0x000 ( /W)  ITM Stimulus Port Registers */
 804:c:\users\niels\docume~1\elektr~1\jaar3~1\dspl\software\stm32b~1\hal\gemeen~1\librar~1\cmsis\include\core_cm4.h ****         uint32_t RESERVED0[864U];
 805:c:\users\niels\docume~1\elektr~1\jaar3~1\dspl\software\stm32b~1\hal\gemeen~1\librar~1\cmsis\include\core_cm4.h ****   __IOM uint32_t TER;                    /*!< Offset: 0xE00 (R/W)  ITM Trace Enable Register */
 806:c:\users\niels\docume~1\elektr~1\jaar3~1\dspl\software\stm32b~1\hal\gemeen~1\librar~1\cmsis\include\core_cm4.h ****         uint32_t RESERVED1[15U];
 807:c:\users\niels\docume~1\elektr~1\jaar3~1\dspl\software\stm32b~1\hal\gemeen~1\librar~1\cmsis\include\core_cm4.h ****   __IOM uint32_t TPR;                    /*!< Offset: 0xE40 (R/W)  ITM Trace Privilege Register */
 808:c:\users\niels\docume~1\elektr~1\jaar3~1\dspl\software\stm32b~1\hal\gemeen~1\librar~1\cmsis\include\core_cm4.h ****         uint32_t RESERVED2[15U];
 809:c:\users\niels\docume~1\elektr~1\jaar3~1\dspl\software\stm32b~1\hal\gemeen~1\librar~1\cmsis\include\core_cm4.h ****   __IOM uint32_t TCR;                    /*!< Offset: 0xE80 (R/W)  ITM Trace Control Register */
 810:c:\users\niels\docume~1\elektr~1\jaar3~1\dspl\software\stm32b~1\hal\gemeen~1\librar~1\cmsis\include\core_cm4.h ****         uint32_t RESERVED3[29U];
 811:c:\users\niels\docume~1\elektr~1\jaar3~1\dspl\software\stm32b~1\hal\gemeen~1\librar~1\cmsis\include\core_cm4.h ****   __OM  uint32_t IWR;                    /*!< Offset: 0xEF8 ( /W)  ITM Integration Write Register *
 812:c:\users\niels\docume~1\elektr~1\jaar3~1\dspl\software\stm32b~1\hal\gemeen~1\librar~1\cmsis\include\core_cm4.h ****   __IM  uint32_t IRR;                    /*!< Offset: 0xEFC (R/ )  ITM Integration Read Register */
 813:c:\users\niels\docume~1\elektr~1\jaar3~1\dspl\software\stm32b~1\hal\gemeen~1\librar~1\cmsis\include\core_cm4.h ****   __IOM uint32_t IMCR;                   /*!< Offset: 0xF00 (R/W)  ITM Integration Mode Control Reg
 814:c:\users\niels\docume~1\elektr~1\jaar3~1\dspl\software\stm32b~1\hal\gemeen~1\librar~1\cmsis\include\core_cm4.h ****         uint32_t RESERVED4[43U];
 815:c:\users\niels\docume~1\elektr~1\jaar3~1\dspl\software\stm32b~1\hal\gemeen~1\librar~1\cmsis\include\core_cm4.h ****   __OM  uint32_t LAR;                    /*!< Offset: 0xFB0 ( /W)  ITM Lock Access Register */
 816:c:\users\niels\docume~1\elektr~1\jaar3~1\dspl\software\stm32b~1\hal\gemeen~1\librar~1\cmsis\include\core_cm4.h ****   __IM  uint32_t LSR;                    /*!< Offset: 0xFB4 (R/ )  ITM Lock Status Register */
 817:c:\users\niels\docume~1\elektr~1\jaar3~1\dspl\software\stm32b~1\hal\gemeen~1\librar~1\cmsis\include\core_cm4.h ****         uint32_t RESERVED5[6U];
 818:c:\users\niels\docume~1\elektr~1\jaar3~1\dspl\software\stm32b~1\hal\gemeen~1\librar~1\cmsis\include\core_cm4.h ****   __IM  uint32_t PID4;                   /*!< Offset: 0xFD0 (R/ )  ITM Peripheral Identification Re
 819:c:\users\niels\docume~1\elektr~1\jaar3~1\dspl\software\stm32b~1\hal\gemeen~1\librar~1\cmsis\include\core_cm4.h ****   __IM  uint32_t PID5;                   /*!< Offset: 0xFD4 (R/ )  ITM Peripheral Identification Re
 820:c:\users\niels\docume~1\elektr~1\jaar3~1\dspl\software\stm32b~1\hal\gemeen~1\librar~1\cmsis\include\core_cm4.h ****   __IM  uint32_t PID6;                   /*!< Offset: 0xFD8 (R/ )  ITM Peripheral Identification Re
 821:c:\users\niels\docume~1\elektr~1\jaar3~1\dspl\software\stm32b~1\hal\gemeen~1\librar~1\cmsis\include\core_cm4.h ****   __IM  uint32_t PID7;                   /*!< Offset: 0xFDC (R/ )  ITM Peripheral Identification Re
 822:c:\users\niels\docume~1\elektr~1\jaar3~1\dspl\software\stm32b~1\hal\gemeen~1\librar~1\cmsis\include\core_cm4.h ****   __IM  uint32_t PID0;                   /*!< Offset: 0xFE0 (R/ )  ITM Peripheral Identification Re
 823:c:\users\niels\docume~1\elektr~1\jaar3~1\dspl\software\stm32b~1\hal\gemeen~1\librar~1\cmsis\include\core_cm4.h ****   __IM  uint32_t PID1;                   /*!< Offset: 0xFE4 (R/ )  ITM Peripheral Identification Re
 824:c:\users\niels\docume~1\elektr~1\jaar3~1\dspl\software\stm32b~1\hal\gemeen~1\librar~1\cmsis\include\core_cm4.h ****   __IM  uint32_t PID2;                   /*!< Offset: 0xFE8 (R/ )  ITM Peripheral Identification Re
 825:c:\users\niels\docume~1\elektr~1\jaar3~1\dspl\software\stm32b~1\hal\gemeen~1\librar~1\cmsis\include\core_cm4.h ****   __IM  uint32_t PID3;                   /*!< Offset: 0xFEC (R/ )  ITM Peripheral Identification Re
 826:c:\users\niels\docume~1\elektr~1\jaar3~1\dspl\software\stm32b~1\hal\gemeen~1\librar~1\cmsis\include\core_cm4.h ****   __IM  uint32_t CID0;                   /*!< Offset: 0xFF0 (R/ )  ITM Component  Identification Re
 827:c:\users\niels\docume~1\elektr~1\jaar3~1\dspl\software\stm32b~1\hal\gemeen~1\librar~1\cmsis\include\core_cm4.h ****   __IM  uint32_t CID1;                   /*!< Offset: 0xFF4 (R/ )  ITM Component  Identification Re
 828:c:\users\niels\docume~1\elektr~1\jaar3~1\dspl\software\stm32b~1\hal\gemeen~1\librar~1\cmsis\include\core_cm4.h ****   __IM  uint32_t CID2;                   /*!< Offset: 0xFF8 (R/ )  ITM Component  Identification Re
 829:c:\users\niels\docume~1\elektr~1\jaar3~1\dspl\software\stm32b~1\hal\gemeen~1\librar~1\cmsis\include\core_cm4.h ****   __IM  uint32_t CID3;                   /*!< Offset: 0xFFC (R/ )  ITM Component  Identification Re
 830:c:\users\niels\docume~1\elektr~1\jaar3~1\dspl\software\stm32b~1\hal\gemeen~1\librar~1\cmsis\include\core_cm4.h **** } ITM_Type;
 831:c:\users\niels\docume~1\elektr~1\jaar3~1\dspl\software\stm32b~1\hal\gemeen~1\librar~1\cmsis\include\core_cm4.h **** 
 832:c:\users\niels\docume~1\elektr~1\jaar3~1\dspl\software\stm32b~1\hal\gemeen~1\librar~1\cmsis\include\core_cm4.h **** /* ITM Trace Privilege Register Definitions */
 833:c:\users\niels\docume~1\elektr~1\jaar3~1\dspl\software\stm32b~1\hal\gemeen~1\librar~1\cmsis\include\core_cm4.h **** #define ITM_TPR_PRIVMASK_Pos                0U                                            /*!< ITM 
ARM GAS   			page 22


 834:c:\users\niels\docume~1\elektr~1\jaar3~1\dspl\software\stm32b~1\hal\gemeen~1\librar~1\cmsis\include\core_cm4.h **** #define ITM_TPR_PRIVMASK_Msk               (0xFUL /*<< ITM_TPR_PRIVMASK_Pos*/)            /*!< ITM 
 835:c:\users\niels\docume~1\elektr~1\jaar3~1\dspl\software\stm32b~1\hal\gemeen~1\librar~1\cmsis\include\core_cm4.h **** 
 836:c:\users\niels\docume~1\elektr~1\jaar3~1\dspl\software\stm32b~1\hal\gemeen~1\librar~1\cmsis\include\core_cm4.h **** /* ITM Trace Control Register Definitions */
 837:c:\users\niels\docume~1\elektr~1\jaar3~1\dspl\software\stm32b~1\hal\gemeen~1\librar~1\cmsis\include\core_cm4.h **** #define ITM_TCR_BUSY_Pos                   23U                                            /*!< ITM 
 838:c:\users\niels\docume~1\elektr~1\jaar3~1\dspl\software\stm32b~1\hal\gemeen~1\librar~1\cmsis\include\core_cm4.h **** #define ITM_TCR_BUSY_Msk                   (1UL << ITM_TCR_BUSY_Pos)                      /*!< ITM 
 839:c:\users\niels\docume~1\elektr~1\jaar3~1\dspl\software\stm32b~1\hal\gemeen~1\librar~1\cmsis\include\core_cm4.h **** 
 840:c:\users\niels\docume~1\elektr~1\jaar3~1\dspl\software\stm32b~1\hal\gemeen~1\librar~1\cmsis\include\core_cm4.h **** #define ITM_TCR_TraceBusID_Pos             16U                                            /*!< ITM 
 841:c:\users\niels\docume~1\elektr~1\jaar3~1\dspl\software\stm32b~1\hal\gemeen~1\librar~1\cmsis\include\core_cm4.h **** #define ITM_TCR_TraceBusID_Msk             (0x7FUL << ITM_TCR_TraceBusID_Pos)             /*!< ITM 
 842:c:\users\niels\docume~1\elektr~1\jaar3~1\dspl\software\stm32b~1\hal\gemeen~1\librar~1\cmsis\include\core_cm4.h **** 
 843:c:\users\niels\docume~1\elektr~1\jaar3~1\dspl\software\stm32b~1\hal\gemeen~1\librar~1\cmsis\include\core_cm4.h **** #define ITM_TCR_GTSFREQ_Pos                10U                                            /*!< ITM 
 844:c:\users\niels\docume~1\elektr~1\jaar3~1\dspl\software\stm32b~1\hal\gemeen~1\librar~1\cmsis\include\core_cm4.h **** #define ITM_TCR_GTSFREQ_Msk                (3UL << ITM_TCR_GTSFREQ_Pos)                   /*!< ITM 
 845:c:\users\niels\docume~1\elektr~1\jaar3~1\dspl\software\stm32b~1\hal\gemeen~1\librar~1\cmsis\include\core_cm4.h **** 
 846:c:\users\niels\docume~1\elektr~1\jaar3~1\dspl\software\stm32b~1\hal\gemeen~1\librar~1\cmsis\include\core_cm4.h **** #define ITM_TCR_TSPrescale_Pos              8U                                            /*!< ITM 
 847:c:\users\niels\docume~1\elektr~1\jaar3~1\dspl\software\stm32b~1\hal\gemeen~1\librar~1\cmsis\include\core_cm4.h **** #define ITM_TCR_TSPrescale_Msk             (3UL << ITM_TCR_TSPrescale_Pos)                /*!< ITM 
 848:c:\users\niels\docume~1\elektr~1\jaar3~1\dspl\software\stm32b~1\hal\gemeen~1\librar~1\cmsis\include\core_cm4.h **** 
 849:c:\users\niels\docume~1\elektr~1\jaar3~1\dspl\software\stm32b~1\hal\gemeen~1\librar~1\cmsis\include\core_cm4.h **** #define ITM_TCR_SWOENA_Pos                  4U                                            /*!< ITM 
 850:c:\users\niels\docume~1\elektr~1\jaar3~1\dspl\software\stm32b~1\hal\gemeen~1\librar~1\cmsis\include\core_cm4.h **** #define ITM_TCR_SWOENA_Msk                 (1UL << ITM_TCR_SWOENA_Pos)                    /*!< ITM 
 851:c:\users\niels\docume~1\elektr~1\jaar3~1\dspl\software\stm32b~1\hal\gemeen~1\librar~1\cmsis\include\core_cm4.h **** 
 852:c:\users\niels\docume~1\elektr~1\jaar3~1\dspl\software\stm32b~1\hal\gemeen~1\librar~1\cmsis\include\core_cm4.h **** #define ITM_TCR_DWTENA_Pos                  3U                                            /*!< ITM 
 853:c:\users\niels\docume~1\elektr~1\jaar3~1\dspl\software\stm32b~1\hal\gemeen~1\librar~1\cmsis\include\core_cm4.h **** #define ITM_TCR_DWTENA_Msk                 (1UL << ITM_TCR_DWTENA_Pos)                    /*!< ITM 
 854:c:\users\niels\docume~1\elektr~1\jaar3~1\dspl\software\stm32b~1\hal\gemeen~1\librar~1\cmsis\include\core_cm4.h **** 
 855:c:\users\niels\docume~1\elektr~1\jaar3~1\dspl\software\stm32b~1\hal\gemeen~1\librar~1\cmsis\include\core_cm4.h **** #define ITM_TCR_SYNCENA_Pos                 2U                                            /*!< ITM 
 856:c:\users\niels\docume~1\elektr~1\jaar3~1\dspl\software\stm32b~1\hal\gemeen~1\librar~1\cmsis\include\core_cm4.h **** #define ITM_TCR_SYNCENA_Msk                (1UL << ITM_TCR_SYNCENA_Pos)                   /*!< ITM 
 857:c:\users\niels\docume~1\elektr~1\jaar3~1\dspl\software\stm32b~1\hal\gemeen~1\librar~1\cmsis\include\core_cm4.h **** 
 858:c:\users\niels\docume~1\elektr~1\jaar3~1\dspl\software\stm32b~1\hal\gemeen~1\librar~1\cmsis\include\core_cm4.h **** #define ITM_TCR_TSENA_Pos                   1U                                            /*!< ITM 
 859:c:\users\niels\docume~1\elektr~1\jaar3~1\dspl\software\stm32b~1\hal\gemeen~1\librar~1\cmsis\include\core_cm4.h **** #define ITM_TCR_TSENA_Msk                  (1UL << ITM_TCR_TSENA_Pos)                     /*!< ITM 
 860:c:\users\niels\docume~1\elektr~1\jaar3~1\dspl\software\stm32b~1\hal\gemeen~1\librar~1\cmsis\include\core_cm4.h **** 
 861:c:\users\niels\docume~1\elektr~1\jaar3~1\dspl\software\stm32b~1\hal\gemeen~1\librar~1\cmsis\include\core_cm4.h **** #define ITM_TCR_ITMENA_Pos                  0U                                            /*!< ITM 
 862:c:\users\niels\docume~1\elektr~1\jaar3~1\dspl\software\stm32b~1\hal\gemeen~1\librar~1\cmsis\include\core_cm4.h **** #define ITM_TCR_ITMENA_Msk                 (1UL /*<< ITM_TCR_ITMENA_Pos*/)                /*!< ITM 
 863:c:\users\niels\docume~1\elektr~1\jaar3~1\dspl\software\stm32b~1\hal\gemeen~1\librar~1\cmsis\include\core_cm4.h **** 
 864:c:\users\niels\docume~1\elektr~1\jaar3~1\dspl\software\stm32b~1\hal\gemeen~1\librar~1\cmsis\include\core_cm4.h **** /* ITM Integration Write Register Definitions */
 865:c:\users\niels\docume~1\elektr~1\jaar3~1\dspl\software\stm32b~1\hal\gemeen~1\librar~1\cmsis\include\core_cm4.h **** #define ITM_IWR_ATVALIDM_Pos                0U                                            /*!< ITM 
 866:c:\users\niels\docume~1\elektr~1\jaar3~1\dspl\software\stm32b~1\hal\gemeen~1\librar~1\cmsis\include\core_cm4.h **** #define ITM_IWR_ATVALIDM_Msk               (1UL /*<< ITM_IWR_ATVALIDM_Pos*/)              /*!< ITM 
 867:c:\users\niels\docume~1\elektr~1\jaar3~1\dspl\software\stm32b~1\hal\gemeen~1\librar~1\cmsis\include\core_cm4.h **** 
 868:c:\users\niels\docume~1\elektr~1\jaar3~1\dspl\software\stm32b~1\hal\gemeen~1\librar~1\cmsis\include\core_cm4.h **** /* ITM Integration Read Register Definitions */
 869:c:\users\niels\docume~1\elektr~1\jaar3~1\dspl\software\stm32b~1\hal\gemeen~1\librar~1\cmsis\include\core_cm4.h **** #define ITM_IRR_ATREADYM_Pos                0U                                            /*!< ITM 
 870:c:\users\niels\docume~1\elektr~1\jaar3~1\dspl\software\stm32b~1\hal\gemeen~1\librar~1\cmsis\include\core_cm4.h **** #define ITM_IRR_ATREADYM_Msk               (1UL /*<< ITM_IRR_ATREADYM_Pos*/)              /*!< ITM 
 871:c:\users\niels\docume~1\elektr~1\jaar3~1\dspl\software\stm32b~1\hal\gemeen~1\librar~1\cmsis\include\core_cm4.h **** 
 872:c:\users\niels\docume~1\elektr~1\jaar3~1\dspl\software\stm32b~1\hal\gemeen~1\librar~1\cmsis\include\core_cm4.h **** /* ITM Integration Mode Control Register Definitions */
 873:c:\users\niels\docume~1\elektr~1\jaar3~1\dspl\software\stm32b~1\hal\gemeen~1\librar~1\cmsis\include\core_cm4.h **** #define ITM_IMCR_INTEGRATION_Pos            0U                                            /*!< ITM 
 874:c:\users\niels\docume~1\elektr~1\jaar3~1\dspl\software\stm32b~1\hal\gemeen~1\librar~1\cmsis\include\core_cm4.h **** #define ITM_IMCR_INTEGRATION_Msk           (1UL /*<< ITM_IMCR_INTEGRATION_Pos*/)          /*!< ITM 
 875:c:\users\niels\docume~1\elektr~1\jaar3~1\dspl\software\stm32b~1\hal\gemeen~1\librar~1\cmsis\include\core_cm4.h **** 
 876:c:\users\niels\docume~1\elektr~1\jaar3~1\dspl\software\stm32b~1\hal\gemeen~1\librar~1\cmsis\include\core_cm4.h **** /* ITM Lock Status Register Definitions */
 877:c:\users\niels\docume~1\elektr~1\jaar3~1\dspl\software\stm32b~1\hal\gemeen~1\librar~1\cmsis\include\core_cm4.h **** #define ITM_LSR_ByteAcc_Pos                 2U                                            /*!< ITM 
 878:c:\users\niels\docume~1\elektr~1\jaar3~1\dspl\software\stm32b~1\hal\gemeen~1\librar~1\cmsis\include\core_cm4.h **** #define ITM_LSR_ByteAcc_Msk                (1UL << ITM_LSR_ByteAcc_Pos)                   /*!< ITM 
 879:c:\users\niels\docume~1\elektr~1\jaar3~1\dspl\software\stm32b~1\hal\gemeen~1\librar~1\cmsis\include\core_cm4.h **** 
 880:c:\users\niels\docume~1\elektr~1\jaar3~1\dspl\software\stm32b~1\hal\gemeen~1\librar~1\cmsis\include\core_cm4.h **** #define ITM_LSR_Access_Pos                  1U                                            /*!< ITM 
 881:c:\users\niels\docume~1\elektr~1\jaar3~1\dspl\software\stm32b~1\hal\gemeen~1\librar~1\cmsis\include\core_cm4.h **** #define ITM_LSR_Access_Msk                 (1UL << ITM_LSR_Access_Pos)                    /*!< ITM 
 882:c:\users\niels\docume~1\elektr~1\jaar3~1\dspl\software\stm32b~1\hal\gemeen~1\librar~1\cmsis\include\core_cm4.h **** 
 883:c:\users\niels\docume~1\elektr~1\jaar3~1\dspl\software\stm32b~1\hal\gemeen~1\librar~1\cmsis\include\core_cm4.h **** #define ITM_LSR_Present_Pos                 0U                                            /*!< ITM 
 884:c:\users\niels\docume~1\elektr~1\jaar3~1\dspl\software\stm32b~1\hal\gemeen~1\librar~1\cmsis\include\core_cm4.h **** #define ITM_LSR_Present_Msk                (1UL /*<< ITM_LSR_Present_Pos*/)               /*!< ITM 
 885:c:\users\niels\docume~1\elektr~1\jaar3~1\dspl\software\stm32b~1\hal\gemeen~1\librar~1\cmsis\include\core_cm4.h **** 
 886:c:\users\niels\docume~1\elektr~1\jaar3~1\dspl\software\stm32b~1\hal\gemeen~1\librar~1\cmsis\include\core_cm4.h **** /*@}*/ /* end of group CMSIS_ITM */
 887:c:\users\niels\docume~1\elektr~1\jaar3~1\dspl\software\stm32b~1\hal\gemeen~1\librar~1\cmsis\include\core_cm4.h **** 
 888:c:\users\niels\docume~1\elektr~1\jaar3~1\dspl\software\stm32b~1\hal\gemeen~1\librar~1\cmsis\include\core_cm4.h **** 
 889:c:\users\niels\docume~1\elektr~1\jaar3~1\dspl\software\stm32b~1\hal\gemeen~1\librar~1\cmsis\include\core_cm4.h **** /**
 890:c:\users\niels\docume~1\elektr~1\jaar3~1\dspl\software\stm32b~1\hal\gemeen~1\librar~1\cmsis\include\core_cm4.h ****   \ingroup  CMSIS_core_register
ARM GAS   			page 23


 891:c:\users\niels\docume~1\elektr~1\jaar3~1\dspl\software\stm32b~1\hal\gemeen~1\librar~1\cmsis\include\core_cm4.h ****   \defgroup CMSIS_DWT     Data Watchpoint and Trace (DWT)
 892:c:\users\niels\docume~1\elektr~1\jaar3~1\dspl\software\stm32b~1\hal\gemeen~1\librar~1\cmsis\include\core_cm4.h ****   \brief    Type definitions for the Data Watchpoint and Trace (DWT)
 893:c:\users\niels\docume~1\elektr~1\jaar3~1\dspl\software\stm32b~1\hal\gemeen~1\librar~1\cmsis\include\core_cm4.h ****   @{
 894:c:\users\niels\docume~1\elektr~1\jaar3~1\dspl\software\stm32b~1\hal\gemeen~1\librar~1\cmsis\include\core_cm4.h ****  */
 895:c:\users\niels\docume~1\elektr~1\jaar3~1\dspl\software\stm32b~1\hal\gemeen~1\librar~1\cmsis\include\core_cm4.h **** 
 896:c:\users\niels\docume~1\elektr~1\jaar3~1\dspl\software\stm32b~1\hal\gemeen~1\librar~1\cmsis\include\core_cm4.h **** /**
 897:c:\users\niels\docume~1\elektr~1\jaar3~1\dspl\software\stm32b~1\hal\gemeen~1\librar~1\cmsis\include\core_cm4.h ****   \brief  Structure type to access the Data Watchpoint and Trace Register (DWT).
 898:c:\users\niels\docume~1\elektr~1\jaar3~1\dspl\software\stm32b~1\hal\gemeen~1\librar~1\cmsis\include\core_cm4.h ****  */
 899:c:\users\niels\docume~1\elektr~1\jaar3~1\dspl\software\stm32b~1\hal\gemeen~1\librar~1\cmsis\include\core_cm4.h **** typedef struct
 900:c:\users\niels\docume~1\elektr~1\jaar3~1\dspl\software\stm32b~1\hal\gemeen~1\librar~1\cmsis\include\core_cm4.h **** {
 901:c:\users\niels\docume~1\elektr~1\jaar3~1\dspl\software\stm32b~1\hal\gemeen~1\librar~1\cmsis\include\core_cm4.h ****   __IOM uint32_t CTRL;                   /*!< Offset: 0x000 (R/W)  Control Register */
 902:c:\users\niels\docume~1\elektr~1\jaar3~1\dspl\software\stm32b~1\hal\gemeen~1\librar~1\cmsis\include\core_cm4.h ****   __IOM uint32_t CYCCNT;                 /*!< Offset: 0x004 (R/W)  Cycle Count Register */
 903:c:\users\niels\docume~1\elektr~1\jaar3~1\dspl\software\stm32b~1\hal\gemeen~1\librar~1\cmsis\include\core_cm4.h ****   __IOM uint32_t CPICNT;                 /*!< Offset: 0x008 (R/W)  CPI Count Register */
 904:c:\users\niels\docume~1\elektr~1\jaar3~1\dspl\software\stm32b~1\hal\gemeen~1\librar~1\cmsis\include\core_cm4.h ****   __IOM uint32_t EXCCNT;                 /*!< Offset: 0x00C (R/W)  Exception Overhead Count Registe
 905:c:\users\niels\docume~1\elektr~1\jaar3~1\dspl\software\stm32b~1\hal\gemeen~1\librar~1\cmsis\include\core_cm4.h ****   __IOM uint32_t SLEEPCNT;               /*!< Offset: 0x010 (R/W)  Sleep Count Register */
 906:c:\users\niels\docume~1\elektr~1\jaar3~1\dspl\software\stm32b~1\hal\gemeen~1\librar~1\cmsis\include\core_cm4.h ****   __IOM uint32_t LSUCNT;                 /*!< Offset: 0x014 (R/W)  LSU Count Register */
 907:c:\users\niels\docume~1\elektr~1\jaar3~1\dspl\software\stm32b~1\hal\gemeen~1\librar~1\cmsis\include\core_cm4.h ****   __IOM uint32_t FOLDCNT;                /*!< Offset: 0x018 (R/W)  Folded-instruction Count Registe
 908:c:\users\niels\docume~1\elektr~1\jaar3~1\dspl\software\stm32b~1\hal\gemeen~1\librar~1\cmsis\include\core_cm4.h ****   __IM  uint32_t PCSR;                   /*!< Offset: 0x01C (R/ )  Program Counter Sample Register 
 909:c:\users\niels\docume~1\elektr~1\jaar3~1\dspl\software\stm32b~1\hal\gemeen~1\librar~1\cmsis\include\core_cm4.h ****   __IOM uint32_t COMP0;                  /*!< Offset: 0x020 (R/W)  Comparator Register 0 */
 910:c:\users\niels\docume~1\elektr~1\jaar3~1\dspl\software\stm32b~1\hal\gemeen~1\librar~1\cmsis\include\core_cm4.h ****   __IOM uint32_t MASK0;                  /*!< Offset: 0x024 (R/W)  Mask Register 0 */
 911:c:\users\niels\docume~1\elektr~1\jaar3~1\dspl\software\stm32b~1\hal\gemeen~1\librar~1\cmsis\include\core_cm4.h ****   __IOM uint32_t FUNCTION0;              /*!< Offset: 0x028 (R/W)  Function Register 0 */
 912:c:\users\niels\docume~1\elektr~1\jaar3~1\dspl\software\stm32b~1\hal\gemeen~1\librar~1\cmsis\include\core_cm4.h ****         uint32_t RESERVED0[1U];
 913:c:\users\niels\docume~1\elektr~1\jaar3~1\dspl\software\stm32b~1\hal\gemeen~1\librar~1\cmsis\include\core_cm4.h ****   __IOM uint32_t COMP1;                  /*!< Offset: 0x030 (R/W)  Comparator Register 1 */
 914:c:\users\niels\docume~1\elektr~1\jaar3~1\dspl\software\stm32b~1\hal\gemeen~1\librar~1\cmsis\include\core_cm4.h ****   __IOM uint32_t MASK1;                  /*!< Offset: 0x034 (R/W)  Mask Register 1 */
 915:c:\users\niels\docume~1\elektr~1\jaar3~1\dspl\software\stm32b~1\hal\gemeen~1\librar~1\cmsis\include\core_cm4.h ****   __IOM uint32_t FUNCTION1;              /*!< Offset: 0x038 (R/W)  Function Register 1 */
 916:c:\users\niels\docume~1\elektr~1\jaar3~1\dspl\software\stm32b~1\hal\gemeen~1\librar~1\cmsis\include\core_cm4.h ****         uint32_t RESERVED1[1U];
 917:c:\users\niels\docume~1\elektr~1\jaar3~1\dspl\software\stm32b~1\hal\gemeen~1\librar~1\cmsis\include\core_cm4.h ****   __IOM uint32_t COMP2;                  /*!< Offset: 0x040 (R/W)  Comparator Register 2 */
 918:c:\users\niels\docume~1\elektr~1\jaar3~1\dspl\software\stm32b~1\hal\gemeen~1\librar~1\cmsis\include\core_cm4.h ****   __IOM uint32_t MASK2;                  /*!< Offset: 0x044 (R/W)  Mask Register 2 */
 919:c:\users\niels\docume~1\elektr~1\jaar3~1\dspl\software\stm32b~1\hal\gemeen~1\librar~1\cmsis\include\core_cm4.h ****   __IOM uint32_t FUNCTION2;              /*!< Offset: 0x048 (R/W)  Function Register 2 */
 920:c:\users\niels\docume~1\elektr~1\jaar3~1\dspl\software\stm32b~1\hal\gemeen~1\librar~1\cmsis\include\core_cm4.h ****         uint32_t RESERVED2[1U];
 921:c:\users\niels\docume~1\elektr~1\jaar3~1\dspl\software\stm32b~1\hal\gemeen~1\librar~1\cmsis\include\core_cm4.h ****   __IOM uint32_t COMP3;                  /*!< Offset: 0x050 (R/W)  Comparator Register 3 */
 922:c:\users\niels\docume~1\elektr~1\jaar3~1\dspl\software\stm32b~1\hal\gemeen~1\librar~1\cmsis\include\core_cm4.h ****   __IOM uint32_t MASK3;                  /*!< Offset: 0x054 (R/W)  Mask Register 3 */
 923:c:\users\niels\docume~1\elektr~1\jaar3~1\dspl\software\stm32b~1\hal\gemeen~1\librar~1\cmsis\include\core_cm4.h ****   __IOM uint32_t FUNCTION3;              /*!< Offset: 0x058 (R/W)  Function Register 3 */
 924:c:\users\niels\docume~1\elektr~1\jaar3~1\dspl\software\stm32b~1\hal\gemeen~1\librar~1\cmsis\include\core_cm4.h **** } DWT_Type;
 925:c:\users\niels\docume~1\elektr~1\jaar3~1\dspl\software\stm32b~1\hal\gemeen~1\librar~1\cmsis\include\core_cm4.h **** 
 926:c:\users\niels\docume~1\elektr~1\jaar3~1\dspl\software\stm32b~1\hal\gemeen~1\librar~1\cmsis\include\core_cm4.h **** /* DWT Control Register Definitions */
 927:c:\users\niels\docume~1\elektr~1\jaar3~1\dspl\software\stm32b~1\hal\gemeen~1\librar~1\cmsis\include\core_cm4.h **** #define DWT_CTRL_NUMCOMP_Pos               28U                                         /*!< DWT CTR
 928:c:\users\niels\docume~1\elektr~1\jaar3~1\dspl\software\stm32b~1\hal\gemeen~1\librar~1\cmsis\include\core_cm4.h **** #define DWT_CTRL_NUMCOMP_Msk               (0xFUL << DWT_CTRL_NUMCOMP_Pos)             /*!< DWT CTR
 929:c:\users\niels\docume~1\elektr~1\jaar3~1\dspl\software\stm32b~1\hal\gemeen~1\librar~1\cmsis\include\core_cm4.h **** 
 930:c:\users\niels\docume~1\elektr~1\jaar3~1\dspl\software\stm32b~1\hal\gemeen~1\librar~1\cmsis\include\core_cm4.h **** #define DWT_CTRL_NOTRCPKT_Pos              27U                                         /*!< DWT CTR
 931:c:\users\niels\docume~1\elektr~1\jaar3~1\dspl\software\stm32b~1\hal\gemeen~1\librar~1\cmsis\include\core_cm4.h **** #define DWT_CTRL_NOTRCPKT_Msk              (0x1UL << DWT_CTRL_NOTRCPKT_Pos)            /*!< DWT CTR
 932:c:\users\niels\docume~1\elektr~1\jaar3~1\dspl\software\stm32b~1\hal\gemeen~1\librar~1\cmsis\include\core_cm4.h **** 
 933:c:\users\niels\docume~1\elektr~1\jaar3~1\dspl\software\stm32b~1\hal\gemeen~1\librar~1\cmsis\include\core_cm4.h **** #define DWT_CTRL_NOEXTTRIG_Pos             26U                                         /*!< DWT CTR
 934:c:\users\niels\docume~1\elektr~1\jaar3~1\dspl\software\stm32b~1\hal\gemeen~1\librar~1\cmsis\include\core_cm4.h **** #define DWT_CTRL_NOEXTTRIG_Msk             (0x1UL << DWT_CTRL_NOEXTTRIG_Pos)           /*!< DWT CTR
 935:c:\users\niels\docume~1\elektr~1\jaar3~1\dspl\software\stm32b~1\hal\gemeen~1\librar~1\cmsis\include\core_cm4.h **** 
 936:c:\users\niels\docume~1\elektr~1\jaar3~1\dspl\software\stm32b~1\hal\gemeen~1\librar~1\cmsis\include\core_cm4.h **** #define DWT_CTRL_NOCYCCNT_Pos              25U                                         /*!< DWT CTR
 937:c:\users\niels\docume~1\elektr~1\jaar3~1\dspl\software\stm32b~1\hal\gemeen~1\librar~1\cmsis\include\core_cm4.h **** #define DWT_CTRL_NOCYCCNT_Msk              (0x1UL << DWT_CTRL_NOCYCCNT_Pos)            /*!< DWT CTR
 938:c:\users\niels\docume~1\elektr~1\jaar3~1\dspl\software\stm32b~1\hal\gemeen~1\librar~1\cmsis\include\core_cm4.h **** 
 939:c:\users\niels\docume~1\elektr~1\jaar3~1\dspl\software\stm32b~1\hal\gemeen~1\librar~1\cmsis\include\core_cm4.h **** #define DWT_CTRL_NOPRFCNT_Pos              24U                                         /*!< DWT CTR
 940:c:\users\niels\docume~1\elektr~1\jaar3~1\dspl\software\stm32b~1\hal\gemeen~1\librar~1\cmsis\include\core_cm4.h **** #define DWT_CTRL_NOPRFCNT_Msk              (0x1UL << DWT_CTRL_NOPRFCNT_Pos)            /*!< DWT CTR
 941:c:\users\niels\docume~1\elektr~1\jaar3~1\dspl\software\stm32b~1\hal\gemeen~1\librar~1\cmsis\include\core_cm4.h **** 
 942:c:\users\niels\docume~1\elektr~1\jaar3~1\dspl\software\stm32b~1\hal\gemeen~1\librar~1\cmsis\include\core_cm4.h **** #define DWT_CTRL_CYCEVTENA_Pos             22U                                         /*!< DWT CTR
 943:c:\users\niels\docume~1\elektr~1\jaar3~1\dspl\software\stm32b~1\hal\gemeen~1\librar~1\cmsis\include\core_cm4.h **** #define DWT_CTRL_CYCEVTENA_Msk             (0x1UL << DWT_CTRL_CYCEVTENA_Pos)           /*!< DWT CTR
 944:c:\users\niels\docume~1\elektr~1\jaar3~1\dspl\software\stm32b~1\hal\gemeen~1\librar~1\cmsis\include\core_cm4.h **** 
 945:c:\users\niels\docume~1\elektr~1\jaar3~1\dspl\software\stm32b~1\hal\gemeen~1\librar~1\cmsis\include\core_cm4.h **** #define DWT_CTRL_FOLDEVTENA_Pos            21U                                         /*!< DWT CTR
 946:c:\users\niels\docume~1\elektr~1\jaar3~1\dspl\software\stm32b~1\hal\gemeen~1\librar~1\cmsis\include\core_cm4.h **** #define DWT_CTRL_FOLDEVTENA_Msk            (0x1UL << DWT_CTRL_FOLDEVTENA_Pos)          /*!< DWT CTR
 947:c:\users\niels\docume~1\elektr~1\jaar3~1\dspl\software\stm32b~1\hal\gemeen~1\librar~1\cmsis\include\core_cm4.h **** 
ARM GAS   			page 24


 948:c:\users\niels\docume~1\elektr~1\jaar3~1\dspl\software\stm32b~1\hal\gemeen~1\librar~1\cmsis\include\core_cm4.h **** #define DWT_CTRL_LSUEVTENA_Pos             20U                                         /*!< DWT CTR
 949:c:\users\niels\docume~1\elektr~1\jaar3~1\dspl\software\stm32b~1\hal\gemeen~1\librar~1\cmsis\include\core_cm4.h **** #define DWT_CTRL_LSUEVTENA_Msk             (0x1UL << DWT_CTRL_LSUEVTENA_Pos)           /*!< DWT CTR
 950:c:\users\niels\docume~1\elektr~1\jaar3~1\dspl\software\stm32b~1\hal\gemeen~1\librar~1\cmsis\include\core_cm4.h **** 
 951:c:\users\niels\docume~1\elektr~1\jaar3~1\dspl\software\stm32b~1\hal\gemeen~1\librar~1\cmsis\include\core_cm4.h **** #define DWT_CTRL_SLEEPEVTENA_Pos           19U                                         /*!< DWT CTR
 952:c:\users\niels\docume~1\elektr~1\jaar3~1\dspl\software\stm32b~1\hal\gemeen~1\librar~1\cmsis\include\core_cm4.h **** #define DWT_CTRL_SLEEPEVTENA_Msk           (0x1UL << DWT_CTRL_SLEEPEVTENA_Pos)         /*!< DWT CTR
 953:c:\users\niels\docume~1\elektr~1\jaar3~1\dspl\software\stm32b~1\hal\gemeen~1\librar~1\cmsis\include\core_cm4.h **** 
 954:c:\users\niels\docume~1\elektr~1\jaar3~1\dspl\software\stm32b~1\hal\gemeen~1\librar~1\cmsis\include\core_cm4.h **** #define DWT_CTRL_EXCEVTENA_Pos             18U                                         /*!< DWT CTR
 955:c:\users\niels\docume~1\elektr~1\jaar3~1\dspl\software\stm32b~1\hal\gemeen~1\librar~1\cmsis\include\core_cm4.h **** #define DWT_CTRL_EXCEVTENA_Msk             (0x1UL << DWT_CTRL_EXCEVTENA_Pos)           /*!< DWT CTR
 956:c:\users\niels\docume~1\elektr~1\jaar3~1\dspl\software\stm32b~1\hal\gemeen~1\librar~1\cmsis\include\core_cm4.h **** 
 957:c:\users\niels\docume~1\elektr~1\jaar3~1\dspl\software\stm32b~1\hal\gemeen~1\librar~1\cmsis\include\core_cm4.h **** #define DWT_CTRL_CPIEVTENA_Pos             17U                                         /*!< DWT CTR
 958:c:\users\niels\docume~1\elektr~1\jaar3~1\dspl\software\stm32b~1\hal\gemeen~1\librar~1\cmsis\include\core_cm4.h **** #define DWT_CTRL_CPIEVTENA_Msk             (0x1UL << DWT_CTRL_CPIEVTENA_Pos)           /*!< DWT CTR
 959:c:\users\niels\docume~1\elektr~1\jaar3~1\dspl\software\stm32b~1\hal\gemeen~1\librar~1\cmsis\include\core_cm4.h **** 
 960:c:\users\niels\docume~1\elektr~1\jaar3~1\dspl\software\stm32b~1\hal\gemeen~1\librar~1\cmsis\include\core_cm4.h **** #define DWT_CTRL_EXCTRCENA_Pos             16U                                         /*!< DWT CTR
 961:c:\users\niels\docume~1\elektr~1\jaar3~1\dspl\software\stm32b~1\hal\gemeen~1\librar~1\cmsis\include\core_cm4.h **** #define DWT_CTRL_EXCTRCENA_Msk             (0x1UL << DWT_CTRL_EXCTRCENA_Pos)           /*!< DWT CTR
 962:c:\users\niels\docume~1\elektr~1\jaar3~1\dspl\software\stm32b~1\hal\gemeen~1\librar~1\cmsis\include\core_cm4.h **** 
 963:c:\users\niels\docume~1\elektr~1\jaar3~1\dspl\software\stm32b~1\hal\gemeen~1\librar~1\cmsis\include\core_cm4.h **** #define DWT_CTRL_PCSAMPLENA_Pos            12U                                         /*!< DWT CTR
 964:c:\users\niels\docume~1\elektr~1\jaar3~1\dspl\software\stm32b~1\hal\gemeen~1\librar~1\cmsis\include\core_cm4.h **** #define DWT_CTRL_PCSAMPLENA_Msk            (0x1UL << DWT_CTRL_PCSAMPLENA_Pos)          /*!< DWT CTR
 965:c:\users\niels\docume~1\elektr~1\jaar3~1\dspl\software\stm32b~1\hal\gemeen~1\librar~1\cmsis\include\core_cm4.h **** 
 966:c:\users\niels\docume~1\elektr~1\jaar3~1\dspl\software\stm32b~1\hal\gemeen~1\librar~1\cmsis\include\core_cm4.h **** #define DWT_CTRL_SYNCTAP_Pos               10U                                         /*!< DWT CTR
 967:c:\users\niels\docume~1\elektr~1\jaar3~1\dspl\software\stm32b~1\hal\gemeen~1\librar~1\cmsis\include\core_cm4.h **** #define DWT_CTRL_SYNCTAP_Msk               (0x3UL << DWT_CTRL_SYNCTAP_Pos)             /*!< DWT CTR
 968:c:\users\niels\docume~1\elektr~1\jaar3~1\dspl\software\stm32b~1\hal\gemeen~1\librar~1\cmsis\include\core_cm4.h **** 
 969:c:\users\niels\docume~1\elektr~1\jaar3~1\dspl\software\stm32b~1\hal\gemeen~1\librar~1\cmsis\include\core_cm4.h **** #define DWT_CTRL_CYCTAP_Pos                 9U                                         /*!< DWT CTR
 970:c:\users\niels\docume~1\elektr~1\jaar3~1\dspl\software\stm32b~1\hal\gemeen~1\librar~1\cmsis\include\core_cm4.h **** #define DWT_CTRL_CYCTAP_Msk                (0x1UL << DWT_CTRL_CYCTAP_Pos)              /*!< DWT CTR
 971:c:\users\niels\docume~1\elektr~1\jaar3~1\dspl\software\stm32b~1\hal\gemeen~1\librar~1\cmsis\include\core_cm4.h **** 
 972:c:\users\niels\docume~1\elektr~1\jaar3~1\dspl\software\stm32b~1\hal\gemeen~1\librar~1\cmsis\include\core_cm4.h **** #define DWT_CTRL_POSTINIT_Pos               5U                                         /*!< DWT CTR
 973:c:\users\niels\docume~1\elektr~1\jaar3~1\dspl\software\stm32b~1\hal\gemeen~1\librar~1\cmsis\include\core_cm4.h **** #define DWT_CTRL_POSTINIT_Msk              (0xFUL << DWT_CTRL_POSTINIT_Pos)            /*!< DWT CTR
 974:c:\users\niels\docume~1\elektr~1\jaar3~1\dspl\software\stm32b~1\hal\gemeen~1\librar~1\cmsis\include\core_cm4.h **** 
 975:c:\users\niels\docume~1\elektr~1\jaar3~1\dspl\software\stm32b~1\hal\gemeen~1\librar~1\cmsis\include\core_cm4.h **** #define DWT_CTRL_POSTPRESET_Pos             1U                                         /*!< DWT CTR
 976:c:\users\niels\docume~1\elektr~1\jaar3~1\dspl\software\stm32b~1\hal\gemeen~1\librar~1\cmsis\include\core_cm4.h **** #define DWT_CTRL_POSTPRESET_Msk            (0xFUL << DWT_CTRL_POSTPRESET_Pos)          /*!< DWT CTR
 977:c:\users\niels\docume~1\elektr~1\jaar3~1\dspl\software\stm32b~1\hal\gemeen~1\librar~1\cmsis\include\core_cm4.h **** 
 978:c:\users\niels\docume~1\elektr~1\jaar3~1\dspl\software\stm32b~1\hal\gemeen~1\librar~1\cmsis\include\core_cm4.h **** #define DWT_CTRL_CYCCNTENA_Pos              0U                                         /*!< DWT CTR
 979:c:\users\niels\docume~1\elektr~1\jaar3~1\dspl\software\stm32b~1\hal\gemeen~1\librar~1\cmsis\include\core_cm4.h **** #define DWT_CTRL_CYCCNTENA_Msk             (0x1UL /*<< DWT_CTRL_CYCCNTENA_Pos*/)       /*!< DWT CTR
 980:c:\users\niels\docume~1\elektr~1\jaar3~1\dspl\software\stm32b~1\hal\gemeen~1\librar~1\cmsis\include\core_cm4.h **** 
 981:c:\users\niels\docume~1\elektr~1\jaar3~1\dspl\software\stm32b~1\hal\gemeen~1\librar~1\cmsis\include\core_cm4.h **** /* DWT CPI Count Register Definitions */
 982:c:\users\niels\docume~1\elektr~1\jaar3~1\dspl\software\stm32b~1\hal\gemeen~1\librar~1\cmsis\include\core_cm4.h **** #define DWT_CPICNT_CPICNT_Pos               0U                                         /*!< DWT CPI
 983:c:\users\niels\docume~1\elektr~1\jaar3~1\dspl\software\stm32b~1\hal\gemeen~1\librar~1\cmsis\include\core_cm4.h **** #define DWT_CPICNT_CPICNT_Msk              (0xFFUL /*<< DWT_CPICNT_CPICNT_Pos*/)       /*!< DWT CPI
 984:c:\users\niels\docume~1\elektr~1\jaar3~1\dspl\software\stm32b~1\hal\gemeen~1\librar~1\cmsis\include\core_cm4.h **** 
 985:c:\users\niels\docume~1\elektr~1\jaar3~1\dspl\software\stm32b~1\hal\gemeen~1\librar~1\cmsis\include\core_cm4.h **** /* DWT Exception Overhead Count Register Definitions */
 986:c:\users\niels\docume~1\elektr~1\jaar3~1\dspl\software\stm32b~1\hal\gemeen~1\librar~1\cmsis\include\core_cm4.h **** #define DWT_EXCCNT_EXCCNT_Pos               0U                                         /*!< DWT EXC
 987:c:\users\niels\docume~1\elektr~1\jaar3~1\dspl\software\stm32b~1\hal\gemeen~1\librar~1\cmsis\include\core_cm4.h **** #define DWT_EXCCNT_EXCCNT_Msk              (0xFFUL /*<< DWT_EXCCNT_EXCCNT_Pos*/)       /*!< DWT EXC
 988:c:\users\niels\docume~1\elektr~1\jaar3~1\dspl\software\stm32b~1\hal\gemeen~1\librar~1\cmsis\include\core_cm4.h **** 
 989:c:\users\niels\docume~1\elektr~1\jaar3~1\dspl\software\stm32b~1\hal\gemeen~1\librar~1\cmsis\include\core_cm4.h **** /* DWT Sleep Count Register Definitions */
 990:c:\users\niels\docume~1\elektr~1\jaar3~1\dspl\software\stm32b~1\hal\gemeen~1\librar~1\cmsis\include\core_cm4.h **** #define DWT_SLEEPCNT_SLEEPCNT_Pos           0U                                         /*!< DWT SLE
 991:c:\users\niels\docume~1\elektr~1\jaar3~1\dspl\software\stm32b~1\hal\gemeen~1\librar~1\cmsis\include\core_cm4.h **** #define DWT_SLEEPCNT_SLEEPCNT_Msk          (0xFFUL /*<< DWT_SLEEPCNT_SLEEPCNT_Pos*/)   /*!< DWT SLE
 992:c:\users\niels\docume~1\elektr~1\jaar3~1\dspl\software\stm32b~1\hal\gemeen~1\librar~1\cmsis\include\core_cm4.h **** 
 993:c:\users\niels\docume~1\elektr~1\jaar3~1\dspl\software\stm32b~1\hal\gemeen~1\librar~1\cmsis\include\core_cm4.h **** /* DWT LSU Count Register Definitions */
 994:c:\users\niels\docume~1\elektr~1\jaar3~1\dspl\software\stm32b~1\hal\gemeen~1\librar~1\cmsis\include\core_cm4.h **** #define DWT_LSUCNT_LSUCNT_Pos               0U                                         /*!< DWT LSU
 995:c:\users\niels\docume~1\elektr~1\jaar3~1\dspl\software\stm32b~1\hal\gemeen~1\librar~1\cmsis\include\core_cm4.h **** #define DWT_LSUCNT_LSUCNT_Msk              (0xFFUL /*<< DWT_LSUCNT_LSUCNT_Pos*/)       /*!< DWT LSU
 996:c:\users\niels\docume~1\elektr~1\jaar3~1\dspl\software\stm32b~1\hal\gemeen~1\librar~1\cmsis\include\core_cm4.h **** 
 997:c:\users\niels\docume~1\elektr~1\jaar3~1\dspl\software\stm32b~1\hal\gemeen~1\librar~1\cmsis\include\core_cm4.h **** /* DWT Folded-instruction Count Register Definitions */
 998:c:\users\niels\docume~1\elektr~1\jaar3~1\dspl\software\stm32b~1\hal\gemeen~1\librar~1\cmsis\include\core_cm4.h **** #define DWT_FOLDCNT_FOLDCNT_Pos             0U                                         /*!< DWT FOL
 999:c:\users\niels\docume~1\elektr~1\jaar3~1\dspl\software\stm32b~1\hal\gemeen~1\librar~1\cmsis\include\core_cm4.h **** #define DWT_FOLDCNT_FOLDCNT_Msk            (0xFFUL /*<< DWT_FOLDCNT_FOLDCNT_Pos*/)     /*!< DWT FOL
1000:c:\users\niels\docume~1\elektr~1\jaar3~1\dspl\software\stm32b~1\hal\gemeen~1\librar~1\cmsis\include\core_cm4.h **** 
1001:c:\users\niels\docume~1\elektr~1\jaar3~1\dspl\software\stm32b~1\hal\gemeen~1\librar~1\cmsis\include\core_cm4.h **** /* DWT Comparator Mask Register Definitions */
1002:c:\users\niels\docume~1\elektr~1\jaar3~1\dspl\software\stm32b~1\hal\gemeen~1\librar~1\cmsis\include\core_cm4.h **** #define DWT_MASK_MASK_Pos                   0U                                         /*!< DWT MAS
1003:c:\users\niels\docume~1\elektr~1\jaar3~1\dspl\software\stm32b~1\hal\gemeen~1\librar~1\cmsis\include\core_cm4.h **** #define DWT_MASK_MASK_Msk                  (0x1FUL /*<< DWT_MASK_MASK_Pos*/)           /*!< DWT MAS
1004:c:\users\niels\docume~1\elektr~1\jaar3~1\dspl\software\stm32b~1\hal\gemeen~1\librar~1\cmsis\include\core_cm4.h **** 
ARM GAS   			page 25


1005:c:\users\niels\docume~1\elektr~1\jaar3~1\dspl\software\stm32b~1\hal\gemeen~1\librar~1\cmsis\include\core_cm4.h **** /* DWT Comparator Function Register Definitions */
1006:c:\users\niels\docume~1\elektr~1\jaar3~1\dspl\software\stm32b~1\hal\gemeen~1\librar~1\cmsis\include\core_cm4.h **** #define DWT_FUNCTION_MATCHED_Pos           24U                                         /*!< DWT FUN
1007:c:\users\niels\docume~1\elektr~1\jaar3~1\dspl\software\stm32b~1\hal\gemeen~1\librar~1\cmsis\include\core_cm4.h **** #define DWT_FUNCTION_MATCHED_Msk           (0x1UL << DWT_FUNCTION_MATCHED_Pos)         /*!< DWT FUN
1008:c:\users\niels\docume~1\elektr~1\jaar3~1\dspl\software\stm32b~1\hal\gemeen~1\librar~1\cmsis\include\core_cm4.h **** 
1009:c:\users\niels\docume~1\elektr~1\jaar3~1\dspl\software\stm32b~1\hal\gemeen~1\librar~1\cmsis\include\core_cm4.h **** #define DWT_FUNCTION_DATAVADDR1_Pos        16U                                         /*!< DWT FUN
1010:c:\users\niels\docume~1\elektr~1\jaar3~1\dspl\software\stm32b~1\hal\gemeen~1\librar~1\cmsis\include\core_cm4.h **** #define DWT_FUNCTION_DATAVADDR1_Msk        (0xFUL << DWT_FUNCTION_DATAVADDR1_Pos)      /*!< DWT FUN
1011:c:\users\niels\docume~1\elektr~1\jaar3~1\dspl\software\stm32b~1\hal\gemeen~1\librar~1\cmsis\include\core_cm4.h **** 
1012:c:\users\niels\docume~1\elektr~1\jaar3~1\dspl\software\stm32b~1\hal\gemeen~1\librar~1\cmsis\include\core_cm4.h **** #define DWT_FUNCTION_DATAVADDR0_Pos        12U                                         /*!< DWT FUN
1013:c:\users\niels\docume~1\elektr~1\jaar3~1\dspl\software\stm32b~1\hal\gemeen~1\librar~1\cmsis\include\core_cm4.h **** #define DWT_FUNCTION_DATAVADDR0_Msk        (0xFUL << DWT_FUNCTION_DATAVADDR0_Pos)      /*!< DWT FUN
1014:c:\users\niels\docume~1\elektr~1\jaar3~1\dspl\software\stm32b~1\hal\gemeen~1\librar~1\cmsis\include\core_cm4.h **** 
1015:c:\users\niels\docume~1\elektr~1\jaar3~1\dspl\software\stm32b~1\hal\gemeen~1\librar~1\cmsis\include\core_cm4.h **** #define DWT_FUNCTION_DATAVSIZE_Pos         10U                                         /*!< DWT FUN
1016:c:\users\niels\docume~1\elektr~1\jaar3~1\dspl\software\stm32b~1\hal\gemeen~1\librar~1\cmsis\include\core_cm4.h **** #define DWT_FUNCTION_DATAVSIZE_Msk         (0x3UL << DWT_FUNCTION_DATAVSIZE_Pos)       /*!< DWT FUN
1017:c:\users\niels\docume~1\elektr~1\jaar3~1\dspl\software\stm32b~1\hal\gemeen~1\librar~1\cmsis\include\core_cm4.h **** 
1018:c:\users\niels\docume~1\elektr~1\jaar3~1\dspl\software\stm32b~1\hal\gemeen~1\librar~1\cmsis\include\core_cm4.h **** #define DWT_FUNCTION_LNK1ENA_Pos            9U                                         /*!< DWT FUN
1019:c:\users\niels\docume~1\elektr~1\jaar3~1\dspl\software\stm32b~1\hal\gemeen~1\librar~1\cmsis\include\core_cm4.h **** #define DWT_FUNCTION_LNK1ENA_Msk           (0x1UL << DWT_FUNCTION_LNK1ENA_Pos)         /*!< DWT FUN
1020:c:\users\niels\docume~1\elektr~1\jaar3~1\dspl\software\stm32b~1\hal\gemeen~1\librar~1\cmsis\include\core_cm4.h **** 
1021:c:\users\niels\docume~1\elektr~1\jaar3~1\dspl\software\stm32b~1\hal\gemeen~1\librar~1\cmsis\include\core_cm4.h **** #define DWT_FUNCTION_DATAVMATCH_Pos         8U                                         /*!< DWT FUN
1022:c:\users\niels\docume~1\elektr~1\jaar3~1\dspl\software\stm32b~1\hal\gemeen~1\librar~1\cmsis\include\core_cm4.h **** #define DWT_FUNCTION_DATAVMATCH_Msk        (0x1UL << DWT_FUNCTION_DATAVMATCH_Pos)      /*!< DWT FUN
1023:c:\users\niels\docume~1\elektr~1\jaar3~1\dspl\software\stm32b~1\hal\gemeen~1\librar~1\cmsis\include\core_cm4.h **** 
1024:c:\users\niels\docume~1\elektr~1\jaar3~1\dspl\software\stm32b~1\hal\gemeen~1\librar~1\cmsis\include\core_cm4.h **** #define DWT_FUNCTION_CYCMATCH_Pos           7U                                         /*!< DWT FUN
1025:c:\users\niels\docume~1\elektr~1\jaar3~1\dspl\software\stm32b~1\hal\gemeen~1\librar~1\cmsis\include\core_cm4.h **** #define DWT_FUNCTION_CYCMATCH_Msk          (0x1UL << DWT_FUNCTION_CYCMATCH_Pos)        /*!< DWT FUN
1026:c:\users\niels\docume~1\elektr~1\jaar3~1\dspl\software\stm32b~1\hal\gemeen~1\librar~1\cmsis\include\core_cm4.h **** 
1027:c:\users\niels\docume~1\elektr~1\jaar3~1\dspl\software\stm32b~1\hal\gemeen~1\librar~1\cmsis\include\core_cm4.h **** #define DWT_FUNCTION_EMITRANGE_Pos          5U                                         /*!< DWT FUN
1028:c:\users\niels\docume~1\elektr~1\jaar3~1\dspl\software\stm32b~1\hal\gemeen~1\librar~1\cmsis\include\core_cm4.h **** #define DWT_FUNCTION_EMITRANGE_Msk         (0x1UL << DWT_FUNCTION_EMITRANGE_Pos)       /*!< DWT FUN
1029:c:\users\niels\docume~1\elektr~1\jaar3~1\dspl\software\stm32b~1\hal\gemeen~1\librar~1\cmsis\include\core_cm4.h **** 
1030:c:\users\niels\docume~1\elektr~1\jaar3~1\dspl\software\stm32b~1\hal\gemeen~1\librar~1\cmsis\include\core_cm4.h **** #define DWT_FUNCTION_FUNCTION_Pos           0U                                         /*!< DWT FUN
1031:c:\users\niels\docume~1\elektr~1\jaar3~1\dspl\software\stm32b~1\hal\gemeen~1\librar~1\cmsis\include\core_cm4.h **** #define DWT_FUNCTION_FUNCTION_Msk          (0xFUL /*<< DWT_FUNCTION_FUNCTION_Pos*/)    /*!< DWT FUN
1032:c:\users\niels\docume~1\elektr~1\jaar3~1\dspl\software\stm32b~1\hal\gemeen~1\librar~1\cmsis\include\core_cm4.h **** 
1033:c:\users\niels\docume~1\elektr~1\jaar3~1\dspl\software\stm32b~1\hal\gemeen~1\librar~1\cmsis\include\core_cm4.h **** /*@}*/ /* end of group CMSIS_DWT */
1034:c:\users\niels\docume~1\elektr~1\jaar3~1\dspl\software\stm32b~1\hal\gemeen~1\librar~1\cmsis\include\core_cm4.h **** 
1035:c:\users\niels\docume~1\elektr~1\jaar3~1\dspl\software\stm32b~1\hal\gemeen~1\librar~1\cmsis\include\core_cm4.h **** 
1036:c:\users\niels\docume~1\elektr~1\jaar3~1\dspl\software\stm32b~1\hal\gemeen~1\librar~1\cmsis\include\core_cm4.h **** /**
1037:c:\users\niels\docume~1\elektr~1\jaar3~1\dspl\software\stm32b~1\hal\gemeen~1\librar~1\cmsis\include\core_cm4.h ****   \ingroup  CMSIS_core_register
1038:c:\users\niels\docume~1\elektr~1\jaar3~1\dspl\software\stm32b~1\hal\gemeen~1\librar~1\cmsis\include\core_cm4.h ****   \defgroup CMSIS_TPI     Trace Port Interface (TPI)
1039:c:\users\niels\docume~1\elektr~1\jaar3~1\dspl\software\stm32b~1\hal\gemeen~1\librar~1\cmsis\include\core_cm4.h ****   \brief    Type definitions for the Trace Port Interface (TPI)
1040:c:\users\niels\docume~1\elektr~1\jaar3~1\dspl\software\stm32b~1\hal\gemeen~1\librar~1\cmsis\include\core_cm4.h ****   @{
1041:c:\users\niels\docume~1\elektr~1\jaar3~1\dspl\software\stm32b~1\hal\gemeen~1\librar~1\cmsis\include\core_cm4.h ****  */
1042:c:\users\niels\docume~1\elektr~1\jaar3~1\dspl\software\stm32b~1\hal\gemeen~1\librar~1\cmsis\include\core_cm4.h **** 
1043:c:\users\niels\docume~1\elektr~1\jaar3~1\dspl\software\stm32b~1\hal\gemeen~1\librar~1\cmsis\include\core_cm4.h **** /**
1044:c:\users\niels\docume~1\elektr~1\jaar3~1\dspl\software\stm32b~1\hal\gemeen~1\librar~1\cmsis\include\core_cm4.h ****   \brief  Structure type to access the Trace Port Interface Register (TPI).
1045:c:\users\niels\docume~1\elektr~1\jaar3~1\dspl\software\stm32b~1\hal\gemeen~1\librar~1\cmsis\include\core_cm4.h ****  */
1046:c:\users\niels\docume~1\elektr~1\jaar3~1\dspl\software\stm32b~1\hal\gemeen~1\librar~1\cmsis\include\core_cm4.h **** typedef struct
1047:c:\users\niels\docume~1\elektr~1\jaar3~1\dspl\software\stm32b~1\hal\gemeen~1\librar~1\cmsis\include\core_cm4.h **** {
1048:c:\users\niels\docume~1\elektr~1\jaar3~1\dspl\software\stm32b~1\hal\gemeen~1\librar~1\cmsis\include\core_cm4.h ****   __IOM uint32_t SSPSR;                  /*!< Offset: 0x000 (R/ )  Supported Parallel Port Size Reg
1049:c:\users\niels\docume~1\elektr~1\jaar3~1\dspl\software\stm32b~1\hal\gemeen~1\librar~1\cmsis\include\core_cm4.h ****   __IOM uint32_t CSPSR;                  /*!< Offset: 0x004 (R/W)  Current Parallel Port Size Regis
1050:c:\users\niels\docume~1\elektr~1\jaar3~1\dspl\software\stm32b~1\hal\gemeen~1\librar~1\cmsis\include\core_cm4.h ****         uint32_t RESERVED0[2U];
1051:c:\users\niels\docume~1\elektr~1\jaar3~1\dspl\software\stm32b~1\hal\gemeen~1\librar~1\cmsis\include\core_cm4.h ****   __IOM uint32_t ACPR;                   /*!< Offset: 0x010 (R/W)  Asynchronous Clock Prescaler Reg
1052:c:\users\niels\docume~1\elektr~1\jaar3~1\dspl\software\stm32b~1\hal\gemeen~1\librar~1\cmsis\include\core_cm4.h ****         uint32_t RESERVED1[55U];
1053:c:\users\niels\docume~1\elektr~1\jaar3~1\dspl\software\stm32b~1\hal\gemeen~1\librar~1\cmsis\include\core_cm4.h ****   __IOM uint32_t SPPR;                   /*!< Offset: 0x0F0 (R/W)  Selected Pin Protocol Register *
1054:c:\users\niels\docume~1\elektr~1\jaar3~1\dspl\software\stm32b~1\hal\gemeen~1\librar~1\cmsis\include\core_cm4.h ****         uint32_t RESERVED2[131U];
1055:c:\users\niels\docume~1\elektr~1\jaar3~1\dspl\software\stm32b~1\hal\gemeen~1\librar~1\cmsis\include\core_cm4.h ****   __IM  uint32_t FFSR;                   /*!< Offset: 0x300 (R/ )  Formatter and Flush Status Regis
1056:c:\users\niels\docume~1\elektr~1\jaar3~1\dspl\software\stm32b~1\hal\gemeen~1\librar~1\cmsis\include\core_cm4.h ****   __IOM uint32_t FFCR;                   /*!< Offset: 0x304 (R/W)  Formatter and Flush Control Regi
1057:c:\users\niels\docume~1\elektr~1\jaar3~1\dspl\software\stm32b~1\hal\gemeen~1\librar~1\cmsis\include\core_cm4.h ****   __IM  uint32_t FSCR;                   /*!< Offset: 0x308 (R/ )  Formatter Synchronization Counte
1058:c:\users\niels\docume~1\elektr~1\jaar3~1\dspl\software\stm32b~1\hal\gemeen~1\librar~1\cmsis\include\core_cm4.h ****         uint32_t RESERVED3[759U];
1059:c:\users\niels\docume~1\elektr~1\jaar3~1\dspl\software\stm32b~1\hal\gemeen~1\librar~1\cmsis\include\core_cm4.h ****   __IM  uint32_t TRIGGER;                /*!< Offset: 0xEE8 (R/ )  TRIGGER */
1060:c:\users\niels\docume~1\elektr~1\jaar3~1\dspl\software\stm32b~1\hal\gemeen~1\librar~1\cmsis\include\core_cm4.h ****   __IM  uint32_t FIFO0;                  /*!< Offset: 0xEEC (R/ )  Integration ETM Data */
1061:c:\users\niels\docume~1\elektr~1\jaar3~1\dspl\software\stm32b~1\hal\gemeen~1\librar~1\cmsis\include\core_cm4.h ****   __IM  uint32_t ITATBCTR2;              /*!< Offset: 0xEF0 (R/ )  ITATBCTR2 */
ARM GAS   			page 26


1062:c:\users\niels\docume~1\elektr~1\jaar3~1\dspl\software\stm32b~1\hal\gemeen~1\librar~1\cmsis\include\core_cm4.h ****         uint32_t RESERVED4[1U];
1063:c:\users\niels\docume~1\elektr~1\jaar3~1\dspl\software\stm32b~1\hal\gemeen~1\librar~1\cmsis\include\core_cm4.h ****   __IM  uint32_t ITATBCTR0;              /*!< Offset: 0xEF8 (R/ )  ITATBCTR0 */
1064:c:\users\niels\docume~1\elektr~1\jaar3~1\dspl\software\stm32b~1\hal\gemeen~1\librar~1\cmsis\include\core_cm4.h ****   __IM  uint32_t FIFO1;                  /*!< Offset: 0xEFC (R/ )  Integration ITM Data */
1065:c:\users\niels\docume~1\elektr~1\jaar3~1\dspl\software\stm32b~1\hal\gemeen~1\librar~1\cmsis\include\core_cm4.h ****   __IOM uint32_t ITCTRL;                 /*!< Offset: 0xF00 (R/W)  Integration Mode Control */
1066:c:\users\niels\docume~1\elektr~1\jaar3~1\dspl\software\stm32b~1\hal\gemeen~1\librar~1\cmsis\include\core_cm4.h ****         uint32_t RESERVED5[39U];
1067:c:\users\niels\docume~1\elektr~1\jaar3~1\dspl\software\stm32b~1\hal\gemeen~1\librar~1\cmsis\include\core_cm4.h ****   __IOM uint32_t CLAIMSET;               /*!< Offset: 0xFA0 (R/W)  Claim tag set */
1068:c:\users\niels\docume~1\elektr~1\jaar3~1\dspl\software\stm32b~1\hal\gemeen~1\librar~1\cmsis\include\core_cm4.h ****   __IOM uint32_t CLAIMCLR;               /*!< Offset: 0xFA4 (R/W)  Claim tag clear */
1069:c:\users\niels\docume~1\elektr~1\jaar3~1\dspl\software\stm32b~1\hal\gemeen~1\librar~1\cmsis\include\core_cm4.h ****         uint32_t RESERVED7[8U];
1070:c:\users\niels\docume~1\elektr~1\jaar3~1\dspl\software\stm32b~1\hal\gemeen~1\librar~1\cmsis\include\core_cm4.h ****   __IM  uint32_t DEVID;                  /*!< Offset: 0xFC8 (R/ )  TPIU_DEVID */
1071:c:\users\niels\docume~1\elektr~1\jaar3~1\dspl\software\stm32b~1\hal\gemeen~1\librar~1\cmsis\include\core_cm4.h ****   __IM  uint32_t DEVTYPE;                /*!< Offset: 0xFCC (R/ )  TPIU_DEVTYPE */
1072:c:\users\niels\docume~1\elektr~1\jaar3~1\dspl\software\stm32b~1\hal\gemeen~1\librar~1\cmsis\include\core_cm4.h **** } TPI_Type;
1073:c:\users\niels\docume~1\elektr~1\jaar3~1\dspl\software\stm32b~1\hal\gemeen~1\librar~1\cmsis\include\core_cm4.h **** 
1074:c:\users\niels\docume~1\elektr~1\jaar3~1\dspl\software\stm32b~1\hal\gemeen~1\librar~1\cmsis\include\core_cm4.h **** /* TPI Asynchronous Clock Prescaler Register Definitions */
1075:c:\users\niels\docume~1\elektr~1\jaar3~1\dspl\software\stm32b~1\hal\gemeen~1\librar~1\cmsis\include\core_cm4.h **** #define TPI_ACPR_PRESCALER_Pos              0U                                         /*!< TPI ACP
1076:c:\users\niels\docume~1\elektr~1\jaar3~1\dspl\software\stm32b~1\hal\gemeen~1\librar~1\cmsis\include\core_cm4.h **** #define TPI_ACPR_PRESCALER_Msk             (0x1FFFUL /*<< TPI_ACPR_PRESCALER_Pos*/)    /*!< TPI ACP
1077:c:\users\niels\docume~1\elektr~1\jaar3~1\dspl\software\stm32b~1\hal\gemeen~1\librar~1\cmsis\include\core_cm4.h **** 
1078:c:\users\niels\docume~1\elektr~1\jaar3~1\dspl\software\stm32b~1\hal\gemeen~1\librar~1\cmsis\include\core_cm4.h **** /* TPI Selected Pin Protocol Register Definitions */
1079:c:\users\niels\docume~1\elektr~1\jaar3~1\dspl\software\stm32b~1\hal\gemeen~1\librar~1\cmsis\include\core_cm4.h **** #define TPI_SPPR_TXMODE_Pos                 0U                                         /*!< TPI SPP
1080:c:\users\niels\docume~1\elektr~1\jaar3~1\dspl\software\stm32b~1\hal\gemeen~1\librar~1\cmsis\include\core_cm4.h **** #define TPI_SPPR_TXMODE_Msk                (0x3UL /*<< TPI_SPPR_TXMODE_Pos*/)          /*!< TPI SPP
1081:c:\users\niels\docume~1\elektr~1\jaar3~1\dspl\software\stm32b~1\hal\gemeen~1\librar~1\cmsis\include\core_cm4.h **** 
1082:c:\users\niels\docume~1\elektr~1\jaar3~1\dspl\software\stm32b~1\hal\gemeen~1\librar~1\cmsis\include\core_cm4.h **** /* TPI Formatter and Flush Status Register Definitions */
1083:c:\users\niels\docume~1\elektr~1\jaar3~1\dspl\software\stm32b~1\hal\gemeen~1\librar~1\cmsis\include\core_cm4.h **** #define TPI_FFSR_FtNonStop_Pos              3U                                         /*!< TPI FFS
1084:c:\users\niels\docume~1\elektr~1\jaar3~1\dspl\software\stm32b~1\hal\gemeen~1\librar~1\cmsis\include\core_cm4.h **** #define TPI_FFSR_FtNonStop_Msk             (0x1UL << TPI_FFSR_FtNonStop_Pos)           /*!< TPI FFS
1085:c:\users\niels\docume~1\elektr~1\jaar3~1\dspl\software\stm32b~1\hal\gemeen~1\librar~1\cmsis\include\core_cm4.h **** 
1086:c:\users\niels\docume~1\elektr~1\jaar3~1\dspl\software\stm32b~1\hal\gemeen~1\librar~1\cmsis\include\core_cm4.h **** #define TPI_FFSR_TCPresent_Pos              2U                                         /*!< TPI FFS
1087:c:\users\niels\docume~1\elektr~1\jaar3~1\dspl\software\stm32b~1\hal\gemeen~1\librar~1\cmsis\include\core_cm4.h **** #define TPI_FFSR_TCPresent_Msk             (0x1UL << TPI_FFSR_TCPresent_Pos)           /*!< TPI FFS
1088:c:\users\niels\docume~1\elektr~1\jaar3~1\dspl\software\stm32b~1\hal\gemeen~1\librar~1\cmsis\include\core_cm4.h **** 
1089:c:\users\niels\docume~1\elektr~1\jaar3~1\dspl\software\stm32b~1\hal\gemeen~1\librar~1\cmsis\include\core_cm4.h **** #define TPI_FFSR_FtStopped_Pos              1U                                         /*!< TPI FFS
1090:c:\users\niels\docume~1\elektr~1\jaar3~1\dspl\software\stm32b~1\hal\gemeen~1\librar~1\cmsis\include\core_cm4.h **** #define TPI_FFSR_FtStopped_Msk             (0x1UL << TPI_FFSR_FtStopped_Pos)           /*!< TPI FFS
1091:c:\users\niels\docume~1\elektr~1\jaar3~1\dspl\software\stm32b~1\hal\gemeen~1\librar~1\cmsis\include\core_cm4.h **** 
1092:c:\users\niels\docume~1\elektr~1\jaar3~1\dspl\software\stm32b~1\hal\gemeen~1\librar~1\cmsis\include\core_cm4.h **** #define TPI_FFSR_FlInProg_Pos               0U                                         /*!< TPI FFS
1093:c:\users\niels\docume~1\elektr~1\jaar3~1\dspl\software\stm32b~1\hal\gemeen~1\librar~1\cmsis\include\core_cm4.h **** #define TPI_FFSR_FlInProg_Msk              (0x1UL /*<< TPI_FFSR_FlInProg_Pos*/)        /*!< TPI FFS
1094:c:\users\niels\docume~1\elektr~1\jaar3~1\dspl\software\stm32b~1\hal\gemeen~1\librar~1\cmsis\include\core_cm4.h **** 
1095:c:\users\niels\docume~1\elektr~1\jaar3~1\dspl\software\stm32b~1\hal\gemeen~1\librar~1\cmsis\include\core_cm4.h **** /* TPI Formatter and Flush Control Register Definitions */
1096:c:\users\niels\docume~1\elektr~1\jaar3~1\dspl\software\stm32b~1\hal\gemeen~1\librar~1\cmsis\include\core_cm4.h **** #define TPI_FFCR_TrigIn_Pos                 8U                                         /*!< TPI FFC
1097:c:\users\niels\docume~1\elektr~1\jaar3~1\dspl\software\stm32b~1\hal\gemeen~1\librar~1\cmsis\include\core_cm4.h **** #define TPI_FFCR_TrigIn_Msk                (0x1UL << TPI_FFCR_TrigIn_Pos)              /*!< TPI FFC
1098:c:\users\niels\docume~1\elektr~1\jaar3~1\dspl\software\stm32b~1\hal\gemeen~1\librar~1\cmsis\include\core_cm4.h **** 
1099:c:\users\niels\docume~1\elektr~1\jaar3~1\dspl\software\stm32b~1\hal\gemeen~1\librar~1\cmsis\include\core_cm4.h **** #define TPI_FFCR_EnFCont_Pos                1U                                         /*!< TPI FFC
1100:c:\users\niels\docume~1\elektr~1\jaar3~1\dspl\software\stm32b~1\hal\gemeen~1\librar~1\cmsis\include\core_cm4.h **** #define TPI_FFCR_EnFCont_Msk               (0x1UL << TPI_FFCR_EnFCont_Pos)             /*!< TPI FFC
1101:c:\users\niels\docume~1\elektr~1\jaar3~1\dspl\software\stm32b~1\hal\gemeen~1\librar~1\cmsis\include\core_cm4.h **** 
1102:c:\users\niels\docume~1\elektr~1\jaar3~1\dspl\software\stm32b~1\hal\gemeen~1\librar~1\cmsis\include\core_cm4.h **** /* TPI TRIGGER Register Definitions */
1103:c:\users\niels\docume~1\elektr~1\jaar3~1\dspl\software\stm32b~1\hal\gemeen~1\librar~1\cmsis\include\core_cm4.h **** #define TPI_TRIGGER_TRIGGER_Pos             0U                                         /*!< TPI TRI
1104:c:\users\niels\docume~1\elektr~1\jaar3~1\dspl\software\stm32b~1\hal\gemeen~1\librar~1\cmsis\include\core_cm4.h **** #define TPI_TRIGGER_TRIGGER_Msk            (0x1UL /*<< TPI_TRIGGER_TRIGGER_Pos*/)      /*!< TPI TRI
1105:c:\users\niels\docume~1\elektr~1\jaar3~1\dspl\software\stm32b~1\hal\gemeen~1\librar~1\cmsis\include\core_cm4.h **** 
1106:c:\users\niels\docume~1\elektr~1\jaar3~1\dspl\software\stm32b~1\hal\gemeen~1\librar~1\cmsis\include\core_cm4.h **** /* TPI Integration ETM Data Register Definitions (FIFO0) */
1107:c:\users\niels\docume~1\elektr~1\jaar3~1\dspl\software\stm32b~1\hal\gemeen~1\librar~1\cmsis\include\core_cm4.h **** #define TPI_FIFO0_ITM_ATVALID_Pos          29U                                         /*!< TPI FIF
1108:c:\users\niels\docume~1\elektr~1\jaar3~1\dspl\software\stm32b~1\hal\gemeen~1\librar~1\cmsis\include\core_cm4.h **** #define TPI_FIFO0_ITM_ATVALID_Msk          (0x3UL << TPI_FIFO0_ITM_ATVALID_Pos)        /*!< TPI FIF
1109:c:\users\niels\docume~1\elektr~1\jaar3~1\dspl\software\stm32b~1\hal\gemeen~1\librar~1\cmsis\include\core_cm4.h **** 
1110:c:\users\niels\docume~1\elektr~1\jaar3~1\dspl\software\stm32b~1\hal\gemeen~1\librar~1\cmsis\include\core_cm4.h **** #define TPI_FIFO0_ITM_bytecount_Pos        27U                                         /*!< TPI FIF
1111:c:\users\niels\docume~1\elektr~1\jaar3~1\dspl\software\stm32b~1\hal\gemeen~1\librar~1\cmsis\include\core_cm4.h **** #define TPI_FIFO0_ITM_bytecount_Msk        (0x3UL << TPI_FIFO0_ITM_bytecount_Pos)      /*!< TPI FIF
1112:c:\users\niels\docume~1\elektr~1\jaar3~1\dspl\software\stm32b~1\hal\gemeen~1\librar~1\cmsis\include\core_cm4.h **** 
1113:c:\users\niels\docume~1\elektr~1\jaar3~1\dspl\software\stm32b~1\hal\gemeen~1\librar~1\cmsis\include\core_cm4.h **** #define TPI_FIFO0_ETM_ATVALID_Pos          26U                                         /*!< TPI FIF
1114:c:\users\niels\docume~1\elektr~1\jaar3~1\dspl\software\stm32b~1\hal\gemeen~1\librar~1\cmsis\include\core_cm4.h **** #define TPI_FIFO0_ETM_ATVALID_Msk          (0x3UL << TPI_FIFO0_ETM_ATVALID_Pos)        /*!< TPI FIF
1115:c:\users\niels\docume~1\elektr~1\jaar3~1\dspl\software\stm32b~1\hal\gemeen~1\librar~1\cmsis\include\core_cm4.h **** 
1116:c:\users\niels\docume~1\elektr~1\jaar3~1\dspl\software\stm32b~1\hal\gemeen~1\librar~1\cmsis\include\core_cm4.h **** #define TPI_FIFO0_ETM_bytecount_Pos        24U                                         /*!< TPI FIF
1117:c:\users\niels\docume~1\elektr~1\jaar3~1\dspl\software\stm32b~1\hal\gemeen~1\librar~1\cmsis\include\core_cm4.h **** #define TPI_FIFO0_ETM_bytecount_Msk        (0x3UL << TPI_FIFO0_ETM_bytecount_Pos)      /*!< TPI FIF
1118:c:\users\niels\docume~1\elektr~1\jaar3~1\dspl\software\stm32b~1\hal\gemeen~1\librar~1\cmsis\include\core_cm4.h **** 
ARM GAS   			page 27


1119:c:\users\niels\docume~1\elektr~1\jaar3~1\dspl\software\stm32b~1\hal\gemeen~1\librar~1\cmsis\include\core_cm4.h **** #define TPI_FIFO0_ETM2_Pos                 16U                                         /*!< TPI FIF
1120:c:\users\niels\docume~1\elektr~1\jaar3~1\dspl\software\stm32b~1\hal\gemeen~1\librar~1\cmsis\include\core_cm4.h **** #define TPI_FIFO0_ETM2_Msk                 (0xFFUL << TPI_FIFO0_ETM2_Pos)              /*!< TPI FIF
1121:c:\users\niels\docume~1\elektr~1\jaar3~1\dspl\software\stm32b~1\hal\gemeen~1\librar~1\cmsis\include\core_cm4.h **** 
1122:c:\users\niels\docume~1\elektr~1\jaar3~1\dspl\software\stm32b~1\hal\gemeen~1\librar~1\cmsis\include\core_cm4.h **** #define TPI_FIFO0_ETM1_Pos                  8U                                         /*!< TPI FIF
1123:c:\users\niels\docume~1\elektr~1\jaar3~1\dspl\software\stm32b~1\hal\gemeen~1\librar~1\cmsis\include\core_cm4.h **** #define TPI_FIFO0_ETM1_Msk                 (0xFFUL << TPI_FIFO0_ETM1_Pos)              /*!< TPI FIF
1124:c:\users\niels\docume~1\elektr~1\jaar3~1\dspl\software\stm32b~1\hal\gemeen~1\librar~1\cmsis\include\core_cm4.h **** 
1125:c:\users\niels\docume~1\elektr~1\jaar3~1\dspl\software\stm32b~1\hal\gemeen~1\librar~1\cmsis\include\core_cm4.h **** #define TPI_FIFO0_ETM0_Pos                  0U                                         /*!< TPI FIF
1126:c:\users\niels\docume~1\elektr~1\jaar3~1\dspl\software\stm32b~1\hal\gemeen~1\librar~1\cmsis\include\core_cm4.h **** #define TPI_FIFO0_ETM0_Msk                 (0xFFUL /*<< TPI_FIFO0_ETM0_Pos*/)          /*!< TPI FIF
1127:c:\users\niels\docume~1\elektr~1\jaar3~1\dspl\software\stm32b~1\hal\gemeen~1\librar~1\cmsis\include\core_cm4.h **** 
1128:c:\users\niels\docume~1\elektr~1\jaar3~1\dspl\software\stm32b~1\hal\gemeen~1\librar~1\cmsis\include\core_cm4.h **** /* TPI ITATBCTR2 Register Definitions */
1129:c:\users\niels\docume~1\elektr~1\jaar3~1\dspl\software\stm32b~1\hal\gemeen~1\librar~1\cmsis\include\core_cm4.h **** #define TPI_ITATBCTR2_ATREADY_Pos           0U                                         /*!< TPI ITA
1130:c:\users\niels\docume~1\elektr~1\jaar3~1\dspl\software\stm32b~1\hal\gemeen~1\librar~1\cmsis\include\core_cm4.h **** #define TPI_ITATBCTR2_ATREADY_Msk          (0x1UL /*<< TPI_ITATBCTR2_ATREADY_Pos*/)    /*!< TPI ITA
1131:c:\users\niels\docume~1\elektr~1\jaar3~1\dspl\software\stm32b~1\hal\gemeen~1\librar~1\cmsis\include\core_cm4.h **** 
1132:c:\users\niels\docume~1\elektr~1\jaar3~1\dspl\software\stm32b~1\hal\gemeen~1\librar~1\cmsis\include\core_cm4.h **** /* TPI Integration ITM Data Register Definitions (FIFO1) */
1133:c:\users\niels\docume~1\elektr~1\jaar3~1\dspl\software\stm32b~1\hal\gemeen~1\librar~1\cmsis\include\core_cm4.h **** #define TPI_FIFO1_ITM_ATVALID_Pos          29U                                         /*!< TPI FIF
1134:c:\users\niels\docume~1\elektr~1\jaar3~1\dspl\software\stm32b~1\hal\gemeen~1\librar~1\cmsis\include\core_cm4.h **** #define TPI_FIFO1_ITM_ATVALID_Msk          (0x3UL << TPI_FIFO1_ITM_ATVALID_Pos)        /*!< TPI FIF
1135:c:\users\niels\docume~1\elektr~1\jaar3~1\dspl\software\stm32b~1\hal\gemeen~1\librar~1\cmsis\include\core_cm4.h **** 
1136:c:\users\niels\docume~1\elektr~1\jaar3~1\dspl\software\stm32b~1\hal\gemeen~1\librar~1\cmsis\include\core_cm4.h **** #define TPI_FIFO1_ITM_bytecount_Pos        27U                                         /*!< TPI FIF
1137:c:\users\niels\docume~1\elektr~1\jaar3~1\dspl\software\stm32b~1\hal\gemeen~1\librar~1\cmsis\include\core_cm4.h **** #define TPI_FIFO1_ITM_bytecount_Msk        (0x3UL << TPI_FIFO1_ITM_bytecount_Pos)      /*!< TPI FIF
1138:c:\users\niels\docume~1\elektr~1\jaar3~1\dspl\software\stm32b~1\hal\gemeen~1\librar~1\cmsis\include\core_cm4.h **** 
1139:c:\users\niels\docume~1\elektr~1\jaar3~1\dspl\software\stm32b~1\hal\gemeen~1\librar~1\cmsis\include\core_cm4.h **** #define TPI_FIFO1_ETM_ATVALID_Pos          26U                                         /*!< TPI FIF
1140:c:\users\niels\docume~1\elektr~1\jaar3~1\dspl\software\stm32b~1\hal\gemeen~1\librar~1\cmsis\include\core_cm4.h **** #define TPI_FIFO1_ETM_ATVALID_Msk          (0x3UL << TPI_FIFO1_ETM_ATVALID_Pos)        /*!< TPI FIF
1141:c:\users\niels\docume~1\elektr~1\jaar3~1\dspl\software\stm32b~1\hal\gemeen~1\librar~1\cmsis\include\core_cm4.h **** 
1142:c:\users\niels\docume~1\elektr~1\jaar3~1\dspl\software\stm32b~1\hal\gemeen~1\librar~1\cmsis\include\core_cm4.h **** #define TPI_FIFO1_ETM_bytecount_Pos        24U                                         /*!< TPI FIF
1143:c:\users\niels\docume~1\elektr~1\jaar3~1\dspl\software\stm32b~1\hal\gemeen~1\librar~1\cmsis\include\core_cm4.h **** #define TPI_FIFO1_ETM_bytecount_Msk        (0x3UL << TPI_FIFO1_ETM_bytecount_Pos)      /*!< TPI FIF
1144:c:\users\niels\docume~1\elektr~1\jaar3~1\dspl\software\stm32b~1\hal\gemeen~1\librar~1\cmsis\include\core_cm4.h **** 
1145:c:\users\niels\docume~1\elektr~1\jaar3~1\dspl\software\stm32b~1\hal\gemeen~1\librar~1\cmsis\include\core_cm4.h **** #define TPI_FIFO1_ITM2_Pos                 16U                                         /*!< TPI FIF
1146:c:\users\niels\docume~1\elektr~1\jaar3~1\dspl\software\stm32b~1\hal\gemeen~1\librar~1\cmsis\include\core_cm4.h **** #define TPI_FIFO1_ITM2_Msk                 (0xFFUL << TPI_FIFO1_ITM2_Pos)              /*!< TPI FIF
1147:c:\users\niels\docume~1\elektr~1\jaar3~1\dspl\software\stm32b~1\hal\gemeen~1\librar~1\cmsis\include\core_cm4.h **** 
1148:c:\users\niels\docume~1\elektr~1\jaar3~1\dspl\software\stm32b~1\hal\gemeen~1\librar~1\cmsis\include\core_cm4.h **** #define TPI_FIFO1_ITM1_Pos                  8U                                         /*!< TPI FIF
1149:c:\users\niels\docume~1\elektr~1\jaar3~1\dspl\software\stm32b~1\hal\gemeen~1\librar~1\cmsis\include\core_cm4.h **** #define TPI_FIFO1_ITM1_Msk                 (0xFFUL << TPI_FIFO1_ITM1_Pos)              /*!< TPI FIF
1150:c:\users\niels\docume~1\elektr~1\jaar3~1\dspl\software\stm32b~1\hal\gemeen~1\librar~1\cmsis\include\core_cm4.h **** 
1151:c:\users\niels\docume~1\elektr~1\jaar3~1\dspl\software\stm32b~1\hal\gemeen~1\librar~1\cmsis\include\core_cm4.h **** #define TPI_FIFO1_ITM0_Pos                  0U                                         /*!< TPI FIF
1152:c:\users\niels\docume~1\elektr~1\jaar3~1\dspl\software\stm32b~1\hal\gemeen~1\librar~1\cmsis\include\core_cm4.h **** #define TPI_FIFO1_ITM0_Msk                 (0xFFUL /*<< TPI_FIFO1_ITM0_Pos*/)          /*!< TPI FIF
1153:c:\users\niels\docume~1\elektr~1\jaar3~1\dspl\software\stm32b~1\hal\gemeen~1\librar~1\cmsis\include\core_cm4.h **** 
1154:c:\users\niels\docume~1\elektr~1\jaar3~1\dspl\software\stm32b~1\hal\gemeen~1\librar~1\cmsis\include\core_cm4.h **** /* TPI ITATBCTR0 Register Definitions */
1155:c:\users\niels\docume~1\elektr~1\jaar3~1\dspl\software\stm32b~1\hal\gemeen~1\librar~1\cmsis\include\core_cm4.h **** #define TPI_ITATBCTR0_ATREADY_Pos           0U                                         /*!< TPI ITA
1156:c:\users\niels\docume~1\elektr~1\jaar3~1\dspl\software\stm32b~1\hal\gemeen~1\librar~1\cmsis\include\core_cm4.h **** #define TPI_ITATBCTR0_ATREADY_Msk          (0x1UL /*<< TPI_ITATBCTR0_ATREADY_Pos*/)    /*!< TPI ITA
1157:c:\users\niels\docume~1\elektr~1\jaar3~1\dspl\software\stm32b~1\hal\gemeen~1\librar~1\cmsis\include\core_cm4.h **** 
1158:c:\users\niels\docume~1\elektr~1\jaar3~1\dspl\software\stm32b~1\hal\gemeen~1\librar~1\cmsis\include\core_cm4.h **** /* TPI Integration Mode Control Register Definitions */
1159:c:\users\niels\docume~1\elektr~1\jaar3~1\dspl\software\stm32b~1\hal\gemeen~1\librar~1\cmsis\include\core_cm4.h **** #define TPI_ITCTRL_Mode_Pos                 0U                                         /*!< TPI ITC
1160:c:\users\niels\docume~1\elektr~1\jaar3~1\dspl\software\stm32b~1\hal\gemeen~1\librar~1\cmsis\include\core_cm4.h **** #define TPI_ITCTRL_Mode_Msk                (0x1UL /*<< TPI_ITCTRL_Mode_Pos*/)          /*!< TPI ITC
1161:c:\users\niels\docume~1\elektr~1\jaar3~1\dspl\software\stm32b~1\hal\gemeen~1\librar~1\cmsis\include\core_cm4.h **** 
1162:c:\users\niels\docume~1\elektr~1\jaar3~1\dspl\software\stm32b~1\hal\gemeen~1\librar~1\cmsis\include\core_cm4.h **** /* TPI DEVID Register Definitions */
1163:c:\users\niels\docume~1\elektr~1\jaar3~1\dspl\software\stm32b~1\hal\gemeen~1\librar~1\cmsis\include\core_cm4.h **** #define TPI_DEVID_NRZVALID_Pos             11U                                         /*!< TPI DEV
1164:c:\users\niels\docume~1\elektr~1\jaar3~1\dspl\software\stm32b~1\hal\gemeen~1\librar~1\cmsis\include\core_cm4.h **** #define TPI_DEVID_NRZVALID_Msk             (0x1UL << TPI_DEVID_NRZVALID_Pos)           /*!< TPI DEV
1165:c:\users\niels\docume~1\elektr~1\jaar3~1\dspl\software\stm32b~1\hal\gemeen~1\librar~1\cmsis\include\core_cm4.h **** 
1166:c:\users\niels\docume~1\elektr~1\jaar3~1\dspl\software\stm32b~1\hal\gemeen~1\librar~1\cmsis\include\core_cm4.h **** #define TPI_DEVID_MANCVALID_Pos            10U                                         /*!< TPI DEV
1167:c:\users\niels\docume~1\elektr~1\jaar3~1\dspl\software\stm32b~1\hal\gemeen~1\librar~1\cmsis\include\core_cm4.h **** #define TPI_DEVID_MANCVALID_Msk            (0x1UL << TPI_DEVID_MANCVALID_Pos)          /*!< TPI DEV
1168:c:\users\niels\docume~1\elektr~1\jaar3~1\dspl\software\stm32b~1\hal\gemeen~1\librar~1\cmsis\include\core_cm4.h **** 
1169:c:\users\niels\docume~1\elektr~1\jaar3~1\dspl\software\stm32b~1\hal\gemeen~1\librar~1\cmsis\include\core_cm4.h **** #define TPI_DEVID_PTINVALID_Pos             9U                                         /*!< TPI DEV
1170:c:\users\niels\docume~1\elektr~1\jaar3~1\dspl\software\stm32b~1\hal\gemeen~1\librar~1\cmsis\include\core_cm4.h **** #define TPI_DEVID_PTINVALID_Msk            (0x1UL << TPI_DEVID_PTINVALID_Pos)          /*!< TPI DEV
1171:c:\users\niels\docume~1\elektr~1\jaar3~1\dspl\software\stm32b~1\hal\gemeen~1\librar~1\cmsis\include\core_cm4.h **** 
1172:c:\users\niels\docume~1\elektr~1\jaar3~1\dspl\software\stm32b~1\hal\gemeen~1\librar~1\cmsis\include\core_cm4.h **** #define TPI_DEVID_MinBufSz_Pos              6U                                         /*!< TPI DEV
1173:c:\users\niels\docume~1\elektr~1\jaar3~1\dspl\software\stm32b~1\hal\gemeen~1\librar~1\cmsis\include\core_cm4.h **** #define TPI_DEVID_MinBufSz_Msk             (0x7UL << TPI_DEVID_MinBufSz_Pos)           /*!< TPI DEV
1174:c:\users\niels\docume~1\elektr~1\jaar3~1\dspl\software\stm32b~1\hal\gemeen~1\librar~1\cmsis\include\core_cm4.h **** 
1175:c:\users\niels\docume~1\elektr~1\jaar3~1\dspl\software\stm32b~1\hal\gemeen~1\librar~1\cmsis\include\core_cm4.h **** #define TPI_DEVID_AsynClkIn_Pos             5U                                         /*!< TPI DEV
ARM GAS   			page 28


1176:c:\users\niels\docume~1\elektr~1\jaar3~1\dspl\software\stm32b~1\hal\gemeen~1\librar~1\cmsis\include\core_cm4.h **** #define TPI_DEVID_AsynClkIn_Msk            (0x1UL << TPI_DEVID_AsynClkIn_Pos)          /*!< TPI DEV
1177:c:\users\niels\docume~1\elektr~1\jaar3~1\dspl\software\stm32b~1\hal\gemeen~1\librar~1\cmsis\include\core_cm4.h **** 
1178:c:\users\niels\docume~1\elektr~1\jaar3~1\dspl\software\stm32b~1\hal\gemeen~1\librar~1\cmsis\include\core_cm4.h **** #define TPI_DEVID_NrTraceInput_Pos          0U                                         /*!< TPI DEV
1179:c:\users\niels\docume~1\elektr~1\jaar3~1\dspl\software\stm32b~1\hal\gemeen~1\librar~1\cmsis\include\core_cm4.h **** #define TPI_DEVID_NrTraceInput_Msk         (0x1FUL /*<< TPI_DEVID_NrTraceInput_Pos*/)  /*!< TPI DEV
1180:c:\users\niels\docume~1\elektr~1\jaar3~1\dspl\software\stm32b~1\hal\gemeen~1\librar~1\cmsis\include\core_cm4.h **** 
1181:c:\users\niels\docume~1\elektr~1\jaar3~1\dspl\software\stm32b~1\hal\gemeen~1\librar~1\cmsis\include\core_cm4.h **** /* TPI DEVTYPE Register Definitions */
1182:c:\users\niels\docume~1\elektr~1\jaar3~1\dspl\software\stm32b~1\hal\gemeen~1\librar~1\cmsis\include\core_cm4.h **** #define TPI_DEVTYPE_MajorType_Pos           4U                                         /*!< TPI DEV
1183:c:\users\niels\docume~1\elektr~1\jaar3~1\dspl\software\stm32b~1\hal\gemeen~1\librar~1\cmsis\include\core_cm4.h **** #define TPI_DEVTYPE_MajorType_Msk          (0xFUL << TPI_DEVTYPE_MajorType_Pos)        /*!< TPI DEV
1184:c:\users\niels\docume~1\elektr~1\jaar3~1\dspl\software\stm32b~1\hal\gemeen~1\librar~1\cmsis\include\core_cm4.h **** 
1185:c:\users\niels\docume~1\elektr~1\jaar3~1\dspl\software\stm32b~1\hal\gemeen~1\librar~1\cmsis\include\core_cm4.h **** #define TPI_DEVTYPE_SubType_Pos             0U                                         /*!< TPI DEV
1186:c:\users\niels\docume~1\elektr~1\jaar3~1\dspl\software\stm32b~1\hal\gemeen~1\librar~1\cmsis\include\core_cm4.h **** #define TPI_DEVTYPE_SubType_Msk            (0xFUL /*<< TPI_DEVTYPE_SubType_Pos*/)      /*!< TPI DEV
1187:c:\users\niels\docume~1\elektr~1\jaar3~1\dspl\software\stm32b~1\hal\gemeen~1\librar~1\cmsis\include\core_cm4.h **** 
1188:c:\users\niels\docume~1\elektr~1\jaar3~1\dspl\software\stm32b~1\hal\gemeen~1\librar~1\cmsis\include\core_cm4.h **** /*@}*/ /* end of group CMSIS_TPI */
1189:c:\users\niels\docume~1\elektr~1\jaar3~1\dspl\software\stm32b~1\hal\gemeen~1\librar~1\cmsis\include\core_cm4.h **** 
1190:c:\users\niels\docume~1\elektr~1\jaar3~1\dspl\software\stm32b~1\hal\gemeen~1\librar~1\cmsis\include\core_cm4.h **** 
1191:c:\users\niels\docume~1\elektr~1\jaar3~1\dspl\software\stm32b~1\hal\gemeen~1\librar~1\cmsis\include\core_cm4.h **** #if (__MPU_PRESENT == 1U)
1192:c:\users\niels\docume~1\elektr~1\jaar3~1\dspl\software\stm32b~1\hal\gemeen~1\librar~1\cmsis\include\core_cm4.h **** /**
