ARM GAS   			page 1


   1              	 .cpu cortex-m4
   2              	 .arch armv7e-m
   3              	 .fpu fpv4-sp-d16
   4              	 .eabi_attribute 27,1
   5              	 .eabi_attribute 28,1
   6              	 .eabi_attribute 20,1
   7              	 .eabi_attribute 21,1
   8              	 .eabi_attribute 23,3
   9              	 .eabi_attribute 24,1
  10              	 .eabi_attribute 25,1
  11              	 .eabi_attribute 26,1
  12              	 .eabi_attribute 30,6
  13              	 .eabi_attribute 34,0
  14              	 .eabi_attribute 18,4
  15              	 .file "CortexMProcessor.cpp"
  16              	 .text
  17              	.Ltext0:
  18              	 .cfi_sections .debug_frame
  19              	 .section .rodata._ZL2PI,"a"
  20              	 .align 2
  21              	 .type _ZL2PI,%object
  22              	 .size _ZL2PI,4
  23              	_ZL2PI:
  24 0000 DB0F4940 	 .word 1078530011
  25              	 .section .rodata._ZL6TweePI,"a"
  26              	 .align 2
  27              	 .type _ZL6TweePI,%object
  28              	 .size _ZL6TweePI,4
  29              	_ZL6TweePI:
  30 0000 DB0FC940 	 .word 1086918619
  31              	 .section .rodata._ZL5TwoPI,"a"
  32              	 .align 2
  33              	 .type _ZL5TwoPI,%object
  34              	 .size _ZL5TwoPI,4
  35              	_ZL5TwoPI:
  36 0000 DB0FC940 	 .word 1086918619
  37              	 .section .text._ZN16CortexMProcessorC2Ev,"ax",%progbits
  38              	 .align 1
  39              	 .global _ZN16CortexMProcessorC2Ev
  40              	 .syntax unified
  41              	 .thumb
  42              	 .thumb_func
  43              	 .type _ZN16CortexMProcessorC2Ev,%function
  44              	_ZN16CortexMProcessorC2Ev:
  45              	.LFB370:
  46              	 .file 1 "C:\\Users\\niels\\Documents\\GitHub\\DSP\\software\\STM32Basis\\gemeenschappelijk\\basis\\CortexMProcessor.cpp"
   1:C:\Users\niels\Documents\GitHub\DSP\software\STM32Basis\gemeenschappelijk\basis\CortexMProcessor.cpp **** /*!
   2:C:\Users\niels\Documents\GitHub\DSP\software\STM32Basis\gemeenschappelijk\basis\CortexMProcessor.cpp **** @file
   3:C:\Users\niels\Documents\GitHub\DSP\software\STM32Basis\gemeenschappelijk\basis\CortexMProcessor.cpp **** Implementatie van de c++ schil voor gebruik van de Cortex M Processor.
   4:C:\Users\niels\Documents\GitHub\DSP\software\STM32Basis\gemeenschappelijk\basis\CortexMProcessor.cpp **** @version $Rev: 2923 $
   5:C:\Users\niels\Documents\GitHub\DSP\software\STM32Basis\gemeenschappelijk\basis\CortexMProcessor.cpp **** @author $Author: ewout $
   6:C:\Users\niels\Documents\GitHub\DSP\software\STM32Basis\gemeenschappelijk\basis\CortexMProcessor.cpp **** 
   7:C:\Users\niels\Documents\GitHub\DSP\software\STM32Basis\gemeenschappelijk\basis\CortexMProcessor.cpp **** @copyright Copyright 2017-2018 Hogeschool van Arnhem en Nijmegen, ir drs E.J Boks
   8:C:\Users\niels\Documents\GitHub\DSP\software\STM32Basis\gemeenschappelijk\basis\CortexMProcessor.cpp **** 
   9:C:\Users\niels\Documents\GitHub\DSP\software\STM32Basis\gemeenschappelijk\basis\CortexMProcessor.cpp **** $URL: http://svn.hanese.nl/docenten/svn/ewout/vakken/algemeen/software/STM32/STM32Basis/HAL/gemeens
  10:C:\Users\niels\Documents\GitHub\DSP\software\STM32Basis\gemeenschappelijk\basis\CortexMProcessor.cpp **** $Id: STM32412gDiscovery.cpp 2923 2018-03-20 14:49:52Z ewout $
  11:C:\Users\niels\Documents\GitHub\DSP\software\STM32Basis\gemeenschappelijk\basis\CortexMProcessor.cpp **** ************************************************************************/
ARM GAS   			page 2


  12:C:\Users\niels\Documents\GitHub\DSP\software\STM32Basis\gemeenschappelijk\basis\CortexMProcessor.cpp **** 
  13:C:\Users\niels\Documents\GitHub\DSP\software\STM32Basis\gemeenschappelijk\basis\CortexMProcessor.cpp **** #include <CortexMProcessor.h>
  14:C:\Users\niels\Documents\GitHub\DSP\software\STM32Basis\gemeenschappelijk\basis\CortexMProcessor.cpp **** 
  15:C:\Users\niels\Documents\GitHub\DSP\software\STM32Basis\gemeenschappelijk\basis\CortexMProcessor.cpp **** #ifdef ARMCORTEXM3
  16:C:\Users\niels\Documents\GitHub\DSP\software\STM32Basis\gemeenschappelijk\basis\CortexMProcessor.cpp **** #include <stm32f10x.h>
  17:C:\Users\niels\Documents\GitHub\DSP\software\STM32Basis\gemeenschappelijk\basis\CortexMProcessor.cpp **** #elif defined(ARMCORTEXM0)
  18:C:\Users\niels\Documents\GitHub\DSP\software\STM32Basis\gemeenschappelijk\basis\CortexMProcessor.cpp **** #include <stm32f0xx.h>
  19:C:\Users\niels\Documents\GitHub\DSP\software\STM32Basis\gemeenschappelijk\basis\CortexMProcessor.cpp **** #elif defined(ARMCORTEXM4)
  20:C:\Users\niels\Documents\GitHub\DSP\software\STM32Basis\gemeenschappelijk\basis\CortexMProcessor.cpp **** 
  21:C:\Users\niels\Documents\GitHub\DSP\software\STM32Basis\gemeenschappelijk\basis\CortexMProcessor.cpp **** #if (defined(STM32F40x) || defined(STM32F41x))
  22:C:\Users\niels\Documents\GitHub\DSP\software\STM32Basis\gemeenschappelijk\basis\CortexMProcessor.cpp **** #include <stm32f4xx.h>
  23:C:\Users\niels\Documents\GitHub\DSP\software\STM32Basis\gemeenschappelijk\basis\CortexMProcessor.cpp **** #elif (defined(STM32L4) || defined(STM32L4Plus))
  24:C:\Users\niels\Documents\GitHub\DSP\software\STM32Basis\gemeenschappelijk\basis\CortexMProcessor.cpp **** #include <stm32l4xx.h>
  25:C:\Users\niels\Documents\GitHub\DSP\software\STM32Basis\gemeenschappelijk\basis\CortexMProcessor.cpp **** #elif defined(STM32F30X)
  26:C:\Users\niels\Documents\GitHub\DSP\software\STM32Basis\gemeenschappelijk\basis\CortexMProcessor.cpp **** #include <stm32f3xx.h>
  27:C:\Users\niels\Documents\GitHub\DSP\software\STM32Basis\gemeenschappelijk\basis\CortexMProcessor.cpp **** #else
  28:C:\Users\niels\Documents\GitHub\DSP\software\STM32Basis\gemeenschappelijk\basis\CortexMProcessor.cpp **** #error "(CortexMProcessor) : niet gevonden."
  29:C:\Users\niels\Documents\GitHub\DSP\software\STM32Basis\gemeenschappelijk\basis\CortexMProcessor.cpp **** #endif
  30:C:\Users\niels\Documents\GitHub\DSP\software\STM32Basis\gemeenschappelijk\basis\CortexMProcessor.cpp **** 
  31:C:\Users\niels\Documents\GitHub\DSP\software\STM32Basis\gemeenschappelijk\basis\CortexMProcessor.cpp **** #endif
  32:C:\Users\niels\Documents\GitHub\DSP\software\STM32Basis\gemeenschappelijk\basis\CortexMProcessor.cpp **** 
  33:C:\Users\niels\Documents\GitHub\DSP\software\STM32Basis\gemeenschappelijk\basis\CortexMProcessor.cpp **** CortexMProcessor::CortexMProcessor()
  47              	 .loc 1 33 1
  48              	 .cfi_startproc
  49              	 
  50              	 
  51 0000 80B5     	 push {r7,lr}
  52              	 .cfi_def_cfa_offset 8
  53              	 .cfi_offset 7,-8
  54              	 .cfi_offset 14,-4
  55 0002 82B0     	 sub sp,sp,#8
  56              	 .cfi_def_cfa_offset 16
  57 0004 00AF     	 add r7,sp,#0
  58              	 .cfi_def_cfa_register 7
  59 0006 7860     	 str r0,[r7,#4]
  60              	.LBB2:
  34:C:\Users\niels\Documents\GitHub\DSP\software\STM32Basis\gemeenschappelijk\basis\CortexMProcessor.cpp **** {
  35:C:\Users\niels\Documents\GitHub\DSP\software\STM32Basis\gemeenschappelijk\basis\CortexMProcessor.cpp **** 	schakelCoreException(FixedException::Bus,Schakelaar::Aan);
  61              	 .loc 1 35 22
  62 0008 0121     	 movs r1,#1
  63 000a 1120     	 movs r0,#17
  64 000c FFF7FEFF 	 bl _ZN16CortexMProcessor20schakelCoreExceptionENS_14FixedExceptionE10Schakelaar
  36:C:\Users\niels\Documents\GitHub\DSP\software\STM32Basis\gemeenschappelijk\basis\CortexMProcessor.cpp **** 	schakelCoreException(FixedException::Usage,Schakelaar::Aan);
  65              	 .loc 1 36 22
  66 0010 0121     	 movs r1,#1
  67 0012 1220     	 movs r0,#18
  68 0014 FFF7FEFF 	 bl _ZN16CortexMProcessor20schakelCoreExceptionENS_14FixedExceptionE10Schakelaar
  37:C:\Users\niels\Documents\GitHub\DSP\software\STM32Basis\gemeenschappelijk\basis\CortexMProcessor.cpp **** 	usageFaultInstelling(true,false);  /* 02.12.2021 uitgezet omdat Segger EmWin crasht. */
  69              	 .loc 1 37 22
  70 0018 0021     	 movs r1,#0
  71 001a 0120     	 movs r0,#1
  72 001c FFF7FEFF 	 bl _ZN16CortexMProcessor20usageFaultInstellingEbb
  73              	.LBE2:
  38:C:\Users\niels\Documents\GitHub\DSP\software\STM32Basis\gemeenschappelijk\basis\CortexMProcessor.cpp **** }
  74              	 .loc 1 38 1
  75 0020 7B68     	 ldr r3,[r7,#4]
  76 0022 1846     	 mov r0,r3
ARM GAS   			page 3


  77 0024 0837     	 adds r7,r7,#8
  78              	 .cfi_def_cfa_offset 8
  79 0026 BD46     	 mov sp,r7
  80              	 .cfi_def_cfa_register 13
  81              	 
  82 0028 80BD     	 pop {r7,pc}
  83              	 .cfi_endproc
  84              	.LFE370:
  85              	 .size _ZN16CortexMProcessorC2Ev,.-_ZN16CortexMProcessorC2Ev
  86              	 .global _ZN16CortexMProcessorC1Ev
  87              	 .thumb_set _ZN16CortexMProcessorC1Ev,_ZN16CortexMProcessorC2Ev
  88              	 .section .text._ZN16CortexMProcessor14schakelSysTickE10Schakelaar,"ax",%progbits
  89              	 .align 1
  90              	 .global _ZN16CortexMProcessor14schakelSysTickE10Schakelaar
  91              	 .syntax unified
  92              	 .thumb
  93              	 .thumb_func
  94              	 .type _ZN16CortexMProcessor14schakelSysTickE10Schakelaar,%function
  95              	_ZN16CortexMProcessor14schakelSysTickE10Schakelaar:
  96              	.LFB372:
  39:C:\Users\niels\Documents\GitHub\DSP\software\STM32Basis\gemeenschappelijk\basis\CortexMProcessor.cpp **** 
  40:C:\Users\niels\Documents\GitHub\DSP\software\STM32Basis\gemeenschappelijk\basis\CortexMProcessor.cpp **** void CortexMProcessor::schakelSysTick(const Schakelaar schakelaar)
  41:C:\Users\niels\Documents\GitHub\DSP\software\STM32Basis\gemeenschappelijk\basis\CortexMProcessor.cpp **** {
  97              	 .loc 1 41 1
  98              	 .cfi_startproc
  99              	 
 100              	 
 101 0000 80B5     	 push {r7,lr}
 102              	 .cfi_def_cfa_offset 8
 103              	 .cfi_offset 7,-8
 104              	 .cfi_offset 14,-4
 105 0002 82B0     	 sub sp,sp,#8
 106              	 .cfi_def_cfa_offset 16
 107 0004 00AF     	 add r7,sp,#0
 108              	 .cfi_def_cfa_register 7
 109 0006 7860     	 str r0,[r7,#4]
  42:C:\Users\niels\Documents\GitHub\DSP\software\STM32Basis\gemeenschappelijk\basis\CortexMProcessor.cpp **** 	EnterBit(SysTick->CTRL,SysTick_CTRL_ENABLE_Pos,schakelaar);
 110              	 .loc 1 42 10
 111 0008 044B     	 ldr r3,.L4
 112 000a 7A68     	 ldr r2,[r7,#4]
 113 000c 0021     	 movs r1,#0
 114 000e 1846     	 mov r0,r3
 115 0010 FFF7FEFF 	 bl _Z8EnterBitIVmEvRT_m10Schakelaar
  43:C:\Users\niels\Documents\GitHub\DSP\software\STM32Basis\gemeenschappelijk\basis\CortexMProcessor.cpp **** }
 116              	 .loc 1 43 1
 117 0014 00BF     	 nop
 118 0016 0837     	 adds r7,r7,#8
 119              	 .cfi_def_cfa_offset 8
 120 0018 BD46     	 mov sp,r7
 121              	 .cfi_def_cfa_register 13
 122              	 
 123 001a 80BD     	 pop {r7,pc}
 124              	.L5:
 125              	 .align 2
 126              	.L4:
 127 001c 10E000E0 	 .word -536813552
 128              	 .cfi_endproc
ARM GAS   			page 4


 129              	.LFE372:
 130              	 .size _ZN16CortexMProcessor14schakelSysTickE10Schakelaar,.-_ZN16CortexMProcessor14schakelSysTickE10Schakelaar
 131              	 .section .text._ZN16CortexMProcessor20schakelCoreExceptionENS_14FixedExceptionE10Schakelaar,"ax",%progbits
 132              	 .align 1
 133              	 .global _ZN16CortexMProcessor20schakelCoreExceptionENS_14FixedExceptionE10Schakelaar
 134              	 .syntax unified
 135              	 .thumb
 136              	 .thumb_func
 137              	 .type _ZN16CortexMProcessor20schakelCoreExceptionENS_14FixedExceptionE10Schakelaar,%function
 138              	_ZN16CortexMProcessor20schakelCoreExceptionENS_14FixedExceptionE10Schakelaar:
 139              	.LFB373:
  44:C:\Users\niels\Documents\GitHub\DSP\software\STM32Basis\gemeenschappelijk\basis\CortexMProcessor.cpp **** 
  45:C:\Users\niels\Documents\GitHub\DSP\software\STM32Basis\gemeenschappelijk\basis\CortexMProcessor.cpp **** void CortexMProcessor::schakelCoreException(const CortexMProcessor::FixedException fe,const Schakel
  46:C:\Users\niels\Documents\GitHub\DSP\software\STM32Basis\gemeenschappelijk\basis\CortexMProcessor.cpp **** {
 140              	 .loc 1 46 1
 141              	 .cfi_startproc
 142              	 
 143              	 
 144 0000 80B5     	 push {r7,lr}
 145              	 .cfi_def_cfa_offset 8
 146              	 .cfi_offset 7,-8
 147              	 .cfi_offset 14,-4
 148 0002 84B0     	 sub sp,sp,#16
 149              	 .cfi_def_cfa_offset 24
 150 0004 00AF     	 add r7,sp,#0
 151              	 .cfi_def_cfa_register 7
 152 0006 7860     	 str r0,[r7,#4]
 153 0008 3960     	 str r1,[r7]
  47:C:\Users\niels\Documents\GitHub\DSP\software\STM32Basis\gemeenschappelijk\basis\CortexMProcessor.cpp **** 	const auto bitnummer = static_cast<UInt32>(fe);
 154              	 .loc 1 47 13
 155 000a 7B68     	 ldr r3,[r7,#4]
 156 000c FB60     	 str r3,[r7,#12]
  48:C:\Users\niels\Documents\GitHub\DSP\software\STM32Basis\gemeenschappelijk\basis\CortexMProcessor.cpp **** 	EnterBit(SCB->SHCSR,bitnummer,stand);
 157              	 .loc 1 48 10
 158 000e 3A68     	 ldr r2,[r7]
 159 0010 F968     	 ldr r1,[r7,#12]
 160 0012 0348     	 ldr r0,.L7
 161 0014 FFF7FEFF 	 bl _Z8EnterBitIVmEvRT_m10Schakelaar
  49:C:\Users\niels\Documents\GitHub\DSP\software\STM32Basis\gemeenschappelijk\basis\CortexMProcessor.cpp **** }
 162              	 .loc 1 49 1
 163 0018 00BF     	 nop
 164 001a 1037     	 adds r7,r7,#16
 165              	 .cfi_def_cfa_offset 8
 166 001c BD46     	 mov sp,r7
 167              	 .cfi_def_cfa_register 13
 168              	 
 169 001e 80BD     	 pop {r7,pc}
 170              	.L8:
 171              	 .align 2
 172              	.L7:
 173 0020 24ED00E0 	 .word -536810204
 174              	 .cfi_endproc
 175              	.LFE373:
 176              	 .size _ZN16CortexMProcessor20schakelCoreExceptionENS_14FixedExceptionE10Schakelaar,.-_ZN16CortexMProcessor20schakelCoreExceptionENS_14FixedExceptionE10Schakelaar
 177              	 .section .text._ZN16CortexMProcessor20usageFaultInstellingEbb,"ax",%progbits
 178              	 .align 1
 179              	 .global _ZN16CortexMProcessor20usageFaultInstellingEbb
ARM GAS   			page 5


 180              	 .syntax unified
 181              	 .thumb
 182              	 .thumb_func
 183              	 .type _ZN16CortexMProcessor20usageFaultInstellingEbb,%function
 184              	_ZN16CortexMProcessor20usageFaultInstellingEbb:
 185              	.LFB374:
  50:C:\Users\niels\Documents\GitHub\DSP\software\STM32Basis\gemeenschappelijk\basis\CortexMProcessor.cpp **** 
  51:C:\Users\niels\Documents\GitHub\DSP\software\STM32Basis\gemeenschappelijk\basis\CortexMProcessor.cpp **** void CortexMProcessor::usageFaultInstelling(const bool deelDoorNul, const bool nietOpgelijnd)
  52:C:\Users\niels\Documents\GitHub\DSP\software\STM32Basis\gemeenschappelijk\basis\CortexMProcessor.cpp **** {
 186              	 .loc 1 52 1
 187              	 .cfi_startproc
 188              	 
 189              	 
 190 0000 80B5     	 push {r7,lr}
 191              	 .cfi_def_cfa_offset 8
 192              	 .cfi_offset 7,-8
 193              	 .cfi_offset 14,-4
 194 0002 84B0     	 sub sp,sp,#16
 195              	 .cfi_def_cfa_offset 24
 196 0004 00AF     	 add r7,sp,#0
 197              	 .cfi_def_cfa_register 7
 198 0006 0346     	 mov r3,r0
 199 0008 0A46     	 mov r2,r1
 200 000a FB71     	 strb r3,[r7,#7]
 201 000c 1346     	 mov r3,r2
 202 000e BB71     	 strb r3,[r7,#6]
  53:C:\Users\niels\Documents\GitHub\DSP\software\STM32Basis\gemeenschappelijk\basis\CortexMProcessor.cpp **** 	auto &ccr = SCB->CCR;
 203              	 .loc 1 53 8
 204 0010 084B     	 ldr r3,.L10
 205 0012 FB60     	 str r3,[r7,#12]
  54:C:\Users\niels\Documents\GitHub\DSP\software\STM32Basis\gemeenschappelijk\basis\CortexMProcessor.cpp **** 	EnterBit(ccr,SCB_CCR_DIV_0_TRP_Pos,deelDoorNul);
 206              	 .loc 1 54 10
 207 0014 FB79     	 ldrb r3,[r7,#7]
 208 0016 1A46     	 mov r2,r3
 209 0018 0421     	 movs r1,#4
 210 001a F868     	 ldr r0,[r7,#12]
 211 001c FFF7FEFF 	 bl _Z8EnterBitIVmEvRT_mb
  55:C:\Users\niels\Documents\GitHub\DSP\software\STM32Basis\gemeenschappelijk\basis\CortexMProcessor.cpp **** 	EnterBit(ccr,SCB_CCR_UNALIGN_TRP_Pos,nietOpgelijnd);
 212              	 .loc 1 55 10
 213 0020 BB79     	 ldrb r3,[r7,#6]
 214 0022 1A46     	 mov r2,r3
 215 0024 0321     	 movs r1,#3
 216 0026 F868     	 ldr r0,[r7,#12]
 217 0028 FFF7FEFF 	 bl _Z8EnterBitIVmEvRT_mb
  56:C:\Users\niels\Documents\GitHub\DSP\software\STM32Basis\gemeenschappelijk\basis\CortexMProcessor.cpp **** }
 218              	 .loc 1 56 1
 219 002c 00BF     	 nop
 220 002e 1037     	 adds r7,r7,#16
 221              	 .cfi_def_cfa_offset 8
 222 0030 BD46     	 mov sp,r7
 223              	 .cfi_def_cfa_register 13
 224              	 
 225 0032 80BD     	 pop {r7,pc}
 226              	.L11:
 227              	 .align 2
 228              	.L10:
 229 0034 14ED00E0 	 .word -536810220
ARM GAS   			page 6


 230              	 .cfi_endproc
 231              	.LFE374:
 232              	 .size _ZN16CortexMProcessor20usageFaultInstellingEbb,.-_ZN16CortexMProcessor20usageFaultInstellingEbb
 233              	 .section .text._Z8EnterBitIVmEvRT_m10Schakelaar,"axG",%progbits,_Z8EnterBitIVmEvRT_m10Schakelaar,comdat
 234              	 .align 1
 235              	 .weak _Z8EnterBitIVmEvRT_m10Schakelaar
 236              	 .syntax unified
 237              	 .thumb
 238              	 .thumb_func
 239              	 .type _Z8EnterBitIVmEvRT_m10Schakelaar,%function
 240              	_Z8EnterBitIVmEvRT_m10Schakelaar:
 241              	.LFB375:
 242              	 .file 2 "c:\\users\\niels\\documents\\github\\dsp\\software\\algemeen\\h\\algdef.h"
   1:c:\users\niels\documents\github\dsp\software\algemeen\h\algdef.h **** 
   2:c:\users\niels\documents\github\dsp\software\algemeen\h\algdef.h **** /************************************************************************/
   3:c:\users\niels\documents\github\dsp\software\algemeen\h\algdef.h **** /* Kiwanda                                                            */
   4:c:\users\niels\documents\github\dsp\software\algemeen\h\algdef.h **** /* Algemene definities voor operatie                                    */
   5:c:\users\niels\documents\github\dsp\software\algemeen\h\algdef.h **** /* Alle software in dit bestand is                                      */
   6:c:\users\niels\documents\github\dsp\software\algemeen\h\algdef.h **** /* (c) 2001-2012 Kiwanda Embedded Systemen                              */
   7:c:\users\niels\documents\github\dsp\software\algemeen\h\algdef.h **** /* $Id: algdef.h 4292 2021-06-22 12:34:00Z ewout $                                                 
   8:c:\users\niels\documents\github\dsp\software\algemeen\h\algdef.h **** /************************************************************************/
   9:c:\users\niels\documents\github\dsp\software\algemeen\h\algdef.h **** 
  10:c:\users\niels\documents\github\dsp\software\algemeen\h\algdef.h **** #ifndef ESE_ALGDEF_H
  11:c:\users\niels\documents\github\dsp\software\algemeen\h\algdef.h **** #define ESE_ALGDEF_H
  12:c:\users\niels\documents\github\dsp\software\algemeen\h\algdef.h **** 
  13:c:\users\niels\documents\github\dsp\software\algemeen\h\algdef.h **** 
  14:c:\users\niels\documents\github\dsp\software\algemeen\h\algdef.h **** #include <stdio.h>
  15:c:\users\niels\documents\github\dsp\software\algemeen\h\algdef.h **** #include <stdint.h>
  16:c:\users\niels\documents\github\dsp\software\algemeen\h\algdef.h **** #include <math.h>
  17:c:\users\niels\documents\github\dsp\software\algemeen\h\algdef.h **** 
  18:c:\users\niels\documents\github\dsp\software\algemeen\h\algdef.h **** /* standaard definities */
  19:c:\users\niels\documents\github\dsp\software\algemeen\h\algdef.h **** 
  20:c:\users\niels\documents\github\dsp\software\algemeen\h\algdef.h **** #ifndef PI
  21:c:\users\niels\documents\github\dsp\software\algemeen\h\algdef.h **** static constexpr float  PI = 3.141592654f;
  22:c:\users\niels\documents\github\dsp\software\algemeen\h\algdef.h **** static constexpr float  TweePI = 2.0f*3.141592654f;
  23:c:\users\niels\documents\github\dsp\software\algemeen\h\algdef.h **** static constexpr float  TwoPI = TweePI;
  24:c:\users\niels\documents\github\dsp\software\algemeen\h\algdef.h **** #endif
  25:c:\users\niels\documents\github\dsp\software\algemeen\h\algdef.h **** 
  26:c:\users\niels\documents\github\dsp\software\algemeen\h\algdef.h **** #ifdef  FALSE
  27:c:\users\niels\documents\github\dsp\software\algemeen\h\algdef.h **** #define False		FALSE
  28:c:\users\niels\documents\github\dsp\software\algemeen\h\algdef.h **** #else
  29:c:\users\niels\documents\github\dsp\software\algemeen\h\algdef.h **** #define False		false
  30:c:\users\niels\documents\github\dsp\software\algemeen\h\algdef.h **** #endif
  31:c:\users\niels\documents\github\dsp\software\algemeen\h\algdef.h **** 
  32:c:\users\niels\documents\github\dsp\software\algemeen\h\algdef.h **** #ifdef  TRUE
  33:c:\users\niels\documents\github\dsp\software\algemeen\h\algdef.h **** #define True		TRUE
  34:c:\users\niels\documents\github\dsp\software\algemeen\h\algdef.h **** #else
  35:c:\users\niels\documents\github\dsp\software\algemeen\h\algdef.h **** #define True		true
  36:c:\users\niels\documents\github\dsp\software\algemeen\h\algdef.h **** #endif
  37:c:\users\niels\documents\github\dsp\software\algemeen\h\algdef.h **** 
  38:c:\users\niels\documents\github\dsp\software\algemeen\h\algdef.h **** #ifndef NULL
  39:c:\users\niels\documents\github\dsp\software\algemeen\h\algdef.h **** #define NULL            nullptr
  40:c:\users\niels\documents\github\dsp\software\algemeen\h\algdef.h **** #endif
  41:c:\users\niels\documents\github\dsp\software\algemeen\h\algdef.h **** 
  42:c:\users\niels\documents\github\dsp\software\algemeen\h\algdef.h **** #define ALTIJD   while(1==1)
  43:c:\users\niels\documents\github\dsp\software\algemeen\h\algdef.h **** #define FOREVER  ALTIJD
  44:c:\users\niels\documents\github\dsp\software\algemeen\h\algdef.h **** 
ARM GAS   			page 7


  45:c:\users\niels\documents\github\dsp\software\algemeen\h\algdef.h **** #ifndef _WIN32
  46:c:\users\niels\documents\github\dsp\software\algemeen\h\algdef.h **** /*! @brief om aan te geven data deze funktie verouderd is en vervangen moet worden. */
  47:c:\users\niels\documents\github\dsp\software\algemeen\h\algdef.h **** #define VEROUDERD   __attribute__((deprecated))
  48:c:\users\niels\documents\github\dsp\software\algemeen\h\algdef.h **** /*! @brief voor het geforceerd linken van een ongebruikte funktie. */
  49:c:\users\niels\documents\github\dsp\software\algemeen\h\algdef.h **** #define GEBRUIKT   __attribute__((used))
  50:c:\users\niels\documents\github\dsp\software\algemeen\h\algdef.h **** /*! @brief voor test, dan geen waarschuwing (fout) bij het compileren. */
  51:c:\users\niels\documents\github\dsp\software\algemeen\h\algdef.h **** #define ONGEBRUIKT   __attribute__((unused))
  52:c:\users\niels\documents\github\dsp\software\algemeen\h\algdef.h **** #define ZWAKGEPLAATST __attribute__((weak))
  53:c:\users\niels\documents\github\dsp\software\algemeen\h\algdef.h **** #define GEENTERUGKEER __attribute__((__noreturn__))
  54:c:\users\niels\documents\github\dsp\software\algemeen\h\algdef.h **** #else
  55:c:\users\niels\documents\github\dsp\software\algemeen\h\algdef.h **** #define VEROUDERD
  56:c:\users\niels\documents\github\dsp\software\algemeen\h\algdef.h **** #define GEBRUIKT
  57:c:\users\niels\documents\github\dsp\software\algemeen\h\algdef.h **** #define ONGEBRUIKT
  58:c:\users\niels\documents\github\dsp\software\algemeen\h\algdef.h **** #define GEENTERUGKEER 
  59:c:\users\niels\documents\github\dsp\software\algemeen\h\algdef.h **** #endif
  60:c:\users\niels\documents\github\dsp\software\algemeen\h\algdef.h **** 
  61:c:\users\niels\documents\github\dsp\software\algemeen\h\algdef.h **** /* Basic Types
  62:c:\users\niels\documents\github\dsp\software\algemeen\h\algdef.h ****  */
  63:c:\users\niels\documents\github\dsp\software\algemeen\h\algdef.h **** typedef char	 		Char;
  64:c:\users\niels\documents\github\dsp\software\algemeen\h\algdef.h **** typedef unsigned char		UChar;
  65:c:\users\niels\documents\github\dsp\software\algemeen\h\algdef.h **** typedef unsigned int		UInt;
  66:c:\users\niels\documents\github\dsp\software\algemeen\h\algdef.h **** typedef int			Int;
  67:c:\users\niels\documents\github\dsp\software\algemeen\h\algdef.h **** typedef float			Float;
  68:c:\users\niels\documents\github\dsp\software\algemeen\h\algdef.h **** typedef double			Double;
  69:c:\users\niels\documents\github\dsp\software\algemeen\h\algdef.h **** 
  70:c:\users\niels\documents\github\dsp\software\algemeen\h\algdef.h **** /* Sized Types
  71:c:\users\niels\documents\github\dsp\software\algemeen\h\algdef.h ****  */
  72:c:\users\niels\documents\github\dsp\software\algemeen\h\algdef.h **** typedef signed char	  Int8;
  73:c:\users\niels\documents\github\dsp\software\algemeen\h\algdef.h **** typedef uint8_t	  UInt8;
  74:c:\users\niels\documents\github\dsp\software\algemeen\h\algdef.h **** typedef int16_t	  Int16;
  75:c:\users\niels\documents\github\dsp\software\algemeen\h\algdef.h **** typedef uint16_t  UInt16;
  76:c:\users\niels\documents\github\dsp\software\algemeen\h\algdef.h **** typedef int32_t   Int32;
  77:c:\users\niels\documents\github\dsp\software\algemeen\h\algdef.h **** typedef uint32_t  UInt32;
  78:c:\users\niels\documents\github\dsp\software\algemeen\h\algdef.h **** typedef int64_t		Int64;
  79:c:\users\niels\documents\github\dsp\software\algemeen\h\algdef.h **** typedef uint64_t	UInt64;
  80:c:\users\niels\documents\github\dsp\software\algemeen\h\algdef.h **** 
  81:c:\users\niels\documents\github\dsp\software\algemeen\h\algdef.h **** /* algemene funktie foutmelding */
  82:c:\users\niels\documents\github\dsp\software\algemeen\h\algdef.h **** 
  83:c:\users\niels\documents\github\dsp\software\algemeen\h\algdef.h **** enum class FoutCode
  84:c:\users\niels\documents\github\dsp\software\algemeen\h\algdef.h **** {
  85:c:\users\niels\documents\github\dsp\software\algemeen\h\algdef.h ****     Ok=0,
  86:c:\users\niels\documents\github\dsp\software\algemeen\h\algdef.h ****     Waarschuwing,  /* Warning */
  87:c:\users\niels\documents\github\dsp\software\algemeen\h\algdef.h ****     Fout,          /* Error */
  88:c:\users\niels\documents\github\dsp\software\algemeen\h\algdef.h ****     Ernstig,       /* Error (serious) */
  89:c:\users\niels\documents\github\dsp\software\algemeen\h\algdef.h ****     Rampzalig,      /* Error (desastrous) */
  90:c:\users\niels\documents\github\dsp\software\algemeen\h\algdef.h ****     ReserveFoutCode,  /* Reserve error code */
  91:c:\users\niels\documents\github\dsp\software\algemeen\h\algdef.h ****     Onbekend      /* unknown */
  92:c:\users\niels\documents\github\dsp\software\algemeen\h\algdef.h **** };
  93:c:\users\niels\documents\github\dsp\software\algemeen\h\algdef.h **** 
  94:c:\users\niels\documents\github\dsp\software\algemeen\h\algdef.h **** using FC = FoutCode;
  95:c:\users\niels\documents\github\dsp\software\algemeen\h\algdef.h **** 
  96:c:\users\niels\documents\github\dsp\software\algemeen\h\algdef.h **** /*!@ @brief English variant of the error code */
  97:c:\users\niels\documents\github\dsp\software\algemeen\h\algdef.h **** using ErrorCode = FoutCode;
  98:c:\users\niels\documents\github\dsp\software\algemeen\h\algdef.h **** 
  99:c:\users\niels\documents\github\dsp\software\algemeen\h\algdef.h **** enum class Schakelaar
 100:c:\users\niels\documents\github\dsp\software\algemeen\h\algdef.h **** {
 101:c:\users\niels\documents\github\dsp\software\algemeen\h\algdef.h ****     Uit=0,  /* Off */
ARM GAS   			page 8


 102:c:\users\niels\documents\github\dsp\software\algemeen\h\algdef.h ****     Aan,    /* On */
 103:c:\users\niels\documents\github\dsp\software\algemeen\h\algdef.h **** 	Om     /* Toggle */
 104:c:\users\niels\documents\github\dsp\software\algemeen\h\algdef.h ****    // Einde   /* Last one */
 105:c:\users\niels\documents\github\dsp\software\algemeen\h\algdef.h **** } ;
 106:c:\users\niels\documents\github\dsp\software\algemeen\h\algdef.h **** 
 107:c:\users\niels\documents\github\dsp\software\algemeen\h\algdef.h **** /*!@ @brief English variant of the switch */
 108:c:\users\niels\documents\github\dsp\software\algemeen\h\algdef.h **** using Switch = Schakelaar;
 109:c:\users\niels\documents\github\dsp\software\algemeen\h\algdef.h **** 
 110:c:\users\niels\documents\github\dsp\software\algemeen\h\algdef.h **** 
 111:c:\users\niels\documents\github\dsp\software\algemeen\h\algdef.h **** typedef UInt32 Teller;             /* standaard breedte van de ARM7 */ 
 112:c:\users\niels\documents\github\dsp\software\algemeen\h\algdef.h **** typedef Int32 STeller;             /* standaard breedte van de ARM7 */ 
 113:c:\users\niels\documents\github\dsp\software\algemeen\h\algdef.h **** typedef float WiskundeFloatType;   /* schakel tussen enkel en dubbel precisie */
 114:c:\users\niels\documents\github\dsp\software\algemeen\h\algdef.h **** typedef WiskundeFloatType WFT;
 115:c:\users\niels\documents\github\dsp\software\algemeen\h\algdef.h **** 
 116:c:\users\niels\documents\github\dsp\software\algemeen\h\algdef.h **** 
 117:c:\users\niels\documents\github\dsp\software\algemeen\h\algdef.h **** /* funkties en inline funkties */
 118:c:\users\niels\documents\github\dsp\software\algemeen\h\algdef.h **** 
 119:c:\users\niels\documents\github\dsp\software\algemeen\h\algdef.h **** /* bitsgewijze operatie macros . Geef bits aan als nummer en niet als 2 tot de macht (nummer) */
 120:c:\users\niels\documents\github\dsp\software\algemeen\h\algdef.h **** template <typename ttype>
 121:c:\users\niels\documents\github\dsp\software\algemeen\h\algdef.h **** void SetBit(ttype &x,const Teller y)
 122:c:\users\niels\documents\github\dsp\software\algemeen\h\algdef.h **** {
 123:c:\users\niels\documents\github\dsp\software\algemeen\h\algdef.h **** 	static const ttype schuiver = 1;
 124:c:\users\niels\documents\github\dsp\software\algemeen\h\algdef.h **** 	const ttype verschuiving = (schuiver << y);
 125:c:\users\niels\documents\github\dsp\software\algemeen\h\algdef.h **** 	x |= verschuiving;       /* Set bit y in byte x*/
 126:c:\users\niels\documents\github\dsp\software\algemeen\h\algdef.h **** }
 127:c:\users\niels\documents\github\dsp\software\algemeen\h\algdef.h **** 
 128:c:\users\niels\documents\github\dsp\software\algemeen\h\algdef.h **** //template <typename ttype1,typename ttype2>
 129:c:\users\niels\documents\github\dsp\software\algemeen\h\algdef.h **** //void SetBit(ttype1 &x,const ttype2 y)
 130:c:\users\niels\documents\github\dsp\software\algemeen\h\algdef.h **** //{
 131:c:\users\niels\documents\github\dsp\software\algemeen\h\algdef.h **** //    x |= (1<<y);       /* Set bit y in byte x*/
 132:c:\users\niels\documents\github\dsp\software\algemeen\h\algdef.h **** //}
 133:c:\users\niels\documents\github\dsp\software\algemeen\h\algdef.h **** //
 134:c:\users\niels\documents\github\dsp\software\algemeen\h\algdef.h **** 
 135:c:\users\niels\documents\github\dsp\software\algemeen\h\algdef.h **** template <typename ttype>
 136:c:\users\niels\documents\github\dsp\software\algemeen\h\algdef.h **** void SetBit(ttype * const x,const Teller y)
 137:c:\users\niels\documents\github\dsp\software\algemeen\h\algdef.h **** {
 138:c:\users\niels\documents\github\dsp\software\algemeen\h\algdef.h **** 	static const ttype schuiver = 1;
 139:c:\users\niels\documents\github\dsp\software\algemeen\h\algdef.h **** 	const ttype verschuiving = (schuiver << y);
 140:c:\users\niels\documents\github\dsp\software\algemeen\h\algdef.h **** 	ttype inhoud = *x;
 141:c:\users\niels\documents\github\dsp\software\algemeen\h\algdef.h **** 	inhoud |= verschuiving;       /* Set bit y in byte x*/
 142:c:\users\niels\documents\github\dsp\software\algemeen\h\algdef.h **** 	*x = inhoud;
 143:c:\users\niels\documents\github\dsp\software\algemeen\h\algdef.h **** }
 144:c:\users\niels\documents\github\dsp\software\algemeen\h\algdef.h **** 
 145:c:\users\niels\documents\github\dsp\software\algemeen\h\algdef.h **** template <typename ttype>
 146:c:\users\niels\documents\github\dsp\software\algemeen\h\algdef.h **** void SetBitM(ttype &x,const ttype y)
 147:c:\users\niels\documents\github\dsp\software\algemeen\h\algdef.h **** {
 148:c:\users\niels\documents\github\dsp\software\algemeen\h\algdef.h **** 	x |= y;       /* Set bit y in byte x*/
 149:c:\users\niels\documents\github\dsp\software\algemeen\h\algdef.h **** }
 150:c:\users\niels\documents\github\dsp\software\algemeen\h\algdef.h **** 
 151:c:\users\niels\documents\github\dsp\software\algemeen\h\algdef.h **** template <typename ttype>
 152:c:\users\niels\documents\github\dsp\software\algemeen\h\algdef.h **** void SetBitM(ttype * const x,const ttype y)
 153:c:\users\niels\documents\github\dsp\software\algemeen\h\algdef.h **** {
 154:c:\users\niels\documents\github\dsp\software\algemeen\h\algdef.h **** 	ttype inhoud = *x;
 155:c:\users\niels\documents\github\dsp\software\algemeen\h\algdef.h **** 	inhoud |= y;       /* Set bit y in byte x*/
 156:c:\users\niels\documents\github\dsp\software\algemeen\h\algdef.h **** 	*x = inhoud;
 157:c:\users\niels\documents\github\dsp\software\algemeen\h\algdef.h **** }
 158:c:\users\niels\documents\github\dsp\software\algemeen\h\algdef.h **** 
ARM GAS   			page 9


 159:c:\users\niels\documents\github\dsp\software\algemeen\h\algdef.h **** template <typename ttype>
 160:c:\users\niels\documents\github\dsp\software\algemeen\h\algdef.h **** void ClearBit(ttype &x,const Teller y)
 161:c:\users\niels\documents\github\dsp\software\algemeen\h\algdef.h **** {
 162:c:\users\niels\documents\github\dsp\software\algemeen\h\algdef.h **** 	static const ttype schuiver = 1;
 163:c:\users\niels\documents\github\dsp\software\algemeen\h\algdef.h **** 	const ttype verschuiving = ~(schuiver << y);
 164:c:\users\niels\documents\github\dsp\software\algemeen\h\algdef.h **** 	x &= verschuiving;       /* Clear bit y in byte x*/
 165:c:\users\niels\documents\github\dsp\software\algemeen\h\algdef.h **** }
 166:c:\users\niels\documents\github\dsp\software\algemeen\h\algdef.h **** 
 167:c:\users\niels\documents\github\dsp\software\algemeen\h\algdef.h **** template <typename ttype>
 168:c:\users\niels\documents\github\dsp\software\algemeen\h\algdef.h **** void ClearBit(ttype * const x,const Teller y)
 169:c:\users\niels\documents\github\dsp\software\algemeen\h\algdef.h **** {
 170:c:\users\niels\documents\github\dsp\software\algemeen\h\algdef.h **** 	static const ttype schuiver = 1;
 171:c:\users\niels\documents\github\dsp\software\algemeen\h\algdef.h **** 	const ttype verschuiving = ~(schuiver << y);
 172:c:\users\niels\documents\github\dsp\software\algemeen\h\algdef.h **** 	ttype inhoud = *x;
 173:c:\users\niels\documents\github\dsp\software\algemeen\h\algdef.h **** 	inhoud &= verschuiving;       /* Clear bit y in byte x*/
 174:c:\users\niels\documents\github\dsp\software\algemeen\h\algdef.h **** 	*x = inhoud;
 175:c:\users\niels\documents\github\dsp\software\algemeen\h\algdef.h **** }
 176:c:\users\niels\documents\github\dsp\software\algemeen\h\algdef.h **** 
 177:c:\users\niels\documents\github\dsp\software\algemeen\h\algdef.h **** template <typename ttype>
 178:c:\users\niels\documents\github\dsp\software\algemeen\h\algdef.h **** void ClearBitM(ttype &x,const ttype y)
 179:c:\users\niels\documents\github\dsp\software\algemeen\h\algdef.h **** {
 180:c:\users\niels\documents\github\dsp\software\algemeen\h\algdef.h **** 	x &= (~y);       /* Clear bit y in byte x*/
 181:c:\users\niels\documents\github\dsp\software\algemeen\h\algdef.h **** }
 182:c:\users\niels\documents\github\dsp\software\algemeen\h\algdef.h **** 
 183:c:\users\niels\documents\github\dsp\software\algemeen\h\algdef.h **** template <typename ttype>
 184:c:\users\niels\documents\github\dsp\software\algemeen\h\algdef.h **** bool CheckBit(const ttype x,const Teller y)
 185:c:\users\niels\documents\github\dsp\software\algemeen\h\algdef.h **** {
 186:c:\users\niels\documents\github\dsp\software\algemeen\h\algdef.h **** 	static const ttype schuiver=1;
 187:c:\users\niels\documents\github\dsp\software\algemeen\h\algdef.h **** 	const ttype verschuiving = static_cast<ttype>(schuiver << y);
 188:c:\users\niels\documents\github\dsp\software\algemeen\h\algdef.h **** 	return(((0==(x & verschuiving)) ? false : true));
 189:c:\users\niels\documents\github\dsp\software\algemeen\h\algdef.h **** }
 190:c:\users\niels\documents\github\dsp\software\algemeen\h\algdef.h **** 
 191:c:\users\niels\documents\github\dsp\software\algemeen\h\algdef.h **** template <typename ttype>
 192:c:\users\niels\documents\github\dsp\software\algemeen\h\algdef.h **** bool InvCheckBit(const ttype x,const Teller y)
 193:c:\users\niels\documents\github\dsp\software\algemeen\h\algdef.h **** {
 194:c:\users\niels\documents\github\dsp\software\algemeen\h\algdef.h **** 	static const ttype schuiver=1;
 195:c:\users\niels\documents\github\dsp\software\algemeen\h\algdef.h **** 	const ttype verschuiving = static_cast<ttype>(schuiver << y);
 196:c:\users\niels\documents\github\dsp\software\algemeen\h\algdef.h **** 	return(((0==(x & verschuiving)) ? true : false));
 197:c:\users\niels\documents\github\dsp\software\algemeen\h\algdef.h **** }
 198:c:\users\niels\documents\github\dsp\software\algemeen\h\algdef.h **** 
 199:c:\users\niels\documents\github\dsp\software\algemeen\h\algdef.h **** template <typename ttype>
 200:c:\users\niels\documents\github\dsp\software\algemeen\h\algdef.h **** bool CheckBit(ttype const * const x,const Teller y)
 201:c:\users\niels\documents\github\dsp\software\algemeen\h\algdef.h **** {
 202:c:\users\niels\documents\github\dsp\software\algemeen\h\algdef.h **** 	static const ttype schuiver=1;
 203:c:\users\niels\documents\github\dsp\software\algemeen\h\algdef.h **** 	const ttype verschuiving = static_cast<ttype>(schuiver << y);
 204:c:\users\niels\documents\github\dsp\software\algemeen\h\algdef.h **** 	return(((0==((*x) & verschuiving)) ? false : true));
 205:c:\users\niels\documents\github\dsp\software\algemeen\h\algdef.h **** }
 206:c:\users\niels\documents\github\dsp\software\algemeen\h\algdef.h **** 
 207:c:\users\niels\documents\github\dsp\software\algemeen\h\algdef.h **** template <typename ttype>
 208:c:\users\niels\documents\github\dsp\software\algemeen\h\algdef.h **** bool CheckBitM(const ttype x,const ttype y)
 209:c:\users\niels\documents\github\dsp\software\algemeen\h\algdef.h **** {
 210:c:\users\niels\documents\github\dsp\software\algemeen\h\algdef.h **** 	return(((0==(x & y)) ? false : true));
 211:c:\users\niels\documents\github\dsp\software\algemeen\h\algdef.h **** }
 212:c:\users\niels\documents\github\dsp\software\algemeen\h\algdef.h **** 
 213:c:\users\niels\documents\github\dsp\software\algemeen\h\algdef.h **** template <typename ttype>
 214:c:\users\niels\documents\github\dsp\software\algemeen\h\algdef.h **** bool CheckBitM(const ttype *x,const ttype y)
 215:c:\users\niels\documents\github\dsp\software\algemeen\h\algdef.h **** {
ARM GAS   			page 10


 216:c:\users\niels\documents\github\dsp\software\algemeen\h\algdef.h **** 	return(((0==((*x) & y)) ? false : true));
 217:c:\users\niels\documents\github\dsp\software\algemeen\h\algdef.h **** }
 218:c:\users\niels\documents\github\dsp\software\algemeen\h\algdef.h **** 
 219:c:\users\niels\documents\github\dsp\software\algemeen\h\algdef.h **** 
 220:c:\users\niels\documents\github\dsp\software\algemeen\h\algdef.h **** /*! @brief klap het bit op nummer y om */
 221:c:\users\niels\documents\github\dsp\software\algemeen\h\algdef.h **** template <typename ttype>
 222:c:\users\niels\documents\github\dsp\software\algemeen\h\algdef.h **** void ToggleBit(ttype &x,const Teller y)
 223:c:\users\niels\documents\github\dsp\software\algemeen\h\algdef.h **** {
 224:c:\users\niels\documents\github\dsp\software\algemeen\h\algdef.h **** 	static const ttype schuiver=1;
 225:c:\users\niels\documents\github\dsp\software\algemeen\h\algdef.h **** 	const ttype verschuiving = (schuiver << y);
 226:c:\users\niels\documents\github\dsp\software\algemeen\h\algdef.h **** 	x ^=  verschuiving;  /* verander bit y in byte x */
 227:c:\users\niels\documents\github\dsp\software\algemeen\h\algdef.h **** }
 228:c:\users\niels\documents\github\dsp\software\algemeen\h\algdef.h **** 
 229:c:\users\niels\documents\github\dsp\software\algemeen\h\algdef.h **** /*! @brief klap het bitpatroon y om */
 230:c:\users\niels\documents\github\dsp\software\algemeen\h\algdef.h **** template <typename ttype>
 231:c:\users\niels\documents\github\dsp\software\algemeen\h\algdef.h **** void ToggleBitM(ttype &x,const Teller y)
 232:c:\users\niels\documents\github\dsp\software\algemeen\h\algdef.h **** {
 233:c:\users\niels\documents\github\dsp\software\algemeen\h\algdef.h **** 	x ^= y;  /* verander bit y in byte x */
 234:c:\users\niels\documents\github\dsp\software\algemeen\h\algdef.h **** }
 235:c:\users\niels\documents\github\dsp\software\algemeen\h\algdef.h **** 
 236:c:\users\niels\documents\github\dsp\software\algemeen\h\algdef.h **** /*! @brief klap het bit op nummer y om */
 237:c:\users\niels\documents\github\dsp\software\algemeen\h\algdef.h **** template <typename ttype>
 238:c:\users\niels\documents\github\dsp\software\algemeen\h\algdef.h **** void ToggleBit(ttype *x,const Teller y)
 239:c:\users\niels\documents\github\dsp\software\algemeen\h\algdef.h **** {
 240:c:\users\niels\documents\github\dsp\software\algemeen\h\algdef.h **** 	static const ttype schuiver = 1;
 241:c:\users\niels\documents\github\dsp\software\algemeen\h\algdef.h **** 	const ttype verschuiving = (schuiver << y);
 242:c:\users\niels\documents\github\dsp\software\algemeen\h\algdef.h **** 	ttype inhoud = *x;
 243:c:\users\niels\documents\github\dsp\software\algemeen\h\algdef.h **** 	inhoud ^= verschuiving;       /* toggle bit y in byte x*/
 244:c:\users\niels\documents\github\dsp\software\algemeen\h\algdef.h **** 	*x = inhoud;
 245:c:\users\niels\documents\github\dsp\software\algemeen\h\algdef.h **** }
 246:c:\users\niels\documents\github\dsp\software\algemeen\h\algdef.h **** 
 247:c:\users\niels\documents\github\dsp\software\algemeen\h\algdef.h **** /*! @brief Zet bit y in byte x gelijk aan de boolean b */
 248:c:\users\niels\documents\github\dsp\software\algemeen\h\algdef.h **** template <typename ttype>
 249:c:\users\niels\documents\github\dsp\software\algemeen\h\algdef.h **** void EnterBit(ttype &x,const Teller y,const bool b)
 250:c:\users\niels\documents\github\dsp\software\algemeen\h\algdef.h **** {
 251:c:\users\niels\documents\github\dsp\software\algemeen\h\algdef.h **** 	if (true==b)
 252:c:\users\niels\documents\github\dsp\software\algemeen\h\algdef.h **** 		SetBit<ttype>(x,y);
 253:c:\users\niels\documents\github\dsp\software\algemeen\h\algdef.h **** 	else
 254:c:\users\niels\documents\github\dsp\software\algemeen\h\algdef.h **** 		ClearBit<ttype>(x,y);
 255:c:\users\niels\documents\github\dsp\software\algemeen\h\algdef.h **** }
 256:c:\users\niels\documents\github\dsp\software\algemeen\h\algdef.h **** 
 257:c:\users\niels\documents\github\dsp\software\algemeen\h\algdef.h **** /*! @brief zet bitpatroon y in x gelijk aan de boolean b */
 258:c:\users\niels\documents\github\dsp\software\algemeen\h\algdef.h **** template <typename ttype>
 259:c:\users\niels\documents\github\dsp\software\algemeen\h\algdef.h **** void EnterBitM(ttype &x,const ttype y,const bool b)
 260:c:\users\niels\documents\github\dsp\software\algemeen\h\algdef.h **** {
 261:c:\users\niels\documents\github\dsp\software\algemeen\h\algdef.h **** 	if (true==b)
 262:c:\users\niels\documents\github\dsp\software\algemeen\h\algdef.h **** 		SetBitM<ttype>(x,y);
 263:c:\users\niels\documents\github\dsp\software\algemeen\h\algdef.h **** 	else
 264:c:\users\niels\documents\github\dsp\software\algemeen\h\algdef.h **** 		ClearBitM<ttype>(x,y);
 265:c:\users\niels\documents\github\dsp\software\algemeen\h\algdef.h **** }
 266:c:\users\niels\documents\github\dsp\software\algemeen\h\algdef.h **** 
 267:c:\users\niels\documents\github\dsp\software\algemeen\h\algdef.h **** 
 268:c:\users\niels\documents\github\dsp\software\algemeen\h\algdef.h **** 
 269:c:\users\niels\documents\github\dsp\software\algemeen\h\algdef.h **** /*! @brief zet bit y in byte x aan als Schakelaar==aan, anders uit */
 270:c:\users\niels\documents\github\dsp\software\algemeen\h\algdef.h **** template <typename ttype>
 271:c:\users\niels\documents\github\dsp\software\algemeen\h\algdef.h **** void EnterBit(ttype &x,const Teller y,const Schakelaar knop)
 243              	 .loc 2 271 6
ARM GAS   			page 11


 244              	 .cfi_startproc
 245              	 
 246              	 
 247 0000 80B5     	 push {r7,lr}
 248              	 .cfi_def_cfa_offset 8
 249              	 .cfi_offset 7,-8
 250              	 .cfi_offset 14,-4
 251 0002 84B0     	 sub sp,sp,#16
 252              	 .cfi_def_cfa_offset 24
 253 0004 00AF     	 add r7,sp,#0
 254              	 .cfi_def_cfa_register 7
 255 0006 F860     	 str r0,[r7,#12]
 256 0008 B960     	 str r1,[r7,#8]
 257 000a 7A60     	 str r2,[r7,#4]
 272:c:\users\niels\documents\github\dsp\software\algemeen\h\algdef.h **** {
 273:c:\users\niels\documents\github\dsp\software\algemeen\h\algdef.h **** 	if (knop==Schakelaar::Aan)
 258              	 .loc 2 273 2
 259 000c 7B68     	 ldr r3,[r7,#4]
 260 000e 012B     	 cmp r3,#1
 261 0010 04D1     	 bne .L13
 274:c:\users\niels\documents\github\dsp\software\algemeen\h\algdef.h **** 		SetBit<ttype>(x,y);
 262              	 .loc 2 274 16
 263 0012 B968     	 ldr r1,[r7,#8]
 264 0014 F868     	 ldr r0,[r7,#12]
 265 0016 FFF7FEFF 	 bl _Z6SetBitIVmEvRT_m
 275:c:\users\niels\documents\github\dsp\software\algemeen\h\algdef.h **** 	else
 276:c:\users\niels\documents\github\dsp\software\algemeen\h\algdef.h **** 		ClearBit<ttype>(x,y);
 277:c:\users\niels\documents\github\dsp\software\algemeen\h\algdef.h **** }
 266              	 .loc 2 277 1
 267 001a 03E0     	 b .L15
 268              	.L13:
 276:c:\users\niels\documents\github\dsp\software\algemeen\h\algdef.h **** }
 269              	 .loc 2 276 18
 270 001c B968     	 ldr r1,[r7,#8]
 271 001e F868     	 ldr r0,[r7,#12]
 272 0020 FFF7FEFF 	 bl _Z8ClearBitIVmEvRT_m
 273              	.L15:
 274              	 .loc 2 277 1
 275 0024 00BF     	 nop
 276 0026 1037     	 adds r7,r7,#16
 277              	 .cfi_def_cfa_offset 8
 278 0028 BD46     	 mov sp,r7
 279              	 .cfi_def_cfa_register 13
 280              	 
 281 002a 80BD     	 pop {r7,pc}
 282              	 .cfi_endproc
 283              	.LFE375:
 284              	 .size _Z8EnterBitIVmEvRT_m10Schakelaar,.-_Z8EnterBitIVmEvRT_m10Schakelaar
 285              	 .section .text._Z8EnterBitIVmEvRT_mb,"axG",%progbits,_Z8EnterBitIVmEvRT_mb,comdat
 286              	 .align 1
 287              	 .weak _Z8EnterBitIVmEvRT_mb
 288              	 .syntax unified
 289              	 .thumb
 290              	 .thumb_func
 291              	 .type _Z8EnterBitIVmEvRT_mb,%function
 292              	_Z8EnterBitIVmEvRT_mb:
 293              	.LFB376:
ARM GAS   			page 12


 249:c:\users\niels\documents\github\dsp\software\algemeen\h\algdef.h **** {
 294              	 .loc 2 249 6
 295              	 .cfi_startproc
 296              	 
 297              	 
 298 0000 80B5     	 push {r7,lr}
 299              	 .cfi_def_cfa_offset 8
 300              	 .cfi_offset 7,-8
 301              	 .cfi_offset 14,-4
 302 0002 84B0     	 sub sp,sp,#16
 303              	 .cfi_def_cfa_offset 24
 304 0004 00AF     	 add r7,sp,#0
 305              	 .cfi_def_cfa_register 7
 306 0006 F860     	 str r0,[r7,#12]
 307 0008 B960     	 str r1,[r7,#8]
 308 000a 1346     	 mov r3,r2
 309 000c FB71     	 strb r3,[r7,#7]
 251:c:\users\niels\documents\github\dsp\software\algemeen\h\algdef.h **** 		SetBit<ttype>(x,y);
 310              	 .loc 2 251 10
 311 000e FB79     	 ldrb r3,[r7,#7]
 251:c:\users\niels\documents\github\dsp\software\algemeen\h\algdef.h **** 		SetBit<ttype>(x,y);
 312              	 .loc 2 251 2
 313 0010 012B     	 cmp r3,#1
 314 0012 04D1     	 bne .L17
 252:c:\users\niels\documents\github\dsp\software\algemeen\h\algdef.h **** 	else
 315              	 .loc 2 252 16
 316 0014 B968     	 ldr r1,[r7,#8]
 317 0016 F868     	 ldr r0,[r7,#12]
 318 0018 FFF7FEFF 	 bl _Z6SetBitIVmEvRT_m
 255:c:\users\niels\documents\github\dsp\software\algemeen\h\algdef.h **** 
 319              	 .loc 2 255 1
 320 001c 03E0     	 b .L19
 321              	.L17:
 254:c:\users\niels\documents\github\dsp\software\algemeen\h\algdef.h **** }
 322              	 .loc 2 254 18
 323 001e B968     	 ldr r1,[r7,#8]
 324 0020 F868     	 ldr r0,[r7,#12]
 325 0022 FFF7FEFF 	 bl _Z8ClearBitIVmEvRT_m
 326              	.L19:
 255:c:\users\niels\documents\github\dsp\software\algemeen\h\algdef.h **** 
 327              	 .loc 2 255 1
 328 0026 00BF     	 nop
 329 0028 1037     	 adds r7,r7,#16
 330              	 .cfi_def_cfa_offset 8
 331 002a BD46     	 mov sp,r7
 332              	 .cfi_def_cfa_register 13
 333              	 
 334 002c 80BD     	 pop {r7,pc}
 335              	 .cfi_endproc
 336              	.LFE376:
 337              	 .size _Z8EnterBitIVmEvRT_mb,.-_Z8EnterBitIVmEvRT_mb
 338              	 .weak _ZZ6SetBitIVmEvRT_mE8schuiver
 339              	 .section .data._ZZ6SetBitIVmEvRT_mE8schuiver,"awG",%progbits,_ZZ6SetBitIVmEvRT_mE8schuiver,comdat
 340              	 .align 2
 341              	 .type _ZZ6SetBitIVmEvRT_mE8schuiver,%object
 342              	 .size _ZZ6SetBitIVmEvRT_mE8schuiver,4
 343              	_ZZ6SetBitIVmEvRT_mE8schuiver:
ARM GAS   			page 13


 344 0000 01000000 	 .word 1
 345              	 .section .text._Z6SetBitIVmEvRT_m,"axG",%progbits,_Z6SetBitIVmEvRT_m,comdat
 346              	 .align 1
 347              	 .weak _Z6SetBitIVmEvRT_m
 348              	 .syntax unified
 349              	 .thumb
 350              	 .thumb_func
 351              	 .type _Z6SetBitIVmEvRT_m,%function
 352              	_Z6SetBitIVmEvRT_m:
 353              	.LFB377:
 121:c:\users\niels\documents\github\dsp\software\algemeen\h\algdef.h **** {
 354              	 .loc 2 121 6
 355              	 .cfi_startproc
 356              	 
 357              	 
 358              	 
 359 0000 80B4     	 push {r7}
 360              	 .cfi_def_cfa_offset 4
 361              	 .cfi_offset 7,-4
 362 0002 85B0     	 sub sp,sp,#20
 363              	 .cfi_def_cfa_offset 24
 364 0004 00AF     	 add r7,sp,#0
 365              	 .cfi_def_cfa_register 7
 366 0006 7860     	 str r0,[r7,#4]
 367 0008 3960     	 str r1,[r7]
 124:c:\users\niels\documents\github\dsp\software\algemeen\h\algdef.h **** 	x |= verschuiving;       /* Set bit y in byte x*/
 368              	 .loc 2 124 30
 369 000a 094B     	 ldr r3,.L21
 370 000c 1A68     	 ldr r2,[r3]
 124:c:\users\niels\documents\github\dsp\software\algemeen\h\algdef.h **** 	x |= verschuiving;       /* Set bit y in byte x*/
 371              	 .loc 2 124 39
 372 000e 3B68     	 ldr r3,[r7]
 373 0010 02FA03F3 	 lsl r3,r2,r3
 124:c:\users\niels\documents\github\dsp\software\algemeen\h\algdef.h **** 	x |= verschuiving;       /* Set bit y in byte x*/
 374              	 .loc 2 124 14
 375 0014 FB60     	 str r3,[r7,#12]
 125:c:\users\niels\documents\github\dsp\software\algemeen\h\algdef.h **** }
 376              	 .loc 2 125 7
 377 0016 FA68     	 ldr r2,[r7,#12]
 125:c:\users\niels\documents\github\dsp\software\algemeen\h\algdef.h **** }
 378              	 .loc 2 125 4
 379 0018 7B68     	 ldr r3,[r7,#4]
 380 001a 1B68     	 ldr r3,[r3]
 381 001c 1A43     	 orrs r2,r2,r3
 382 001e 7B68     	 ldr r3,[r7,#4]
 383 0020 1A60     	 str r2,[r3]
 126:c:\users\niels\documents\github\dsp\software\algemeen\h\algdef.h **** 
 384              	 .loc 2 126 1
 385 0022 00BF     	 nop
 386 0024 1437     	 adds r7,r7,#20
 387              	 .cfi_def_cfa_offset 4
 388 0026 BD46     	 mov sp,r7
 389              	 .cfi_def_cfa_register 13
 390              	 
 391 0028 5DF8047B 	 ldr r7,[sp],#4
 392              	 .cfi_restore 7
 393              	 .cfi_def_cfa_offset 0
ARM GAS   			page 14


 394 002c 7047     	 bx lr
 395              	.L22:
 396 002e 00BF     	 .align 2
 397              	.L21:
 398 0030 00000000 	 .word _ZZ6SetBitIVmEvRT_mE8schuiver
 399              	 .cfi_endproc
 400              	.LFE377:
 401              	 .size _Z6SetBitIVmEvRT_m,.-_Z6SetBitIVmEvRT_m
 402              	 .weak _ZZ8ClearBitIVmEvRT_mE8schuiver
 403              	 .section .data._ZZ8ClearBitIVmEvRT_mE8schuiver,"awG",%progbits,_ZZ8ClearBitIVmEvRT_mE8schuiver,comdat
 404              	 .align 2
 405              	 .type _ZZ8ClearBitIVmEvRT_mE8schuiver,%object
 406              	 .size _ZZ8ClearBitIVmEvRT_mE8schuiver,4
 407              	_ZZ8ClearBitIVmEvRT_mE8schuiver:
 408 0000 01000000 	 .word 1
 409              	 .section .text._Z8ClearBitIVmEvRT_m,"axG",%progbits,_Z8ClearBitIVmEvRT_m,comdat
 410              	 .align 1
 411              	 .weak _Z8ClearBitIVmEvRT_m
 412              	 .syntax unified
 413              	 .thumb
 414              	 .thumb_func
 415              	 .type _Z8ClearBitIVmEvRT_m,%function
 416              	_Z8ClearBitIVmEvRT_m:
 417              	.LFB378:
 160:c:\users\niels\documents\github\dsp\software\algemeen\h\algdef.h **** {
 418              	 .loc 2 160 6
 419              	 .cfi_startproc
 420              	 
 421              	 
 422              	 
 423 0000 80B4     	 push {r7}
 424              	 .cfi_def_cfa_offset 4
 425              	 .cfi_offset 7,-4
 426 0002 85B0     	 sub sp,sp,#20
 427              	 .cfi_def_cfa_offset 24
 428 0004 00AF     	 add r7,sp,#0
 429              	 .cfi_def_cfa_register 7
 430 0006 7860     	 str r0,[r7,#4]
 431 0008 3960     	 str r1,[r7]
 163:c:\users\niels\documents\github\dsp\software\algemeen\h\algdef.h **** 	x &= verschuiving;       /* Clear bit y in byte x*/
 432              	 .loc 2 163 31
 433 000a 094B     	 ldr r3,.L24
 434 000c 1A68     	 ldr r2,[r3]
 163:c:\users\niels\documents\github\dsp\software\algemeen\h\algdef.h **** 	x &= verschuiving;       /* Clear bit y in byte x*/
 435              	 .loc 2 163 40
 436 000e 3B68     	 ldr r3,[r7]
 437 0010 02FA03F3 	 lsl r3,r2,r3
 163:c:\users\niels\documents\github\dsp\software\algemeen\h\algdef.h **** 	x &= verschuiving;       /* Clear bit y in byte x*/
 438              	 .loc 2 163 14
 439 0014 DB43     	 mvns r3,r3
 440 0016 FB60     	 str r3,[r7,#12]
 164:c:\users\niels\documents\github\dsp\software\algemeen\h\algdef.h **** }
 441              	 .loc 2 164 7
 442 0018 FA68     	 ldr r2,[r7,#12]
 164:c:\users\niels\documents\github\dsp\software\algemeen\h\algdef.h **** }
 443              	 .loc 2 164 4
 444 001a 7B68     	 ldr r3,[r7,#4]
ARM GAS   			page 15


 445 001c 1B68     	 ldr r3,[r3]
 446 001e 1A40     	 ands r2,r2,r3
 447 0020 7B68     	 ldr r3,[r7,#4]
 448 0022 1A60     	 str r2,[r3]
 165:c:\users\niels\documents\github\dsp\software\algemeen\h\algdef.h **** 
 449              	 .loc 2 165 1
 450 0024 00BF     	 nop
 451 0026 1437     	 adds r7,r7,#20
 452              	 .cfi_def_cfa_offset 4
 453 0028 BD46     	 mov sp,r7
 454              	 .cfi_def_cfa_register 13
 455              	 
 456 002a 5DF8047B 	 ldr r7,[sp],#4
 457              	 .cfi_restore 7
 458              	 .cfi_def_cfa_offset 0
 459 002e 7047     	 bx lr
 460              	.L25:
 461              	 .align 2
 462              	.L24:
 463 0030 00000000 	 .word _ZZ8ClearBitIVmEvRT_mE8schuiver
 464              	 .cfi_endproc
 465              	.LFE378:
 466              	 .size _Z8ClearBitIVmEvRT_m,.-_Z8ClearBitIVmEvRT_m
 467              	 .text
 468              	.Letext0:
 469              	 .file 3 "c:\\progra~2\\gnuarm~1\\102021~1.10\\arm-none-eabi\\include\\machine\\_default_types.h"
 470              	 .file 4 "c:\\progra~2\\gnuarm~1\\102021~1.10\\arm-none-eabi\\include\\sys\\_stdint.h"
 471              	 .file 5 "c:\\progra~2\\gnuarm~1\\102021~1.10\\arm-none-eabi\\include\\c++\\10.3.1\\bits\\cpp_type_traits.h"
 472              	 .file 6 "c:\\progra~2\\gnuarm~1\\102021~1.10\\arm-none-eabi\\include\\c++\\10.3.1\\cmath"
 473              	 .file 7 "c:\\progra~2\\gnuarm~1\\102021~1.10\\arm-none-eabi\\include\\c++\\10.3.1\\bits\\std_abs.h"
 474              	 .file 8 "c:\\progra~2\\gnuarm~1\\102021~1.10\\arm-none-eabi\\include\\c++\\10.3.1\\arm-none-eabi\\thumb\\v7e-m+fp\\hard\\bits\\c++config.h"
 475              	 .file 9 "c:\\progra~2\\gnuarm~1\\102021~1.10\\arm-none-eabi\\include\\math.h"
 476              	 .file 10 "c:\\progra~2\\gnuarm~1\\102021~1.10\\arm-none-eabi\\include\\c++\\10.3.1\\math.h"
 477              	 .file 11 "c:\\users\\niels\\documents\\github\\dsp\\software\\stm32basis\\gemeenschappelijk\\basis\\h\\cortexmprocessor.h"
 478              	 .file 12 "c:\\users\\niels\\documents\\github\\dsp\\software\\stm32basis\\hal\\gemeenschappelijk\\libraries\\cmsis\\include\\core_cm4.h"
 479              	 .file 13 "<built-in>"