ARM GAS   			page 1


   1              	 .cpu cortex-m4
   2              	 .arch armv7e-m
   3              	 .fpu fpv4-sp-d16
   4              	 .eabi_attribute 27,1
   5              	 .eabi_attribute 28,1
   6              	 .eabi_attribute 20,1
   7              	 .eabi_attribute 21,1
   8              	 .eabi_attribute 23,3
   9              	 .eabi_attribute 24,1
  10              	 .eabi_attribute 25,1
  11              	 .eabi_attribute 26,1
  12              	 .eabi_attribute 30,6
  13              	 .eabi_attribute 34,0
  14              	 .eabi_attribute 18,4
  15              	 .file "cmutex.cpp"
  16              	 .text
  17              	.Ltext0:
  18              	 .cfi_sections .debug_frame
  19              	 .section .rodata._ZStL19piecewise_construct,"a"
  20              	 .align 2
  21              	 .type _ZStL19piecewise_construct,%object
  22              	 .size _ZStL19piecewise_construct,1
  23              	_ZStL19piecewise_construct:
  24 0000 00       	 .space 1
  25              	 .section .text._ZL20__gthread_key_deletei,"ax",%progbits
  26              	 .align 1
  27              	 .syntax unified
  28              	 .thumb
  29              	 .thumb_func
  30              	 .type _ZL20__gthread_key_deletei,%function
  31              	_ZL20__gthread_key_deletei:
  32              	.LFB652:
  33              	 .file 1 "c:\\progra~2\\gnuarm~1\\102021~1.10\\arm-none-eabi\\include\\c++\\10.3.1\\arm-none-eabi\\thumb\\v7e-m+fp\\hard\\bits\\gthr-default.h"
   1:c:\progra~2\gnuarm~1\102021~1.10\arm-none-eabi\include\c++\10.3.1\arm-none-eabi\thumb\v7e-m+fp\hard\bits\gthr-default.h **** /* Threads compatibility routines for libgcc2 and libobjc.  */
   2:c:\progra~2\gnuarm~1\102021~1.10\arm-none-eabi\include\c++\10.3.1\arm-none-eabi\thumb\v7e-m+fp\hard\bits\gthr-default.h **** /* Compile this one with gcc.  */
   3:c:\progra~2\gnuarm~1\102021~1.10\arm-none-eabi\include\c++\10.3.1\arm-none-eabi\thumb\v7e-m+fp\hard\bits\gthr-default.h **** /* Copyright (C) 1997-2020 Free Software Foundation, Inc.
   4:c:\progra~2\gnuarm~1\102021~1.10\arm-none-eabi\include\c++\10.3.1\arm-none-eabi\thumb\v7e-m+fp\hard\bits\gthr-default.h **** 
   5:c:\progra~2\gnuarm~1\102021~1.10\arm-none-eabi\include\c++\10.3.1\arm-none-eabi\thumb\v7e-m+fp\hard\bits\gthr-default.h **** This file is part of GCC.
   6:c:\progra~2\gnuarm~1\102021~1.10\arm-none-eabi\include\c++\10.3.1\arm-none-eabi\thumb\v7e-m+fp\hard\bits\gthr-default.h **** 
   7:c:\progra~2\gnuarm~1\102021~1.10\arm-none-eabi\include\c++\10.3.1\arm-none-eabi\thumb\v7e-m+fp\hard\bits\gthr-default.h **** GCC is free software; you can redistribute it and/or modify it under
   8:c:\progra~2\gnuarm~1\102021~1.10\arm-none-eabi\include\c++\10.3.1\arm-none-eabi\thumb\v7e-m+fp\hard\bits\gthr-default.h **** the terms of the GNU General Public License as published by the Free
   9:c:\progra~2\gnuarm~1\102021~1.10\arm-none-eabi\include\c++\10.3.1\arm-none-eabi\thumb\v7e-m+fp\hard\bits\gthr-default.h **** Software Foundation; either version 3, or (at your option) any later
  10:c:\progra~2\gnuarm~1\102021~1.10\arm-none-eabi\include\c++\10.3.1\arm-none-eabi\thumb\v7e-m+fp\hard\bits\gthr-default.h **** version.
  11:c:\progra~2\gnuarm~1\102021~1.10\arm-none-eabi\include\c++\10.3.1\arm-none-eabi\thumb\v7e-m+fp\hard\bits\gthr-default.h **** 
  12:c:\progra~2\gnuarm~1\102021~1.10\arm-none-eabi\include\c++\10.3.1\arm-none-eabi\thumb\v7e-m+fp\hard\bits\gthr-default.h **** GCC is distributed in the hope that it will be useful, but WITHOUT ANY
  13:c:\progra~2\gnuarm~1\102021~1.10\arm-none-eabi\include\c++\10.3.1\arm-none-eabi\thumb\v7e-m+fp\hard\bits\gthr-default.h **** WARRANTY; without even the implied warranty of MERCHANTABILITY or
  14:c:\progra~2\gnuarm~1\102021~1.10\arm-none-eabi\include\c++\10.3.1\arm-none-eabi\thumb\v7e-m+fp\hard\bits\gthr-default.h **** FITNESS FOR A PARTICULAR PURPOSE.  See the GNU General Public License
  15:c:\progra~2\gnuarm~1\102021~1.10\arm-none-eabi\include\c++\10.3.1\arm-none-eabi\thumb\v7e-m+fp\hard\bits\gthr-default.h **** for more details.
  16:c:\progra~2\gnuarm~1\102021~1.10\arm-none-eabi\include\c++\10.3.1\arm-none-eabi\thumb\v7e-m+fp\hard\bits\gthr-default.h **** 
  17:c:\progra~2\gnuarm~1\102021~1.10\arm-none-eabi\include\c++\10.3.1\arm-none-eabi\thumb\v7e-m+fp\hard\bits\gthr-default.h **** Under Section 7 of GPL version 3, you are granted additional
  18:c:\progra~2\gnuarm~1\102021~1.10\arm-none-eabi\include\c++\10.3.1\arm-none-eabi\thumb\v7e-m+fp\hard\bits\gthr-default.h **** permissions described in the GCC Runtime Library Exception, version
  19:c:\progra~2\gnuarm~1\102021~1.10\arm-none-eabi\include\c++\10.3.1\arm-none-eabi\thumb\v7e-m+fp\hard\bits\gthr-default.h **** 3.1, as published by the Free Software Foundation.
  20:c:\progra~2\gnuarm~1\102021~1.10\arm-none-eabi\include\c++\10.3.1\arm-none-eabi\thumb\v7e-m+fp\hard\bits\gthr-default.h **** 
  21:c:\progra~2\gnuarm~1\102021~1.10\arm-none-eabi\include\c++\10.3.1\arm-none-eabi\thumb\v7e-m+fp\hard\bits\gthr-default.h **** You should have received a copy of the GNU General Public License and
  22:c:\progra~2\gnuarm~1\102021~1.10\arm-none-eabi\include\c++\10.3.1\arm-none-eabi\thumb\v7e-m+fp\hard\bits\gthr-default.h **** a copy of the GCC Runtime Library Exception along with this program;
  23:c:\progra~2\gnuarm~1\102021~1.10\arm-none-eabi\include\c++\10.3.1\arm-none-eabi\thumb\v7e-m+fp\hard\bits\gthr-default.h **** see the files COPYING3 and COPYING.RUNTIME respectively.  If not, see
  24:c:\progra~2\gnuarm~1\102021~1.10\arm-none-eabi\include\c++\10.3.1\arm-none-eabi\thumb\v7e-m+fp\hard\bits\gthr-default.h **** <http://www.gnu.org/licenses/>.  */
ARM GAS   			page 2


  25:c:\progra~2\gnuarm~1\102021~1.10\arm-none-eabi\include\c++\10.3.1\arm-none-eabi\thumb\v7e-m+fp\hard\bits\gthr-default.h **** 
  26:c:\progra~2\gnuarm~1\102021~1.10\arm-none-eabi\include\c++\10.3.1\arm-none-eabi\thumb\v7e-m+fp\hard\bits\gthr-default.h **** #ifndef _GLIBCXX_GCC_GTHR_SINGLE_H
  27:c:\progra~2\gnuarm~1\102021~1.10\arm-none-eabi\include\c++\10.3.1\arm-none-eabi\thumb\v7e-m+fp\hard\bits\gthr-default.h **** #define _GLIBCXX_GCC_GTHR_SINGLE_H
  28:c:\progra~2\gnuarm~1\102021~1.10\arm-none-eabi\include\c++\10.3.1\arm-none-eabi\thumb\v7e-m+fp\hard\bits\gthr-default.h **** 
  29:c:\progra~2\gnuarm~1\102021~1.10\arm-none-eabi\include\c++\10.3.1\arm-none-eabi\thumb\v7e-m+fp\hard\bits\gthr-default.h **** /* Just provide compatibility for mutex handling.  */
  30:c:\progra~2\gnuarm~1\102021~1.10\arm-none-eabi\include\c++\10.3.1\arm-none-eabi\thumb\v7e-m+fp\hard\bits\gthr-default.h **** 
  31:c:\progra~2\gnuarm~1\102021~1.10\arm-none-eabi\include\c++\10.3.1\arm-none-eabi\thumb\v7e-m+fp\hard\bits\gthr-default.h **** typedef int __gthread_key_t;
  32:c:\progra~2\gnuarm~1\102021~1.10\arm-none-eabi\include\c++\10.3.1\arm-none-eabi\thumb\v7e-m+fp\hard\bits\gthr-default.h **** typedef int __gthread_once_t;
  33:c:\progra~2\gnuarm~1\102021~1.10\arm-none-eabi\include\c++\10.3.1\arm-none-eabi\thumb\v7e-m+fp\hard\bits\gthr-default.h **** typedef int __gthread_mutex_t;
  34:c:\progra~2\gnuarm~1\102021~1.10\arm-none-eabi\include\c++\10.3.1\arm-none-eabi\thumb\v7e-m+fp\hard\bits\gthr-default.h **** typedef int __gthread_recursive_mutex_t;
  35:c:\progra~2\gnuarm~1\102021~1.10\arm-none-eabi\include\c++\10.3.1\arm-none-eabi\thumb\v7e-m+fp\hard\bits\gthr-default.h **** 
  36:c:\progra~2\gnuarm~1\102021~1.10\arm-none-eabi\include\c++\10.3.1\arm-none-eabi\thumb\v7e-m+fp\hard\bits\gthr-default.h **** #define __GTHREAD_ONCE_INIT 0
  37:c:\progra~2\gnuarm~1\102021~1.10\arm-none-eabi\include\c++\10.3.1\arm-none-eabi\thumb\v7e-m+fp\hard\bits\gthr-default.h **** #define __GTHREAD_MUTEX_INIT 0
  38:c:\progra~2\gnuarm~1\102021~1.10\arm-none-eabi\include\c++\10.3.1\arm-none-eabi\thumb\v7e-m+fp\hard\bits\gthr-default.h **** #define __GTHREAD_MUTEX_INIT_FUNCTION(mx) do {} while (0)
  39:c:\progra~2\gnuarm~1\102021~1.10\arm-none-eabi\include\c++\10.3.1\arm-none-eabi\thumb\v7e-m+fp\hard\bits\gthr-default.h **** #define __GTHREAD_RECURSIVE_MUTEX_INIT 0
  40:c:\progra~2\gnuarm~1\102021~1.10\arm-none-eabi\include\c++\10.3.1\arm-none-eabi\thumb\v7e-m+fp\hard\bits\gthr-default.h **** 
  41:c:\progra~2\gnuarm~1\102021~1.10\arm-none-eabi\include\c++\10.3.1\arm-none-eabi\thumb\v7e-m+fp\hard\bits\gthr-default.h **** #define _GLIBCXX_UNUSED __attribute__((__unused__))
  42:c:\progra~2\gnuarm~1\102021~1.10\arm-none-eabi\include\c++\10.3.1\arm-none-eabi\thumb\v7e-m+fp\hard\bits\gthr-default.h **** 
  43:c:\progra~2\gnuarm~1\102021~1.10\arm-none-eabi\include\c++\10.3.1\arm-none-eabi\thumb\v7e-m+fp\hard\bits\gthr-default.h **** #ifdef _LIBOBJC
  44:c:\progra~2\gnuarm~1\102021~1.10\arm-none-eabi\include\c++\10.3.1\arm-none-eabi\thumb\v7e-m+fp\hard\bits\gthr-default.h **** 
  45:c:\progra~2\gnuarm~1\102021~1.10\arm-none-eabi\include\c++\10.3.1\arm-none-eabi\thumb\v7e-m+fp\hard\bits\gthr-default.h **** /* Thread local storage for a single thread */
  46:c:\progra~2\gnuarm~1\102021~1.10\arm-none-eabi\include\c++\10.3.1\arm-none-eabi\thumb\v7e-m+fp\hard\bits\gthr-default.h **** static void *thread_local_storage = NULL;
  47:c:\progra~2\gnuarm~1\102021~1.10\arm-none-eabi\include\c++\10.3.1\arm-none-eabi\thumb\v7e-m+fp\hard\bits\gthr-default.h **** 
  48:c:\progra~2\gnuarm~1\102021~1.10\arm-none-eabi\include\c++\10.3.1\arm-none-eabi\thumb\v7e-m+fp\hard\bits\gthr-default.h **** /* Backend initialization functions */
  49:c:\progra~2\gnuarm~1\102021~1.10\arm-none-eabi\include\c++\10.3.1\arm-none-eabi\thumb\v7e-m+fp\hard\bits\gthr-default.h **** 
  50:c:\progra~2\gnuarm~1\102021~1.10\arm-none-eabi\include\c++\10.3.1\arm-none-eabi\thumb\v7e-m+fp\hard\bits\gthr-default.h **** /* Initialize the threads subsystem.  */
  51:c:\progra~2\gnuarm~1\102021~1.10\arm-none-eabi\include\c++\10.3.1\arm-none-eabi\thumb\v7e-m+fp\hard\bits\gthr-default.h **** static inline int
  52:c:\progra~2\gnuarm~1\102021~1.10\arm-none-eabi\include\c++\10.3.1\arm-none-eabi\thumb\v7e-m+fp\hard\bits\gthr-default.h **** __gthread_objc_init_thread_system (void)
  53:c:\progra~2\gnuarm~1\102021~1.10\arm-none-eabi\include\c++\10.3.1\arm-none-eabi\thumb\v7e-m+fp\hard\bits\gthr-default.h **** {
  54:c:\progra~2\gnuarm~1\102021~1.10\arm-none-eabi\include\c++\10.3.1\arm-none-eabi\thumb\v7e-m+fp\hard\bits\gthr-default.h ****   /* No thread support available */
  55:c:\progra~2\gnuarm~1\102021~1.10\arm-none-eabi\include\c++\10.3.1\arm-none-eabi\thumb\v7e-m+fp\hard\bits\gthr-default.h ****   return -1;
  56:c:\progra~2\gnuarm~1\102021~1.10\arm-none-eabi\include\c++\10.3.1\arm-none-eabi\thumb\v7e-m+fp\hard\bits\gthr-default.h **** }
  57:c:\progra~2\gnuarm~1\102021~1.10\arm-none-eabi\include\c++\10.3.1\arm-none-eabi\thumb\v7e-m+fp\hard\bits\gthr-default.h **** 
  58:c:\progra~2\gnuarm~1\102021~1.10\arm-none-eabi\include\c++\10.3.1\arm-none-eabi\thumb\v7e-m+fp\hard\bits\gthr-default.h **** /* Close the threads subsystem.  */
  59:c:\progra~2\gnuarm~1\102021~1.10\arm-none-eabi\include\c++\10.3.1\arm-none-eabi\thumb\v7e-m+fp\hard\bits\gthr-default.h **** static inline int
  60:c:\progra~2\gnuarm~1\102021~1.10\arm-none-eabi\include\c++\10.3.1\arm-none-eabi\thumb\v7e-m+fp\hard\bits\gthr-default.h **** __gthread_objc_close_thread_system (void)
  61:c:\progra~2\gnuarm~1\102021~1.10\arm-none-eabi\include\c++\10.3.1\arm-none-eabi\thumb\v7e-m+fp\hard\bits\gthr-default.h **** {
  62:c:\progra~2\gnuarm~1\102021~1.10\arm-none-eabi\include\c++\10.3.1\arm-none-eabi\thumb\v7e-m+fp\hard\bits\gthr-default.h ****   /* No thread support available */
  63:c:\progra~2\gnuarm~1\102021~1.10\arm-none-eabi\include\c++\10.3.1\arm-none-eabi\thumb\v7e-m+fp\hard\bits\gthr-default.h ****   return -1;
  64:c:\progra~2\gnuarm~1\102021~1.10\arm-none-eabi\include\c++\10.3.1\arm-none-eabi\thumb\v7e-m+fp\hard\bits\gthr-default.h **** }
  65:c:\progra~2\gnuarm~1\102021~1.10\arm-none-eabi\include\c++\10.3.1\arm-none-eabi\thumb\v7e-m+fp\hard\bits\gthr-default.h **** 
  66:c:\progra~2\gnuarm~1\102021~1.10\arm-none-eabi\include\c++\10.3.1\arm-none-eabi\thumb\v7e-m+fp\hard\bits\gthr-default.h **** /* Backend thread functions */
  67:c:\progra~2\gnuarm~1\102021~1.10\arm-none-eabi\include\c++\10.3.1\arm-none-eabi\thumb\v7e-m+fp\hard\bits\gthr-default.h **** 
  68:c:\progra~2\gnuarm~1\102021~1.10\arm-none-eabi\include\c++\10.3.1\arm-none-eabi\thumb\v7e-m+fp\hard\bits\gthr-default.h **** /* Create a new thread of execution.  */
  69:c:\progra~2\gnuarm~1\102021~1.10\arm-none-eabi\include\c++\10.3.1\arm-none-eabi\thumb\v7e-m+fp\hard\bits\gthr-default.h **** static inline objc_thread_t
  70:c:\progra~2\gnuarm~1\102021~1.10\arm-none-eabi\include\c++\10.3.1\arm-none-eabi\thumb\v7e-m+fp\hard\bits\gthr-default.h **** __gthread_objc_thread_detach (void (* func)(void *), void * arg _GLIBCXX_UNUSED)
  71:c:\progra~2\gnuarm~1\102021~1.10\arm-none-eabi\include\c++\10.3.1\arm-none-eabi\thumb\v7e-m+fp\hard\bits\gthr-default.h **** {
  72:c:\progra~2\gnuarm~1\102021~1.10\arm-none-eabi\include\c++\10.3.1\arm-none-eabi\thumb\v7e-m+fp\hard\bits\gthr-default.h ****   /* No thread support available */
  73:c:\progra~2\gnuarm~1\102021~1.10\arm-none-eabi\include\c++\10.3.1\arm-none-eabi\thumb\v7e-m+fp\hard\bits\gthr-default.h ****   return NULL;
  74:c:\progra~2\gnuarm~1\102021~1.10\arm-none-eabi\include\c++\10.3.1\arm-none-eabi\thumb\v7e-m+fp\hard\bits\gthr-default.h **** }
  75:c:\progra~2\gnuarm~1\102021~1.10\arm-none-eabi\include\c++\10.3.1\arm-none-eabi\thumb\v7e-m+fp\hard\bits\gthr-default.h **** 
  76:c:\progra~2\gnuarm~1\102021~1.10\arm-none-eabi\include\c++\10.3.1\arm-none-eabi\thumb\v7e-m+fp\hard\bits\gthr-default.h **** /* Set the current thread's priority.  */
  77:c:\progra~2\gnuarm~1\102021~1.10\arm-none-eabi\include\c++\10.3.1\arm-none-eabi\thumb\v7e-m+fp\hard\bits\gthr-default.h **** static inline int
  78:c:\progra~2\gnuarm~1\102021~1.10\arm-none-eabi\include\c++\10.3.1\arm-none-eabi\thumb\v7e-m+fp\hard\bits\gthr-default.h **** __gthread_objc_thread_set_priority (int priority _GLIBCXX_UNUSED)
  79:c:\progra~2\gnuarm~1\102021~1.10\arm-none-eabi\include\c++\10.3.1\arm-none-eabi\thumb\v7e-m+fp\hard\bits\gthr-default.h **** {
  80:c:\progra~2\gnuarm~1\102021~1.10\arm-none-eabi\include\c++\10.3.1\arm-none-eabi\thumb\v7e-m+fp\hard\bits\gthr-default.h ****   /* No thread support available */
  81:c:\progra~2\gnuarm~1\102021~1.10\arm-none-eabi\include\c++\10.3.1\arm-none-eabi\thumb\v7e-m+fp\hard\bits\gthr-default.h ****   return -1;
ARM GAS   			page 3


  82:c:\progra~2\gnuarm~1\102021~1.10\arm-none-eabi\include\c++\10.3.1\arm-none-eabi\thumb\v7e-m+fp\hard\bits\gthr-default.h **** }
  83:c:\progra~2\gnuarm~1\102021~1.10\arm-none-eabi\include\c++\10.3.1\arm-none-eabi\thumb\v7e-m+fp\hard\bits\gthr-default.h **** 
  84:c:\progra~2\gnuarm~1\102021~1.10\arm-none-eabi\include\c++\10.3.1\arm-none-eabi\thumb\v7e-m+fp\hard\bits\gthr-default.h **** /* Return the current thread's priority.  */
  85:c:\progra~2\gnuarm~1\102021~1.10\arm-none-eabi\include\c++\10.3.1\arm-none-eabi\thumb\v7e-m+fp\hard\bits\gthr-default.h **** static inline int
  86:c:\progra~2\gnuarm~1\102021~1.10\arm-none-eabi\include\c++\10.3.1\arm-none-eabi\thumb\v7e-m+fp\hard\bits\gthr-default.h **** __gthread_objc_thread_get_priority (void)
  87:c:\progra~2\gnuarm~1\102021~1.10\arm-none-eabi\include\c++\10.3.1\arm-none-eabi\thumb\v7e-m+fp\hard\bits\gthr-default.h **** {
  88:c:\progra~2\gnuarm~1\102021~1.10\arm-none-eabi\include\c++\10.3.1\arm-none-eabi\thumb\v7e-m+fp\hard\bits\gthr-default.h ****   return OBJC_THREAD_INTERACTIVE_PRIORITY;
  89:c:\progra~2\gnuarm~1\102021~1.10\arm-none-eabi\include\c++\10.3.1\arm-none-eabi\thumb\v7e-m+fp\hard\bits\gthr-default.h **** }
  90:c:\progra~2\gnuarm~1\102021~1.10\arm-none-eabi\include\c++\10.3.1\arm-none-eabi\thumb\v7e-m+fp\hard\bits\gthr-default.h **** 
  91:c:\progra~2\gnuarm~1\102021~1.10\arm-none-eabi\include\c++\10.3.1\arm-none-eabi\thumb\v7e-m+fp\hard\bits\gthr-default.h **** /* Yield our process time to another thread.  */
  92:c:\progra~2\gnuarm~1\102021~1.10\arm-none-eabi\include\c++\10.3.1\arm-none-eabi\thumb\v7e-m+fp\hard\bits\gthr-default.h **** static inline void
  93:c:\progra~2\gnuarm~1\102021~1.10\arm-none-eabi\include\c++\10.3.1\arm-none-eabi\thumb\v7e-m+fp\hard\bits\gthr-default.h **** __gthread_objc_thread_yield (void)
  94:c:\progra~2\gnuarm~1\102021~1.10\arm-none-eabi\include\c++\10.3.1\arm-none-eabi\thumb\v7e-m+fp\hard\bits\gthr-default.h **** {
  95:c:\progra~2\gnuarm~1\102021~1.10\arm-none-eabi\include\c++\10.3.1\arm-none-eabi\thumb\v7e-m+fp\hard\bits\gthr-default.h ****   return;
  96:c:\progra~2\gnuarm~1\102021~1.10\arm-none-eabi\include\c++\10.3.1\arm-none-eabi\thumb\v7e-m+fp\hard\bits\gthr-default.h **** }
  97:c:\progra~2\gnuarm~1\102021~1.10\arm-none-eabi\include\c++\10.3.1\arm-none-eabi\thumb\v7e-m+fp\hard\bits\gthr-default.h **** 
  98:c:\progra~2\gnuarm~1\102021~1.10\arm-none-eabi\include\c++\10.3.1\arm-none-eabi\thumb\v7e-m+fp\hard\bits\gthr-default.h **** /* Terminate the current thread.  */
  99:c:\progra~2\gnuarm~1\102021~1.10\arm-none-eabi\include\c++\10.3.1\arm-none-eabi\thumb\v7e-m+fp\hard\bits\gthr-default.h **** static inline int
 100:c:\progra~2\gnuarm~1\102021~1.10\arm-none-eabi\include\c++\10.3.1\arm-none-eabi\thumb\v7e-m+fp\hard\bits\gthr-default.h **** __gthread_objc_thread_exit (void)
 101:c:\progra~2\gnuarm~1\102021~1.10\arm-none-eabi\include\c++\10.3.1\arm-none-eabi\thumb\v7e-m+fp\hard\bits\gthr-default.h **** {
 102:c:\progra~2\gnuarm~1\102021~1.10\arm-none-eabi\include\c++\10.3.1\arm-none-eabi\thumb\v7e-m+fp\hard\bits\gthr-default.h ****   /* No thread support available */
 103:c:\progra~2\gnuarm~1\102021~1.10\arm-none-eabi\include\c++\10.3.1\arm-none-eabi\thumb\v7e-m+fp\hard\bits\gthr-default.h ****   /* Should we really exit the program */
 104:c:\progra~2\gnuarm~1\102021~1.10\arm-none-eabi\include\c++\10.3.1\arm-none-eabi\thumb\v7e-m+fp\hard\bits\gthr-default.h ****   /* exit (&__objc_thread_exit_status); */
 105:c:\progra~2\gnuarm~1\102021~1.10\arm-none-eabi\include\c++\10.3.1\arm-none-eabi\thumb\v7e-m+fp\hard\bits\gthr-default.h ****   return -1;
 106:c:\progra~2\gnuarm~1\102021~1.10\arm-none-eabi\include\c++\10.3.1\arm-none-eabi\thumb\v7e-m+fp\hard\bits\gthr-default.h **** }
 107:c:\progra~2\gnuarm~1\102021~1.10\arm-none-eabi\include\c++\10.3.1\arm-none-eabi\thumb\v7e-m+fp\hard\bits\gthr-default.h **** 
 108:c:\progra~2\gnuarm~1\102021~1.10\arm-none-eabi\include\c++\10.3.1\arm-none-eabi\thumb\v7e-m+fp\hard\bits\gthr-default.h **** /* Returns an integer value which uniquely describes a thread.  */
 109:c:\progra~2\gnuarm~1\102021~1.10\arm-none-eabi\include\c++\10.3.1\arm-none-eabi\thumb\v7e-m+fp\hard\bits\gthr-default.h **** static inline objc_thread_t
 110:c:\progra~2\gnuarm~1\102021~1.10\arm-none-eabi\include\c++\10.3.1\arm-none-eabi\thumb\v7e-m+fp\hard\bits\gthr-default.h **** __gthread_objc_thread_id (void)
 111:c:\progra~2\gnuarm~1\102021~1.10\arm-none-eabi\include\c++\10.3.1\arm-none-eabi\thumb\v7e-m+fp\hard\bits\gthr-default.h **** {
 112:c:\progra~2\gnuarm~1\102021~1.10\arm-none-eabi\include\c++\10.3.1\arm-none-eabi\thumb\v7e-m+fp\hard\bits\gthr-default.h ****   /* No thread support, use 1.  */
 113:c:\progra~2\gnuarm~1\102021~1.10\arm-none-eabi\include\c++\10.3.1\arm-none-eabi\thumb\v7e-m+fp\hard\bits\gthr-default.h ****   return (objc_thread_t) 1;
 114:c:\progra~2\gnuarm~1\102021~1.10\arm-none-eabi\include\c++\10.3.1\arm-none-eabi\thumb\v7e-m+fp\hard\bits\gthr-default.h **** }
 115:c:\progra~2\gnuarm~1\102021~1.10\arm-none-eabi\include\c++\10.3.1\arm-none-eabi\thumb\v7e-m+fp\hard\bits\gthr-default.h **** 
 116:c:\progra~2\gnuarm~1\102021~1.10\arm-none-eabi\include\c++\10.3.1\arm-none-eabi\thumb\v7e-m+fp\hard\bits\gthr-default.h **** /* Sets the thread's local storage pointer.  */
 117:c:\progra~2\gnuarm~1\102021~1.10\arm-none-eabi\include\c++\10.3.1\arm-none-eabi\thumb\v7e-m+fp\hard\bits\gthr-default.h **** static inline int
 118:c:\progra~2\gnuarm~1\102021~1.10\arm-none-eabi\include\c++\10.3.1\arm-none-eabi\thumb\v7e-m+fp\hard\bits\gthr-default.h **** __gthread_objc_thread_set_data (void *value)
 119:c:\progra~2\gnuarm~1\102021~1.10\arm-none-eabi\include\c++\10.3.1\arm-none-eabi\thumb\v7e-m+fp\hard\bits\gthr-default.h **** {
 120:c:\progra~2\gnuarm~1\102021~1.10\arm-none-eabi\include\c++\10.3.1\arm-none-eabi\thumb\v7e-m+fp\hard\bits\gthr-default.h ****   thread_local_storage = value;
 121:c:\progra~2\gnuarm~1\102021~1.10\arm-none-eabi\include\c++\10.3.1\arm-none-eabi\thumb\v7e-m+fp\hard\bits\gthr-default.h ****   return 0;
 122:c:\progra~2\gnuarm~1\102021~1.10\arm-none-eabi\include\c++\10.3.1\arm-none-eabi\thumb\v7e-m+fp\hard\bits\gthr-default.h **** }
 123:c:\progra~2\gnuarm~1\102021~1.10\arm-none-eabi\include\c++\10.3.1\arm-none-eabi\thumb\v7e-m+fp\hard\bits\gthr-default.h **** 
 124:c:\progra~2\gnuarm~1\102021~1.10\arm-none-eabi\include\c++\10.3.1\arm-none-eabi\thumb\v7e-m+fp\hard\bits\gthr-default.h **** /* Returns the thread's local storage pointer.  */
 125:c:\progra~2\gnuarm~1\102021~1.10\arm-none-eabi\include\c++\10.3.1\arm-none-eabi\thumb\v7e-m+fp\hard\bits\gthr-default.h **** static inline void *
 126:c:\progra~2\gnuarm~1\102021~1.10\arm-none-eabi\include\c++\10.3.1\arm-none-eabi\thumb\v7e-m+fp\hard\bits\gthr-default.h **** __gthread_objc_thread_get_data (void)
 127:c:\progra~2\gnuarm~1\102021~1.10\arm-none-eabi\include\c++\10.3.1\arm-none-eabi\thumb\v7e-m+fp\hard\bits\gthr-default.h **** {
 128:c:\progra~2\gnuarm~1\102021~1.10\arm-none-eabi\include\c++\10.3.1\arm-none-eabi\thumb\v7e-m+fp\hard\bits\gthr-default.h ****   return thread_local_storage;
 129:c:\progra~2\gnuarm~1\102021~1.10\arm-none-eabi\include\c++\10.3.1\arm-none-eabi\thumb\v7e-m+fp\hard\bits\gthr-default.h **** }
 130:c:\progra~2\gnuarm~1\102021~1.10\arm-none-eabi\include\c++\10.3.1\arm-none-eabi\thumb\v7e-m+fp\hard\bits\gthr-default.h **** 
 131:c:\progra~2\gnuarm~1\102021~1.10\arm-none-eabi\include\c++\10.3.1\arm-none-eabi\thumb\v7e-m+fp\hard\bits\gthr-default.h **** /* Backend mutex functions */
 132:c:\progra~2\gnuarm~1\102021~1.10\arm-none-eabi\include\c++\10.3.1\arm-none-eabi\thumb\v7e-m+fp\hard\bits\gthr-default.h **** 
 133:c:\progra~2\gnuarm~1\102021~1.10\arm-none-eabi\include\c++\10.3.1\arm-none-eabi\thumb\v7e-m+fp\hard\bits\gthr-default.h **** /* Allocate a mutex.  */
 134:c:\progra~2\gnuarm~1\102021~1.10\arm-none-eabi\include\c++\10.3.1\arm-none-eabi\thumb\v7e-m+fp\hard\bits\gthr-default.h **** static inline int
 135:c:\progra~2\gnuarm~1\102021~1.10\arm-none-eabi\include\c++\10.3.1\arm-none-eabi\thumb\v7e-m+fp\hard\bits\gthr-default.h **** __gthread_objc_mutex_allocate (objc_mutex_t mutex _GLIBCXX_UNUSED)
 136:c:\progra~2\gnuarm~1\102021~1.10\arm-none-eabi\include\c++\10.3.1\arm-none-eabi\thumb\v7e-m+fp\hard\bits\gthr-default.h **** {
 137:c:\progra~2\gnuarm~1\102021~1.10\arm-none-eabi\include\c++\10.3.1\arm-none-eabi\thumb\v7e-m+fp\hard\bits\gthr-default.h ****   return 0;
 138:c:\progra~2\gnuarm~1\102021~1.10\arm-none-eabi\include\c++\10.3.1\arm-none-eabi\thumb\v7e-m+fp\hard\bits\gthr-default.h **** }
ARM GAS   			page 4


 139:c:\progra~2\gnuarm~1\102021~1.10\arm-none-eabi\include\c++\10.3.1\arm-none-eabi\thumb\v7e-m+fp\hard\bits\gthr-default.h **** 
 140:c:\progra~2\gnuarm~1\102021~1.10\arm-none-eabi\include\c++\10.3.1\arm-none-eabi\thumb\v7e-m+fp\hard\bits\gthr-default.h **** /* Deallocate a mutex.  */
 141:c:\progra~2\gnuarm~1\102021~1.10\arm-none-eabi\include\c++\10.3.1\arm-none-eabi\thumb\v7e-m+fp\hard\bits\gthr-default.h **** static inline int
 142:c:\progra~2\gnuarm~1\102021~1.10\arm-none-eabi\include\c++\10.3.1\arm-none-eabi\thumb\v7e-m+fp\hard\bits\gthr-default.h **** __gthread_objc_mutex_deallocate (objc_mutex_t mutex _GLIBCXX_UNUSED)
 143:c:\progra~2\gnuarm~1\102021~1.10\arm-none-eabi\include\c++\10.3.1\arm-none-eabi\thumb\v7e-m+fp\hard\bits\gthr-default.h **** {
 144:c:\progra~2\gnuarm~1\102021~1.10\arm-none-eabi\include\c++\10.3.1\arm-none-eabi\thumb\v7e-m+fp\hard\bits\gthr-default.h ****   return 0;
 145:c:\progra~2\gnuarm~1\102021~1.10\arm-none-eabi\include\c++\10.3.1\arm-none-eabi\thumb\v7e-m+fp\hard\bits\gthr-default.h **** }
 146:c:\progra~2\gnuarm~1\102021~1.10\arm-none-eabi\include\c++\10.3.1\arm-none-eabi\thumb\v7e-m+fp\hard\bits\gthr-default.h **** 
 147:c:\progra~2\gnuarm~1\102021~1.10\arm-none-eabi\include\c++\10.3.1\arm-none-eabi\thumb\v7e-m+fp\hard\bits\gthr-default.h **** /* Grab a lock on a mutex.  */
 148:c:\progra~2\gnuarm~1\102021~1.10\arm-none-eabi\include\c++\10.3.1\arm-none-eabi\thumb\v7e-m+fp\hard\bits\gthr-default.h **** static inline int
 149:c:\progra~2\gnuarm~1\102021~1.10\arm-none-eabi\include\c++\10.3.1\arm-none-eabi\thumb\v7e-m+fp\hard\bits\gthr-default.h **** __gthread_objc_mutex_lock (objc_mutex_t mutex _GLIBCXX_UNUSED)
 150:c:\progra~2\gnuarm~1\102021~1.10\arm-none-eabi\include\c++\10.3.1\arm-none-eabi\thumb\v7e-m+fp\hard\bits\gthr-default.h **** {
 151:c:\progra~2\gnuarm~1\102021~1.10\arm-none-eabi\include\c++\10.3.1\arm-none-eabi\thumb\v7e-m+fp\hard\bits\gthr-default.h ****   /* There can only be one thread, so we always get the lock */
 152:c:\progra~2\gnuarm~1\102021~1.10\arm-none-eabi\include\c++\10.3.1\arm-none-eabi\thumb\v7e-m+fp\hard\bits\gthr-default.h ****   return 0;
 153:c:\progra~2\gnuarm~1\102021~1.10\arm-none-eabi\include\c++\10.3.1\arm-none-eabi\thumb\v7e-m+fp\hard\bits\gthr-default.h **** }
 154:c:\progra~2\gnuarm~1\102021~1.10\arm-none-eabi\include\c++\10.3.1\arm-none-eabi\thumb\v7e-m+fp\hard\bits\gthr-default.h **** 
 155:c:\progra~2\gnuarm~1\102021~1.10\arm-none-eabi\include\c++\10.3.1\arm-none-eabi\thumb\v7e-m+fp\hard\bits\gthr-default.h **** /* Try to grab a lock on a mutex.  */
 156:c:\progra~2\gnuarm~1\102021~1.10\arm-none-eabi\include\c++\10.3.1\arm-none-eabi\thumb\v7e-m+fp\hard\bits\gthr-default.h **** static inline int
 157:c:\progra~2\gnuarm~1\102021~1.10\arm-none-eabi\include\c++\10.3.1\arm-none-eabi\thumb\v7e-m+fp\hard\bits\gthr-default.h **** __gthread_objc_mutex_trylock (objc_mutex_t mutex _GLIBCXX_UNUSED)
 158:c:\progra~2\gnuarm~1\102021~1.10\arm-none-eabi\include\c++\10.3.1\arm-none-eabi\thumb\v7e-m+fp\hard\bits\gthr-default.h **** {
 159:c:\progra~2\gnuarm~1\102021~1.10\arm-none-eabi\include\c++\10.3.1\arm-none-eabi\thumb\v7e-m+fp\hard\bits\gthr-default.h ****   /* There can only be one thread, so we always get the lock */
 160:c:\progra~2\gnuarm~1\102021~1.10\arm-none-eabi\include\c++\10.3.1\arm-none-eabi\thumb\v7e-m+fp\hard\bits\gthr-default.h ****   return 0;
 161:c:\progra~2\gnuarm~1\102021~1.10\arm-none-eabi\include\c++\10.3.1\arm-none-eabi\thumb\v7e-m+fp\hard\bits\gthr-default.h **** }
 162:c:\progra~2\gnuarm~1\102021~1.10\arm-none-eabi\include\c++\10.3.1\arm-none-eabi\thumb\v7e-m+fp\hard\bits\gthr-default.h **** 
 163:c:\progra~2\gnuarm~1\102021~1.10\arm-none-eabi\include\c++\10.3.1\arm-none-eabi\thumb\v7e-m+fp\hard\bits\gthr-default.h **** /* Unlock the mutex */
 164:c:\progra~2\gnuarm~1\102021~1.10\arm-none-eabi\include\c++\10.3.1\arm-none-eabi\thumb\v7e-m+fp\hard\bits\gthr-default.h **** static inline int
 165:c:\progra~2\gnuarm~1\102021~1.10\arm-none-eabi\include\c++\10.3.1\arm-none-eabi\thumb\v7e-m+fp\hard\bits\gthr-default.h **** __gthread_objc_mutex_unlock (objc_mutex_t mutex _GLIBCXX_UNUSED)
 166:c:\progra~2\gnuarm~1\102021~1.10\arm-none-eabi\include\c++\10.3.1\arm-none-eabi\thumb\v7e-m+fp\hard\bits\gthr-default.h **** {
 167:c:\progra~2\gnuarm~1\102021~1.10\arm-none-eabi\include\c++\10.3.1\arm-none-eabi\thumb\v7e-m+fp\hard\bits\gthr-default.h ****   return 0;
 168:c:\progra~2\gnuarm~1\102021~1.10\arm-none-eabi\include\c++\10.3.1\arm-none-eabi\thumb\v7e-m+fp\hard\bits\gthr-default.h **** }
 169:c:\progra~2\gnuarm~1\102021~1.10\arm-none-eabi\include\c++\10.3.1\arm-none-eabi\thumb\v7e-m+fp\hard\bits\gthr-default.h **** 
 170:c:\progra~2\gnuarm~1\102021~1.10\arm-none-eabi\include\c++\10.3.1\arm-none-eabi\thumb\v7e-m+fp\hard\bits\gthr-default.h **** /* Backend condition mutex functions */
 171:c:\progra~2\gnuarm~1\102021~1.10\arm-none-eabi\include\c++\10.3.1\arm-none-eabi\thumb\v7e-m+fp\hard\bits\gthr-default.h **** 
 172:c:\progra~2\gnuarm~1\102021~1.10\arm-none-eabi\include\c++\10.3.1\arm-none-eabi\thumb\v7e-m+fp\hard\bits\gthr-default.h **** /* Allocate a condition.  */
 173:c:\progra~2\gnuarm~1\102021~1.10\arm-none-eabi\include\c++\10.3.1\arm-none-eabi\thumb\v7e-m+fp\hard\bits\gthr-default.h **** static inline int
 174:c:\progra~2\gnuarm~1\102021~1.10\arm-none-eabi\include\c++\10.3.1\arm-none-eabi\thumb\v7e-m+fp\hard\bits\gthr-default.h **** __gthread_objc_condition_allocate (objc_condition_t condition _GLIBCXX_UNUSED)
 175:c:\progra~2\gnuarm~1\102021~1.10\arm-none-eabi\include\c++\10.3.1\arm-none-eabi\thumb\v7e-m+fp\hard\bits\gthr-default.h **** {
 176:c:\progra~2\gnuarm~1\102021~1.10\arm-none-eabi\include\c++\10.3.1\arm-none-eabi\thumb\v7e-m+fp\hard\bits\gthr-default.h ****   return 0;
 177:c:\progra~2\gnuarm~1\102021~1.10\arm-none-eabi\include\c++\10.3.1\arm-none-eabi\thumb\v7e-m+fp\hard\bits\gthr-default.h **** }
 178:c:\progra~2\gnuarm~1\102021~1.10\arm-none-eabi\include\c++\10.3.1\arm-none-eabi\thumb\v7e-m+fp\hard\bits\gthr-default.h **** 
 179:c:\progra~2\gnuarm~1\102021~1.10\arm-none-eabi\include\c++\10.3.1\arm-none-eabi\thumb\v7e-m+fp\hard\bits\gthr-default.h **** /* Deallocate a condition.  */
 180:c:\progra~2\gnuarm~1\102021~1.10\arm-none-eabi\include\c++\10.3.1\arm-none-eabi\thumb\v7e-m+fp\hard\bits\gthr-default.h **** static inline int
 181:c:\progra~2\gnuarm~1\102021~1.10\arm-none-eabi\include\c++\10.3.1\arm-none-eabi\thumb\v7e-m+fp\hard\bits\gthr-default.h **** __gthread_objc_condition_deallocate (objc_condition_t condition _GLIBCXX_UNUSED)
 182:c:\progra~2\gnuarm~1\102021~1.10\arm-none-eabi\include\c++\10.3.1\arm-none-eabi\thumb\v7e-m+fp\hard\bits\gthr-default.h **** {
 183:c:\progra~2\gnuarm~1\102021~1.10\arm-none-eabi\include\c++\10.3.1\arm-none-eabi\thumb\v7e-m+fp\hard\bits\gthr-default.h ****   return 0;
 184:c:\progra~2\gnuarm~1\102021~1.10\arm-none-eabi\include\c++\10.3.1\arm-none-eabi\thumb\v7e-m+fp\hard\bits\gthr-default.h **** }
 185:c:\progra~2\gnuarm~1\102021~1.10\arm-none-eabi\include\c++\10.3.1\arm-none-eabi\thumb\v7e-m+fp\hard\bits\gthr-default.h **** 
 186:c:\progra~2\gnuarm~1\102021~1.10\arm-none-eabi\include\c++\10.3.1\arm-none-eabi\thumb\v7e-m+fp\hard\bits\gthr-default.h **** /* Wait on the condition */
 187:c:\progra~2\gnuarm~1\102021~1.10\arm-none-eabi\include\c++\10.3.1\arm-none-eabi\thumb\v7e-m+fp\hard\bits\gthr-default.h **** static inline int
 188:c:\progra~2\gnuarm~1\102021~1.10\arm-none-eabi\include\c++\10.3.1\arm-none-eabi\thumb\v7e-m+fp\hard\bits\gthr-default.h **** __gthread_objc_condition_wait (objc_condition_t condition _GLIBCXX_UNUSED,
 189:c:\progra~2\gnuarm~1\102021~1.10\arm-none-eabi\include\c++\10.3.1\arm-none-eabi\thumb\v7e-m+fp\hard\bits\gthr-default.h **** 			       objc_mutex_t mutex _GLIBCXX_UNUSED)
 190:c:\progra~2\gnuarm~1\102021~1.10\arm-none-eabi\include\c++\10.3.1\arm-none-eabi\thumb\v7e-m+fp\hard\bits\gthr-default.h **** {
 191:c:\progra~2\gnuarm~1\102021~1.10\arm-none-eabi\include\c++\10.3.1\arm-none-eabi\thumb\v7e-m+fp\hard\bits\gthr-default.h ****   return 0;
 192:c:\progra~2\gnuarm~1\102021~1.10\arm-none-eabi\include\c++\10.3.1\arm-none-eabi\thumb\v7e-m+fp\hard\bits\gthr-default.h **** }
 193:c:\progra~2\gnuarm~1\102021~1.10\arm-none-eabi\include\c++\10.3.1\arm-none-eabi\thumb\v7e-m+fp\hard\bits\gthr-default.h **** 
 194:c:\progra~2\gnuarm~1\102021~1.10\arm-none-eabi\include\c++\10.3.1\arm-none-eabi\thumb\v7e-m+fp\hard\bits\gthr-default.h **** /* Wake up all threads waiting on this condition.  */
 195:c:\progra~2\gnuarm~1\102021~1.10\arm-none-eabi\include\c++\10.3.1\arm-none-eabi\thumb\v7e-m+fp\hard\bits\gthr-default.h **** static inline int
ARM GAS   			page 5


 196:c:\progra~2\gnuarm~1\102021~1.10\arm-none-eabi\include\c++\10.3.1\arm-none-eabi\thumb\v7e-m+fp\hard\bits\gthr-default.h **** __gthread_objc_condition_broadcast (objc_condition_t condition _GLIBCXX_UNUSED)
 197:c:\progra~2\gnuarm~1\102021~1.10\arm-none-eabi\include\c++\10.3.1\arm-none-eabi\thumb\v7e-m+fp\hard\bits\gthr-default.h **** {
 198:c:\progra~2\gnuarm~1\102021~1.10\arm-none-eabi\include\c++\10.3.1\arm-none-eabi\thumb\v7e-m+fp\hard\bits\gthr-default.h ****   return 0;
 199:c:\progra~2\gnuarm~1\102021~1.10\arm-none-eabi\include\c++\10.3.1\arm-none-eabi\thumb\v7e-m+fp\hard\bits\gthr-default.h **** }
 200:c:\progra~2\gnuarm~1\102021~1.10\arm-none-eabi\include\c++\10.3.1\arm-none-eabi\thumb\v7e-m+fp\hard\bits\gthr-default.h **** 
 201:c:\progra~2\gnuarm~1\102021~1.10\arm-none-eabi\include\c++\10.3.1\arm-none-eabi\thumb\v7e-m+fp\hard\bits\gthr-default.h **** /* Wake up one thread waiting on this condition.  */
 202:c:\progra~2\gnuarm~1\102021~1.10\arm-none-eabi\include\c++\10.3.1\arm-none-eabi\thumb\v7e-m+fp\hard\bits\gthr-default.h **** static inline int
 203:c:\progra~2\gnuarm~1\102021~1.10\arm-none-eabi\include\c++\10.3.1\arm-none-eabi\thumb\v7e-m+fp\hard\bits\gthr-default.h **** __gthread_objc_condition_signal (objc_condition_t condition _GLIBCXX_UNUSED)
 204:c:\progra~2\gnuarm~1\102021~1.10\arm-none-eabi\include\c++\10.3.1\arm-none-eabi\thumb\v7e-m+fp\hard\bits\gthr-default.h **** {
 205:c:\progra~2\gnuarm~1\102021~1.10\arm-none-eabi\include\c++\10.3.1\arm-none-eabi\thumb\v7e-m+fp\hard\bits\gthr-default.h ****   return 0;
 206:c:\progra~2\gnuarm~1\102021~1.10\arm-none-eabi\include\c++\10.3.1\arm-none-eabi\thumb\v7e-m+fp\hard\bits\gthr-default.h **** }
 207:c:\progra~2\gnuarm~1\102021~1.10\arm-none-eabi\include\c++\10.3.1\arm-none-eabi\thumb\v7e-m+fp\hard\bits\gthr-default.h **** 
 208:c:\progra~2\gnuarm~1\102021~1.10\arm-none-eabi\include\c++\10.3.1\arm-none-eabi\thumb\v7e-m+fp\hard\bits\gthr-default.h **** #else /* _LIBOBJC */
 209:c:\progra~2\gnuarm~1\102021~1.10\arm-none-eabi\include\c++\10.3.1\arm-none-eabi\thumb\v7e-m+fp\hard\bits\gthr-default.h **** 
 210:c:\progra~2\gnuarm~1\102021~1.10\arm-none-eabi\include\c++\10.3.1\arm-none-eabi\thumb\v7e-m+fp\hard\bits\gthr-default.h **** static inline int
 211:c:\progra~2\gnuarm~1\102021~1.10\arm-none-eabi\include\c++\10.3.1\arm-none-eabi\thumb\v7e-m+fp\hard\bits\gthr-default.h **** __gthread_active_p (void)
 212:c:\progra~2\gnuarm~1\102021~1.10\arm-none-eabi\include\c++\10.3.1\arm-none-eabi\thumb\v7e-m+fp\hard\bits\gthr-default.h **** {
 213:c:\progra~2\gnuarm~1\102021~1.10\arm-none-eabi\include\c++\10.3.1\arm-none-eabi\thumb\v7e-m+fp\hard\bits\gthr-default.h ****   return 0;
 214:c:\progra~2\gnuarm~1\102021~1.10\arm-none-eabi\include\c++\10.3.1\arm-none-eabi\thumb\v7e-m+fp\hard\bits\gthr-default.h **** }
 215:c:\progra~2\gnuarm~1\102021~1.10\arm-none-eabi\include\c++\10.3.1\arm-none-eabi\thumb\v7e-m+fp\hard\bits\gthr-default.h **** 
 216:c:\progra~2\gnuarm~1\102021~1.10\arm-none-eabi\include\c++\10.3.1\arm-none-eabi\thumb\v7e-m+fp\hard\bits\gthr-default.h **** static inline int
 217:c:\progra~2\gnuarm~1\102021~1.10\arm-none-eabi\include\c++\10.3.1\arm-none-eabi\thumb\v7e-m+fp\hard\bits\gthr-default.h **** __gthread_once (__gthread_once_t *__once _GLIBCXX_UNUSED, void (*__func) (void) _GLIBCXX_UNUSED)
 218:c:\progra~2\gnuarm~1\102021~1.10\arm-none-eabi\include\c++\10.3.1\arm-none-eabi\thumb\v7e-m+fp\hard\bits\gthr-default.h **** {
 219:c:\progra~2\gnuarm~1\102021~1.10\arm-none-eabi\include\c++\10.3.1\arm-none-eabi\thumb\v7e-m+fp\hard\bits\gthr-default.h ****   return 0;
 220:c:\progra~2\gnuarm~1\102021~1.10\arm-none-eabi\include\c++\10.3.1\arm-none-eabi\thumb\v7e-m+fp\hard\bits\gthr-default.h **** }
 221:c:\progra~2\gnuarm~1\102021~1.10\arm-none-eabi\include\c++\10.3.1\arm-none-eabi\thumb\v7e-m+fp\hard\bits\gthr-default.h **** 
 222:c:\progra~2\gnuarm~1\102021~1.10\arm-none-eabi\include\c++\10.3.1\arm-none-eabi\thumb\v7e-m+fp\hard\bits\gthr-default.h **** static inline int _GLIBCXX_UNUSED
 223:c:\progra~2\gnuarm~1\102021~1.10\arm-none-eabi\include\c++\10.3.1\arm-none-eabi\thumb\v7e-m+fp\hard\bits\gthr-default.h **** __gthread_key_create (__gthread_key_t *__key _GLIBCXX_UNUSED, void (*__func) (void *) _GLIBCXX_UNUS
 224:c:\progra~2\gnuarm~1\102021~1.10\arm-none-eabi\include\c++\10.3.1\arm-none-eabi\thumb\v7e-m+fp\hard\bits\gthr-default.h **** {
 225:c:\progra~2\gnuarm~1\102021~1.10\arm-none-eabi\include\c++\10.3.1\arm-none-eabi\thumb\v7e-m+fp\hard\bits\gthr-default.h ****   return 0;
 226:c:\progra~2\gnuarm~1\102021~1.10\arm-none-eabi\include\c++\10.3.1\arm-none-eabi\thumb\v7e-m+fp\hard\bits\gthr-default.h **** }
 227:c:\progra~2\gnuarm~1\102021~1.10\arm-none-eabi\include\c++\10.3.1\arm-none-eabi\thumb\v7e-m+fp\hard\bits\gthr-default.h **** 
 228:c:\progra~2\gnuarm~1\102021~1.10\arm-none-eabi\include\c++\10.3.1\arm-none-eabi\thumb\v7e-m+fp\hard\bits\gthr-default.h **** static int _GLIBCXX_UNUSED
 229:c:\progra~2\gnuarm~1\102021~1.10\arm-none-eabi\include\c++\10.3.1\arm-none-eabi\thumb\v7e-m+fp\hard\bits\gthr-default.h **** __gthread_key_delete (__gthread_key_t __key _GLIBCXX_UNUSED)
 230:c:\progra~2\gnuarm~1\102021~1.10\arm-none-eabi\include\c++\10.3.1\arm-none-eabi\thumb\v7e-m+fp\hard\bits\gthr-default.h **** {
  34              	 .loc 1 230 1
  35              	 .cfi_startproc
  36              	 
  37              	 
  38              	 
  39 0000 80B4     	 push {r7}
  40              	 .cfi_def_cfa_offset 4
  41              	 .cfi_offset 7,-4
  42 0002 83B0     	 sub sp,sp,#12
  43              	 .cfi_def_cfa_offset 16
  44 0004 00AF     	 add r7,sp,#0
  45              	 .cfi_def_cfa_register 7
  46 0006 7860     	 str r0,[r7,#4]
 231:c:\progra~2\gnuarm~1\102021~1.10\arm-none-eabi\include\c++\10.3.1\arm-none-eabi\thumb\v7e-m+fp\hard\bits\gthr-default.h ****   return 0;
  47              	 .loc 1 231 10
  48 0008 0023     	 movs r3,#0
 232:c:\progra~2\gnuarm~1\102021~1.10\arm-none-eabi\include\c++\10.3.1\arm-none-eabi\thumb\v7e-m+fp\hard\bits\gthr-default.h **** }
  49              	 .loc 1 232 1
  50 000a 1846     	 mov r0,r3
  51 000c 0C37     	 adds r7,r7,#12
  52              	 .cfi_def_cfa_offset 4
  53 000e BD46     	 mov sp,r7
ARM GAS   			page 6


  54              	 .cfi_def_cfa_register 13
  55              	 
  56 0010 5DF8047B 	 ldr r7,[sp],#4
  57              	 .cfi_restore 7
  58              	 .cfi_def_cfa_offset 0
  59 0014 7047     	 bx lr
  60              	 .cfi_endproc
  61              	.LFE652:
  62              	 .size _ZL20__gthread_key_deletei,.-_ZL20__gthread_key_deletei
  63              	 .section .text._ZN12cpp_freertos5MutexC2Ev,"ax",%progbits
  64              	 .align 1
  65              	 .global _ZN12cpp_freertos5MutexC2Ev
  66              	 .syntax unified
  67              	 .thumb
  68              	 .thumb_func
  69              	 .type _ZN12cpp_freertos5MutexC2Ev,%function
  70              	_ZN12cpp_freertos5MutexC2Ev:
  71              	.LFB1030:
  72              	 .file 2 "C:\\Users\\niels\\Documents\\GitHub\\DSP\\software\\STM32Basis\\HAL\\gemeenschappelijk\\Third_Party\\freertos-addons-1.1.0\\c++\\Source\\cmutex.cpp"
   1:C:\Users\niels\Documents\GitHub\DSP\software\STM32Basis\HAL\gemeenschappelijk\Third_Party\freertos-addons-1.1.0\c++\Source\cmutex.cpp **** /****************************************************************************
   2:C:\Users\niels\Documents\GitHub\DSP\software\STM32Basis\HAL\gemeenschappelijk\Third_Party\freertos-addons-1.1.0\c++\Source\cmutex.cpp ****  *
   3:C:\Users\niels\Documents\GitHub\DSP\software\STM32Basis\HAL\gemeenschappelijk\Third_Party\freertos-addons-1.1.0\c++\Source\cmutex.cpp ****  *  Copyright (c) 2016, Michael Becker (michael.f.becker@gmail.com)
   4:C:\Users\niels\Documents\GitHub\DSP\software\STM32Basis\HAL\gemeenschappelijk\Third_Party\freertos-addons-1.1.0\c++\Source\cmutex.cpp ****  *
   5:C:\Users\niels\Documents\GitHub\DSP\software\STM32Basis\HAL\gemeenschappelijk\Third_Party\freertos-addons-1.1.0\c++\Source\cmutex.cpp ****  *  This file is part of the FreeRTOS C++ Wrappers project.
   6:C:\Users\niels\Documents\GitHub\DSP\software\STM32Basis\HAL\gemeenschappelijk\Third_Party\freertos-addons-1.1.0\c++\Source\cmutex.cpp ****  *
   7:C:\Users\niels\Documents\GitHub\DSP\software\STM32Basis\HAL\gemeenschappelijk\Third_Party\freertos-addons-1.1.0\c++\Source\cmutex.cpp ****  *  The FreeRTOS C++ Wrappers project is free software: you can redistribute
   8:C:\Users\niels\Documents\GitHub\DSP\software\STM32Basis\HAL\gemeenschappelijk\Third_Party\freertos-addons-1.1.0\c++\Source\cmutex.cpp ****  *  it and/or modify it under the terms of the GNU General Public License as
   9:C:\Users\niels\Documents\GitHub\DSP\software\STM32Basis\HAL\gemeenschappelijk\Third_Party\freertos-addons-1.1.0\c++\Source\cmutex.cpp ****  *  published by the Free Software Foundation, either version 2
  10:C:\Users\niels\Documents\GitHub\DSP\software\STM32Basis\HAL\gemeenschappelijk\Third_Party\freertos-addons-1.1.0\c++\Source\cmutex.cpp ****  *  of the License, or (at your option) any later version.
  11:C:\Users\niels\Documents\GitHub\DSP\software\STM32Basis\HAL\gemeenschappelijk\Third_Party\freertos-addons-1.1.0\c++\Source\cmutex.cpp ****  *
  12:C:\Users\niels\Documents\GitHub\DSP\software\STM32Basis\HAL\gemeenschappelijk\Third_Party\freertos-addons-1.1.0\c++\Source\cmutex.cpp ****  *  The FreeRTOS C++ Wrappers project is distributed in the hope that it will
  13:C:\Users\niels\Documents\GitHub\DSP\software\STM32Basis\HAL\gemeenschappelijk\Third_Party\freertos-addons-1.1.0\c++\Source\cmutex.cpp ****  *  be useful, but WITHOUT ANY WARRANTY; without even the implied warranty of
  14:C:\Users\niels\Documents\GitHub\DSP\software\STM32Basis\HAL\gemeenschappelijk\Third_Party\freertos-addons-1.1.0\c++\Source\cmutex.cpp ****  *  MERCHANTABILITY or FITNESS FOR A PARTICULAR PURPOSE.  See the
  15:C:\Users\niels\Documents\GitHub\DSP\software\STM32Basis\HAL\gemeenschappelijk\Third_Party\freertos-addons-1.1.0\c++\Source\cmutex.cpp ****  *  GNU General Public License for more details.
  16:C:\Users\niels\Documents\GitHub\DSP\software\STM32Basis\HAL\gemeenschappelijk\Third_Party\freertos-addons-1.1.0\c++\Source\cmutex.cpp ****  *
  17:C:\Users\niels\Documents\GitHub\DSP\software\STM32Basis\HAL\gemeenschappelijk\Third_Party\freertos-addons-1.1.0\c++\Source\cmutex.cpp ****  *  You should have received a copy of the GNU General Public License
  18:C:\Users\niels\Documents\GitHub\DSP\software\STM32Basis\HAL\gemeenschappelijk\Third_Party\freertos-addons-1.1.0\c++\Source\cmutex.cpp ****  *  along with the FreeRTOS C++ Wrappers project.
  19:C:\Users\niels\Documents\GitHub\DSP\software\STM32Basis\HAL\gemeenschappelijk\Third_Party\freertos-addons-1.1.0\c++\Source\cmutex.cpp ****  *  If not, see <http://www.gnu.org/licenses/>.
  20:C:\Users\niels\Documents\GitHub\DSP\software\STM32Basis\HAL\gemeenschappelijk\Third_Party\freertos-addons-1.1.0\c++\Source\cmutex.cpp ****  *
  21:C:\Users\niels\Documents\GitHub\DSP\software\STM32Basis\HAL\gemeenschappelijk\Third_Party\freertos-addons-1.1.0\c++\Source\cmutex.cpp ****  ***************************************************************************/
  22:C:\Users\niels\Documents\GitHub\DSP\software\STM32Basis\HAL\gemeenschappelijk\Third_Party\freertos-addons-1.1.0\c++\Source\cmutex.cpp **** #include <assert.h>
  23:C:\Users\niels\Documents\GitHub\DSP\software\STM32Basis\HAL\gemeenschappelijk\Third_Party\freertos-addons-1.1.0\c++\Source\cmutex.cpp **** #include "mutex.hpp"
  24:C:\Users\niels\Documents\GitHub\DSP\software\STM32Basis\HAL\gemeenschappelijk\Third_Party\freertos-addons-1.1.0\c++\Source\cmutex.cpp **** 
  25:C:\Users\niels\Documents\GitHub\DSP\software\STM32Basis\HAL\gemeenschappelijk\Third_Party\freertos-addons-1.1.0\c++\Source\cmutex.cpp **** 
  26:C:\Users\niels\Documents\GitHub\DSP\software\STM32Basis\HAL\gemeenschappelijk\Third_Party\freertos-addons-1.1.0\c++\Source\cmutex.cpp **** using namespace cpp_freertos;
  27:C:\Users\niels\Documents\GitHub\DSP\software\STM32Basis\HAL\gemeenschappelijk\Third_Party\freertos-addons-1.1.0\c++\Source\cmutex.cpp **** 
  28:C:\Users\niels\Documents\GitHub\DSP\software\STM32Basis\HAL\gemeenschappelijk\Third_Party\freertos-addons-1.1.0\c++\Source\cmutex.cpp **** 
  29:C:\Users\niels\Documents\GitHub\DSP\software\STM32Basis\HAL\gemeenschappelijk\Third_Party\freertos-addons-1.1.0\c++\Source\cmutex.cpp **** Mutex::Mutex()
  73              	 .loc 2 29 1
  74              	 .cfi_startproc
  75              	 
  76              	 
  77              	 
  78 0000 80B4     	 push {r7}
  79              	 .cfi_def_cfa_offset 4
  80              	 .cfi_offset 7,-4
  81 0002 83B0     	 sub sp,sp,#12
ARM GAS   			page 7


  82              	 .cfi_def_cfa_offset 16
  83 0004 00AF     	 add r7,sp,#0
  84              	 .cfi_def_cfa_register 7
  85 0006 7860     	 str r0,[r7,#4]
  86              	.LBB2:
  87              	 .loc 2 29 14
  88 0008 044A     	 ldr r2,.L5
  89 000a 7B68     	 ldr r3,[r7,#4]
  90 000c 1A60     	 str r2,[r3]
  91              	.LBE2:
  30:C:\Users\niels\Documents\GitHub\DSP\software\STM32Basis\HAL\gemeenschappelijk\Third_Party\freertos-addons-1.1.0\c++\Source\cmutex.cpp **** {
  31:C:\Users\niels\Documents\GitHub\DSP\software\STM32Basis\HAL\gemeenschappelijk\Third_Party\freertos-addons-1.1.0\c++\Source\cmutex.cpp **** }
  92              	 .loc 2 31 1
  93 000e 7B68     	 ldr r3,[r7,#4]
  94 0010 1846     	 mov r0,r3
  95 0012 0C37     	 adds r7,r7,#12
  96              	 .cfi_def_cfa_offset 4
  97 0014 BD46     	 mov sp,r7
  98              	 .cfi_def_cfa_register 13
  99              	 
 100 0016 5DF8047B 	 ldr r7,[sp],#4
 101              	 .cfi_restore 7
 102              	 .cfi_def_cfa_offset 0
 103 001a 7047     	 bx lr
 104              	.L6:
 105              	 .align 2
 106              	.L5:
 107 001c 08000000 	 .word _ZTVN12cpp_freertos5MutexE+8
 108              	 .cfi_endproc
 109              	.LFE1030:
 110              	 .size _ZN12cpp_freertos5MutexC2Ev,.-_ZN12cpp_freertos5MutexC2Ev
 111              	 .global _ZN12cpp_freertos5MutexC1Ev
 112              	 .thumb_set _ZN12cpp_freertos5MutexC1Ev,_ZN12cpp_freertos5MutexC2Ev
 113              	 .section .text._ZN12cpp_freertos5MutexD2Ev,"ax",%progbits
 114              	 .align 1
 115              	 .global _ZN12cpp_freertos5MutexD2Ev
 116              	 .syntax unified
 117              	 .thumb
 118              	 .thumb_func
 119              	 .type _ZN12cpp_freertos5MutexD2Ev,%function
 120              	_ZN12cpp_freertos5MutexD2Ev:
 121              	.LFB1033:
  32:C:\Users\niels\Documents\GitHub\DSP\software\STM32Basis\HAL\gemeenschappelijk\Third_Party\freertos-addons-1.1.0\c++\Source\cmutex.cpp **** 
  33:C:\Users\niels\Documents\GitHub\DSP\software\STM32Basis\HAL\gemeenschappelijk\Third_Party\freertos-addons-1.1.0\c++\Source\cmutex.cpp **** 
  34:C:\Users\niels\Documents\GitHub\DSP\software\STM32Basis\HAL\gemeenschappelijk\Third_Party\freertos-addons-1.1.0\c++\Source\cmutex.cpp **** Mutex::~Mutex()
 122              	 .loc 2 34 1
 123              	 .cfi_startproc
 124              	 
 125              	 
 126 0000 80B5     	 push {r7,lr}
 127              	 .cfi_def_cfa_offset 8
 128              	 .cfi_offset 7,-8
 129              	 .cfi_offset 14,-4
 130 0002 82B0     	 sub sp,sp,#8
 131              	 .cfi_def_cfa_offset 16
 132 0004 00AF     	 add r7,sp,#0
 133              	 .cfi_def_cfa_register 7
ARM GAS   			page 8


 134 0006 7860     	 str r0,[r7,#4]
 135              	.LBB3:
 136              	 .loc 2 34 15
 137 0008 064A     	 ldr r2,.L9
 138 000a 7B68     	 ldr r3,[r7,#4]
 139 000c 1A60     	 str r2,[r3]
  35:C:\Users\niels\Documents\GitHub\DSP\software\STM32Basis\HAL\gemeenschappelijk\Third_Party\freertos-addons-1.1.0\c++\Source\cmutex.cpp **** {
  36:C:\Users\niels\Documents\GitHub\DSP\software\STM32Basis\HAL\gemeenschappelijk\Third_Party\freertos-addons-1.1.0\c++\Source\cmutex.cpp ****     vSemaphoreDelete(handle);
 140              	 .loc 2 36 5
 141 000e 7B68     	 ldr r3,[r7,#4]
 142 0010 5B68     	 ldr r3,[r3,#4]
 143 0012 1846     	 mov r0,r3
 144 0014 FFF7FEFF 	 bl vQueueDelete
 145              	.LBE3:
  37:C:\Users\niels\Documents\GitHub\DSP\software\STM32Basis\HAL\gemeenschappelijk\Third_Party\freertos-addons-1.1.0\c++\Source\cmutex.cpp **** }
 146              	 .loc 2 37 1
 147 0018 7B68     	 ldr r3,[r7,#4]
 148 001a 1846     	 mov r0,r3
 149 001c 0837     	 adds r7,r7,#8
 150              	 .cfi_def_cfa_offset 8
 151 001e BD46     	 mov sp,r7
 152              	 .cfi_def_cfa_register 13
 153              	 
 154 0020 80BD     	 pop {r7,pc}
 155              	.L10:
 156 0022 00BF     	 .align 2
 157              	.L9:
 158 0024 08000000 	 .word _ZTVN12cpp_freertos5MutexE+8
 159              	 .cfi_endproc
 160              	.LFE1033:
 161              	 .size _ZN12cpp_freertos5MutexD2Ev,.-_ZN12cpp_freertos5MutexD2Ev
 162              	 .global _ZN12cpp_freertos5MutexD1Ev
 163              	 .thumb_set _ZN12cpp_freertos5MutexD1Ev,_ZN12cpp_freertos5MutexD2Ev
 164              	 .section .text._ZN12cpp_freertos5MutexD0Ev,"ax",%progbits
 165              	 .align 1
 166              	 .global _ZN12cpp_freertos5MutexD0Ev
 167              	 .syntax unified
 168              	 .thumb
 169              	 .thumb_func
 170              	 .type _ZN12cpp_freertos5MutexD0Ev,%function
 171              	_ZN12cpp_freertos5MutexD0Ev:
 172              	.LFB1035:
  34:C:\Users\niels\Documents\GitHub\DSP\software\STM32Basis\HAL\gemeenschappelijk\Third_Party\freertos-addons-1.1.0\c++\Source\cmutex.cpp **** {
 173              	 .loc 2 34 1
 174              	 .cfi_startproc
 175              	 
 176              	 
 177 0000 80B5     	 push {r7,lr}
 178              	 .cfi_def_cfa_offset 8
 179              	 .cfi_offset 7,-8
 180              	 .cfi_offset 14,-4
 181 0002 82B0     	 sub sp,sp,#8
 182              	 .cfi_def_cfa_offset 16
 183 0004 00AF     	 add r7,sp,#0
 184              	 .cfi_def_cfa_register 7
 185 0006 7860     	 str r0,[r7,#4]
 186              	 .loc 2 37 1
ARM GAS   			page 9


 187 0008 7868     	 ldr r0,[r7,#4]
 188 000a FFF7FEFF 	 bl _ZN12cpp_freertos5MutexD1Ev
 189 000e 0821     	 movs r1,#8
 190 0010 7868     	 ldr r0,[r7,#4]
 191 0012 FFF7FEFF 	 bl _ZdlPvj
 192 0016 7B68     	 ldr r3,[r7,#4]
 193 0018 1846     	 mov r0,r3
 194 001a 0837     	 adds r7,r7,#8
 195              	 .cfi_def_cfa_offset 8
 196 001c BD46     	 mov sp,r7
 197              	 .cfi_def_cfa_register 13
 198              	 
 199 001e 80BD     	 pop {r7,pc}
 200              	 .cfi_endproc
 201              	.LFE1035:
 202              	 .size _ZN12cpp_freertos5MutexD0Ev,.-_ZN12cpp_freertos5MutexD0Ev
 203              	 .section .rodata
 204              	 .align 2
 205              	.LC0:
 206 0000 68616E64 	 .ascii "handle != NULL\000"
 206      6C652021 
 206      3D204E55 
 206      4C4C00
 207 000f 00       	 .align 2
 208              	.LC1:
 209 0010 6370705F 	 .ascii "cpp_freertos::MutexStandard::MutexStandard()\000"
 209      66726565 
 209      72746F73 
 209      3A3A4D75 
 209      74657853 
 210 003d 000000   	 .align 2
 211              	.LC2:
 212 0040 433A5C55 	 .ascii "C:\\Users\\niels\\Documents\\GitHub\\DSP\\software\\"
 212      73657273 
 212      5C6E6965 
 212      6C735C44 
 212      6F63756D 
 213 006d 53544D33 	 .ascii "STM32Basis\\HAL\\gemeenschappelijk\\Third_Party\\fr"
 213      32426173 
 213      69735C48 
 213      414C5C67 
 213      656D6565 
 214 009c 65657274 	 .ascii "eertos-addons-1.1.0\\c++\\Source\\cmutex.cpp\000"
 214      6F732D61 
 214      64646F6E 
 214      732D312E 
 214      312E305C 
 215              	 .section .text._ZN12cpp_freertos13MutexStandardC2Ev,"ax",%progbits
 216              	 .align 1
 217              	 .global _ZN12cpp_freertos13MutexStandardC2Ev
 218              	 .syntax unified
 219              	 .thumb
 220              	 .thumb_func
 221              	 .type _ZN12cpp_freertos13MutexStandardC2Ev,%function
 222              	_ZN12cpp_freertos13MutexStandardC2Ev:
 223              	.LFB1037:
  38:C:\Users\niels\Documents\GitHub\DSP\software\STM32Basis\HAL\gemeenschappelijk\Third_Party\freertos-addons-1.1.0\c++\Source\cmutex.cpp **** 
ARM GAS   			page 10


  39:C:\Users\niels\Documents\GitHub\DSP\software\STM32Basis\HAL\gemeenschappelijk\Third_Party\freertos-addons-1.1.0\c++\Source\cmutex.cpp **** 
  40:C:\Users\niels\Documents\GitHub\DSP\software\STM32Basis\HAL\gemeenschappelijk\Third_Party\freertos-addons-1.1.0\c++\Source\cmutex.cpp **** MutexStandard::MutexStandard()
 224              	 .loc 2 40 1
 225              	 .cfi_startproc
 226              	 
 227              	 
 228 0000 80B5     	 push {r7,lr}
 229              	 .cfi_def_cfa_offset 8
 230              	 .cfi_offset 7,-8
 231              	 .cfi_offset 14,-4
 232 0002 82B0     	 sub sp,sp,#8
 233              	 .cfi_def_cfa_offset 16
 234 0004 00AF     	 add r7,sp,#0
 235              	 .cfi_def_cfa_register 7
 236 0006 7860     	 str r0,[r7,#4]
 237              	.LBB4:
 238              	 .loc 2 40 30
 239 0008 7B68     	 ldr r3,[r7,#4]
 240 000a 1846     	 mov r0,r3
 241 000c FFF7FEFF 	 bl _ZN12cpp_freertos5MutexC2Ev
 242 0010 0B4A     	 ldr r2,.L16
 243 0012 7B68     	 ldr r3,[r7,#4]
 244 0014 1A60     	 str r2,[r3]
  41:C:\Users\niels\Documents\GitHub\DSP\software\STM32Basis\HAL\gemeenschappelijk\Third_Party\freertos-addons-1.1.0\c++\Source\cmutex.cpp **** {
  42:C:\Users\niels\Documents\GitHub\DSP\software\STM32Basis\HAL\gemeenschappelijk\Third_Party\freertos-addons-1.1.0\c++\Source\cmutex.cpp ****     handle = xSemaphoreCreateMutex();
 245              	 .loc 2 42 14
 246 0016 0120     	 movs r0,#1
 247 0018 FFF7FEFF 	 bl xQueueCreateMutex
 248 001c 0246     	 mov r2,r0
 249              	 .loc 2 42 12
 250 001e 7B68     	 ldr r3,[r7,#4]
 251 0020 5A60     	 str r2,[r3,#4]
  43:C:\Users\niels\Documents\GitHub\DSP\software\STM32Basis\HAL\gemeenschappelijk\Third_Party\freertos-addons-1.1.0\c++\Source\cmutex.cpp **** 
  44:C:\Users\niels\Documents\GitHub\DSP\software\STM32Basis\HAL\gemeenschappelijk\Third_Party\freertos-addons-1.1.0\c++\Source\cmutex.cpp ****     assert(handle != NULL);
 252              	 .loc 2 44 5
 253 0022 7B68     	 ldr r3,[r7,#4]
 254 0024 5B68     	 ldr r3,[r3,#4]
 255 0026 002B     	 cmp r3,#0
 256 0028 05D1     	 bne .L14
 257              	 .loc 2 44 5 is_stmt 0 discriminator 1
 258 002a 064B     	 ldr r3,.L16+4
 259 002c 064A     	 ldr r2,.L16+8
 260 002e 2C21     	 movs r1,#44
 261 0030 0648     	 ldr r0,.L16+12
 262 0032 FFF7FEFF 	 bl __assert_func
 263              	.L14:
 264              	.LBE4:
  45:C:\Users\niels\Documents\GitHub\DSP\software\STM32Basis\HAL\gemeenschappelijk\Third_Party\freertos-addons-1.1.0\c++\Source\cmutex.cpp **** }
 265              	 .loc 2 45 1 is_stmt 1
 266 0036 7B68     	 ldr r3,[r7,#4]
 267 0038 1846     	 mov r0,r3
 268 003a 0837     	 adds r7,r7,#8
 269              	 .cfi_def_cfa_offset 8
 270 003c BD46     	 mov sp,r7
 271              	 .cfi_def_cfa_register 13
 272              	 
 273 003e 80BD     	 pop {r7,pc}
ARM GAS   			page 11


 274              	.L17:
 275              	 .align 2
 276              	.L16:
 277 0040 08000000 	 .word _ZTVN12cpp_freertos13MutexStandardE+8
 278 0044 00000000 	 .word .LC0
 279 0048 10000000 	 .word .LC1
 280 004c 40000000 	 .word .LC2
 281              	 .cfi_endproc
 282              	.LFE1037:
 283              	 .size _ZN12cpp_freertos13MutexStandardC2Ev,.-_ZN12cpp_freertos13MutexStandardC2Ev
 284              	 .global _ZN12cpp_freertos13MutexStandardC1Ev
 285              	 .thumb_set _ZN12cpp_freertos13MutexStandardC1Ev,_ZN12cpp_freertos13MutexStandardC2Ev
 286              	 .section .text._ZN12cpp_freertos13MutexStandard4LockEm,"ax",%progbits
 287              	 .align 1
 288              	 .global _ZN12cpp_freertos13MutexStandard4LockEm
 289              	 .syntax unified
 290              	 .thumb
 291              	 .thumb_func
 292              	 .type _ZN12cpp_freertos13MutexStandard4LockEm,%function
 293              	_ZN12cpp_freertos13MutexStandard4LockEm:
 294              	.LFB1039:
  46:C:\Users\niels\Documents\GitHub\DSP\software\STM32Basis\HAL\gemeenschappelijk\Third_Party\freertos-addons-1.1.0\c++\Source\cmutex.cpp **** 
  47:C:\Users\niels\Documents\GitHub\DSP\software\STM32Basis\HAL\gemeenschappelijk\Third_Party\freertos-addons-1.1.0\c++\Source\cmutex.cpp **** 
  48:C:\Users\niels\Documents\GitHub\DSP\software\STM32Basis\HAL\gemeenschappelijk\Third_Party\freertos-addons-1.1.0\c++\Source\cmutex.cpp **** bool MutexStandard::Lock(TickType_t Timeout)
  49:C:\Users\niels\Documents\GitHub\DSP\software\STM32Basis\HAL\gemeenschappelijk\Third_Party\freertos-addons-1.1.0\c++\Source\cmutex.cpp **** {
 295              	 .loc 2 49 1
 296              	 .cfi_startproc
 297              	 
 298              	 
 299 0000 80B5     	 push {r7,lr}
 300              	 .cfi_def_cfa_offset 8
 301              	 .cfi_offset 7,-8
 302              	 .cfi_offset 14,-4
 303 0002 84B0     	 sub sp,sp,#16
 304              	 .cfi_def_cfa_offset 24
 305 0004 00AF     	 add r7,sp,#0
 306              	 .cfi_def_cfa_register 7
 307 0006 7860     	 str r0,[r7,#4]
 308 0008 3960     	 str r1,[r7]
  50:C:\Users\niels\Documents\GitHub\DSP\software\STM32Basis\HAL\gemeenschappelijk\Third_Party\freertos-addons-1.1.0\c++\Source\cmutex.cpp ****     BaseType_t success = xSemaphoreTake(handle, Timeout);
 309              	 .loc 2 50 26
 310 000a 7B68     	 ldr r3,[r7,#4]
 311 000c 5868     	 ldr r0,[r3,#4]
 312 000e 0023     	 movs r3,#0
 313 0010 3A68     	 ldr r2,[r7]
 314 0012 0021     	 movs r1,#0
 315 0014 FFF7FEFF 	 bl xQueueGenericReceive
 316 0018 F860     	 str r0,[r7,#12]
  51:C:\Users\niels\Documents\GitHub\DSP\software\STM32Basis\HAL\gemeenschappelijk\Third_Party\freertos-addons-1.1.0\c++\Source\cmutex.cpp ****     return success == pdTRUE ? true : false;
 317              	 .loc 2 51 39
 318 001a FB68     	 ldr r3,[r7,#12]
 319 001c 012B     	 cmp r3,#1
 320 001e 0CBF     	 ite eq
 321 0020 0123     	 moveq r3,#1
 322 0022 0023     	 movne r3,#0
 323 0024 DBB2     	 uxtb r3,r3
  52:C:\Users\niels\Documents\GitHub\DSP\software\STM32Basis\HAL\gemeenschappelijk\Third_Party\freertos-addons-1.1.0\c++\Source\cmutex.cpp **** }
ARM GAS   			page 12


 324              	 .loc 2 52 1
 325 0026 1846     	 mov r0,r3
 326 0028 1037     	 adds r7,r7,#16
 327              	 .cfi_def_cfa_offset 8
 328 002a BD46     	 mov sp,r7
 329              	 .cfi_def_cfa_register 13
 330              	 
 331 002c 80BD     	 pop {r7,pc}
 332              	 .cfi_endproc
 333              	.LFE1039:
 334              	 .size _ZN12cpp_freertos13MutexStandard4LockEm,.-_ZN12cpp_freertos13MutexStandard4LockEm
 335              	 .section .text._ZN12cpp_freertos13MutexStandard6UnlockEv,"ax",%progbits
 336              	 .align 1
 337              	 .global _ZN12cpp_freertos13MutexStandard6UnlockEv
 338              	 .syntax unified
 339              	 .thumb
 340              	 .thumb_func
 341              	 .type _ZN12cpp_freertos13MutexStandard6UnlockEv,%function
 342              	_ZN12cpp_freertos13MutexStandard6UnlockEv:
 343              	.LFB1040:
  53:C:\Users\niels\Documents\GitHub\DSP\software\STM32Basis\HAL\gemeenschappelijk\Third_Party\freertos-addons-1.1.0\c++\Source\cmutex.cpp **** 
  54:C:\Users\niels\Documents\GitHub\DSP\software\STM32Basis\HAL\gemeenschappelijk\Third_Party\freertos-addons-1.1.0\c++\Source\cmutex.cpp **** 
  55:C:\Users\niels\Documents\GitHub\DSP\software\STM32Basis\HAL\gemeenschappelijk\Third_Party\freertos-addons-1.1.0\c++\Source\cmutex.cpp **** bool MutexStandard::Unlock()
  56:C:\Users\niels\Documents\GitHub\DSP\software\STM32Basis\HAL\gemeenschappelijk\Third_Party\freertos-addons-1.1.0\c++\Source\cmutex.cpp **** {
 344              	 .loc 2 56 1
 345              	 .cfi_startproc
 346              	 
 347              	 
 348 0000 80B5     	 push {r7,lr}
 349              	 .cfi_def_cfa_offset 8
 350              	 .cfi_offset 7,-8
 351              	 .cfi_offset 14,-4
 352 0002 84B0     	 sub sp,sp,#16
 353              	 .cfi_def_cfa_offset 24
 354 0004 00AF     	 add r7,sp,#0
 355              	 .cfi_def_cfa_register 7
 356 0006 7860     	 str r0,[r7,#4]
  57:C:\Users\niels\Documents\GitHub\DSP\software\STM32Basis\HAL\gemeenschappelijk\Third_Party\freertos-addons-1.1.0\c++\Source\cmutex.cpp ****     BaseType_t success = xSemaphoreGive(handle);
 357              	 .loc 2 57 26
 358 0008 7B68     	 ldr r3,[r7,#4]
 359 000a 5868     	 ldr r0,[r3,#4]
 360 000c 0023     	 movs r3,#0
 361 000e 0022     	 movs r2,#0
 362 0010 0021     	 movs r1,#0
 363 0012 FFF7FEFF 	 bl xQueueGenericSend
 364 0016 F860     	 str r0,[r7,#12]
  58:C:\Users\niels\Documents\GitHub\DSP\software\STM32Basis\HAL\gemeenschappelijk\Third_Party\freertos-addons-1.1.0\c++\Source\cmutex.cpp ****     return success == pdTRUE ? true : false;
 365              	 .loc 2 58 39
 366 0018 FB68     	 ldr r3,[r7,#12]
 367 001a 012B     	 cmp r3,#1
 368 001c 0CBF     	 ite eq
 369 001e 0123     	 moveq r3,#1
 370 0020 0023     	 movne r3,#0
 371 0022 DBB2     	 uxtb r3,r3
  59:C:\Users\niels\Documents\GitHub\DSP\software\STM32Basis\HAL\gemeenschappelijk\Third_Party\freertos-addons-1.1.0\c++\Source\cmutex.cpp **** }
 372              	 .loc 2 59 1
 373 0024 1846     	 mov r0,r3
ARM GAS   			page 13


 374 0026 1037     	 adds r7,r7,#16
 375              	 .cfi_def_cfa_offset 8
 376 0028 BD46     	 mov sp,r7
 377              	 .cfi_def_cfa_register 13
 378              	 
 379 002a 80BD     	 pop {r7,pc}
 380              	 .cfi_endproc
 381              	.LFE1040:
 382              	 .size _ZN12cpp_freertos13MutexStandard6UnlockEv,.-_ZN12cpp_freertos13MutexStandard6UnlockEv
 383              	 .section .rodata
 384 00c6 0000     	 .align 2
 385              	.LC3:
 386 00c8 6370705F 	 .ascii "cpp_freertos::MutexRecursive::MutexRecursive()\000"
 386      66726565 
 386      72746F73 
 386      3A3A4D75 
 386      74657852 
 387              	 .section .text._ZN12cpp_freertos14MutexRecursiveC2Ev,"ax",%progbits
 388              	 .align 1
 389              	 .global _ZN12cpp_freertos14MutexRecursiveC2Ev
 390              	 .syntax unified
 391              	 .thumb
 392              	 .thumb_func
 393              	 .type _ZN12cpp_freertos14MutexRecursiveC2Ev,%function
 394              	_ZN12cpp_freertos14MutexRecursiveC2Ev:
 395              	.LFB1042:
  60:C:\Users\niels\Documents\GitHub\DSP\software\STM32Basis\HAL\gemeenschappelijk\Third_Party\freertos-addons-1.1.0\c++\Source\cmutex.cpp **** 
  61:C:\Users\niels\Documents\GitHub\DSP\software\STM32Basis\HAL\gemeenschappelijk\Third_Party\freertos-addons-1.1.0\c++\Source\cmutex.cpp **** 
  62:C:\Users\niels\Documents\GitHub\DSP\software\STM32Basis\HAL\gemeenschappelijk\Third_Party\freertos-addons-1.1.0\c++\Source\cmutex.cpp **** #if (configUSE_RECURSIVE_MUTEXES == 1)
  63:C:\Users\niels\Documents\GitHub\DSP\software\STM32Basis\HAL\gemeenschappelijk\Third_Party\freertos-addons-1.1.0\c++\Source\cmutex.cpp **** 
  64:C:\Users\niels\Documents\GitHub\DSP\software\STM32Basis\HAL\gemeenschappelijk\Third_Party\freertos-addons-1.1.0\c++\Source\cmutex.cpp **** MutexRecursive::MutexRecursive()
 396              	 .loc 2 64 1
 397              	 .cfi_startproc
 398              	 
 399              	 
 400 0000 80B5     	 push {r7,lr}
 401              	 .cfi_def_cfa_offset 8
 402              	 .cfi_offset 7,-8
 403              	 .cfi_offset 14,-4
 404 0002 82B0     	 sub sp,sp,#8
 405              	 .cfi_def_cfa_offset 16
 406 0004 00AF     	 add r7,sp,#0
 407              	 .cfi_def_cfa_register 7
 408 0006 7860     	 str r0,[r7,#4]
 409              	.LBB5:
 410              	 .loc 2 64 32
 411 0008 7B68     	 ldr r3,[r7,#4]
 412 000a 1846     	 mov r0,r3
 413 000c FFF7FEFF 	 bl _ZN12cpp_freertos5MutexC2Ev
 414 0010 0B4A     	 ldr r2,.L25
 415 0012 7B68     	 ldr r3,[r7,#4]
 416 0014 1A60     	 str r2,[r3]
  65:C:\Users\niels\Documents\GitHub\DSP\software\STM32Basis\HAL\gemeenschappelijk\Third_Party\freertos-addons-1.1.0\c++\Source\cmutex.cpp **** {
  66:C:\Users\niels\Documents\GitHub\DSP\software\STM32Basis\HAL\gemeenschappelijk\Third_Party\freertos-addons-1.1.0\c++\Source\cmutex.cpp ****     handle = xSemaphoreCreateRecursiveMutex();
 417              	 .loc 2 66 14
 418 0016 0420     	 movs r0,#4
 419 0018 FFF7FEFF 	 bl xQueueCreateMutex
ARM GAS   			page 14


 420 001c 0246     	 mov r2,r0
 421              	 .loc 2 66 12
 422 001e 7B68     	 ldr r3,[r7,#4]
 423 0020 5A60     	 str r2,[r3,#4]
  67:C:\Users\niels\Documents\GitHub\DSP\software\STM32Basis\HAL\gemeenschappelijk\Third_Party\freertos-addons-1.1.0\c++\Source\cmutex.cpp **** 
  68:C:\Users\niels\Documents\GitHub\DSP\software\STM32Basis\HAL\gemeenschappelijk\Third_Party\freertos-addons-1.1.0\c++\Source\cmutex.cpp ****     assert(handle != NULL);
 424              	 .loc 2 68 5
 425 0022 7B68     	 ldr r3,[r7,#4]
 426 0024 5B68     	 ldr r3,[r3,#4]
 427 0026 002B     	 cmp r3,#0
 428 0028 05D1     	 bne .L23
 429              	 .loc 2 68 5 is_stmt 0 discriminator 1
 430 002a 064B     	 ldr r3,.L25+4
 431 002c 064A     	 ldr r2,.L25+8
 432 002e 4421     	 movs r1,#68
 433 0030 0648     	 ldr r0,.L25+12
 434 0032 FFF7FEFF 	 bl __assert_func
 435              	.L23:
 436              	.LBE5:
  69:C:\Users\niels\Documents\GitHub\DSP\software\STM32Basis\HAL\gemeenschappelijk\Third_Party\freertos-addons-1.1.0\c++\Source\cmutex.cpp **** }
 437              	 .loc 2 69 1 is_stmt 1
 438 0036 7B68     	 ldr r3,[r7,#4]
 439 0038 1846     	 mov r0,r3
 440 003a 0837     	 adds r7,r7,#8
 441              	 .cfi_def_cfa_offset 8
 442 003c BD46     	 mov sp,r7
 443              	 .cfi_def_cfa_register 13
 444              	 
 445 003e 80BD     	 pop {r7,pc}
 446              	.L26:
 447              	 .align 2
 448              	.L25:
 449 0040 08000000 	 .word _ZTVN12cpp_freertos14MutexRecursiveE+8
 450 0044 00000000 	 .word .LC0
 451 0048 C8000000 	 .word .LC3
 452 004c 40000000 	 .word .LC2
 453              	 .cfi_endproc
 454              	.LFE1042:
 455              	 .size _ZN12cpp_freertos14MutexRecursiveC2Ev,.-_ZN12cpp_freertos14MutexRecursiveC2Ev
 456              	 .global _ZN12cpp_freertos14MutexRecursiveC1Ev
 457              	 .thumb_set _ZN12cpp_freertos14MutexRecursiveC1Ev,_ZN12cpp_freertos14MutexRecursiveC2Ev
 458              	 .section .text._ZN12cpp_freertos14MutexRecursive4LockEm,"ax",%progbits
 459              	 .align 1
 460              	 .global _ZN12cpp_freertos14MutexRecursive4LockEm
 461              	 .syntax unified
 462              	 .thumb
 463              	 .thumb_func
 464              	 .type _ZN12cpp_freertos14MutexRecursive4LockEm,%function
 465              	_ZN12cpp_freertos14MutexRecursive4LockEm:
 466              	.LFB1044:
  70:C:\Users\niels\Documents\GitHub\DSP\software\STM32Basis\HAL\gemeenschappelijk\Third_Party\freertos-addons-1.1.0\c++\Source\cmutex.cpp **** 
  71:C:\Users\niels\Documents\GitHub\DSP\software\STM32Basis\HAL\gemeenschappelijk\Third_Party\freertos-addons-1.1.0\c++\Source\cmutex.cpp **** 
  72:C:\Users\niels\Documents\GitHub\DSP\software\STM32Basis\HAL\gemeenschappelijk\Third_Party\freertos-addons-1.1.0\c++\Source\cmutex.cpp **** bool MutexRecursive::Lock(TickType_t Timeout)
  73:C:\Users\niels\Documents\GitHub\DSP\software\STM32Basis\HAL\gemeenschappelijk\Third_Party\freertos-addons-1.1.0\c++\Source\cmutex.cpp **** {
 467              	 .loc 2 73 1
 468              	 .cfi_startproc
 469              	 
ARM GAS   			page 15


 470              	 
 471 0000 80B5     	 push {r7,lr}
 472              	 .cfi_def_cfa_offset 8
 473              	 .cfi_offset 7,-8
 474              	 .cfi_offset 14,-4
 475 0002 84B0     	 sub sp,sp,#16
 476              	 .cfi_def_cfa_offset 24
 477 0004 00AF     	 add r7,sp,#0
 478              	 .cfi_def_cfa_register 7
 479 0006 7860     	 str r0,[r7,#4]
 480 0008 3960     	 str r1,[r7]
  74:C:\Users\niels\Documents\GitHub\DSP\software\STM32Basis\HAL\gemeenschappelijk\Third_Party\freertos-addons-1.1.0\c++\Source\cmutex.cpp ****     BaseType_t success = xSemaphoreTakeRecursive(handle, Timeout);
 481              	 .loc 2 74 26
 482 000a 7B68     	 ldr r3,[r7,#4]
 483 000c 5B68     	 ldr r3,[r3,#4]
 484 000e 3968     	 ldr r1,[r7]
 485 0010 1846     	 mov r0,r3
 486 0012 FFF7FEFF 	 bl xQueueTakeMutexRecursive
 487 0016 F860     	 str r0,[r7,#12]
  75:C:\Users\niels\Documents\GitHub\DSP\software\STM32Basis\HAL\gemeenschappelijk\Third_Party\freertos-addons-1.1.0\c++\Source\cmutex.cpp ****     return success == pdTRUE ? true : false;
 488              	 .loc 2 75 39
 489 0018 FB68     	 ldr r3,[r7,#12]
 490 001a 012B     	 cmp r3,#1
 491 001c 0CBF     	 ite eq
 492 001e 0123     	 moveq r3,#1
 493 0020 0023     	 movne r3,#0
 494 0022 DBB2     	 uxtb r3,r3
  76:C:\Users\niels\Documents\GitHub\DSP\software\STM32Basis\HAL\gemeenschappelijk\Third_Party\freertos-addons-1.1.0\c++\Source\cmutex.cpp **** }
 495              	 .loc 2 76 1
 496 0024 1846     	 mov r0,r3
 497 0026 1037     	 adds r7,r7,#16
 498              	 .cfi_def_cfa_offset 8
 499 0028 BD46     	 mov sp,r7
 500              	 .cfi_def_cfa_register 13
 501              	 
 502 002a 80BD     	 pop {r7,pc}
 503              	 .cfi_endproc
 504              	.LFE1044:
 505              	 .size _ZN12cpp_freertos14MutexRecursive4LockEm,.-_ZN12cpp_freertos14MutexRecursive4LockEm
 506              	 .section .text._ZN12cpp_freertos14MutexRecursive6UnlockEv,"ax",%progbits
 507              	 .align 1
 508              	 .global _ZN12cpp_freertos14MutexRecursive6UnlockEv
 509              	 .syntax unified
 510              	 .thumb
 511              	 .thumb_func
 512              	 .type _ZN12cpp_freertos14MutexRecursive6UnlockEv,%function
 513              	_ZN12cpp_freertos14MutexRecursive6UnlockEv:
 514              	.LFB1045:
  77:C:\Users\niels\Documents\GitHub\DSP\software\STM32Basis\HAL\gemeenschappelijk\Third_Party\freertos-addons-1.1.0\c++\Source\cmutex.cpp **** 
  78:C:\Users\niels\Documents\GitHub\DSP\software\STM32Basis\HAL\gemeenschappelijk\Third_Party\freertos-addons-1.1.0\c++\Source\cmutex.cpp **** 
  79:C:\Users\niels\Documents\GitHub\DSP\software\STM32Basis\HAL\gemeenschappelijk\Third_Party\freertos-addons-1.1.0\c++\Source\cmutex.cpp **** bool MutexRecursive::Unlock()
  80:C:\Users\niels\Documents\GitHub\DSP\software\STM32Basis\HAL\gemeenschappelijk\Third_Party\freertos-addons-1.1.0\c++\Source\cmutex.cpp **** {
 515              	 .loc 2 80 1
 516              	 .cfi_startproc
 517              	 
 518              	 
 519 0000 80B5     	 push {r7,lr}
ARM GAS   			page 16


 520              	 .cfi_def_cfa_offset 8
 521              	 .cfi_offset 7,-8
 522              	 .cfi_offset 14,-4
 523 0002 84B0     	 sub sp,sp,#16
 524              	 .cfi_def_cfa_offset 24
 525 0004 00AF     	 add r7,sp,#0
 526              	 .cfi_def_cfa_register 7
 527 0006 7860     	 str r0,[r7,#4]
  81:C:\Users\niels\Documents\GitHub\DSP\software\STM32Basis\HAL\gemeenschappelijk\Third_Party\freertos-addons-1.1.0\c++\Source\cmutex.cpp ****     BaseType_t success = xSemaphoreGiveRecursive(handle);
 528              	 .loc 2 81 26
 529 0008 7B68     	 ldr r3,[r7,#4]
 530 000a 5B68     	 ldr r3,[r3,#4]
 531 000c 1846     	 mov r0,r3
 532 000e FFF7FEFF 	 bl xQueueGiveMutexRecursive
 533 0012 F860     	 str r0,[r7,#12]
  82:C:\Users\niels\Documents\GitHub\DSP\software\STM32Basis\HAL\gemeenschappelijk\Third_Party\freertos-addons-1.1.0\c++\Source\cmutex.cpp ****     return success == pdTRUE ? true : false;
 534              	 .loc 2 82 39
 535 0014 FB68     	 ldr r3,[r7,#12]
 536 0016 012B     	 cmp r3,#1
 537 0018 0CBF     	 ite eq
 538 001a 0123     	 moveq r3,#1
 539 001c 0023     	 movne r3,#0
 540 001e DBB2     	 uxtb r3,r3
  83:C:\Users\niels\Documents\GitHub\DSP\software\STM32Basis\HAL\gemeenschappelijk\Third_Party\freertos-addons-1.1.0\c++\Source\cmutex.cpp **** }
 541              	 .loc 2 83 1
 542 0020 1846     	 mov r0,r3
 543 0022 1037     	 adds r7,r7,#16
 544              	 .cfi_def_cfa_offset 8
 545 0024 BD46     	 mov sp,r7
 546              	 .cfi_def_cfa_register 13
 547              	 
 548 0026 80BD     	 pop {r7,pc}
 549              	 .cfi_endproc
 550              	.LFE1045:
 551              	 .size _ZN12cpp_freertos14MutexRecursive6UnlockEv,.-_ZN12cpp_freertos14MutexRecursive6UnlockEv
 552              	 .section .text._ZN12cpp_freertos9LockGuardC2ERNS_5MutexE,"ax",%progbits
 553              	 .align 1
 554              	 .global _ZN12cpp_freertos9LockGuardC2ERNS_5MutexE
 555              	 .syntax unified
 556              	 .thumb
 557              	 .thumb_func
 558              	 .type _ZN12cpp_freertos9LockGuardC2ERNS_5MutexE,%function
 559              	_ZN12cpp_freertos9LockGuardC2ERNS_5MutexE:
 560              	.LFB1047:
  84:C:\Users\niels\Documents\GitHub\DSP\software\STM32Basis\HAL\gemeenschappelijk\Third_Party\freertos-addons-1.1.0\c++\Source\cmutex.cpp **** 
  85:C:\Users\niels\Documents\GitHub\DSP\software\STM32Basis\HAL\gemeenschappelijk\Third_Party\freertos-addons-1.1.0\c++\Source\cmutex.cpp **** #endif
  86:C:\Users\niels\Documents\GitHub\DSP\software\STM32Basis\HAL\gemeenschappelijk\Third_Party\freertos-addons-1.1.0\c++\Source\cmutex.cpp **** 
  87:C:\Users\niels\Documents\GitHub\DSP\software\STM32Basis\HAL\gemeenschappelijk\Third_Party\freertos-addons-1.1.0\c++\Source\cmutex.cpp **** 
  88:C:\Users\niels\Documents\GitHub\DSP\software\STM32Basis\HAL\gemeenschappelijk\Third_Party\freertos-addons-1.1.0\c++\Source\cmutex.cpp **** LockGuard::LockGuard(Mutex& m)
 561              	 .loc 2 88 1
 562              	 .cfi_startproc
 563              	 
 564              	 
 565 0000 80B5     	 push {r7,lr}
 566              	 .cfi_def_cfa_offset 8
 567              	 .cfi_offset 7,-8
 568              	 .cfi_offset 14,-4
ARM GAS   			page 17


 569 0002 82B0     	 sub sp,sp,#8
 570              	 .cfi_def_cfa_offset 16
 571 0004 00AF     	 add r7,sp,#0
 572              	 .cfi_def_cfa_register 7
 573 0006 7860     	 str r0,[r7,#4]
 574 0008 3960     	 str r1,[r7]
 575              	.LBB6:
  89:C:\Users\niels\Documents\GitHub\DSP\software\STM32Basis\HAL\gemeenschappelijk\Third_Party\freertos-addons-1.1.0\c++\Source\cmutex.cpp ****     : mutex(m)
 576              	 .loc 2 89 14
 577 000a 7B68     	 ldr r3,[r7,#4]
 578 000c 3A68     	 ldr r2,[r7]
 579 000e 1A60     	 str r2,[r3]
  90:C:\Users\niels\Documents\GitHub\DSP\software\STM32Basis\HAL\gemeenschappelijk\Third_Party\freertos-addons-1.1.0\c++\Source\cmutex.cpp **** {
  91:C:\Users\niels\Documents\GitHub\DSP\software\STM32Basis\HAL\gemeenschappelijk\Third_Party\freertos-addons-1.1.0\c++\Source\cmutex.cpp ****     mutex.Lock();
 580              	 .loc 2 91 5
 581 0010 7B68     	 ldr r3,[r7,#4]
 582 0012 1A68     	 ldr r2,[r3]
 583 0014 7B68     	 ldr r3,[r7,#4]
 584 0016 1B68     	 ldr r3,[r3]
 585              	 .loc 2 91 16
 586 0018 1B68     	 ldr r3,[r3]
 587 001a 1B68     	 ldr r3,[r3]
 588              	 .loc 2 91 15
 589 001c 4FF0FF31 	 mov r1,#-1
 590 0020 1046     	 mov r0,r2
 591 0022 9847     	 blx r3
 592              	.LVL0:
 593              	.LBE6:
  92:C:\Users\niels\Documents\GitHub\DSP\software\STM32Basis\HAL\gemeenschappelijk\Third_Party\freertos-addons-1.1.0\c++\Source\cmutex.cpp **** }
 594              	 .loc 2 92 1
 595 0024 7B68     	 ldr r3,[r7,#4]
 596 0026 1846     	 mov r0,r3
 597 0028 0837     	 adds r7,r7,#8
 598              	 .cfi_def_cfa_offset 8
 599 002a BD46     	 mov sp,r7
 600              	 .cfi_def_cfa_register 13
 601              	 
 602 002c 80BD     	 pop {r7,pc}
 603              	 .cfi_endproc
 604              	.LFE1047:
 605              	 .size _ZN12cpp_freertos9LockGuardC2ERNS_5MutexE,.-_ZN12cpp_freertos9LockGuardC2ERNS_5MutexE
 606              	 .global _ZN12cpp_freertos9LockGuardC1ERNS_5MutexE
 607              	 .thumb_set _ZN12cpp_freertos9LockGuardC1ERNS_5MutexE,_ZN12cpp_freertos9LockGuardC2ERNS_5MutexE
 608              	 .section .text._ZN12cpp_freertos9LockGuardD2Ev,"ax",%progbits
 609              	 .align 1
 610              	 .global _ZN12cpp_freertos9LockGuardD2Ev
 611              	 .syntax unified
 612              	 .thumb
 613              	 .thumb_func
 614              	 .type _ZN12cpp_freertos9LockGuardD2Ev,%function
 615              	_ZN12cpp_freertos9LockGuardD2Ev:
 616              	.LFB1050:
  93:C:\Users\niels\Documents\GitHub\DSP\software\STM32Basis\HAL\gemeenschappelijk\Third_Party\freertos-addons-1.1.0\c++\Source\cmutex.cpp **** 
  94:C:\Users\niels\Documents\GitHub\DSP\software\STM32Basis\HAL\gemeenschappelijk\Third_Party\freertos-addons-1.1.0\c++\Source\cmutex.cpp **** 
  95:C:\Users\niels\Documents\GitHub\DSP\software\STM32Basis\HAL\gemeenschappelijk\Third_Party\freertos-addons-1.1.0\c++\Source\cmutex.cpp **** LockGuard::~LockGuard()
 617              	 .loc 2 95 1
 618              	 .cfi_startproc
ARM GAS   			page 18


 619              	 
 620              	 
 621 0000 80B5     	 push {r7,lr}
 622              	 .cfi_def_cfa_offset 8
 623              	 .cfi_offset 7,-8
 624              	 .cfi_offset 14,-4
 625 0002 82B0     	 sub sp,sp,#8
 626              	 .cfi_def_cfa_offset 16
 627 0004 00AF     	 add r7,sp,#0
 628              	 .cfi_def_cfa_register 7
 629 0006 7860     	 str r0,[r7,#4]
 630              	.LBB7:
  96:C:\Users\niels\Documents\GitHub\DSP\software\STM32Basis\HAL\gemeenschappelijk\Third_Party\freertos-addons-1.1.0\c++\Source\cmutex.cpp **** {
  97:C:\Users\niels\Documents\GitHub\DSP\software\STM32Basis\HAL\gemeenschappelijk\Third_Party\freertos-addons-1.1.0\c++\Source\cmutex.cpp ****     mutex.Unlock();
 631              	 .loc 2 97 5
 632 0008 7B68     	 ldr r3,[r7,#4]
 633 000a 1A68     	 ldr r2,[r3]
 634 000c 7B68     	 ldr r3,[r7,#4]
 635 000e 1B68     	 ldr r3,[r3]
 636              	 .loc 2 97 18
 637 0010 1B68     	 ldr r3,[r3]
 638 0012 0433     	 adds r3,r3,#4
 639 0014 1B68     	 ldr r3,[r3]
 640              	 .loc 2 97 17
 641 0016 1046     	 mov r0,r2
 642 0018 9847     	 blx r3
 643              	.LVL1:
 644              	.LBE7:
  98:C:\Users\niels\Documents\GitHub\DSP\software\STM32Basis\HAL\gemeenschappelijk\Third_Party\freertos-addons-1.1.0\c++\Source\cmutex.cpp **** }
 645              	 .loc 2 98 1
 646 001a 7B68     	 ldr r3,[r7,#4]
 647 001c 1846     	 mov r0,r3
 648 001e 0837     	 adds r7,r7,#8
 649              	 .cfi_def_cfa_offset 8
 650 0020 BD46     	 mov sp,r7
 651              	 .cfi_def_cfa_register 13
 652              	 
 653 0022 80BD     	 pop {r7,pc}
 654              	 .cfi_endproc
 655              	.LFE1050:
 656              	 .size _ZN12cpp_freertos9LockGuardD2Ev,.-_ZN12cpp_freertos9LockGuardD2Ev
 657              	 .global _ZN12cpp_freertos9LockGuardD1Ev
 658              	 .thumb_set _ZN12cpp_freertos9LockGuardD1Ev,_ZN12cpp_freertos9LockGuardD2Ev
 659              	 .global _ZTVN12cpp_freertos14MutexRecursiveE
 660              	 .section .rodata._ZTVN12cpp_freertos14MutexRecursiveE,"a"
 661              	 .align 2
 662              	 .type _ZTVN12cpp_freertos14MutexRecursiveE,%object
 663              	 .size _ZTVN12cpp_freertos14MutexRecursiveE,24
 664              	_ZTVN12cpp_freertos14MutexRecursiveE:
 665 0000 00000000 	 .word 0
 666 0004 00000000 	 .word 0
 667 0008 00000000 	 .word _ZN12cpp_freertos14MutexRecursive4LockEm
 668 000c 00000000 	 .word _ZN12cpp_freertos14MutexRecursive6UnlockEv
 669 0010 00000000 	 .word _ZN12cpp_freertos14MutexRecursiveD1Ev
 670 0014 00000000 	 .word _ZN12cpp_freertos14MutexRecursiveD0Ev
 671              	 .section .text._ZN12cpp_freertos14MutexRecursiveD2Ev,"axG",%progbits,_ZN12cpp_freertos14MutexRecursiveD5Ev,comdat
 672              	 .align 1
ARM GAS   			page 19


 673              	 .weak _ZN12cpp_freertos14MutexRecursiveD2Ev
 674              	 .syntax unified
 675              	 .thumb
 676              	 .thumb_func
 677              	 .type _ZN12cpp_freertos14MutexRecursiveD2Ev,%function
 678              	_ZN12cpp_freertos14MutexRecursiveD2Ev:
 679              	.LFB1520:
 680              	 .file 3 "c:\\users\\niels\\documents\\github\\dsp\\software\\stm32basis\\hal\\gemeenschappelijk\\third_party\\freertos-addons-1.1.0\\c++\\source\\include\\mutex.hpp"
   1:c:\users\niels\documents\github\dsp\software\stm32basis\hal\gemeenschappelijk\third_party\freertos-addons-1.1.0\c++\source\include\mutex.hpp **** /****************************************************************************
   2:c:\users\niels\documents\github\dsp\software\stm32basis\hal\gemeenschappelijk\third_party\freertos-addons-1.1.0\c++\source\include\mutex.hpp ****  *
   3:c:\users\niels\documents\github\dsp\software\stm32basis\hal\gemeenschappelijk\third_party\freertos-addons-1.1.0\c++\source\include\mutex.hpp ****  *  Copyright (c) 2016, Michael Becker (michael.f.becker@gmail.com)
   4:c:\users\niels\documents\github\dsp\software\stm32basis\hal\gemeenschappelijk\third_party\freertos-addons-1.1.0\c++\source\include\mutex.hpp ****  *
   5:c:\users\niels\documents\github\dsp\software\stm32basis\hal\gemeenschappelijk\third_party\freertos-addons-1.1.0\c++\source\include\mutex.hpp ****  *  This file is part of the FreeRTOS C++ Wrappers project.
   6:c:\users\niels\documents\github\dsp\software\stm32basis\hal\gemeenschappelijk\third_party\freertos-addons-1.1.0\c++\source\include\mutex.hpp ****  *
   7:c:\users\niels\documents\github\dsp\software\stm32basis\hal\gemeenschappelijk\third_party\freertos-addons-1.1.0\c++\source\include\mutex.hpp ****  *  The FreeRTOS C++ Wrappers project is free software: you can redistribute
   8:c:\users\niels\documents\github\dsp\software\stm32basis\hal\gemeenschappelijk\third_party\freertos-addons-1.1.0\c++\source\include\mutex.hpp ****  *  it and/or modify it under the terms of the GNU General Public License as
   9:c:\users\niels\documents\github\dsp\software\stm32basis\hal\gemeenschappelijk\third_party\freertos-addons-1.1.0\c++\source\include\mutex.hpp ****  *  published by the Free Software Foundation, either version 2
  10:c:\users\niels\documents\github\dsp\software\stm32basis\hal\gemeenschappelijk\third_party\freertos-addons-1.1.0\c++\source\include\mutex.hpp ****  *  of the License, or (at your option) any later version.
  11:c:\users\niels\documents\github\dsp\software\stm32basis\hal\gemeenschappelijk\third_party\freertos-addons-1.1.0\c++\source\include\mutex.hpp ****  *
  12:c:\users\niels\documents\github\dsp\software\stm32basis\hal\gemeenschappelijk\third_party\freertos-addons-1.1.0\c++\source\include\mutex.hpp ****  *  The FreeRTOS C++ Wrappers project is distributed in the hope that it will
  13:c:\users\niels\documents\github\dsp\software\stm32basis\hal\gemeenschappelijk\third_party\freertos-addons-1.1.0\c++\source\include\mutex.hpp ****  *  be useful, but WITHOUT ANY WARRANTY; without even the implied warranty of
  14:c:\users\niels\documents\github\dsp\software\stm32basis\hal\gemeenschappelijk\third_party\freertos-addons-1.1.0\c++\source\include\mutex.hpp ****  *  MERCHANTABILITY or FITNESS FOR A PARTICULAR PURPOSE.  See the
  15:c:\users\niels\documents\github\dsp\software\stm32basis\hal\gemeenschappelijk\third_party\freertos-addons-1.1.0\c++\source\include\mutex.hpp ****  *  GNU General Public License for more details.
  16:c:\users\niels\documents\github\dsp\software\stm32basis\hal\gemeenschappelijk\third_party\freertos-addons-1.1.0\c++\source\include\mutex.hpp ****  *
  17:c:\users\niels\documents\github\dsp\software\stm32basis\hal\gemeenschappelijk\third_party\freertos-addons-1.1.0\c++\source\include\mutex.hpp ****  *  You should have received a copy of the GNU General Public License
  18:c:\users\niels\documents\github\dsp\software\stm32basis\hal\gemeenschappelijk\third_party\freertos-addons-1.1.0\c++\source\include\mutex.hpp ****  *  along with the FreeRTOS C++ Wrappers project.
  19:c:\users\niels\documents\github\dsp\software\stm32basis\hal\gemeenschappelijk\third_party\freertos-addons-1.1.0\c++\source\include\mutex.hpp ****  *  If not, see <http://www.gnu.org/licenses/>.
  20:c:\users\niels\documents\github\dsp\software\stm32basis\hal\gemeenschappelijk\third_party\freertos-addons-1.1.0\c++\source\include\mutex.hpp ****  *
  21:c:\users\niels\documents\github\dsp\software\stm32basis\hal\gemeenschappelijk\third_party\freertos-addons-1.1.0\c++\source\include\mutex.hpp ****  ***************************************************************************/
  22:c:\users\niels\documents\github\dsp\software\stm32basis\hal\gemeenschappelijk\third_party\freertos-addons-1.1.0\c++\source\include\mutex.hpp **** #ifndef MUTEX_HPP_
  23:c:\users\niels\documents\github\dsp\software\stm32basis\hal\gemeenschappelijk\third_party\freertos-addons-1.1.0\c++\source\include\mutex.hpp **** #define MUTEX_HPP_
  24:c:\users\niels\documents\github\dsp\software\stm32basis\hal\gemeenschappelijk\third_party\freertos-addons-1.1.0\c++\source\include\mutex.hpp **** 
  25:c:\users\niels\documents\github\dsp\software\stm32basis\hal\gemeenschappelijk\third_party\freertos-addons-1.1.0\c++\source\include\mutex.hpp **** #include <exception>
  26:c:\users\niels\documents\github\dsp\software\stm32basis\hal\gemeenschappelijk\third_party\freertos-addons-1.1.0\c++\source\include\mutex.hpp **** #include <string>
  27:c:\users\niels\documents\github\dsp\software\stm32basis\hal\gemeenschappelijk\third_party\freertos-addons-1.1.0\c++\source\include\mutex.hpp **** #include "FreeRTOS.h"
  28:c:\users\niels\documents\github\dsp\software\stm32basis\hal\gemeenschappelijk\third_party\freertos-addons-1.1.0\c++\source\include\mutex.hpp **** #include "semphr.h"
  29:c:\users\niels\documents\github\dsp\software\stm32basis\hal\gemeenschappelijk\third_party\freertos-addons-1.1.0\c++\source\include\mutex.hpp **** // TODO - explore replacing sprintf with stringstream
  30:c:\users\niels\documents\github\dsp\software\stm32basis\hal\gemeenschappelijk\third_party\freertos-addons-1.1.0\c++\source\include\mutex.hpp **** #include <cstdio>
  31:c:\users\niels\documents\github\dsp\software\stm32basis\hal\gemeenschappelijk\third_party\freertos-addons-1.1.0\c++\source\include\mutex.hpp **** 
  32:c:\users\niels\documents\github\dsp\software\stm32basis\hal\gemeenschappelijk\third_party\freertos-addons-1.1.0\c++\source\include\mutex.hpp **** namespace cpp_freertos {
  33:c:\users\niels\documents\github\dsp\software\stm32basis\hal\gemeenschappelijk\third_party\freertos-addons-1.1.0\c++\source\include\mutex.hpp **** 
  34:c:\users\niels\documents\github\dsp\software\stm32basis\hal\gemeenschappelijk\third_party\freertos-addons-1.1.0\c++\source\include\mutex.hpp **** 
  35:c:\users\niels\documents\github\dsp\software\stm32basis\hal\gemeenschappelijk\third_party\freertos-addons-1.1.0\c++\source\include\mutex.hpp **** /**
  36:c:\users\niels\documents\github\dsp\software\stm32basis\hal\gemeenschappelijk\third_party\freertos-addons-1.1.0\c++\source\include\mutex.hpp ****  *  This is the exception that is thrown if a Mutex constructor fails.
  37:c:\users\niels\documents\github\dsp\software\stm32basis\hal\gemeenschappelijk\third_party\freertos-addons-1.1.0\c++\source\include\mutex.hpp ****  */
  38:c:\users\niels\documents\github\dsp\software\stm32basis\hal\gemeenschappelijk\third_party\freertos-addons-1.1.0\c++\source\include\mutex.hpp **** class MutexCreateException : public std::exception {
  39:c:\users\niels\documents\github\dsp\software\stm32basis\hal\gemeenschappelijk\third_party\freertos-addons-1.1.0\c++\source\include\mutex.hpp **** 
  40:c:\users\niels\documents\github\dsp\software\stm32basis\hal\gemeenschappelijk\third_party\freertos-addons-1.1.0\c++\source\include\mutex.hpp ****     public:
  41:c:\users\niels\documents\github\dsp\software\stm32basis\hal\gemeenschappelijk\third_party\freertos-addons-1.1.0\c++\source\include\mutex.hpp ****         /**
  42:c:\users\niels\documents\github\dsp\software\stm32basis\hal\gemeenschappelijk\third_party\freertos-addons-1.1.0\c++\source\include\mutex.hpp ****          *  Create the exception.
  43:c:\users\niels\documents\github\dsp\software\stm32basis\hal\gemeenschappelijk\third_party\freertos-addons-1.1.0\c++\source\include\mutex.hpp ****          */
  44:c:\users\niels\documents\github\dsp\software\stm32basis\hal\gemeenschappelijk\third_party\freertos-addons-1.1.0\c++\source\include\mutex.hpp ****         MutexCreateException()
  45:c:\users\niels\documents\github\dsp\software\stm32basis\hal\gemeenschappelijk\third_party\freertos-addons-1.1.0\c++\source\include\mutex.hpp ****         {
  46:c:\users\niels\documents\github\dsp\software\stm32basis\hal\gemeenschappelijk\third_party\freertos-addons-1.1.0\c++\source\include\mutex.hpp ****             sprintf(errorString, "Mutex Constructor Failed");
  47:c:\users\niels\documents\github\dsp\software\stm32basis\hal\gemeenschappelijk\third_party\freertos-addons-1.1.0\c++\source\include\mutex.hpp ****         }
  48:c:\users\niels\documents\github\dsp\software\stm32basis\hal\gemeenschappelijk\third_party\freertos-addons-1.1.0\c++\source\include\mutex.hpp **** 
  49:c:\users\niels\documents\github\dsp\software\stm32basis\hal\gemeenschappelijk\third_party\freertos-addons-1.1.0\c++\source\include\mutex.hpp ****         /**
ARM GAS   			page 20


  50:c:\users\niels\documents\github\dsp\software\stm32basis\hal\gemeenschappelijk\third_party\freertos-addons-1.1.0\c++\source\include\mutex.hpp ****          *  Get what happened as a string.
  51:c:\users\niels\documents\github\dsp\software\stm32basis\hal\gemeenschappelijk\third_party\freertos-addons-1.1.0\c++\source\include\mutex.hpp ****          *  We are overriding the base implementation here.
  52:c:\users\niels\documents\github\dsp\software\stm32basis\hal\gemeenschappelijk\third_party\freertos-addons-1.1.0\c++\source\include\mutex.hpp ****          */
  53:c:\users\niels\documents\github\dsp\software\stm32basis\hal\gemeenschappelijk\third_party\freertos-addons-1.1.0\c++\source\include\mutex.hpp ****         virtual const char *what() const throw()
  54:c:\users\niels\documents\github\dsp\software\stm32basis\hal\gemeenschappelijk\third_party\freertos-addons-1.1.0\c++\source\include\mutex.hpp ****         {
  55:c:\users\niels\documents\github\dsp\software\stm32basis\hal\gemeenschappelijk\third_party\freertos-addons-1.1.0\c++\source\include\mutex.hpp ****             return errorString;
  56:c:\users\niels\documents\github\dsp\software\stm32basis\hal\gemeenschappelijk\third_party\freertos-addons-1.1.0\c++\source\include\mutex.hpp ****         }
  57:c:\users\niels\documents\github\dsp\software\stm32basis\hal\gemeenschappelijk\third_party\freertos-addons-1.1.0\c++\source\include\mutex.hpp **** 
  58:c:\users\niels\documents\github\dsp\software\stm32basis\hal\gemeenschappelijk\third_party\freertos-addons-1.1.0\c++\source\include\mutex.hpp ****     private:
  59:c:\users\niels\documents\github\dsp\software\stm32basis\hal\gemeenschappelijk\third_party\freertos-addons-1.1.0\c++\source\include\mutex.hpp ****         /**
  60:c:\users\niels\documents\github\dsp\software\stm32basis\hal\gemeenschappelijk\third_party\freertos-addons-1.1.0\c++\source\include\mutex.hpp ****          *  A text string representing what failed.
  61:c:\users\niels\documents\github\dsp\software\stm32basis\hal\gemeenschappelijk\third_party\freertos-addons-1.1.0\c++\source\include\mutex.hpp ****          */
  62:c:\users\niels\documents\github\dsp\software\stm32basis\hal\gemeenschappelijk\third_party\freertos-addons-1.1.0\c++\source\include\mutex.hpp ****         char errorString[80];
  63:c:\users\niels\documents\github\dsp\software\stm32basis\hal\gemeenschappelijk\third_party\freertos-addons-1.1.0\c++\source\include\mutex.hpp **** };
  64:c:\users\niels\documents\github\dsp\software\stm32basis\hal\gemeenschappelijk\third_party\freertos-addons-1.1.0\c++\source\include\mutex.hpp **** 
  65:c:\users\niels\documents\github\dsp\software\stm32basis\hal\gemeenschappelijk\third_party\freertos-addons-1.1.0\c++\source\include\mutex.hpp **** 
  66:c:\users\niels\documents\github\dsp\software\stm32basis\hal\gemeenschappelijk\third_party\freertos-addons-1.1.0\c++\source\include\mutex.hpp **** /**
  67:c:\users\niels\documents\github\dsp\software\stm32basis\hal\gemeenschappelijk\third_party\freertos-addons-1.1.0\c++\source\include\mutex.hpp ****  *  Base wrapper class around FreeRTOS's implementation of mutexes.
  68:c:\users\niels\documents\github\dsp\software\stm32basis\hal\gemeenschappelijk\third_party\freertos-addons-1.1.0\c++\source\include\mutex.hpp ****  *
  69:c:\users\niels\documents\github\dsp\software\stm32basis\hal\gemeenschappelijk\third_party\freertos-addons-1.1.0\c++\source\include\mutex.hpp ****  *  By definition, Mutexes can @em NOT be used from ISR contexts.
  70:c:\users\niels\documents\github\dsp\software\stm32basis\hal\gemeenschappelijk\third_party\freertos-addons-1.1.0\c++\source\include\mutex.hpp ****  *
  71:c:\users\niels\documents\github\dsp\software\stm32basis\hal\gemeenschappelijk\third_party\freertos-addons-1.1.0\c++\source\include\mutex.hpp ****  *  @note It is expected that an application will instantiate one of the
  72:c:\users\niels\documents\github\dsp\software\stm32basis\hal\gemeenschappelijk\third_party\freertos-addons-1.1.0\c++\source\include\mutex.hpp ****  *        derived classes and use that object for synchronization. It is
  73:c:\users\niels\documents\github\dsp\software\stm32basis\hal\gemeenschappelijk\third_party\freertos-addons-1.1.0\c++\source\include\mutex.hpp ****  *        not expected that a user or application will derive from these
  74:c:\users\niels\documents\github\dsp\software\stm32basis\hal\gemeenschappelijk\third_party\freertos-addons-1.1.0\c++\source\include\mutex.hpp ****  *        classes.
  75:c:\users\niels\documents\github\dsp\software\stm32basis\hal\gemeenschappelijk\third_party\freertos-addons-1.1.0\c++\source\include\mutex.hpp ****  */
  76:c:\users\niels\documents\github\dsp\software\stm32basis\hal\gemeenschappelijk\third_party\freertos-addons-1.1.0\c++\source\include\mutex.hpp **** class Mutex {
  77:c:\users\niels\documents\github\dsp\software\stm32basis\hal\gemeenschappelijk\third_party\freertos-addons-1.1.0\c++\source\include\mutex.hpp **** 
  78:c:\users\niels\documents\github\dsp\software\stm32basis\hal\gemeenschappelijk\third_party\freertos-addons-1.1.0\c++\source\include\mutex.hpp ****     /////////////////////////////////////////////////////////////////////////
  79:c:\users\niels\documents\github\dsp\software\stm32basis\hal\gemeenschappelijk\third_party\freertos-addons-1.1.0\c++\source\include\mutex.hpp ****     //
  80:c:\users\niels\documents\github\dsp\software\stm32basis\hal\gemeenschappelijk\third_party\freertos-addons-1.1.0\c++\source\include\mutex.hpp ****     //  Public API
  81:c:\users\niels\documents\github\dsp\software\stm32basis\hal\gemeenschappelijk\third_party\freertos-addons-1.1.0\c++\source\include\mutex.hpp ****     //
  82:c:\users\niels\documents\github\dsp\software\stm32basis\hal\gemeenschappelijk\third_party\freertos-addons-1.1.0\c++\source\include\mutex.hpp ****     /////////////////////////////////////////////////////////////////////////
  83:c:\users\niels\documents\github\dsp\software\stm32basis\hal\gemeenschappelijk\third_party\freertos-addons-1.1.0\c++\source\include\mutex.hpp ****     public:
  84:c:\users\niels\documents\github\dsp\software\stm32basis\hal\gemeenschappelijk\third_party\freertos-addons-1.1.0\c++\source\include\mutex.hpp ****         /**
  85:c:\users\niels\documents\github\dsp\software\stm32basis\hal\gemeenschappelijk\third_party\freertos-addons-1.1.0\c++\source\include\mutex.hpp ****          *  Lock the Mutex.
  86:c:\users\niels\documents\github\dsp\software\stm32basis\hal\gemeenschappelijk\third_party\freertos-addons-1.1.0\c++\source\include\mutex.hpp ****          *
  87:c:\users\niels\documents\github\dsp\software\stm32basis\hal\gemeenschappelijk\third_party\freertos-addons-1.1.0\c++\source\include\mutex.hpp ****          *  Each type of Mutex implements it's own locking code as per the
  88:c:\users\niels\documents\github\dsp\software\stm32basis\hal\gemeenschappelijk\third_party\freertos-addons-1.1.0\c++\source\include\mutex.hpp ****          *  FreeRTOS API.
  89:c:\users\niels\documents\github\dsp\software\stm32basis\hal\gemeenschappelijk\third_party\freertos-addons-1.1.0\c++\source\include\mutex.hpp ****          *
  90:c:\users\niels\documents\github\dsp\software\stm32basis\hal\gemeenschappelijk\third_party\freertos-addons-1.1.0\c++\source\include\mutex.hpp ****          *  @param Timeout How long to wait to get the Lock until giving up.
  91:c:\users\niels\documents\github\dsp\software\stm32basis\hal\gemeenschappelijk\third_party\freertos-addons-1.1.0\c++\source\include\mutex.hpp ****          *  @return true if the Lock was acquired, false if it timed out.
  92:c:\users\niels\documents\github\dsp\software\stm32basis\hal\gemeenschappelijk\third_party\freertos-addons-1.1.0\c++\source\include\mutex.hpp ****          */
  93:c:\users\niels\documents\github\dsp\software\stm32basis\hal\gemeenschappelijk\third_party\freertos-addons-1.1.0\c++\source\include\mutex.hpp ****         virtual bool Lock(TickType_t Timeout = portMAX_DELAY) = 0;
  94:c:\users\niels\documents\github\dsp\software\stm32basis\hal\gemeenschappelijk\third_party\freertos-addons-1.1.0\c++\source\include\mutex.hpp **** 
  95:c:\users\niels\documents\github\dsp\software\stm32basis\hal\gemeenschappelijk\third_party\freertos-addons-1.1.0\c++\source\include\mutex.hpp ****         /**
  96:c:\users\niels\documents\github\dsp\software\stm32basis\hal\gemeenschappelijk\third_party\freertos-addons-1.1.0\c++\source\include\mutex.hpp ****          *  Unlock the Mutex.
  97:c:\users\niels\documents\github\dsp\software\stm32basis\hal\gemeenschappelijk\third_party\freertos-addons-1.1.0\c++\source\include\mutex.hpp ****          *
  98:c:\users\niels\documents\github\dsp\software\stm32basis\hal\gemeenschappelijk\third_party\freertos-addons-1.1.0\c++\source\include\mutex.hpp ****          *  @return true if the Lock was released, false if it failed. (Hint,
  99:c:\users\niels\documents\github\dsp\software\stm32basis\hal\gemeenschappelijk\third_party\freertos-addons-1.1.0\c++\source\include\mutex.hpp ****          *           if it fails, did you call Lock() first?)
 100:c:\users\niels\documents\github\dsp\software\stm32basis\hal\gemeenschappelijk\third_party\freertos-addons-1.1.0\c++\source\include\mutex.hpp ****          */
 101:c:\users\niels\documents\github\dsp\software\stm32basis\hal\gemeenschappelijk\third_party\freertos-addons-1.1.0\c++\source\include\mutex.hpp ****         virtual bool Unlock() = 0;
 102:c:\users\niels\documents\github\dsp\software\stm32basis\hal\gemeenschappelijk\third_party\freertos-addons-1.1.0\c++\source\include\mutex.hpp **** 
 103:c:\users\niels\documents\github\dsp\software\stm32basis\hal\gemeenschappelijk\third_party\freertos-addons-1.1.0\c++\source\include\mutex.hpp ****         /**
 104:c:\users\niels\documents\github\dsp\software\stm32basis\hal\gemeenschappelijk\third_party\freertos-addons-1.1.0\c++\source\include\mutex.hpp ****          *  Our destructor
 105:c:\users\niels\documents\github\dsp\software\stm32basis\hal\gemeenschappelijk\third_party\freertos-addons-1.1.0\c++\source\include\mutex.hpp ****          */
 106:c:\users\niels\documents\github\dsp\software\stm32basis\hal\gemeenschappelijk\third_party\freertos-addons-1.1.0\c++\source\include\mutex.hpp ****         virtual ~Mutex();
ARM GAS   			page 21


 107:c:\users\niels\documents\github\dsp\software\stm32basis\hal\gemeenschappelijk\third_party\freertos-addons-1.1.0\c++\source\include\mutex.hpp **** 
 108:c:\users\niels\documents\github\dsp\software\stm32basis\hal\gemeenschappelijk\third_party\freertos-addons-1.1.0\c++\source\include\mutex.hpp ****     /////////////////////////////////////////////////////////////////////////
 109:c:\users\niels\documents\github\dsp\software\stm32basis\hal\gemeenschappelijk\third_party\freertos-addons-1.1.0\c++\source\include\mutex.hpp ****     //
 110:c:\users\niels\documents\github\dsp\software\stm32basis\hal\gemeenschappelijk\third_party\freertos-addons-1.1.0\c++\source\include\mutex.hpp ****     //  Protected API
 111:c:\users\niels\documents\github\dsp\software\stm32basis\hal\gemeenschappelijk\third_party\freertos-addons-1.1.0\c++\source\include\mutex.hpp ****     //  Not intended for use by application code.
 112:c:\users\niels\documents\github\dsp\software\stm32basis\hal\gemeenschappelijk\third_party\freertos-addons-1.1.0\c++\source\include\mutex.hpp ****     //
 113:c:\users\niels\documents\github\dsp\software\stm32basis\hal\gemeenschappelijk\third_party\freertos-addons-1.1.0\c++\source\include\mutex.hpp ****     /////////////////////////////////////////////////////////////////////////
 114:c:\users\niels\documents\github\dsp\software\stm32basis\hal\gemeenschappelijk\third_party\freertos-addons-1.1.0\c++\source\include\mutex.hpp ****     protected:
 115:c:\users\niels\documents\github\dsp\software\stm32basis\hal\gemeenschappelijk\third_party\freertos-addons-1.1.0\c++\source\include\mutex.hpp ****         /**
 116:c:\users\niels\documents\github\dsp\software\stm32basis\hal\gemeenschappelijk\third_party\freertos-addons-1.1.0\c++\source\include\mutex.hpp ****          *  FreeRTOS semaphore handle.
 117:c:\users\niels\documents\github\dsp\software\stm32basis\hal\gemeenschappelijk\third_party\freertos-addons-1.1.0\c++\source\include\mutex.hpp ****          */
 118:c:\users\niels\documents\github\dsp\software\stm32basis\hal\gemeenschappelijk\third_party\freertos-addons-1.1.0\c++\source\include\mutex.hpp ****         SemaphoreHandle_t handle;
 119:c:\users\niels\documents\github\dsp\software\stm32basis\hal\gemeenschappelijk\third_party\freertos-addons-1.1.0\c++\source\include\mutex.hpp **** 
 120:c:\users\niels\documents\github\dsp\software\stm32basis\hal\gemeenschappelijk\third_party\freertos-addons-1.1.0\c++\source\include\mutex.hpp ****         /**
 121:c:\users\niels\documents\github\dsp\software\stm32basis\hal\gemeenschappelijk\third_party\freertos-addons-1.1.0\c++\source\include\mutex.hpp ****          *  This constructor should not be public.
 122:c:\users\niels\documents\github\dsp\software\stm32basis\hal\gemeenschappelijk\third_party\freertos-addons-1.1.0\c++\source\include\mutex.hpp ****          */
 123:c:\users\niels\documents\github\dsp\software\stm32basis\hal\gemeenschappelijk\third_party\freertos-addons-1.1.0\c++\source\include\mutex.hpp ****         Mutex();
 124:c:\users\niels\documents\github\dsp\software\stm32basis\hal\gemeenschappelijk\third_party\freertos-addons-1.1.0\c++\source\include\mutex.hpp **** };
 125:c:\users\niels\documents\github\dsp\software\stm32basis\hal\gemeenschappelijk\third_party\freertos-addons-1.1.0\c++\source\include\mutex.hpp **** 
 126:c:\users\niels\documents\github\dsp\software\stm32basis\hal\gemeenschappelijk\third_party\freertos-addons-1.1.0\c++\source\include\mutex.hpp **** 
 127:c:\users\niels\documents\github\dsp\software\stm32basis\hal\gemeenschappelijk\third_party\freertos-addons-1.1.0\c++\source\include\mutex.hpp **** /**
 128:c:\users\niels\documents\github\dsp\software\stm32basis\hal\gemeenschappelijk\third_party\freertos-addons-1.1.0\c++\source\include\mutex.hpp ****  *  Standard usage Mutex.
 129:c:\users\niels\documents\github\dsp\software\stm32basis\hal\gemeenschappelijk\third_party\freertos-addons-1.1.0\c++\source\include\mutex.hpp ****  *  By default calls to Lock these objects block forever, but this can be
 130:c:\users\niels\documents\github\dsp\software\stm32basis\hal\gemeenschappelijk\third_party\freertos-addons-1.1.0\c++\source\include\mutex.hpp ****  *  changed by simply passing in a argument to the Lock() method.
 131:c:\users\niels\documents\github\dsp\software\stm32basis\hal\gemeenschappelijk\third_party\freertos-addons-1.1.0\c++\source\include\mutex.hpp ****  *  These objects are not recursively acquirable. Calling Lock() twice from
 132:c:\users\niels\documents\github\dsp\software\stm32basis\hal\gemeenschappelijk\third_party\freertos-addons-1.1.0\c++\source\include\mutex.hpp ****  *  the same Thread (i.e. task) will deadlock.
 133:c:\users\niels\documents\github\dsp\software\stm32basis\hal\gemeenschappelijk\third_party\freertos-addons-1.1.0\c++\source\include\mutex.hpp ****  *
 134:c:\users\niels\documents\github\dsp\software\stm32basis\hal\gemeenschappelijk\third_party\freertos-addons-1.1.0\c++\source\include\mutex.hpp ****  *  @note Standard mutexes use less resources than recursive mutexes. You
 135:c:\users\niels\documents\github\dsp\software\stm32basis\hal\gemeenschappelijk\third_party\freertos-addons-1.1.0\c++\source\include\mutex.hpp ****  *        should typically use this type of Mutex, unless you have a strong
 136:c:\users\niels\documents\github\dsp\software\stm32basis\hal\gemeenschappelijk\third_party\freertos-addons-1.1.0\c++\source\include\mutex.hpp ****  *        need for a MutexRecursive mutex.
 137:c:\users\niels\documents\github\dsp\software\stm32basis\hal\gemeenschappelijk\third_party\freertos-addons-1.1.0\c++\source\include\mutex.hpp ****  */
 138:c:\users\niels\documents\github\dsp\software\stm32basis\hal\gemeenschappelijk\third_party\freertos-addons-1.1.0\c++\source\include\mutex.hpp **** class MutexStandard : public Mutex {
 139:c:\users\niels\documents\github\dsp\software\stm32basis\hal\gemeenschappelijk\third_party\freertos-addons-1.1.0\c++\source\include\mutex.hpp **** 
 140:c:\users\niels\documents\github\dsp\software\stm32basis\hal\gemeenschappelijk\third_party\freertos-addons-1.1.0\c++\source\include\mutex.hpp ****     /////////////////////////////////////////////////////////////////////////
 141:c:\users\niels\documents\github\dsp\software\stm32basis\hal\gemeenschappelijk\third_party\freertos-addons-1.1.0\c++\source\include\mutex.hpp ****     //
 142:c:\users\niels\documents\github\dsp\software\stm32basis\hal\gemeenschappelijk\third_party\freertos-addons-1.1.0\c++\source\include\mutex.hpp ****     //  Public API
 143:c:\users\niels\documents\github\dsp\software\stm32basis\hal\gemeenschappelijk\third_party\freertos-addons-1.1.0\c++\source\include\mutex.hpp ****     //
 144:c:\users\niels\documents\github\dsp\software\stm32basis\hal\gemeenschappelijk\third_party\freertos-addons-1.1.0\c++\source\include\mutex.hpp ****     /////////////////////////////////////////////////////////////////////////
 145:c:\users\niels\documents\github\dsp\software\stm32basis\hal\gemeenschappelijk\third_party\freertos-addons-1.1.0\c++\source\include\mutex.hpp ****     public:
 146:c:\users\niels\documents\github\dsp\software\stm32basis\hal\gemeenschappelijk\third_party\freertos-addons-1.1.0\c++\source\include\mutex.hpp ****         /**
 147:c:\users\niels\documents\github\dsp\software\stm32basis\hal\gemeenschappelijk\third_party\freertos-addons-1.1.0\c++\source\include\mutex.hpp ****          *  Create a standard, non-recursize Mutex.
 148:c:\users\niels\documents\github\dsp\software\stm32basis\hal\gemeenschappelijk\third_party\freertos-addons-1.1.0\c++\source\include\mutex.hpp ****          *
 149:c:\users\niels\documents\github\dsp\software\stm32basis\hal\gemeenschappelijk\third_party\freertos-addons-1.1.0\c++\source\include\mutex.hpp ****          *  @throws ThreadMutexException on failure.
 150:c:\users\niels\documents\github\dsp\software\stm32basis\hal\gemeenschappelijk\third_party\freertos-addons-1.1.0\c++\source\include\mutex.hpp ****          */
 151:c:\users\niels\documents\github\dsp\software\stm32basis\hal\gemeenschappelijk\third_party\freertos-addons-1.1.0\c++\source\include\mutex.hpp ****         MutexStandard();
 152:c:\users\niels\documents\github\dsp\software\stm32basis\hal\gemeenschappelijk\third_party\freertos-addons-1.1.0\c++\source\include\mutex.hpp **** 
 153:c:\users\niels\documents\github\dsp\software\stm32basis\hal\gemeenschappelijk\third_party\freertos-addons-1.1.0\c++\source\include\mutex.hpp ****         /**
 154:c:\users\niels\documents\github\dsp\software\stm32basis\hal\gemeenschappelijk\third_party\freertos-addons-1.1.0\c++\source\include\mutex.hpp ****          *  Lock the Mutex.
 155:c:\users\niels\documents\github\dsp\software\stm32basis\hal\gemeenschappelijk\third_party\freertos-addons-1.1.0\c++\source\include\mutex.hpp ****          *
 156:c:\users\niels\documents\github\dsp\software\stm32basis\hal\gemeenschappelijk\third_party\freertos-addons-1.1.0\c++\source\include\mutex.hpp ****          *  @param Timeout How long to wait to get the Lock until giving up.
 157:c:\users\niels\documents\github\dsp\software\stm32basis\hal\gemeenschappelijk\third_party\freertos-addons-1.1.0\c++\source\include\mutex.hpp ****          *  @return true if the Lock was acquired, false if it timed out.
 158:c:\users\niels\documents\github\dsp\software\stm32basis\hal\gemeenschappelijk\third_party\freertos-addons-1.1.0\c++\source\include\mutex.hpp ****          */
 159:c:\users\niels\documents\github\dsp\software\stm32basis\hal\gemeenschappelijk\third_party\freertos-addons-1.1.0\c++\source\include\mutex.hpp ****         virtual bool Lock(TickType_t Timeout = portMAX_DELAY);
 160:c:\users\niels\documents\github\dsp\software\stm32basis\hal\gemeenschappelijk\third_party\freertos-addons-1.1.0\c++\source\include\mutex.hpp **** 
 161:c:\users\niels\documents\github\dsp\software\stm32basis\hal\gemeenschappelijk\third_party\freertos-addons-1.1.0\c++\source\include\mutex.hpp ****         /**
 162:c:\users\niels\documents\github\dsp\software\stm32basis\hal\gemeenschappelijk\third_party\freertos-addons-1.1.0\c++\source\include\mutex.hpp ****          *  Unlock the Mutex.
 163:c:\users\niels\documents\github\dsp\software\stm32basis\hal\gemeenschappelijk\third_party\freertos-addons-1.1.0\c++\source\include\mutex.hpp ****          *
ARM GAS   			page 22


 164:c:\users\niels\documents\github\dsp\software\stm32basis\hal\gemeenschappelijk\third_party\freertos-addons-1.1.0\c++\source\include\mutex.hpp ****          *  @return true if the Lock was released, false if it failed. (Hint,
 165:c:\users\niels\documents\github\dsp\software\stm32basis\hal\gemeenschappelijk\third_party\freertos-addons-1.1.0\c++\source\include\mutex.hpp ****          *           if it fails, did you call Lock() first?)
 166:c:\users\niels\documents\github\dsp\software\stm32basis\hal\gemeenschappelijk\third_party\freertos-addons-1.1.0\c++\source\include\mutex.hpp ****          */
 167:c:\users\niels\documents\github\dsp\software\stm32basis\hal\gemeenschappelijk\third_party\freertos-addons-1.1.0\c++\source\include\mutex.hpp ****         virtual bool Unlock();
 168:c:\users\niels\documents\github\dsp\software\stm32basis\hal\gemeenschappelijk\third_party\freertos-addons-1.1.0\c++\source\include\mutex.hpp **** };
 169:c:\users\niels\documents\github\dsp\software\stm32basis\hal\gemeenschappelijk\third_party\freertos-addons-1.1.0\c++\source\include\mutex.hpp **** 
 170:c:\users\niels\documents\github\dsp\software\stm32basis\hal\gemeenschappelijk\third_party\freertos-addons-1.1.0\c++\source\include\mutex.hpp **** 
 171:c:\users\niels\documents\github\dsp\software\stm32basis\hal\gemeenschappelijk\third_party\freertos-addons-1.1.0\c++\source\include\mutex.hpp **** #if (configUSE_RECURSIVE_MUTEXES == 1)
 172:c:\users\niels\documents\github\dsp\software\stm32basis\hal\gemeenschappelijk\third_party\freertos-addons-1.1.0\c++\source\include\mutex.hpp **** 
 173:c:\users\niels\documents\github\dsp\software\stm32basis\hal\gemeenschappelijk\third_party\freertos-addons-1.1.0\c++\source\include\mutex.hpp **** /**
 174:c:\users\niels\documents\github\dsp\software\stm32basis\hal\gemeenschappelijk\third_party\freertos-addons-1.1.0\c++\source\include\mutex.hpp ****  *  Recursive usage Mutex.
 175:c:\users\niels\documents\github\dsp\software\stm32basis\hal\gemeenschappelijk\third_party\freertos-addons-1.1.0\c++\source\include\mutex.hpp ****  *
 176:c:\users\niels\documents\github\dsp\software\stm32basis\hal\gemeenschappelijk\third_party\freertos-addons-1.1.0\c++\source\include\mutex.hpp ****  *  By default calls to Lock these objects block forever, but this can be
 177:c:\users\niels\documents\github\dsp\software\stm32basis\hal\gemeenschappelijk\third_party\freertos-addons-1.1.0\c++\source\include\mutex.hpp ****  *  changed by simply passing in a argument to the Lock() method.
 178:c:\users\niels\documents\github\dsp\software\stm32basis\hal\gemeenschappelijk\third_party\freertos-addons-1.1.0\c++\source\include\mutex.hpp ****  *  These objects are recursively acquirable. Calling Lock() twice from
 179:c:\users\niels\documents\github\dsp\software\stm32basis\hal\gemeenschappelijk\third_party\freertos-addons-1.1.0\c++\source\include\mutex.hpp ****  *  the same Thread (i.e. task) works fine. The caller just needs to be sure to
 180:c:\users\niels\documents\github\dsp\software\stm32basis\hal\gemeenschappelijk\third_party\freertos-addons-1.1.0\c++\source\include\mutex.hpp ****  *  call Unlock() as many times as Lock().
 181:c:\users\niels\documents\github\dsp\software\stm32basis\hal\gemeenschappelijk\third_party\freertos-addons-1.1.0\c++\source\include\mutex.hpp ****  *
 182:c:\users\niels\documents\github\dsp\software\stm32basis\hal\gemeenschappelijk\third_party\freertos-addons-1.1.0\c++\source\include\mutex.hpp ****  *  @note Recursive mutexes use more resources than standard mutexes. You
 183:c:\users\niels\documents\github\dsp\software\stm32basis\hal\gemeenschappelijk\third_party\freertos-addons-1.1.0\c++\source\include\mutex.hpp ****  *        should be sure that you actually need this type of synchronization
 184:c:\users\niels\documents\github\dsp\software\stm32basis\hal\gemeenschappelijk\third_party\freertos-addons-1.1.0\c++\source\include\mutex.hpp ****  *        before using it.
 185:c:\users\niels\documents\github\dsp\software\stm32basis\hal\gemeenschappelijk\third_party\freertos-addons-1.1.0\c++\source\include\mutex.hpp ****  */
 186:c:\users\niels\documents\github\dsp\software\stm32basis\hal\gemeenschappelijk\third_party\freertos-addons-1.1.0\c++\source\include\mutex.hpp **** class MutexRecursive : public Mutex {
 681              	 .loc 3 186 7
 682              	 .cfi_startproc
 683              	 
 684              	 
 685 0000 80B5     	 push {r7,lr}
 686              	 .cfi_def_cfa_offset 8
 687              	 .cfi_offset 7,-8
 688              	 .cfi_offset 14,-4
 689 0002 82B0     	 sub sp,sp,#8
 690              	 .cfi_def_cfa_offset 16
 691 0004 00AF     	 add r7,sp,#0
 692              	 .cfi_def_cfa_register 7
 693 0006 7860     	 str r0,[r7,#4]
 694              	.LBB8:
 695              	 .loc 3 186 7
 696 0008 054A     	 ldr r2,.L37
 697 000a 7B68     	 ldr r3,[r7,#4]
 698 000c 1A60     	 str r2,[r3]
 699 000e 7B68     	 ldr r3,[r7,#4]
 700 0010 1846     	 mov r0,r3
 701 0012 FFF7FEFF 	 bl _ZN12cpp_freertos5MutexD2Ev
 702              	.LBE8:
 703 0016 7B68     	 ldr r3,[r7,#4]
 704 0018 1846     	 mov r0,r3
 705 001a 0837     	 adds r7,r7,#8
 706              	 .cfi_def_cfa_offset 8
 707 001c BD46     	 mov sp,r7
 708              	 .cfi_def_cfa_register 13
 709              	 
 710 001e 80BD     	 pop {r7,pc}
 711              	.L38:
 712              	 .align 2
 713              	.L37:
 714 0020 08000000 	 .word _ZTVN12cpp_freertos14MutexRecursiveE+8
ARM GAS   			page 23


 715              	 .cfi_endproc
 716              	.LFE1520:
 717              	 .size _ZN12cpp_freertos14MutexRecursiveD2Ev,.-_ZN12cpp_freertos14MutexRecursiveD2Ev
 718              	 .weak _ZN12cpp_freertos14MutexRecursiveD1Ev
 719              	 .thumb_set _ZN12cpp_freertos14MutexRecursiveD1Ev,_ZN12cpp_freertos14MutexRecursiveD2Ev
 720              	 .section .text._ZN12cpp_freertos14MutexRecursiveD0Ev,"axG",%progbits,_ZN12cpp_freertos14MutexRecursiveD5Ev,comdat
 721              	 .align 1
 722              	 .weak _ZN12cpp_freertos14MutexRecursiveD0Ev
 723              	 .syntax unified
 724              	 .thumb
 725              	 .thumb_func
 726              	 .type _ZN12cpp_freertos14MutexRecursiveD0Ev,%function
 727              	_ZN12cpp_freertos14MutexRecursiveD0Ev:
 728              	.LFB1522:
 729              	 .loc 3 186 7
 730              	 .cfi_startproc
 731              	 
 732              	 
 733 0000 80B5     	 push {r7,lr}
 734              	 .cfi_def_cfa_offset 8
 735              	 .cfi_offset 7,-8
 736              	 .cfi_offset 14,-4
 737 0002 82B0     	 sub sp,sp,#8
 738              	 .cfi_def_cfa_offset 16
 739 0004 00AF     	 add r7,sp,#0
 740              	 .cfi_def_cfa_register 7
 741 0006 7860     	 str r0,[r7,#4]
 742              	 .loc 3 186 7
 743 0008 7868     	 ldr r0,[r7,#4]
 744 000a FFF7FEFF 	 bl _ZN12cpp_freertos14MutexRecursiveD1Ev
 745 000e 0821     	 movs r1,#8
 746 0010 7868     	 ldr r0,[r7,#4]
 747 0012 FFF7FEFF 	 bl _ZdlPvj
 748 0016 7B68     	 ldr r3,[r7,#4]
 749 0018 1846     	 mov r0,r3
 750 001a 0837     	 adds r7,r7,#8
 751              	 .cfi_def_cfa_offset 8
 752 001c BD46     	 mov sp,r7
 753              	 .cfi_def_cfa_register 13
 754              	 
 755 001e 80BD     	 pop {r7,pc}
 756              	 .cfi_endproc
 757              	.LFE1522:
 758              	 .size _ZN12cpp_freertos14MutexRecursiveD0Ev,.-_ZN12cpp_freertos14MutexRecursiveD0Ev
 759              	 .global _ZTVN12cpp_freertos13MutexStandardE
 760              	 .section .rodata._ZTVN12cpp_freertos13MutexStandardE,"a"
 761              	 .align 2
 762              	 .type _ZTVN12cpp_freertos13MutexStandardE,%object
 763              	 .size _ZTVN12cpp_freertos13MutexStandardE,24
 764              	_ZTVN12cpp_freertos13MutexStandardE:
 765 0000 00000000 	 .word 0
 766 0004 00000000 	 .word 0
 767 0008 00000000 	 .word _ZN12cpp_freertos13MutexStandard4LockEm
 768 000c 00000000 	 .word _ZN12cpp_freertos13MutexStandard6UnlockEv
 769 0010 00000000 	 .word _ZN12cpp_freertos13MutexStandardD1Ev
 770 0014 00000000 	 .word _ZN12cpp_freertos13MutexStandardD0Ev
 771              	 .section .text._ZN12cpp_freertos13MutexStandardD2Ev,"axG",%progbits,_ZN12cpp_freertos13MutexStandardD5Ev,comdat
ARM GAS   			page 24


 772              	 .align 1
 773              	 .weak _ZN12cpp_freertos13MutexStandardD2Ev
 774              	 .syntax unified
 775              	 .thumb
 776              	 .thumb_func
 777              	 .type _ZN12cpp_freertos13MutexStandardD2Ev,%function
 778              	_ZN12cpp_freertos13MutexStandardD2Ev:
 779              	.LFB1524:
 138:c:\users\niels\documents\github\dsp\software\stm32basis\hal\gemeenschappelijk\third_party\freertos-addons-1.1.0\c++\source\include\mutex.hpp **** 
 780              	 .loc 3 138 7
 781              	 .cfi_startproc
 782              	 
 783              	 
 784 0000 80B5     	 push {r7,lr}
 785              	 .cfi_def_cfa_offset 8
 786              	 .cfi_offset 7,-8
 787              	 .cfi_offset 14,-4
 788 0002 82B0     	 sub sp,sp,#8
 789              	 .cfi_def_cfa_offset 16
 790 0004 00AF     	 add r7,sp,#0
 791              	 .cfi_def_cfa_register 7
 792 0006 7860     	 str r0,[r7,#4]
 793              	.LBB9:
 138:c:\users\niels\documents\github\dsp\software\stm32basis\hal\gemeenschappelijk\third_party\freertos-addons-1.1.0\c++\source\include\mutex.hpp **** 
 794              	 .loc 3 138 7
 795 0008 054A     	 ldr r2,.L43
 796 000a 7B68     	 ldr r3,[r7,#4]
 797 000c 1A60     	 str r2,[r3]
 798 000e 7B68     	 ldr r3,[r7,#4]
 799 0010 1846     	 mov r0,r3
 800 0012 FFF7FEFF 	 bl _ZN12cpp_freertos5MutexD2Ev
 801              	.LBE9:
 802 0016 7B68     	 ldr r3,[r7,#4]
 803 0018 1846     	 mov r0,r3
 804 001a 0837     	 adds r7,r7,#8
 805              	 .cfi_def_cfa_offset 8
 806 001c BD46     	 mov sp,r7
 807              	 .cfi_def_cfa_register 13
 808              	 
 809 001e 80BD     	 pop {r7,pc}
 810              	.L44:
 811              	 .align 2
 812              	.L43:
 813 0020 08000000 	 .word _ZTVN12cpp_freertos13MutexStandardE+8
 814              	 .cfi_endproc
 815              	.LFE1524:
 816              	 .size _ZN12cpp_freertos13MutexStandardD2Ev,.-_ZN12cpp_freertos13MutexStandardD2Ev
 817              	 .weak _ZN12cpp_freertos13MutexStandardD1Ev
 818              	 .thumb_set _ZN12cpp_freertos13MutexStandardD1Ev,_ZN12cpp_freertos13MutexStandardD2Ev
 819              	 .section .text._ZN12cpp_freertos13MutexStandardD0Ev,"axG",%progbits,_ZN12cpp_freertos13MutexStandardD5Ev,comdat
 820              	 .align 1
 821              	 .weak _ZN12cpp_freertos13MutexStandardD0Ev
 822              	 .syntax unified
 823              	 .thumb
 824              	 .thumb_func
 825              	 .type _ZN12cpp_freertos13MutexStandardD0Ev,%function
 826              	_ZN12cpp_freertos13MutexStandardD0Ev:
ARM GAS   			page 25


 827              	.LFB1526:
 138:c:\users\niels\documents\github\dsp\software\stm32basis\hal\gemeenschappelijk\third_party\freertos-addons-1.1.0\c++\source\include\mutex.hpp **** 
 828              	 .loc 3 138 7
 829              	 .cfi_startproc
 830              	 
 831              	 
 832 0000 80B5     	 push {r7,lr}
 833              	 .cfi_def_cfa_offset 8
 834              	 .cfi_offset 7,-8
 835              	 .cfi_offset 14,-4
 836 0002 82B0     	 sub sp,sp,#8
 837              	 .cfi_def_cfa_offset 16
 838 0004 00AF     	 add r7,sp,#0
 839              	 .cfi_def_cfa_register 7
 840 0006 7860     	 str r0,[r7,#4]
 138:c:\users\niels\documents\github\dsp\software\stm32basis\hal\gemeenschappelijk\third_party\freertos-addons-1.1.0\c++\source\include\mutex.hpp **** 
 841              	 .loc 3 138 7
 842 0008 7868     	 ldr r0,[r7,#4]
 843 000a FFF7FEFF 	 bl _ZN12cpp_freertos13MutexStandardD1Ev
 844 000e 0821     	 movs r1,#8
 845 0010 7868     	 ldr r0,[r7,#4]
 846 0012 FFF7FEFF 	 bl _ZdlPvj
 847 0016 7B68     	 ldr r3,[r7,#4]
 848 0018 1846     	 mov r0,r3
 849 001a 0837     	 adds r7,r7,#8
 850              	 .cfi_def_cfa_offset 8
 851 001c BD46     	 mov sp,r7
 852              	 .cfi_def_cfa_register 13
 853              	 
 854 001e 80BD     	 pop {r7,pc}
 855              	 .cfi_endproc
 856              	.LFE1526:
 857              	 .size _ZN12cpp_freertos13MutexStandardD0Ev,.-_ZN12cpp_freertos13MutexStandardD0Ev
 858              	 .global _ZTVN12cpp_freertos5MutexE
 859              	 .section .rodata._ZTVN12cpp_freertos5MutexE,"a"
 860              	 .align 2
 861              	 .type _ZTVN12cpp_freertos5MutexE,%object
 862              	 .size _ZTVN12cpp_freertos5MutexE,24
 863              	_ZTVN12cpp_freertos5MutexE:
 864 0000 00000000 	 .word 0
 865 0004 00000000 	 .word 0
 866 0008 00000000 	 .word __cxa_pure_virtual
 867 000c 00000000 	 .word __cxa_pure_virtual
 868 0010 00000000 	 .word 0
 869 0014 00000000 	 .word 0
 870              	 .text
 871              	.Letext0:
 872              	 .file 4 "c:\\progra~2\\gnuarm~1\\102021~1.10\\arm-none-eabi\\include\\c++\\10.3.1\\bits\\exception_ptr.h"
 873              	 .file 5 "c:\\progra~2\\gnuarm~1\\102021~1.10\\arm-none-eabi\\include\\c++\\10.3.1\\bits\\cpp_type_traits.h"
 874              	 .file 6 "c:\\progra~2\\gnuarm~1\\102021~1.10\\arm-none-eabi\\include\\c++\\10.3.1\\bits\\stl_pair.h"
 875              	 .file 7 "c:\\progra~2\\gnuarm~1\\102021~1.10\\arm-none-eabi\\include\\c++\\10.3.1\\type_traits"
 876              	 .file 8 "c:\\progra~2\\gnuarm~1\\102021~1.10\\arm-none-eabi\\include\\c++\\10.3.1\\debug\\debug.h"
 877              	 .file 9 "c:\\progra~2\\gnuarm~1\\102021~1.10\\arm-none-eabi\\include\\c++\\10.3.1\\cwchar"
 878              	 .file 10 "c:\\progra~2\\gnuarm~1\\102021~1.10\\arm-none-eabi\\include\\c++\\10.3.1\\cstdint"
 879              	 .file 11 "c:\\progra~2\\gnuarm~1\\102021~1.10\\arm-none-eabi\\include\\c++\\10.3.1\\clocale"
 880              	 .file 12 "c:\\progra~2\\gnuarm~1\\102021~1.10\\arm-none-eabi\\include\\c++\\10.3.1\\cstdlib"
 881              	 .file 13 "c:\\progra~2\\gnuarm~1\\102021~1.10\\arm-none-eabi\\include\\c++\\10.3.1\\cstdio"
ARM GAS   			page 26


 882              	 .file 14 "c:\\progra~2\\gnuarm~1\\102021~1.10\\arm-none-eabi\\include\\c++\\10.3.1\\arm-none-eabi\\thumb\\v7e-m+fp\\hard\\bits\\c++config.h"
 883              	 .file 15 "c:\\progra~2\\gnuarm~1\\102021~1.10\\arm-none-eabi\\include\\c++\\10.3.1\\bits\\basic_string.h"
 884              	 .file 16 "c:\\progra~2\\gnuarm~1\\102021~1.10\\arm-none-eabi\\include\\c++\\10.3.1\\bits\\predefined_ops.h"
 885              	 .file 17 "c:\\progra~2\\gnuarm~1\\102021~1.10\\lib\\gcc\\arm-none-eabi\\10.3.1\\include\\stddef.h"
 886              	 .file 18 "c:\\progra~2\\gnuarm~1\\102021~1.10\\arm-none-eabi\\include\\machine\\_default_types.h"
 887              	 .file 19 "c:\\progra~2\\gnuarm~1\\102021~1.10\\arm-none-eabi\\include\\sys\\_types.h"
 888              	 .file 20 "c:\\progra~2\\gnuarm~1\\102021~1.10\\arm-none-eabi\\include\\sys\\reent.h"
 889              	 .file 21 "c:\\progra~2\\gnuarm~1\\102021~1.10\\arm-none-eabi\\include\\sys\\lock.h"
 890              	 .file 22 "c:\\progra~2\\gnuarm~1\\102021~1.10\\lib\\gcc\\arm-none-eabi\\10.3.1\\include\\stdarg.h"
 891              	 .file 23 "c:\\progra~2\\gnuarm~1\\102021~1.10\\arm-none-eabi\\include\\wchar.h"
 892              	 .file 24 "c:\\progra~2\\gnuarm~1\\102021~1.10\\arm-none-eabi\\include\\sys\\_stdint.h"
 893              	 .file 25 "c:\\progra~2\\gnuarm~1\\102021~1.10\\arm-none-eabi\\include\\stdint.h"
 894              	 .file 26 "c:\\progra~2\\gnuarm~1\\102021~1.10\\arm-none-eabi\\include\\locale.h"
 895              	 .file 27 "c:\\progra~2\\gnuarm~1\\102021~1.10\\arm-none-eabi\\include\\stdlib.h"
 896              	 .file 28 "c:\\progra~2\\gnuarm~1\\102021~1.10\\arm-none-eabi\\include\\stdio.h"
 897              	 .file 29 "c:\\users\\niels\\documents\\github\\dsp\\software\\stm32basis\\hal\\gemeenschappelijk\\third_party\\freertos\\source\\portable\\gcc\\arm_cm4f\\portmacro.h"
 898              	 .file 30 "c:\\users\\niels\\documents\\github\\dsp\\software\\stm32basis\\hal\\gemeenschappelijk\\third_party\\freertos\\source\\include\\queue.h"
 899              	 .file 31 "c:\\users\\niels\\documents\\github\\dsp\\software\\stm32basis\\hal\\gemeenschappelijk\\third_party\\freertos\\source\\include\\semphr.h"
 900              	 .file 32 "<built-in>"