ARM GAS   			page 1


   1              	 .cpu cortex-m4
   2              	 .arch armv7e-m
   3              	 .fpu fpv4-sp-d16
   4              	 .eabi_attribute 27,1
   5              	 .eabi_attribute 28,1
   6              	 .eabi_attribute 20,1
   7              	 .eabi_attribute 21,1
   8              	 .eabi_attribute 23,3
   9              	 .eabi_attribute 24,1
  10              	 .eabi_attribute 25,1
  11              	 .eabi_attribute 26,1
  12              	 .eabi_attribute 30,6
  13              	 .eabi_attribute 34,0
  14              	 .eabi_attribute 18,4
  15              	 .file "cqueue.cpp"
  16              	 .text
  17              	.Ltext0:
  18              	 .cfi_sections .debug_frame
  19              	 .section .rodata._ZStL19piecewise_construct,"a"
  20              	 .align 2
  21              	 .type _ZStL19piecewise_construct,%object
  22              	 .size _ZStL19piecewise_construct,1
  23              	_ZStL19piecewise_construct:
  24 0000 00       	 .space 1
  25              	 .section .text._ZL20__gthread_key_deletei,"ax",%progbits
  26              	 .align 1
  27              	 .syntax unified
  28              	 .thumb
  29              	 .thumb_func
  30              	 .type _ZL20__gthread_key_deletei,%function
  31              	_ZL20__gthread_key_deletei:
  32              	.LFB652:
  33              	 .file 1 "c:\\progra~2\\gnuarm~1\\102021~1.10\\arm-none-eabi\\include\\c++\\10.3.1\\arm-none-eabi\\thumb\\v7e-m+fp\\hard\\bits\\gthr-default.h"
   1:c:\progra~2\gnuarm~1\102021~1.10\arm-none-eabi\include\c++\10.3.1\arm-none-eabi\thumb\v7e-m+fp\hard\bits\gthr-default.h **** /* Threads compatibility routines for libgcc2 and libobjc.  */
   2:c:\progra~2\gnuarm~1\102021~1.10\arm-none-eabi\include\c++\10.3.1\arm-none-eabi\thumb\v7e-m+fp\hard\bits\gthr-default.h **** /* Compile this one with gcc.  */
   3:c:\progra~2\gnuarm~1\102021~1.10\arm-none-eabi\include\c++\10.3.1\arm-none-eabi\thumb\v7e-m+fp\hard\bits\gthr-default.h **** /* Copyright (C) 1997-2020 Free Software Foundation, Inc.
   4:c:\progra~2\gnuarm~1\102021~1.10\arm-none-eabi\include\c++\10.3.1\arm-none-eabi\thumb\v7e-m+fp\hard\bits\gthr-default.h **** 
   5:c:\progra~2\gnuarm~1\102021~1.10\arm-none-eabi\include\c++\10.3.1\arm-none-eabi\thumb\v7e-m+fp\hard\bits\gthr-default.h **** This file is part of GCC.
   6:c:\progra~2\gnuarm~1\102021~1.10\arm-none-eabi\include\c++\10.3.1\arm-none-eabi\thumb\v7e-m+fp\hard\bits\gthr-default.h **** 
   7:c:\progra~2\gnuarm~1\102021~1.10\arm-none-eabi\include\c++\10.3.1\arm-none-eabi\thumb\v7e-m+fp\hard\bits\gthr-default.h **** GCC is free software; you can redistribute it and/or modify it under
   8:c:\progra~2\gnuarm~1\102021~1.10\arm-none-eabi\include\c++\10.3.1\arm-none-eabi\thumb\v7e-m+fp\hard\bits\gthr-default.h **** the terms of the GNU General Public License as published by the Free
   9:c:\progra~2\gnuarm~1\102021~1.10\arm-none-eabi\include\c++\10.3.1\arm-none-eabi\thumb\v7e-m+fp\hard\bits\gthr-default.h **** Software Foundation; either version 3, or (at your option) any later
  10:c:\progra~2\gnuarm~1\102021~1.10\arm-none-eabi\include\c++\10.3.1\arm-none-eabi\thumb\v7e-m+fp\hard\bits\gthr-default.h **** version.
  11:c:\progra~2\gnuarm~1\102021~1.10\arm-none-eabi\include\c++\10.3.1\arm-none-eabi\thumb\v7e-m+fp\hard\bits\gthr-default.h **** 
  12:c:\progra~2\gnuarm~1\102021~1.10\arm-none-eabi\include\c++\10.3.1\arm-none-eabi\thumb\v7e-m+fp\hard\bits\gthr-default.h **** GCC is distributed in the hope that it will be useful, but WITHOUT ANY
  13:c:\progra~2\gnuarm~1\102021~1.10\arm-none-eabi\include\c++\10.3.1\arm-none-eabi\thumb\v7e-m+fp\hard\bits\gthr-default.h **** WARRANTY; without even the implied warranty of MERCHANTABILITY or
  14:c:\progra~2\gnuarm~1\102021~1.10\arm-none-eabi\include\c++\10.3.1\arm-none-eabi\thumb\v7e-m+fp\hard\bits\gthr-default.h **** FITNESS FOR A PARTICULAR PURPOSE.  See the GNU General Public License
  15:c:\progra~2\gnuarm~1\102021~1.10\arm-none-eabi\include\c++\10.3.1\arm-none-eabi\thumb\v7e-m+fp\hard\bits\gthr-default.h **** for more details.
  16:c:\progra~2\gnuarm~1\102021~1.10\arm-none-eabi\include\c++\10.3.1\arm-none-eabi\thumb\v7e-m+fp\hard\bits\gthr-default.h **** 
  17:c:\progra~2\gnuarm~1\102021~1.10\arm-none-eabi\include\c++\10.3.1\arm-none-eabi\thumb\v7e-m+fp\hard\bits\gthr-default.h **** Under Section 7 of GPL version 3, you are granted additional
  18:c:\progra~2\gnuarm~1\102021~1.10\arm-none-eabi\include\c++\10.3.1\arm-none-eabi\thumb\v7e-m+fp\hard\bits\gthr-default.h **** permissions described in the GCC Runtime Library Exception, version
  19:c:\progra~2\gnuarm~1\102021~1.10\arm-none-eabi\include\c++\10.3.1\arm-none-eabi\thumb\v7e-m+fp\hard\bits\gthr-default.h **** 3.1, as published by the Free Software Foundation.
  20:c:\progra~2\gnuarm~1\102021~1.10\arm-none-eabi\include\c++\10.3.1\arm-none-eabi\thumb\v7e-m+fp\hard\bits\gthr-default.h **** 
  21:c:\progra~2\gnuarm~1\102021~1.10\arm-none-eabi\include\c++\10.3.1\arm-none-eabi\thumb\v7e-m+fp\hard\bits\gthr-default.h **** You should have received a copy of the GNU General Public License and
  22:c:\progra~2\gnuarm~1\102021~1.10\arm-none-eabi\include\c++\10.3.1\arm-none-eabi\thumb\v7e-m+fp\hard\bits\gthr-default.h **** a copy of the GCC Runtime Library Exception along with this program;
  23:c:\progra~2\gnuarm~1\102021~1.10\arm-none-eabi\include\c++\10.3.1\arm-none-eabi\thumb\v7e-m+fp\hard\bits\gthr-default.h **** see the files COPYING3 and COPYING.RUNTIME respectively.  If not, see
  24:c:\progra~2\gnuarm~1\102021~1.10\arm-none-eabi\include\c++\10.3.1\arm-none-eabi\thumb\v7e-m+fp\hard\bits\gthr-default.h **** <http://www.gnu.org/licenses/>.  */
ARM GAS   			page 2


  25:c:\progra~2\gnuarm~1\102021~1.10\arm-none-eabi\include\c++\10.3.1\arm-none-eabi\thumb\v7e-m+fp\hard\bits\gthr-default.h **** 
  26:c:\progra~2\gnuarm~1\102021~1.10\arm-none-eabi\include\c++\10.3.1\arm-none-eabi\thumb\v7e-m+fp\hard\bits\gthr-default.h **** #ifndef _GLIBCXX_GCC_GTHR_SINGLE_H
  27:c:\progra~2\gnuarm~1\102021~1.10\arm-none-eabi\include\c++\10.3.1\arm-none-eabi\thumb\v7e-m+fp\hard\bits\gthr-default.h **** #define _GLIBCXX_GCC_GTHR_SINGLE_H
  28:c:\progra~2\gnuarm~1\102021~1.10\arm-none-eabi\include\c++\10.3.1\arm-none-eabi\thumb\v7e-m+fp\hard\bits\gthr-default.h **** 
  29:c:\progra~2\gnuarm~1\102021~1.10\arm-none-eabi\include\c++\10.3.1\arm-none-eabi\thumb\v7e-m+fp\hard\bits\gthr-default.h **** /* Just provide compatibility for mutex handling.  */
  30:c:\progra~2\gnuarm~1\102021~1.10\arm-none-eabi\include\c++\10.3.1\arm-none-eabi\thumb\v7e-m+fp\hard\bits\gthr-default.h **** 
  31:c:\progra~2\gnuarm~1\102021~1.10\arm-none-eabi\include\c++\10.3.1\arm-none-eabi\thumb\v7e-m+fp\hard\bits\gthr-default.h **** typedef int __gthread_key_t;
  32:c:\progra~2\gnuarm~1\102021~1.10\arm-none-eabi\include\c++\10.3.1\arm-none-eabi\thumb\v7e-m+fp\hard\bits\gthr-default.h **** typedef int __gthread_once_t;
  33:c:\progra~2\gnuarm~1\102021~1.10\arm-none-eabi\include\c++\10.3.1\arm-none-eabi\thumb\v7e-m+fp\hard\bits\gthr-default.h **** typedef int __gthread_mutex_t;
  34:c:\progra~2\gnuarm~1\102021~1.10\arm-none-eabi\include\c++\10.3.1\arm-none-eabi\thumb\v7e-m+fp\hard\bits\gthr-default.h **** typedef int __gthread_recursive_mutex_t;
  35:c:\progra~2\gnuarm~1\102021~1.10\arm-none-eabi\include\c++\10.3.1\arm-none-eabi\thumb\v7e-m+fp\hard\bits\gthr-default.h **** 
  36:c:\progra~2\gnuarm~1\102021~1.10\arm-none-eabi\include\c++\10.3.1\arm-none-eabi\thumb\v7e-m+fp\hard\bits\gthr-default.h **** #define __GTHREAD_ONCE_INIT 0
  37:c:\progra~2\gnuarm~1\102021~1.10\arm-none-eabi\include\c++\10.3.1\arm-none-eabi\thumb\v7e-m+fp\hard\bits\gthr-default.h **** #define __GTHREAD_MUTEX_INIT 0
  38:c:\progra~2\gnuarm~1\102021~1.10\arm-none-eabi\include\c++\10.3.1\arm-none-eabi\thumb\v7e-m+fp\hard\bits\gthr-default.h **** #define __GTHREAD_MUTEX_INIT_FUNCTION(mx) do {} while (0)
  39:c:\progra~2\gnuarm~1\102021~1.10\arm-none-eabi\include\c++\10.3.1\arm-none-eabi\thumb\v7e-m+fp\hard\bits\gthr-default.h **** #define __GTHREAD_RECURSIVE_MUTEX_INIT 0
  40:c:\progra~2\gnuarm~1\102021~1.10\arm-none-eabi\include\c++\10.3.1\arm-none-eabi\thumb\v7e-m+fp\hard\bits\gthr-default.h **** 
  41:c:\progra~2\gnuarm~1\102021~1.10\arm-none-eabi\include\c++\10.3.1\arm-none-eabi\thumb\v7e-m+fp\hard\bits\gthr-default.h **** #define _GLIBCXX_UNUSED __attribute__((__unused__))
  42:c:\progra~2\gnuarm~1\102021~1.10\arm-none-eabi\include\c++\10.3.1\arm-none-eabi\thumb\v7e-m+fp\hard\bits\gthr-default.h **** 
  43:c:\progra~2\gnuarm~1\102021~1.10\arm-none-eabi\include\c++\10.3.1\arm-none-eabi\thumb\v7e-m+fp\hard\bits\gthr-default.h **** #ifdef _LIBOBJC
  44:c:\progra~2\gnuarm~1\102021~1.10\arm-none-eabi\include\c++\10.3.1\arm-none-eabi\thumb\v7e-m+fp\hard\bits\gthr-default.h **** 
  45:c:\progra~2\gnuarm~1\102021~1.10\arm-none-eabi\include\c++\10.3.1\arm-none-eabi\thumb\v7e-m+fp\hard\bits\gthr-default.h **** /* Thread local storage for a single thread */
  46:c:\progra~2\gnuarm~1\102021~1.10\arm-none-eabi\include\c++\10.3.1\arm-none-eabi\thumb\v7e-m+fp\hard\bits\gthr-default.h **** static void *thread_local_storage = NULL;
  47:c:\progra~2\gnuarm~1\102021~1.10\arm-none-eabi\include\c++\10.3.1\arm-none-eabi\thumb\v7e-m+fp\hard\bits\gthr-default.h **** 
  48:c:\progra~2\gnuarm~1\102021~1.10\arm-none-eabi\include\c++\10.3.1\arm-none-eabi\thumb\v7e-m+fp\hard\bits\gthr-default.h **** /* Backend initialization functions */
  49:c:\progra~2\gnuarm~1\102021~1.10\arm-none-eabi\include\c++\10.3.1\arm-none-eabi\thumb\v7e-m+fp\hard\bits\gthr-default.h **** 
  50:c:\progra~2\gnuarm~1\102021~1.10\arm-none-eabi\include\c++\10.3.1\arm-none-eabi\thumb\v7e-m+fp\hard\bits\gthr-default.h **** /* Initialize the threads subsystem.  */
  51:c:\progra~2\gnuarm~1\102021~1.10\arm-none-eabi\include\c++\10.3.1\arm-none-eabi\thumb\v7e-m+fp\hard\bits\gthr-default.h **** static inline int
  52:c:\progra~2\gnuarm~1\102021~1.10\arm-none-eabi\include\c++\10.3.1\arm-none-eabi\thumb\v7e-m+fp\hard\bits\gthr-default.h **** __gthread_objc_init_thread_system (void)
  53:c:\progra~2\gnuarm~1\102021~1.10\arm-none-eabi\include\c++\10.3.1\arm-none-eabi\thumb\v7e-m+fp\hard\bits\gthr-default.h **** {
  54:c:\progra~2\gnuarm~1\102021~1.10\arm-none-eabi\include\c++\10.3.1\arm-none-eabi\thumb\v7e-m+fp\hard\bits\gthr-default.h ****   /* No thread support available */
  55:c:\progra~2\gnuarm~1\102021~1.10\arm-none-eabi\include\c++\10.3.1\arm-none-eabi\thumb\v7e-m+fp\hard\bits\gthr-default.h ****   return -1;
  56:c:\progra~2\gnuarm~1\102021~1.10\arm-none-eabi\include\c++\10.3.1\arm-none-eabi\thumb\v7e-m+fp\hard\bits\gthr-default.h **** }
  57:c:\progra~2\gnuarm~1\102021~1.10\arm-none-eabi\include\c++\10.3.1\arm-none-eabi\thumb\v7e-m+fp\hard\bits\gthr-default.h **** 
  58:c:\progra~2\gnuarm~1\102021~1.10\arm-none-eabi\include\c++\10.3.1\arm-none-eabi\thumb\v7e-m+fp\hard\bits\gthr-default.h **** /* Close the threads subsystem.  */
  59:c:\progra~2\gnuarm~1\102021~1.10\arm-none-eabi\include\c++\10.3.1\arm-none-eabi\thumb\v7e-m+fp\hard\bits\gthr-default.h **** static inline int
  60:c:\progra~2\gnuarm~1\102021~1.10\arm-none-eabi\include\c++\10.3.1\arm-none-eabi\thumb\v7e-m+fp\hard\bits\gthr-default.h **** __gthread_objc_close_thread_system (void)
  61:c:\progra~2\gnuarm~1\102021~1.10\arm-none-eabi\include\c++\10.3.1\arm-none-eabi\thumb\v7e-m+fp\hard\bits\gthr-default.h **** {
  62:c:\progra~2\gnuarm~1\102021~1.10\arm-none-eabi\include\c++\10.3.1\arm-none-eabi\thumb\v7e-m+fp\hard\bits\gthr-default.h ****   /* No thread support available */
  63:c:\progra~2\gnuarm~1\102021~1.10\arm-none-eabi\include\c++\10.3.1\arm-none-eabi\thumb\v7e-m+fp\hard\bits\gthr-default.h ****   return -1;
  64:c:\progra~2\gnuarm~1\102021~1.10\arm-none-eabi\include\c++\10.3.1\arm-none-eabi\thumb\v7e-m+fp\hard\bits\gthr-default.h **** }
  65:c:\progra~2\gnuarm~1\102021~1.10\arm-none-eabi\include\c++\10.3.1\arm-none-eabi\thumb\v7e-m+fp\hard\bits\gthr-default.h **** 
  66:c:\progra~2\gnuarm~1\102021~1.10\arm-none-eabi\include\c++\10.3.1\arm-none-eabi\thumb\v7e-m+fp\hard\bits\gthr-default.h **** /* Backend thread functions */
  67:c:\progra~2\gnuarm~1\102021~1.10\arm-none-eabi\include\c++\10.3.1\arm-none-eabi\thumb\v7e-m+fp\hard\bits\gthr-default.h **** 
  68:c:\progra~2\gnuarm~1\102021~1.10\arm-none-eabi\include\c++\10.3.1\arm-none-eabi\thumb\v7e-m+fp\hard\bits\gthr-default.h **** /* Create a new thread of execution.  */
  69:c:\progra~2\gnuarm~1\102021~1.10\arm-none-eabi\include\c++\10.3.1\arm-none-eabi\thumb\v7e-m+fp\hard\bits\gthr-default.h **** static inline objc_thread_t
  70:c:\progra~2\gnuarm~1\102021~1.10\arm-none-eabi\include\c++\10.3.1\arm-none-eabi\thumb\v7e-m+fp\hard\bits\gthr-default.h **** __gthread_objc_thread_detach (void (* func)(void *), void * arg _GLIBCXX_UNUSED)
  71:c:\progra~2\gnuarm~1\102021~1.10\arm-none-eabi\include\c++\10.3.1\arm-none-eabi\thumb\v7e-m+fp\hard\bits\gthr-default.h **** {
  72:c:\progra~2\gnuarm~1\102021~1.10\arm-none-eabi\include\c++\10.3.1\arm-none-eabi\thumb\v7e-m+fp\hard\bits\gthr-default.h ****   /* No thread support available */
  73:c:\progra~2\gnuarm~1\102021~1.10\arm-none-eabi\include\c++\10.3.1\arm-none-eabi\thumb\v7e-m+fp\hard\bits\gthr-default.h ****   return NULL;
  74:c:\progra~2\gnuarm~1\102021~1.10\arm-none-eabi\include\c++\10.3.1\arm-none-eabi\thumb\v7e-m+fp\hard\bits\gthr-default.h **** }
  75:c:\progra~2\gnuarm~1\102021~1.10\arm-none-eabi\include\c++\10.3.1\arm-none-eabi\thumb\v7e-m+fp\hard\bits\gthr-default.h **** 
  76:c:\progra~2\gnuarm~1\102021~1.10\arm-none-eabi\include\c++\10.3.1\arm-none-eabi\thumb\v7e-m+fp\hard\bits\gthr-default.h **** /* Set the current thread's priority.  */
  77:c:\progra~2\gnuarm~1\102021~1.10\arm-none-eabi\include\c++\10.3.1\arm-none-eabi\thumb\v7e-m+fp\hard\bits\gthr-default.h **** static inline int
  78:c:\progra~2\gnuarm~1\102021~1.10\arm-none-eabi\include\c++\10.3.1\arm-none-eabi\thumb\v7e-m+fp\hard\bits\gthr-default.h **** __gthread_objc_thread_set_priority (int priority _GLIBCXX_UNUSED)
  79:c:\progra~2\gnuarm~1\102021~1.10\arm-none-eabi\include\c++\10.3.1\arm-none-eabi\thumb\v7e-m+fp\hard\bits\gthr-default.h **** {
  80:c:\progra~2\gnuarm~1\102021~1.10\arm-none-eabi\include\c++\10.3.1\arm-none-eabi\thumb\v7e-m+fp\hard\bits\gthr-default.h ****   /* No thread support available */
  81:c:\progra~2\gnuarm~1\102021~1.10\arm-none-eabi\include\c++\10.3.1\arm-none-eabi\thumb\v7e-m+fp\hard\bits\gthr-default.h ****   return -1;
ARM GAS   			page 3


  82:c:\progra~2\gnuarm~1\102021~1.10\arm-none-eabi\include\c++\10.3.1\arm-none-eabi\thumb\v7e-m+fp\hard\bits\gthr-default.h **** }
  83:c:\progra~2\gnuarm~1\102021~1.10\arm-none-eabi\include\c++\10.3.1\arm-none-eabi\thumb\v7e-m+fp\hard\bits\gthr-default.h **** 
  84:c:\progra~2\gnuarm~1\102021~1.10\arm-none-eabi\include\c++\10.3.1\arm-none-eabi\thumb\v7e-m+fp\hard\bits\gthr-default.h **** /* Return the current thread's priority.  */
  85:c:\progra~2\gnuarm~1\102021~1.10\arm-none-eabi\include\c++\10.3.1\arm-none-eabi\thumb\v7e-m+fp\hard\bits\gthr-default.h **** static inline int
  86:c:\progra~2\gnuarm~1\102021~1.10\arm-none-eabi\include\c++\10.3.1\arm-none-eabi\thumb\v7e-m+fp\hard\bits\gthr-default.h **** __gthread_objc_thread_get_priority (void)
  87:c:\progra~2\gnuarm~1\102021~1.10\arm-none-eabi\include\c++\10.3.1\arm-none-eabi\thumb\v7e-m+fp\hard\bits\gthr-default.h **** {
  88:c:\progra~2\gnuarm~1\102021~1.10\arm-none-eabi\include\c++\10.3.1\arm-none-eabi\thumb\v7e-m+fp\hard\bits\gthr-default.h ****   return OBJC_THREAD_INTERACTIVE_PRIORITY;
  89:c:\progra~2\gnuarm~1\102021~1.10\arm-none-eabi\include\c++\10.3.1\arm-none-eabi\thumb\v7e-m+fp\hard\bits\gthr-default.h **** }
  90:c:\progra~2\gnuarm~1\102021~1.10\arm-none-eabi\include\c++\10.3.1\arm-none-eabi\thumb\v7e-m+fp\hard\bits\gthr-default.h **** 
  91:c:\progra~2\gnuarm~1\102021~1.10\arm-none-eabi\include\c++\10.3.1\arm-none-eabi\thumb\v7e-m+fp\hard\bits\gthr-default.h **** /* Yield our process time to another thread.  */
  92:c:\progra~2\gnuarm~1\102021~1.10\arm-none-eabi\include\c++\10.3.1\arm-none-eabi\thumb\v7e-m+fp\hard\bits\gthr-default.h **** static inline void
  93:c:\progra~2\gnuarm~1\102021~1.10\arm-none-eabi\include\c++\10.3.1\arm-none-eabi\thumb\v7e-m+fp\hard\bits\gthr-default.h **** __gthread_objc_thread_yield (void)
  94:c:\progra~2\gnuarm~1\102021~1.10\arm-none-eabi\include\c++\10.3.1\arm-none-eabi\thumb\v7e-m+fp\hard\bits\gthr-default.h **** {
  95:c:\progra~2\gnuarm~1\102021~1.10\arm-none-eabi\include\c++\10.3.1\arm-none-eabi\thumb\v7e-m+fp\hard\bits\gthr-default.h ****   return;
  96:c:\progra~2\gnuarm~1\102021~1.10\arm-none-eabi\include\c++\10.3.1\arm-none-eabi\thumb\v7e-m+fp\hard\bits\gthr-default.h **** }
  97:c:\progra~2\gnuarm~1\102021~1.10\arm-none-eabi\include\c++\10.3.1\arm-none-eabi\thumb\v7e-m+fp\hard\bits\gthr-default.h **** 
  98:c:\progra~2\gnuarm~1\102021~1.10\arm-none-eabi\include\c++\10.3.1\arm-none-eabi\thumb\v7e-m+fp\hard\bits\gthr-default.h **** /* Terminate the current thread.  */
  99:c:\progra~2\gnuarm~1\102021~1.10\arm-none-eabi\include\c++\10.3.1\arm-none-eabi\thumb\v7e-m+fp\hard\bits\gthr-default.h **** static inline int
 100:c:\progra~2\gnuarm~1\102021~1.10\arm-none-eabi\include\c++\10.3.1\arm-none-eabi\thumb\v7e-m+fp\hard\bits\gthr-default.h **** __gthread_objc_thread_exit (void)
 101:c:\progra~2\gnuarm~1\102021~1.10\arm-none-eabi\include\c++\10.3.1\arm-none-eabi\thumb\v7e-m+fp\hard\bits\gthr-default.h **** {
 102:c:\progra~2\gnuarm~1\102021~1.10\arm-none-eabi\include\c++\10.3.1\arm-none-eabi\thumb\v7e-m+fp\hard\bits\gthr-default.h ****   /* No thread support available */
 103:c:\progra~2\gnuarm~1\102021~1.10\arm-none-eabi\include\c++\10.3.1\arm-none-eabi\thumb\v7e-m+fp\hard\bits\gthr-default.h ****   /* Should we really exit the program */
 104:c:\progra~2\gnuarm~1\102021~1.10\arm-none-eabi\include\c++\10.3.1\arm-none-eabi\thumb\v7e-m+fp\hard\bits\gthr-default.h ****   /* exit (&__objc_thread_exit_status); */
 105:c:\progra~2\gnuarm~1\102021~1.10\arm-none-eabi\include\c++\10.3.1\arm-none-eabi\thumb\v7e-m+fp\hard\bits\gthr-default.h ****   return -1;
 106:c:\progra~2\gnuarm~1\102021~1.10\arm-none-eabi\include\c++\10.3.1\arm-none-eabi\thumb\v7e-m+fp\hard\bits\gthr-default.h **** }
 107:c:\progra~2\gnuarm~1\102021~1.10\arm-none-eabi\include\c++\10.3.1\arm-none-eabi\thumb\v7e-m+fp\hard\bits\gthr-default.h **** 
 108:c:\progra~2\gnuarm~1\102021~1.10\arm-none-eabi\include\c++\10.3.1\arm-none-eabi\thumb\v7e-m+fp\hard\bits\gthr-default.h **** /* Returns an integer value which uniquely describes a thread.  */
 109:c:\progra~2\gnuarm~1\102021~1.10\arm-none-eabi\include\c++\10.3.1\arm-none-eabi\thumb\v7e-m+fp\hard\bits\gthr-default.h **** static inline objc_thread_t
 110:c:\progra~2\gnuarm~1\102021~1.10\arm-none-eabi\include\c++\10.3.1\arm-none-eabi\thumb\v7e-m+fp\hard\bits\gthr-default.h **** __gthread_objc_thread_id (void)
 111:c:\progra~2\gnuarm~1\102021~1.10\arm-none-eabi\include\c++\10.3.1\arm-none-eabi\thumb\v7e-m+fp\hard\bits\gthr-default.h **** {
 112:c:\progra~2\gnuarm~1\102021~1.10\arm-none-eabi\include\c++\10.3.1\arm-none-eabi\thumb\v7e-m+fp\hard\bits\gthr-default.h ****   /* No thread support, use 1.  */
 113:c:\progra~2\gnuarm~1\102021~1.10\arm-none-eabi\include\c++\10.3.1\arm-none-eabi\thumb\v7e-m+fp\hard\bits\gthr-default.h ****   return (objc_thread_t) 1;
 114:c:\progra~2\gnuarm~1\102021~1.10\arm-none-eabi\include\c++\10.3.1\arm-none-eabi\thumb\v7e-m+fp\hard\bits\gthr-default.h **** }
 115:c:\progra~2\gnuarm~1\102021~1.10\arm-none-eabi\include\c++\10.3.1\arm-none-eabi\thumb\v7e-m+fp\hard\bits\gthr-default.h **** 
 116:c:\progra~2\gnuarm~1\102021~1.10\arm-none-eabi\include\c++\10.3.1\arm-none-eabi\thumb\v7e-m+fp\hard\bits\gthr-default.h **** /* Sets the thread's local storage pointer.  */
 117:c:\progra~2\gnuarm~1\102021~1.10\arm-none-eabi\include\c++\10.3.1\arm-none-eabi\thumb\v7e-m+fp\hard\bits\gthr-default.h **** static inline int
 118:c:\progra~2\gnuarm~1\102021~1.10\arm-none-eabi\include\c++\10.3.1\arm-none-eabi\thumb\v7e-m+fp\hard\bits\gthr-default.h **** __gthread_objc_thread_set_data (void *value)
 119:c:\progra~2\gnuarm~1\102021~1.10\arm-none-eabi\include\c++\10.3.1\arm-none-eabi\thumb\v7e-m+fp\hard\bits\gthr-default.h **** {
 120:c:\progra~2\gnuarm~1\102021~1.10\arm-none-eabi\include\c++\10.3.1\arm-none-eabi\thumb\v7e-m+fp\hard\bits\gthr-default.h ****   thread_local_storage = value;
 121:c:\progra~2\gnuarm~1\102021~1.10\arm-none-eabi\include\c++\10.3.1\arm-none-eabi\thumb\v7e-m+fp\hard\bits\gthr-default.h ****   return 0;
 122:c:\progra~2\gnuarm~1\102021~1.10\arm-none-eabi\include\c++\10.3.1\arm-none-eabi\thumb\v7e-m+fp\hard\bits\gthr-default.h **** }
 123:c:\progra~2\gnuarm~1\102021~1.10\arm-none-eabi\include\c++\10.3.1\arm-none-eabi\thumb\v7e-m+fp\hard\bits\gthr-default.h **** 
 124:c:\progra~2\gnuarm~1\102021~1.10\arm-none-eabi\include\c++\10.3.1\arm-none-eabi\thumb\v7e-m+fp\hard\bits\gthr-default.h **** /* Returns the thread's local storage pointer.  */
 125:c:\progra~2\gnuarm~1\102021~1.10\arm-none-eabi\include\c++\10.3.1\arm-none-eabi\thumb\v7e-m+fp\hard\bits\gthr-default.h **** static inline void *
 126:c:\progra~2\gnuarm~1\102021~1.10\arm-none-eabi\include\c++\10.3.1\arm-none-eabi\thumb\v7e-m+fp\hard\bits\gthr-default.h **** __gthread_objc_thread_get_data (void)
 127:c:\progra~2\gnuarm~1\102021~1.10\arm-none-eabi\include\c++\10.3.1\arm-none-eabi\thumb\v7e-m+fp\hard\bits\gthr-default.h **** {
 128:c:\progra~2\gnuarm~1\102021~1.10\arm-none-eabi\include\c++\10.3.1\arm-none-eabi\thumb\v7e-m+fp\hard\bits\gthr-default.h ****   return thread_local_storage;
 129:c:\progra~2\gnuarm~1\102021~1.10\arm-none-eabi\include\c++\10.3.1\arm-none-eabi\thumb\v7e-m+fp\hard\bits\gthr-default.h **** }
 130:c:\progra~2\gnuarm~1\102021~1.10\arm-none-eabi\include\c++\10.3.1\arm-none-eabi\thumb\v7e-m+fp\hard\bits\gthr-default.h **** 
 131:c:\progra~2\gnuarm~1\102021~1.10\arm-none-eabi\include\c++\10.3.1\arm-none-eabi\thumb\v7e-m+fp\hard\bits\gthr-default.h **** /* Backend mutex functions */
 132:c:\progra~2\gnuarm~1\102021~1.10\arm-none-eabi\include\c++\10.3.1\arm-none-eabi\thumb\v7e-m+fp\hard\bits\gthr-default.h **** 
 133:c:\progra~2\gnuarm~1\102021~1.10\arm-none-eabi\include\c++\10.3.1\arm-none-eabi\thumb\v7e-m+fp\hard\bits\gthr-default.h **** /* Allocate a mutex.  */
 134:c:\progra~2\gnuarm~1\102021~1.10\arm-none-eabi\include\c++\10.3.1\arm-none-eabi\thumb\v7e-m+fp\hard\bits\gthr-default.h **** static inline int
 135:c:\progra~2\gnuarm~1\102021~1.10\arm-none-eabi\include\c++\10.3.1\arm-none-eabi\thumb\v7e-m+fp\hard\bits\gthr-default.h **** __gthread_objc_mutex_allocate (objc_mutex_t mutex _GLIBCXX_UNUSED)
 136:c:\progra~2\gnuarm~1\102021~1.10\arm-none-eabi\include\c++\10.3.1\arm-none-eabi\thumb\v7e-m+fp\hard\bits\gthr-default.h **** {
 137:c:\progra~2\gnuarm~1\102021~1.10\arm-none-eabi\include\c++\10.3.1\arm-none-eabi\thumb\v7e-m+fp\hard\bits\gthr-default.h ****   return 0;
 138:c:\progra~2\gnuarm~1\102021~1.10\arm-none-eabi\include\c++\10.3.1\arm-none-eabi\thumb\v7e-m+fp\hard\bits\gthr-default.h **** }
ARM GAS   			page 4


 139:c:\progra~2\gnuarm~1\102021~1.10\arm-none-eabi\include\c++\10.3.1\arm-none-eabi\thumb\v7e-m+fp\hard\bits\gthr-default.h **** 
 140:c:\progra~2\gnuarm~1\102021~1.10\arm-none-eabi\include\c++\10.3.1\arm-none-eabi\thumb\v7e-m+fp\hard\bits\gthr-default.h **** /* Deallocate a mutex.  */
 141:c:\progra~2\gnuarm~1\102021~1.10\arm-none-eabi\include\c++\10.3.1\arm-none-eabi\thumb\v7e-m+fp\hard\bits\gthr-default.h **** static inline int
 142:c:\progra~2\gnuarm~1\102021~1.10\arm-none-eabi\include\c++\10.3.1\arm-none-eabi\thumb\v7e-m+fp\hard\bits\gthr-default.h **** __gthread_objc_mutex_deallocate (objc_mutex_t mutex _GLIBCXX_UNUSED)
 143:c:\progra~2\gnuarm~1\102021~1.10\arm-none-eabi\include\c++\10.3.1\arm-none-eabi\thumb\v7e-m+fp\hard\bits\gthr-default.h **** {
 144:c:\progra~2\gnuarm~1\102021~1.10\arm-none-eabi\include\c++\10.3.1\arm-none-eabi\thumb\v7e-m+fp\hard\bits\gthr-default.h ****   return 0;
 145:c:\progra~2\gnuarm~1\102021~1.10\arm-none-eabi\include\c++\10.3.1\arm-none-eabi\thumb\v7e-m+fp\hard\bits\gthr-default.h **** }
 146:c:\progra~2\gnuarm~1\102021~1.10\arm-none-eabi\include\c++\10.3.1\arm-none-eabi\thumb\v7e-m+fp\hard\bits\gthr-default.h **** 
 147:c:\progra~2\gnuarm~1\102021~1.10\arm-none-eabi\include\c++\10.3.1\arm-none-eabi\thumb\v7e-m+fp\hard\bits\gthr-default.h **** /* Grab a lock on a mutex.  */
 148:c:\progra~2\gnuarm~1\102021~1.10\arm-none-eabi\include\c++\10.3.1\arm-none-eabi\thumb\v7e-m+fp\hard\bits\gthr-default.h **** static inline int
 149:c:\progra~2\gnuarm~1\102021~1.10\arm-none-eabi\include\c++\10.3.1\arm-none-eabi\thumb\v7e-m+fp\hard\bits\gthr-default.h **** __gthread_objc_mutex_lock (objc_mutex_t mutex _GLIBCXX_UNUSED)
 150:c:\progra~2\gnuarm~1\102021~1.10\arm-none-eabi\include\c++\10.3.1\arm-none-eabi\thumb\v7e-m+fp\hard\bits\gthr-default.h **** {
 151:c:\progra~2\gnuarm~1\102021~1.10\arm-none-eabi\include\c++\10.3.1\arm-none-eabi\thumb\v7e-m+fp\hard\bits\gthr-default.h ****   /* There can only be one thread, so we always get the lock */
 152:c:\progra~2\gnuarm~1\102021~1.10\arm-none-eabi\include\c++\10.3.1\arm-none-eabi\thumb\v7e-m+fp\hard\bits\gthr-default.h ****   return 0;
 153:c:\progra~2\gnuarm~1\102021~1.10\arm-none-eabi\include\c++\10.3.1\arm-none-eabi\thumb\v7e-m+fp\hard\bits\gthr-default.h **** }
 154:c:\progra~2\gnuarm~1\102021~1.10\arm-none-eabi\include\c++\10.3.1\arm-none-eabi\thumb\v7e-m+fp\hard\bits\gthr-default.h **** 
 155:c:\progra~2\gnuarm~1\102021~1.10\arm-none-eabi\include\c++\10.3.1\arm-none-eabi\thumb\v7e-m+fp\hard\bits\gthr-default.h **** /* Try to grab a lock on a mutex.  */
 156:c:\progra~2\gnuarm~1\102021~1.10\arm-none-eabi\include\c++\10.3.1\arm-none-eabi\thumb\v7e-m+fp\hard\bits\gthr-default.h **** static inline int
 157:c:\progra~2\gnuarm~1\102021~1.10\arm-none-eabi\include\c++\10.3.1\arm-none-eabi\thumb\v7e-m+fp\hard\bits\gthr-default.h **** __gthread_objc_mutex_trylock (objc_mutex_t mutex _GLIBCXX_UNUSED)
 158:c:\progra~2\gnuarm~1\102021~1.10\arm-none-eabi\include\c++\10.3.1\arm-none-eabi\thumb\v7e-m+fp\hard\bits\gthr-default.h **** {
 159:c:\progra~2\gnuarm~1\102021~1.10\arm-none-eabi\include\c++\10.3.1\arm-none-eabi\thumb\v7e-m+fp\hard\bits\gthr-default.h ****   /* There can only be one thread, so we always get the lock */
 160:c:\progra~2\gnuarm~1\102021~1.10\arm-none-eabi\include\c++\10.3.1\arm-none-eabi\thumb\v7e-m+fp\hard\bits\gthr-default.h ****   return 0;
 161:c:\progra~2\gnuarm~1\102021~1.10\arm-none-eabi\include\c++\10.3.1\arm-none-eabi\thumb\v7e-m+fp\hard\bits\gthr-default.h **** }
 162:c:\progra~2\gnuarm~1\102021~1.10\arm-none-eabi\include\c++\10.3.1\arm-none-eabi\thumb\v7e-m+fp\hard\bits\gthr-default.h **** 
 163:c:\progra~2\gnuarm~1\102021~1.10\arm-none-eabi\include\c++\10.3.1\arm-none-eabi\thumb\v7e-m+fp\hard\bits\gthr-default.h **** /* Unlock the mutex */
 164:c:\progra~2\gnuarm~1\102021~1.10\arm-none-eabi\include\c++\10.3.1\arm-none-eabi\thumb\v7e-m+fp\hard\bits\gthr-default.h **** static inline int
 165:c:\progra~2\gnuarm~1\102021~1.10\arm-none-eabi\include\c++\10.3.1\arm-none-eabi\thumb\v7e-m+fp\hard\bits\gthr-default.h **** __gthread_objc_mutex_unlock (objc_mutex_t mutex _GLIBCXX_UNUSED)
 166:c:\progra~2\gnuarm~1\102021~1.10\arm-none-eabi\include\c++\10.3.1\arm-none-eabi\thumb\v7e-m+fp\hard\bits\gthr-default.h **** {
 167:c:\progra~2\gnuarm~1\102021~1.10\arm-none-eabi\include\c++\10.3.1\arm-none-eabi\thumb\v7e-m+fp\hard\bits\gthr-default.h ****   return 0;
 168:c:\progra~2\gnuarm~1\102021~1.10\arm-none-eabi\include\c++\10.3.1\arm-none-eabi\thumb\v7e-m+fp\hard\bits\gthr-default.h **** }
 169:c:\progra~2\gnuarm~1\102021~1.10\arm-none-eabi\include\c++\10.3.1\arm-none-eabi\thumb\v7e-m+fp\hard\bits\gthr-default.h **** 
 170:c:\progra~2\gnuarm~1\102021~1.10\arm-none-eabi\include\c++\10.3.1\arm-none-eabi\thumb\v7e-m+fp\hard\bits\gthr-default.h **** /* Backend condition mutex functions */
 171:c:\progra~2\gnuarm~1\102021~1.10\arm-none-eabi\include\c++\10.3.1\arm-none-eabi\thumb\v7e-m+fp\hard\bits\gthr-default.h **** 
 172:c:\progra~2\gnuarm~1\102021~1.10\arm-none-eabi\include\c++\10.3.1\arm-none-eabi\thumb\v7e-m+fp\hard\bits\gthr-default.h **** /* Allocate a condition.  */
 173:c:\progra~2\gnuarm~1\102021~1.10\arm-none-eabi\include\c++\10.3.1\arm-none-eabi\thumb\v7e-m+fp\hard\bits\gthr-default.h **** static inline int
 174:c:\progra~2\gnuarm~1\102021~1.10\arm-none-eabi\include\c++\10.3.1\arm-none-eabi\thumb\v7e-m+fp\hard\bits\gthr-default.h **** __gthread_objc_condition_allocate (objc_condition_t condition _GLIBCXX_UNUSED)
 175:c:\progra~2\gnuarm~1\102021~1.10\arm-none-eabi\include\c++\10.3.1\arm-none-eabi\thumb\v7e-m+fp\hard\bits\gthr-default.h **** {
 176:c:\progra~2\gnuarm~1\102021~1.10\arm-none-eabi\include\c++\10.3.1\arm-none-eabi\thumb\v7e-m+fp\hard\bits\gthr-default.h ****   return 0;
 177:c:\progra~2\gnuarm~1\102021~1.10\arm-none-eabi\include\c++\10.3.1\arm-none-eabi\thumb\v7e-m+fp\hard\bits\gthr-default.h **** }
 178:c:\progra~2\gnuarm~1\102021~1.10\arm-none-eabi\include\c++\10.3.1\arm-none-eabi\thumb\v7e-m+fp\hard\bits\gthr-default.h **** 
 179:c:\progra~2\gnuarm~1\102021~1.10\arm-none-eabi\include\c++\10.3.1\arm-none-eabi\thumb\v7e-m+fp\hard\bits\gthr-default.h **** /* Deallocate a condition.  */
 180:c:\progra~2\gnuarm~1\102021~1.10\arm-none-eabi\include\c++\10.3.1\arm-none-eabi\thumb\v7e-m+fp\hard\bits\gthr-default.h **** static inline int
 181:c:\progra~2\gnuarm~1\102021~1.10\arm-none-eabi\include\c++\10.3.1\arm-none-eabi\thumb\v7e-m+fp\hard\bits\gthr-default.h **** __gthread_objc_condition_deallocate (objc_condition_t condition _GLIBCXX_UNUSED)
 182:c:\progra~2\gnuarm~1\102021~1.10\arm-none-eabi\include\c++\10.3.1\arm-none-eabi\thumb\v7e-m+fp\hard\bits\gthr-default.h **** {
 183:c:\progra~2\gnuarm~1\102021~1.10\arm-none-eabi\include\c++\10.3.1\arm-none-eabi\thumb\v7e-m+fp\hard\bits\gthr-default.h ****   return 0;
 184:c:\progra~2\gnuarm~1\102021~1.10\arm-none-eabi\include\c++\10.3.1\arm-none-eabi\thumb\v7e-m+fp\hard\bits\gthr-default.h **** }
 185:c:\progra~2\gnuarm~1\102021~1.10\arm-none-eabi\include\c++\10.3.1\arm-none-eabi\thumb\v7e-m+fp\hard\bits\gthr-default.h **** 
 186:c:\progra~2\gnuarm~1\102021~1.10\arm-none-eabi\include\c++\10.3.1\arm-none-eabi\thumb\v7e-m+fp\hard\bits\gthr-default.h **** /* Wait on the condition */
 187:c:\progra~2\gnuarm~1\102021~1.10\arm-none-eabi\include\c++\10.3.1\arm-none-eabi\thumb\v7e-m+fp\hard\bits\gthr-default.h **** static inline int
 188:c:\progra~2\gnuarm~1\102021~1.10\arm-none-eabi\include\c++\10.3.1\arm-none-eabi\thumb\v7e-m+fp\hard\bits\gthr-default.h **** __gthread_objc_condition_wait (objc_condition_t condition _GLIBCXX_UNUSED,
 189:c:\progra~2\gnuarm~1\102021~1.10\arm-none-eabi\include\c++\10.3.1\arm-none-eabi\thumb\v7e-m+fp\hard\bits\gthr-default.h **** 			       objc_mutex_t mutex _GLIBCXX_UNUSED)
 190:c:\progra~2\gnuarm~1\102021~1.10\arm-none-eabi\include\c++\10.3.1\arm-none-eabi\thumb\v7e-m+fp\hard\bits\gthr-default.h **** {
 191:c:\progra~2\gnuarm~1\102021~1.10\arm-none-eabi\include\c++\10.3.1\arm-none-eabi\thumb\v7e-m+fp\hard\bits\gthr-default.h ****   return 0;
 192:c:\progra~2\gnuarm~1\102021~1.10\arm-none-eabi\include\c++\10.3.1\arm-none-eabi\thumb\v7e-m+fp\hard\bits\gthr-default.h **** }
 193:c:\progra~2\gnuarm~1\102021~1.10\arm-none-eabi\include\c++\10.3.1\arm-none-eabi\thumb\v7e-m+fp\hard\bits\gthr-default.h **** 
 194:c:\progra~2\gnuarm~1\102021~1.10\arm-none-eabi\include\c++\10.3.1\arm-none-eabi\thumb\v7e-m+fp\hard\bits\gthr-default.h **** /* Wake up all threads waiting on this condition.  */
 195:c:\progra~2\gnuarm~1\102021~1.10\arm-none-eabi\include\c++\10.3.1\arm-none-eabi\thumb\v7e-m+fp\hard\bits\gthr-default.h **** static inline int
ARM GAS   			page 5


 196:c:\progra~2\gnuarm~1\102021~1.10\arm-none-eabi\include\c++\10.3.1\arm-none-eabi\thumb\v7e-m+fp\hard\bits\gthr-default.h **** __gthread_objc_condition_broadcast (objc_condition_t condition _GLIBCXX_UNUSED)
 197:c:\progra~2\gnuarm~1\102021~1.10\arm-none-eabi\include\c++\10.3.1\arm-none-eabi\thumb\v7e-m+fp\hard\bits\gthr-default.h **** {
 198:c:\progra~2\gnuarm~1\102021~1.10\arm-none-eabi\include\c++\10.3.1\arm-none-eabi\thumb\v7e-m+fp\hard\bits\gthr-default.h ****   return 0;
 199:c:\progra~2\gnuarm~1\102021~1.10\arm-none-eabi\include\c++\10.3.1\arm-none-eabi\thumb\v7e-m+fp\hard\bits\gthr-default.h **** }
 200:c:\progra~2\gnuarm~1\102021~1.10\arm-none-eabi\include\c++\10.3.1\arm-none-eabi\thumb\v7e-m+fp\hard\bits\gthr-default.h **** 
 201:c:\progra~2\gnuarm~1\102021~1.10\arm-none-eabi\include\c++\10.3.1\arm-none-eabi\thumb\v7e-m+fp\hard\bits\gthr-default.h **** /* Wake up one thread waiting on this condition.  */
 202:c:\progra~2\gnuarm~1\102021~1.10\arm-none-eabi\include\c++\10.3.1\arm-none-eabi\thumb\v7e-m+fp\hard\bits\gthr-default.h **** static inline int
 203:c:\progra~2\gnuarm~1\102021~1.10\arm-none-eabi\include\c++\10.3.1\arm-none-eabi\thumb\v7e-m+fp\hard\bits\gthr-default.h **** __gthread_objc_condition_signal (objc_condition_t condition _GLIBCXX_UNUSED)
 204:c:\progra~2\gnuarm~1\102021~1.10\arm-none-eabi\include\c++\10.3.1\arm-none-eabi\thumb\v7e-m+fp\hard\bits\gthr-default.h **** {
 205:c:\progra~2\gnuarm~1\102021~1.10\arm-none-eabi\include\c++\10.3.1\arm-none-eabi\thumb\v7e-m+fp\hard\bits\gthr-default.h ****   return 0;
 206:c:\progra~2\gnuarm~1\102021~1.10\arm-none-eabi\include\c++\10.3.1\arm-none-eabi\thumb\v7e-m+fp\hard\bits\gthr-default.h **** }
 207:c:\progra~2\gnuarm~1\102021~1.10\arm-none-eabi\include\c++\10.3.1\arm-none-eabi\thumb\v7e-m+fp\hard\bits\gthr-default.h **** 
 208:c:\progra~2\gnuarm~1\102021~1.10\arm-none-eabi\include\c++\10.3.1\arm-none-eabi\thumb\v7e-m+fp\hard\bits\gthr-default.h **** #else /* _LIBOBJC */
 209:c:\progra~2\gnuarm~1\102021~1.10\arm-none-eabi\include\c++\10.3.1\arm-none-eabi\thumb\v7e-m+fp\hard\bits\gthr-default.h **** 
 210:c:\progra~2\gnuarm~1\102021~1.10\arm-none-eabi\include\c++\10.3.1\arm-none-eabi\thumb\v7e-m+fp\hard\bits\gthr-default.h **** static inline int
 211:c:\progra~2\gnuarm~1\102021~1.10\arm-none-eabi\include\c++\10.3.1\arm-none-eabi\thumb\v7e-m+fp\hard\bits\gthr-default.h **** __gthread_active_p (void)
 212:c:\progra~2\gnuarm~1\102021~1.10\arm-none-eabi\include\c++\10.3.1\arm-none-eabi\thumb\v7e-m+fp\hard\bits\gthr-default.h **** {
 213:c:\progra~2\gnuarm~1\102021~1.10\arm-none-eabi\include\c++\10.3.1\arm-none-eabi\thumb\v7e-m+fp\hard\bits\gthr-default.h ****   return 0;
 214:c:\progra~2\gnuarm~1\102021~1.10\arm-none-eabi\include\c++\10.3.1\arm-none-eabi\thumb\v7e-m+fp\hard\bits\gthr-default.h **** }
 215:c:\progra~2\gnuarm~1\102021~1.10\arm-none-eabi\include\c++\10.3.1\arm-none-eabi\thumb\v7e-m+fp\hard\bits\gthr-default.h **** 
 216:c:\progra~2\gnuarm~1\102021~1.10\arm-none-eabi\include\c++\10.3.1\arm-none-eabi\thumb\v7e-m+fp\hard\bits\gthr-default.h **** static inline int
 217:c:\progra~2\gnuarm~1\102021~1.10\arm-none-eabi\include\c++\10.3.1\arm-none-eabi\thumb\v7e-m+fp\hard\bits\gthr-default.h **** __gthread_once (__gthread_once_t *__once _GLIBCXX_UNUSED, void (*__func) (void) _GLIBCXX_UNUSED)
 218:c:\progra~2\gnuarm~1\102021~1.10\arm-none-eabi\include\c++\10.3.1\arm-none-eabi\thumb\v7e-m+fp\hard\bits\gthr-default.h **** {
 219:c:\progra~2\gnuarm~1\102021~1.10\arm-none-eabi\include\c++\10.3.1\arm-none-eabi\thumb\v7e-m+fp\hard\bits\gthr-default.h ****   return 0;
 220:c:\progra~2\gnuarm~1\102021~1.10\arm-none-eabi\include\c++\10.3.1\arm-none-eabi\thumb\v7e-m+fp\hard\bits\gthr-default.h **** }
 221:c:\progra~2\gnuarm~1\102021~1.10\arm-none-eabi\include\c++\10.3.1\arm-none-eabi\thumb\v7e-m+fp\hard\bits\gthr-default.h **** 
 222:c:\progra~2\gnuarm~1\102021~1.10\arm-none-eabi\include\c++\10.3.1\arm-none-eabi\thumb\v7e-m+fp\hard\bits\gthr-default.h **** static inline int _GLIBCXX_UNUSED
 223:c:\progra~2\gnuarm~1\102021~1.10\arm-none-eabi\include\c++\10.3.1\arm-none-eabi\thumb\v7e-m+fp\hard\bits\gthr-default.h **** __gthread_key_create (__gthread_key_t *__key _GLIBCXX_UNUSED, void (*__func) (void *) _GLIBCXX_UNUS
 224:c:\progra~2\gnuarm~1\102021~1.10\arm-none-eabi\include\c++\10.3.1\arm-none-eabi\thumb\v7e-m+fp\hard\bits\gthr-default.h **** {
 225:c:\progra~2\gnuarm~1\102021~1.10\arm-none-eabi\include\c++\10.3.1\arm-none-eabi\thumb\v7e-m+fp\hard\bits\gthr-default.h ****   return 0;
 226:c:\progra~2\gnuarm~1\102021~1.10\arm-none-eabi\include\c++\10.3.1\arm-none-eabi\thumb\v7e-m+fp\hard\bits\gthr-default.h **** }
 227:c:\progra~2\gnuarm~1\102021~1.10\arm-none-eabi\include\c++\10.3.1\arm-none-eabi\thumb\v7e-m+fp\hard\bits\gthr-default.h **** 
 228:c:\progra~2\gnuarm~1\102021~1.10\arm-none-eabi\include\c++\10.3.1\arm-none-eabi\thumb\v7e-m+fp\hard\bits\gthr-default.h **** static int _GLIBCXX_UNUSED
 229:c:\progra~2\gnuarm~1\102021~1.10\arm-none-eabi\include\c++\10.3.1\arm-none-eabi\thumb\v7e-m+fp\hard\bits\gthr-default.h **** __gthread_key_delete (__gthread_key_t __key _GLIBCXX_UNUSED)
 230:c:\progra~2\gnuarm~1\102021~1.10\arm-none-eabi\include\c++\10.3.1\arm-none-eabi\thumb\v7e-m+fp\hard\bits\gthr-default.h **** {
  34              	 .loc 1 230 1
  35              	 .cfi_startproc
  36              	 
  37              	 
  38              	 
  39 0000 80B4     	 push {r7}
  40              	 .cfi_def_cfa_offset 4
  41              	 .cfi_offset 7,-4
  42 0002 83B0     	 sub sp,sp,#12
  43              	 .cfi_def_cfa_offset 16
  44 0004 00AF     	 add r7,sp,#0
  45              	 .cfi_def_cfa_register 7
  46 0006 7860     	 str r0,[r7,#4]
 231:c:\progra~2\gnuarm~1\102021~1.10\arm-none-eabi\include\c++\10.3.1\arm-none-eabi\thumb\v7e-m+fp\hard\bits\gthr-default.h ****   return 0;
  47              	 .loc 1 231 10
  48 0008 0023     	 movs r3,#0
 232:c:\progra~2\gnuarm~1\102021~1.10\arm-none-eabi\include\c++\10.3.1\arm-none-eabi\thumb\v7e-m+fp\hard\bits\gthr-default.h **** }
  49              	 .loc 1 232 1
  50 000a 1846     	 mov r0,r3
  51 000c 0C37     	 adds r7,r7,#12
  52              	 .cfi_def_cfa_offset 4
  53 000e BD46     	 mov sp,r7
ARM GAS   			page 6


  54              	 .cfi_def_cfa_register 13
  55              	 
  56 0010 5DF8047B 	 ldr r7,[sp],#4
  57              	 .cfi_restore 7
  58              	 .cfi_def_cfa_offset 0
  59 0014 7047     	 bx lr
  60              	 .cfi_endproc
  61              	.LFE652:
  62              	 .size _ZL20__gthread_key_deletei,.-_ZL20__gthread_key_deletei
  63              	 .section .rodata
  64              	 .align 2
  65              	.LC0:
  66 0000 68616E64 	 .ascii "handle != NULL\000"
  66      6C652021 
  66      3D204E55 
  66      4C4C00
  67 000f 00       	 .align 2
  68              	.LC1:
  69 0010 6370705F 	 .ascii "cpp_freertos::Queue::Queue(UBaseType_t, UBaseType_t"
  69      66726565 
  69      72746F73 
  69      3A3A5175 
  69      6575653A 
  70 0043 2900     	 .ascii ")\000"
  71 0045 000000   	 .align 2
  72              	.LC2:
  73 0048 433A5C55 	 .ascii "C:\\Users\\niels\\Documents\\GitHub\\DSP\\software\\"
  73      73657273 
  73      5C6E6965 
  73      6C735C44 
  73      6F63756D 
  74 0075 53544D33 	 .ascii "STM32Basis\\HAL\\gemeenschappelijk\\Third_Party\\fr"
  74      32426173 
  74      69735C48 
  74      414C5C67 
  74      656D6565 
  75 00a4 65657274 	 .ascii "eertos-addons-1.1.0\\c++\\Source\\cqueue.cpp\000"
  75      6F732D61 
  75      64646F6E 
  75      732D312E 
  75      312E305C 
  76              	 .section .text._ZN12cpp_freertos5QueueC2Emm,"ax",%progbits
  77              	 .align 1
  78              	 .global _ZN12cpp_freertos5QueueC2Emm
  79              	 .syntax unified
  80              	 .thumb
  81              	 .thumb_func
  82              	 .type _ZN12cpp_freertos5QueueC2Emm,%function
  83              	_ZN12cpp_freertos5QueueC2Emm:
  84              	.LFB1033:
  85              	 .file 2 "C:\\Users\\niels\\Documents\\GitHub\\DSP\\software\\STM32Basis\\HAL\\gemeenschappelijk\\Third_Party\\freertos-addons-1.1.0\\c++\\Source\\cqueue.cpp"
   1:C:\Users\niels\Documents\GitHub\DSP\software\STM32Basis\HAL\gemeenschappelijk\Third_Party\freertos-addons-1.1.0\c++\Source\cqueue.cpp **** /****************************************************************************
   2:C:\Users\niels\Documents\GitHub\DSP\software\STM32Basis\HAL\gemeenschappelijk\Third_Party\freertos-addons-1.1.0\c++\Source\cqueue.cpp ****  *
   3:C:\Users\niels\Documents\GitHub\DSP\software\STM32Basis\HAL\gemeenschappelijk\Third_Party\freertos-addons-1.1.0\c++\Source\cqueue.cpp ****  *  Copyright (c) 2016, Michael Becker (michael.f.becker@gmail.com)
   4:C:\Users\niels\Documents\GitHub\DSP\software\STM32Basis\HAL\gemeenschappelijk\Third_Party\freertos-addons-1.1.0\c++\Source\cqueue.cpp ****  *
   5:C:\Users\niels\Documents\GitHub\DSP\software\STM32Basis\HAL\gemeenschappelijk\Third_Party\freertos-addons-1.1.0\c++\Source\cqueue.cpp ****  *  This file is part of the FreeRTOS C++ Wrappers project.
   6:C:\Users\niels\Documents\GitHub\DSP\software\STM32Basis\HAL\gemeenschappelijk\Third_Party\freertos-addons-1.1.0\c++\Source\cqueue.cpp ****  *
ARM GAS   			page 7


   7:C:\Users\niels\Documents\GitHub\DSP\software\STM32Basis\HAL\gemeenschappelijk\Third_Party\freertos-addons-1.1.0\c++\Source\cqueue.cpp ****  *  The FreeRTOS C++ Wrappers project is free software: you can redistribute
   8:C:\Users\niels\Documents\GitHub\DSP\software\STM32Basis\HAL\gemeenschappelijk\Third_Party\freertos-addons-1.1.0\c++\Source\cqueue.cpp ****  *  it and/or modify it under the terms of the GNU General Public License as
   9:C:\Users\niels\Documents\GitHub\DSP\software\STM32Basis\HAL\gemeenschappelijk\Third_Party\freertos-addons-1.1.0\c++\Source\cqueue.cpp ****  *  published by the Free Software Foundation, either version 2
  10:C:\Users\niels\Documents\GitHub\DSP\software\STM32Basis\HAL\gemeenschappelijk\Third_Party\freertos-addons-1.1.0\c++\Source\cqueue.cpp ****  *  of the License, or (at your option) any later version.
  11:C:\Users\niels\Documents\GitHub\DSP\software\STM32Basis\HAL\gemeenschappelijk\Third_Party\freertos-addons-1.1.0\c++\Source\cqueue.cpp ****  *
  12:C:\Users\niels\Documents\GitHub\DSP\software\STM32Basis\HAL\gemeenschappelijk\Third_Party\freertos-addons-1.1.0\c++\Source\cqueue.cpp ****  *  The FreeRTOS C++ Wrappers project is distributed in the hope that it will
  13:C:\Users\niels\Documents\GitHub\DSP\software\STM32Basis\HAL\gemeenschappelijk\Third_Party\freertos-addons-1.1.0\c++\Source\cqueue.cpp ****  *  be useful, but WITHOUT ANY WARRANTY; without even the implied warranty of
  14:C:\Users\niels\Documents\GitHub\DSP\software\STM32Basis\HAL\gemeenschappelijk\Third_Party\freertos-addons-1.1.0\c++\Source\cqueue.cpp ****  *  MERCHANTABILITY or FITNESS FOR A PARTICULAR PURPOSE.  See the
  15:C:\Users\niels\Documents\GitHub\DSP\software\STM32Basis\HAL\gemeenschappelijk\Third_Party\freertos-addons-1.1.0\c++\Source\cqueue.cpp ****  *  GNU General Public License for more details.
  16:C:\Users\niels\Documents\GitHub\DSP\software\STM32Basis\HAL\gemeenschappelijk\Third_Party\freertos-addons-1.1.0\c++\Source\cqueue.cpp ****  *
  17:C:\Users\niels\Documents\GitHub\DSP\software\STM32Basis\HAL\gemeenschappelijk\Third_Party\freertos-addons-1.1.0\c++\Source\cqueue.cpp ****  *  You should have received a copy of the GNU General Public License
  18:C:\Users\niels\Documents\GitHub\DSP\software\STM32Basis\HAL\gemeenschappelijk\Third_Party\freertos-addons-1.1.0\c++\Source\cqueue.cpp ****  *  along with the FreeRTOS C++ Wrappers project.
  19:C:\Users\niels\Documents\GitHub\DSP\software\STM32Basis\HAL\gemeenschappelijk\Third_Party\freertos-addons-1.1.0\c++\Source\cqueue.cpp ****  *  If not, see <http://www.gnu.org/licenses/>.
  20:C:\Users\niels\Documents\GitHub\DSP\software\STM32Basis\HAL\gemeenschappelijk\Third_Party\freertos-addons-1.1.0\c++\Source\cqueue.cpp ****  *
  21:C:\Users\niels\Documents\GitHub\DSP\software\STM32Basis\HAL\gemeenschappelijk\Third_Party\freertos-addons-1.1.0\c++\Source\cqueue.cpp ****  ***************************************************************************/
  22:C:\Users\niels\Documents\GitHub\DSP\software\STM32Basis\HAL\gemeenschappelijk\Third_Party\freertos-addons-1.1.0\c++\Source\cqueue.cpp **** #include <assert.h>
  23:C:\Users\niels\Documents\GitHub\DSP\software\STM32Basis\HAL\gemeenschappelijk\Third_Party\freertos-addons-1.1.0\c++\Source\cqueue.cpp **** #include "queue.hpp"
  24:C:\Users\niels\Documents\GitHub\DSP\software\STM32Basis\HAL\gemeenschappelijk\Third_Party\freertos-addons-1.1.0\c++\Source\cqueue.cpp **** 
  25:C:\Users\niels\Documents\GitHub\DSP\software\STM32Basis\HAL\gemeenschappelijk\Third_Party\freertos-addons-1.1.0\c++\Source\cqueue.cpp **** 
  26:C:\Users\niels\Documents\GitHub\DSP\software\STM32Basis\HAL\gemeenschappelijk\Third_Party\freertos-addons-1.1.0\c++\Source\cqueue.cpp **** using namespace cpp_freertos;
  27:C:\Users\niels\Documents\GitHub\DSP\software\STM32Basis\HAL\gemeenschappelijk\Third_Party\freertos-addons-1.1.0\c++\Source\cqueue.cpp **** 
  28:C:\Users\niels\Documents\GitHub\DSP\software\STM32Basis\HAL\gemeenschappelijk\Third_Party\freertos-addons-1.1.0\c++\Source\cqueue.cpp **** 
  29:C:\Users\niels\Documents\GitHub\DSP\software\STM32Basis\HAL\gemeenschappelijk\Third_Party\freertos-addons-1.1.0\c++\Source\cqueue.cpp **** Queue::Queue(UBaseType_t maxItems, UBaseType_t itemSize)
  86              	 .loc 2 29 1
  87              	 .cfi_startproc
  88              	 
  89              	 
  90 0000 80B5     	 push {r7,lr}
  91              	 .cfi_def_cfa_offset 8
  92              	 .cfi_offset 7,-8
  93              	 .cfi_offset 14,-4
  94 0002 84B0     	 sub sp,sp,#16
  95              	 .cfi_def_cfa_offset 24
  96 0004 00AF     	 add r7,sp,#0
  97              	 .cfi_def_cfa_register 7
  98 0006 F860     	 str r0,[r7,#12]
  99 0008 B960     	 str r1,[r7,#8]
 100 000a 7A60     	 str r2,[r7,#4]
 101              	.LBB2:
 102              	 .loc 2 29 56
 103 000c 0C4A     	 ldr r2,.L6
 104 000e FB68     	 ldr r3,[r7,#12]
 105 0010 1A60     	 str r2,[r3]
  30:C:\Users\niels\Documents\GitHub\DSP\software\STM32Basis\HAL\gemeenschappelijk\Third_Party\freertos-addons-1.1.0\c++\Source\cqueue.cpp **** {
  31:C:\Users\niels\Documents\GitHub\DSP\software\STM32Basis\HAL\gemeenschappelijk\Third_Party\freertos-addons-1.1.0\c++\Source\cqueue.cpp ****     handle = xQueueCreate(maxItems, itemSize);
 106              	 .loc 2 31 14
 107 0012 0022     	 movs r2,#0
 108 0014 7968     	 ldr r1,[r7,#4]
 109 0016 B868     	 ldr r0,[r7,#8]
 110 0018 FFF7FEFF 	 bl xQueueGenericCreate
 111 001c 0246     	 mov r2,r0
 112              	 .loc 2 31 12
 113 001e FB68     	 ldr r3,[r7,#12]
 114 0020 5A60     	 str r2,[r3,#4]
  32:C:\Users\niels\Documents\GitHub\DSP\software\STM32Basis\HAL\gemeenschappelijk\Third_Party\freertos-addons-1.1.0\c++\Source\cqueue.cpp **** 
  33:C:\Users\niels\Documents\GitHub\DSP\software\STM32Basis\HAL\gemeenschappelijk\Third_Party\freertos-addons-1.1.0\c++\Source\cqueue.cpp ****     assert(handle != NULL);
 115              	 .loc 2 33 5
ARM GAS   			page 8


 116 0022 FB68     	 ldr r3,[r7,#12]
 117 0024 5B68     	 ldr r3,[r3,#4]
 118 0026 002B     	 cmp r3,#0
 119 0028 05D1     	 bne .L4
 120              	 .loc 2 33 5 is_stmt 0 discriminator 1
 121 002a 064B     	 ldr r3,.L6+4
 122 002c 064A     	 ldr r2,.L6+8
 123 002e 2121     	 movs r1,#33
 124 0030 0648     	 ldr r0,.L6+12
 125 0032 FFF7FEFF 	 bl __assert_func
 126              	.L4:
 127              	.LBE2:
  34:C:\Users\niels\Documents\GitHub\DSP\software\STM32Basis\HAL\gemeenschappelijk\Third_Party\freertos-addons-1.1.0\c++\Source\cqueue.cpp **** }
 128              	 .loc 2 34 1 is_stmt 1
 129 0036 FB68     	 ldr r3,[r7,#12]
 130 0038 1846     	 mov r0,r3
 131 003a 1037     	 adds r7,r7,#16
 132              	 .cfi_def_cfa_offset 8
 133 003c BD46     	 mov sp,r7
 134              	 .cfi_def_cfa_register 13
 135              	 
 136 003e 80BD     	 pop {r7,pc}
 137              	.L7:
 138              	 .align 2
 139              	.L6:
 140 0040 08000000 	 .word _ZTVN12cpp_freertos5QueueE+8
 141 0044 00000000 	 .word .LC0
 142 0048 10000000 	 .word .LC1
 143 004c 48000000 	 .word .LC2
 144              	 .cfi_endproc
 145              	.LFE1033:
 146              	 .size _ZN12cpp_freertos5QueueC2Emm,.-_ZN12cpp_freertos5QueueC2Emm
 147              	 .global _ZN12cpp_freertos5QueueC1Emm
 148              	 .thumb_set _ZN12cpp_freertos5QueueC1Emm,_ZN12cpp_freertos5QueueC2Emm
 149              	 .section .text._ZN12cpp_freertos5QueueD2Ev,"ax",%progbits
 150              	 .align 1
 151              	 .global _ZN12cpp_freertos5QueueD2Ev
 152              	 .syntax unified
 153              	 .thumb
 154              	 .thumb_func
 155              	 .type _ZN12cpp_freertos5QueueD2Ev,%function
 156              	_ZN12cpp_freertos5QueueD2Ev:
 157              	.LFB1036:
  35:C:\Users\niels\Documents\GitHub\DSP\software\STM32Basis\HAL\gemeenschappelijk\Third_Party\freertos-addons-1.1.0\c++\Source\cqueue.cpp **** 
  36:C:\Users\niels\Documents\GitHub\DSP\software\STM32Basis\HAL\gemeenschappelijk\Third_Party\freertos-addons-1.1.0\c++\Source\cqueue.cpp **** 
  37:C:\Users\niels\Documents\GitHub\DSP\software\STM32Basis\HAL\gemeenschappelijk\Third_Party\freertos-addons-1.1.0\c++\Source\cqueue.cpp **** Queue::~Queue()
 158              	 .loc 2 37 1
 159              	 .cfi_startproc
 160              	 
 161              	 
 162 0000 80B5     	 push {r7,lr}
 163              	 .cfi_def_cfa_offset 8
 164              	 .cfi_offset 7,-8
 165              	 .cfi_offset 14,-4
 166 0002 82B0     	 sub sp,sp,#8
 167              	 .cfi_def_cfa_offset 16
 168 0004 00AF     	 add r7,sp,#0
ARM GAS   			page 9


 169              	 .cfi_def_cfa_register 7
 170 0006 7860     	 str r0,[r7,#4]
 171              	.LBB3:
 172              	 .loc 2 37 15
 173 0008 064A     	 ldr r2,.L10
 174 000a 7B68     	 ldr r3,[r7,#4]
 175 000c 1A60     	 str r2,[r3]
  38:C:\Users\niels\Documents\GitHub\DSP\software\STM32Basis\HAL\gemeenschappelijk\Third_Party\freertos-addons-1.1.0\c++\Source\cqueue.cpp **** {
  39:C:\Users\niels\Documents\GitHub\DSP\software\STM32Basis\HAL\gemeenschappelijk\Third_Party\freertos-addons-1.1.0\c++\Source\cqueue.cpp ****     vQueueDelete(handle);
 176              	 .loc 2 39 17
 177 000e 7B68     	 ldr r3,[r7,#4]
 178 0010 5B68     	 ldr r3,[r3,#4]
 179 0012 1846     	 mov r0,r3
 180 0014 FFF7FEFF 	 bl vQueueDelete
 181              	.LBE3:
  40:C:\Users\niels\Documents\GitHub\DSP\software\STM32Basis\HAL\gemeenschappelijk\Third_Party\freertos-addons-1.1.0\c++\Source\cqueue.cpp **** }
 182              	 .loc 2 40 1
 183 0018 7B68     	 ldr r3,[r7,#4]
 184 001a 1846     	 mov r0,r3
 185 001c 0837     	 adds r7,r7,#8
 186              	 .cfi_def_cfa_offset 8
 187 001e BD46     	 mov sp,r7
 188              	 .cfi_def_cfa_register 13
 189              	 
 190 0020 80BD     	 pop {r7,pc}
 191              	.L11:
 192 0022 00BF     	 .align 2
 193              	.L10:
 194 0024 08000000 	 .word _ZTVN12cpp_freertos5QueueE+8
 195              	 .cfi_endproc
 196              	.LFE1036:
 197              	 .size _ZN12cpp_freertos5QueueD2Ev,.-_ZN12cpp_freertos5QueueD2Ev
 198              	 .global _ZN12cpp_freertos5QueueD1Ev
 199              	 .thumb_set _ZN12cpp_freertos5QueueD1Ev,_ZN12cpp_freertos5QueueD2Ev
 200              	 .section .text._ZN12cpp_freertos5QueueD0Ev,"ax",%progbits
 201              	 .align 1
 202              	 .global _ZN12cpp_freertos5QueueD0Ev
 203              	 .syntax unified
 204              	 .thumb
 205              	 .thumb_func
 206              	 .type _ZN12cpp_freertos5QueueD0Ev,%function
 207              	_ZN12cpp_freertos5QueueD0Ev:
 208              	.LFB1038:
  37:C:\Users\niels\Documents\GitHub\DSP\software\STM32Basis\HAL\gemeenschappelijk\Third_Party\freertos-addons-1.1.0\c++\Source\cqueue.cpp **** {
 209              	 .loc 2 37 1
 210              	 .cfi_startproc
 211              	 
 212              	 
 213 0000 80B5     	 push {r7,lr}
 214              	 .cfi_def_cfa_offset 8
 215              	 .cfi_offset 7,-8
 216              	 .cfi_offset 14,-4
 217 0002 82B0     	 sub sp,sp,#8
 218              	 .cfi_def_cfa_offset 16
 219 0004 00AF     	 add r7,sp,#0
 220              	 .cfi_def_cfa_register 7
 221 0006 7860     	 str r0,[r7,#4]
ARM GAS   			page 10


 222              	 .loc 2 40 1
 223 0008 7868     	 ldr r0,[r7,#4]
 224 000a FFF7FEFF 	 bl _ZN12cpp_freertos5QueueD1Ev
 225 000e 0821     	 movs r1,#8
 226 0010 7868     	 ldr r0,[r7,#4]
 227 0012 FFF7FEFF 	 bl _ZdlPvj
 228 0016 7B68     	 ldr r3,[r7,#4]
 229 0018 1846     	 mov r0,r3
 230 001a 0837     	 adds r7,r7,#8
 231              	 .cfi_def_cfa_offset 8
 232 001c BD46     	 mov sp,r7
 233              	 .cfi_def_cfa_register 13
 234              	 
 235 001e 80BD     	 pop {r7,pc}
 236              	 .cfi_endproc
 237              	.LFE1038:
 238              	 .size _ZN12cpp_freertos5QueueD0Ev,.-_ZN12cpp_freertos5QueueD0Ev
 239              	 .section .text._ZN12cpp_freertos5Queue7EnqueueEPv,"ax",%progbits
 240              	 .align 1
 241              	 .global _ZN12cpp_freertos5Queue7EnqueueEPv
 242              	 .syntax unified
 243              	 .thumb
 244              	 .thumb_func
 245              	 .type _ZN12cpp_freertos5Queue7EnqueueEPv,%function
 246              	_ZN12cpp_freertos5Queue7EnqueueEPv:
 247              	.LFB1039:
  41:C:\Users\niels\Documents\GitHub\DSP\software\STM32Basis\HAL\gemeenschappelijk\Third_Party\freertos-addons-1.1.0\c++\Source\cqueue.cpp **** 
  42:C:\Users\niels\Documents\GitHub\DSP\software\STM32Basis\HAL\gemeenschappelijk\Third_Party\freertos-addons-1.1.0\c++\Source\cqueue.cpp **** 
  43:C:\Users\niels\Documents\GitHub\DSP\software\STM32Basis\HAL\gemeenschappelijk\Third_Party\freertos-addons-1.1.0\c++\Source\cqueue.cpp **** bool Queue::Enqueue(void *item)
  44:C:\Users\niels\Documents\GitHub\DSP\software\STM32Basis\HAL\gemeenschappelijk\Third_Party\freertos-addons-1.1.0\c++\Source\cqueue.cpp **** {
 248              	 .loc 2 44 1
 249              	 .cfi_startproc
 250              	 
 251              	 
 252 0000 80B5     	 push {r7,lr}
 253              	 .cfi_def_cfa_offset 8
 254              	 .cfi_offset 7,-8
 255              	 .cfi_offset 14,-4
 256 0002 84B0     	 sub sp,sp,#16
 257              	 .cfi_def_cfa_offset 24
 258 0004 00AF     	 add r7,sp,#0
 259              	 .cfi_def_cfa_register 7
 260 0006 7860     	 str r0,[r7,#4]
 261 0008 3960     	 str r1,[r7]
  45:C:\Users\niels\Documents\GitHub\DSP\software\STM32Basis\HAL\gemeenschappelijk\Third_Party\freertos-addons-1.1.0\c++\Source\cqueue.cpp ****     BaseType_t success;
  46:C:\Users\niels\Documents\GitHub\DSP\software\STM32Basis\HAL\gemeenschappelijk\Third_Party\freertos-addons-1.1.0\c++\Source\cqueue.cpp **** 
  47:C:\Users\niels\Documents\GitHub\DSP\software\STM32Basis\HAL\gemeenschappelijk\Third_Party\freertos-addons-1.1.0\c++\Source\cqueue.cpp ****     success = xQueueSendToBack(handle, item, portMAX_DELAY);
 262              	 .loc 2 47 15
 263 000a 7B68     	 ldr r3,[r7,#4]
 264 000c 5868     	 ldr r0,[r3,#4]
 265 000e 0023     	 movs r3,#0
 266 0010 4FF0FF32 	 mov r2,#-1
 267 0014 3968     	 ldr r1,[r7]
 268 0016 FFF7FEFF 	 bl xQueueGenericSend
 269 001a F860     	 str r0,[r7,#12]
  48:C:\Users\niels\Documents\GitHub\DSP\software\STM32Basis\HAL\gemeenschappelijk\Third_Party\freertos-addons-1.1.0\c++\Source\cqueue.cpp **** 
  49:C:\Users\niels\Documents\GitHub\DSP\software\STM32Basis\HAL\gemeenschappelijk\Third_Party\freertos-addons-1.1.0\c++\Source\cqueue.cpp ****     return success == pdTRUE ? true : false;
ARM GAS   			page 11


 270              	 .loc 2 49 39
 271 001c FB68     	 ldr r3,[r7,#12]
 272 001e 012B     	 cmp r3,#1
 273 0020 0CBF     	 ite eq
 274 0022 0123     	 moveq r3,#1
 275 0024 0023     	 movne r3,#0
 276 0026 DBB2     	 uxtb r3,r3
  50:C:\Users\niels\Documents\GitHub\DSP\software\STM32Basis\HAL\gemeenschappelijk\Third_Party\freertos-addons-1.1.0\c++\Source\cqueue.cpp **** }
 277              	 .loc 2 50 1
 278 0028 1846     	 mov r0,r3
 279 002a 1037     	 adds r7,r7,#16
 280              	 .cfi_def_cfa_offset 8
 281 002c BD46     	 mov sp,r7
 282              	 .cfi_def_cfa_register 13
 283              	 
 284 002e 80BD     	 pop {r7,pc}
 285              	 .cfi_endproc
 286              	.LFE1039:
 287              	 .size _ZN12cpp_freertos5Queue7EnqueueEPv,.-_ZN12cpp_freertos5Queue7EnqueueEPv
 288              	 .section .text._ZN12cpp_freertos5Queue7EnqueueEPvm,"ax",%progbits
 289              	 .align 1
 290              	 .global _ZN12cpp_freertos5Queue7EnqueueEPvm
 291              	 .syntax unified
 292              	 .thumb
 293              	 .thumb_func
 294              	 .type _ZN12cpp_freertos5Queue7EnqueueEPvm,%function
 295              	_ZN12cpp_freertos5Queue7EnqueueEPvm:
 296              	.LFB1040:
  51:C:\Users\niels\Documents\GitHub\DSP\software\STM32Basis\HAL\gemeenschappelijk\Third_Party\freertos-addons-1.1.0\c++\Source\cqueue.cpp **** 
  52:C:\Users\niels\Documents\GitHub\DSP\software\STM32Basis\HAL\gemeenschappelijk\Third_Party\freertos-addons-1.1.0\c++\Source\cqueue.cpp **** 
  53:C:\Users\niels\Documents\GitHub\DSP\software\STM32Basis\HAL\gemeenschappelijk\Third_Party\freertos-addons-1.1.0\c++\Source\cqueue.cpp **** bool Queue::Enqueue(void *item, TickType_t Timeout)
  54:C:\Users\niels\Documents\GitHub\DSP\software\STM32Basis\HAL\gemeenschappelijk\Third_Party\freertos-addons-1.1.0\c++\Source\cqueue.cpp **** {
 297              	 .loc 2 54 1
 298              	 .cfi_startproc
 299              	 
 300              	 
 301 0000 80B5     	 push {r7,lr}
 302              	 .cfi_def_cfa_offset 8
 303              	 .cfi_offset 7,-8
 304              	 .cfi_offset 14,-4
 305 0002 86B0     	 sub sp,sp,#24
 306              	 .cfi_def_cfa_offset 32
 307 0004 00AF     	 add r7,sp,#0
 308              	 .cfi_def_cfa_register 7
 309 0006 F860     	 str r0,[r7,#12]
 310 0008 B960     	 str r1,[r7,#8]
 311 000a 7A60     	 str r2,[r7,#4]
  55:C:\Users\niels\Documents\GitHub\DSP\software\STM32Basis\HAL\gemeenschappelijk\Third_Party\freertos-addons-1.1.0\c++\Source\cqueue.cpp ****     BaseType_t success;
  56:C:\Users\niels\Documents\GitHub\DSP\software\STM32Basis\HAL\gemeenschappelijk\Third_Party\freertos-addons-1.1.0\c++\Source\cqueue.cpp **** 
  57:C:\Users\niels\Documents\GitHub\DSP\software\STM32Basis\HAL\gemeenschappelijk\Third_Party\freertos-addons-1.1.0\c++\Source\cqueue.cpp ****     success = xQueueSendToBack(handle, item, Timeout);
 312              	 .loc 2 57 15
 313 000c FB68     	 ldr r3,[r7,#12]
 314 000e 5868     	 ldr r0,[r3,#4]
 315 0010 0023     	 movs r3,#0
 316 0012 7A68     	 ldr r2,[r7,#4]
 317 0014 B968     	 ldr r1,[r7,#8]
 318 0016 FFF7FEFF 	 bl xQueueGenericSend
ARM GAS   			page 12


 319 001a 7861     	 str r0,[r7,#20]
  58:C:\Users\niels\Documents\GitHub\DSP\software\STM32Basis\HAL\gemeenschappelijk\Third_Party\freertos-addons-1.1.0\c++\Source\cqueue.cpp **** 
  59:C:\Users\niels\Documents\GitHub\DSP\software\STM32Basis\HAL\gemeenschappelijk\Third_Party\freertos-addons-1.1.0\c++\Source\cqueue.cpp ****     return success == pdTRUE ? true : false;
 320              	 .loc 2 59 39
 321 001c 7B69     	 ldr r3,[r7,#20]
 322 001e 012B     	 cmp r3,#1
 323 0020 0CBF     	 ite eq
 324 0022 0123     	 moveq r3,#1
 325 0024 0023     	 movne r3,#0
 326 0026 DBB2     	 uxtb r3,r3
  60:C:\Users\niels\Documents\GitHub\DSP\software\STM32Basis\HAL\gemeenschappelijk\Third_Party\freertos-addons-1.1.0\c++\Source\cqueue.cpp **** }
 327              	 .loc 2 60 1
 328 0028 1846     	 mov r0,r3
 329 002a 1837     	 adds r7,r7,#24
 330              	 .cfi_def_cfa_offset 8
 331 002c BD46     	 mov sp,r7
 332              	 .cfi_def_cfa_register 13
 333              	 
 334 002e 80BD     	 pop {r7,pc}
 335              	 .cfi_endproc
 336              	.LFE1040:
 337              	 .size _ZN12cpp_freertos5Queue7EnqueueEPvm,.-_ZN12cpp_freertos5Queue7EnqueueEPvm
 338              	 .section .text._ZN12cpp_freertos5Queue7DequeueEPvm,"ax",%progbits
 339              	 .align 1
 340              	 .global _ZN12cpp_freertos5Queue7DequeueEPvm
 341              	 .syntax unified
 342              	 .thumb
 343              	 .thumb_func
 344              	 .type _ZN12cpp_freertos5Queue7DequeueEPvm,%function
 345              	_ZN12cpp_freertos5Queue7DequeueEPvm:
 346              	.LFB1041:
  61:C:\Users\niels\Documents\GitHub\DSP\software\STM32Basis\HAL\gemeenschappelijk\Third_Party\freertos-addons-1.1.0\c++\Source\cqueue.cpp **** 
  62:C:\Users\niels\Documents\GitHub\DSP\software\STM32Basis\HAL\gemeenschappelijk\Third_Party\freertos-addons-1.1.0\c++\Source\cqueue.cpp **** 
  63:C:\Users\niels\Documents\GitHub\DSP\software\STM32Basis\HAL\gemeenschappelijk\Third_Party\freertos-addons-1.1.0\c++\Source\cqueue.cpp **** bool Queue::Dequeue(void *item, TickType_t Timeout)
  64:C:\Users\niels\Documents\GitHub\DSP\software\STM32Basis\HAL\gemeenschappelijk\Third_Party\freertos-addons-1.1.0\c++\Source\cqueue.cpp **** {
 347              	 .loc 2 64 1
 348              	 .cfi_startproc
 349              	 
 350              	 
 351 0000 80B5     	 push {r7,lr}
 352              	 .cfi_def_cfa_offset 8
 353              	 .cfi_offset 7,-8
 354              	 .cfi_offset 14,-4
 355 0002 86B0     	 sub sp,sp,#24
 356              	 .cfi_def_cfa_offset 32
 357 0004 00AF     	 add r7,sp,#0
 358              	 .cfi_def_cfa_register 7
 359 0006 F860     	 str r0,[r7,#12]
 360 0008 B960     	 str r1,[r7,#8]
 361 000a 7A60     	 str r2,[r7,#4]
  65:C:\Users\niels\Documents\GitHub\DSP\software\STM32Basis\HAL\gemeenschappelijk\Third_Party\freertos-addons-1.1.0\c++\Source\cqueue.cpp ****     BaseType_t success;
  66:C:\Users\niels\Documents\GitHub\DSP\software\STM32Basis\HAL\gemeenschappelijk\Third_Party\freertos-addons-1.1.0\c++\Source\cqueue.cpp **** 
  67:C:\Users\niels\Documents\GitHub\DSP\software\STM32Basis\HAL\gemeenschappelijk\Third_Party\freertos-addons-1.1.0\c++\Source\cqueue.cpp ****     success = xQueueReceive(handle, item, Timeout);
 362              	 .loc 2 67 15
 363 000c FB68     	 ldr r3,[r7,#12]
 364 000e 5868     	 ldr r0,[r3,#4]
 365 0010 0023     	 movs r3,#0
ARM GAS   			page 13


 366 0012 7A68     	 ldr r2,[r7,#4]
 367 0014 B968     	 ldr r1,[r7,#8]
 368 0016 FFF7FEFF 	 bl xQueueGenericReceive
 369 001a 7861     	 str r0,[r7,#20]
  68:C:\Users\niels\Documents\GitHub\DSP\software\STM32Basis\HAL\gemeenschappelijk\Third_Party\freertos-addons-1.1.0\c++\Source\cqueue.cpp **** 
  69:C:\Users\niels\Documents\GitHub\DSP\software\STM32Basis\HAL\gemeenschappelijk\Third_Party\freertos-addons-1.1.0\c++\Source\cqueue.cpp ****     return success == pdTRUE ? true : false;
 370              	 .loc 2 69 39
 371 001c 7B69     	 ldr r3,[r7,#20]
 372 001e 012B     	 cmp r3,#1
 373 0020 0CBF     	 ite eq
 374 0022 0123     	 moveq r3,#1
 375 0024 0023     	 movne r3,#0
 376 0026 DBB2     	 uxtb r3,r3
  70:C:\Users\niels\Documents\GitHub\DSP\software\STM32Basis\HAL\gemeenschappelijk\Third_Party\freertos-addons-1.1.0\c++\Source\cqueue.cpp **** }
 377              	 .loc 2 70 1
 378 0028 1846     	 mov r0,r3
 379 002a 1837     	 adds r7,r7,#24
 380              	 .cfi_def_cfa_offset 8
 381 002c BD46     	 mov sp,r7
 382              	 .cfi_def_cfa_register 13
 383              	 
 384 002e 80BD     	 pop {r7,pc}
 385              	 .cfi_endproc
 386              	.LFE1041:
 387              	 .size _ZN12cpp_freertos5Queue7DequeueEPvm,.-_ZN12cpp_freertos5Queue7DequeueEPvm
 388              	 .section .text._ZN12cpp_freertos5Queue4PeekEPvm,"ax",%progbits
 389              	 .align 1
 390              	 .global _ZN12cpp_freertos5Queue4PeekEPvm
 391              	 .syntax unified
 392              	 .thumb
 393              	 .thumb_func
 394              	 .type _ZN12cpp_freertos5Queue4PeekEPvm,%function
 395              	_ZN12cpp_freertos5Queue4PeekEPvm:
 396              	.LFB1042:
  71:C:\Users\niels\Documents\GitHub\DSP\software\STM32Basis\HAL\gemeenschappelijk\Third_Party\freertos-addons-1.1.0\c++\Source\cqueue.cpp **** 
  72:C:\Users\niels\Documents\GitHub\DSP\software\STM32Basis\HAL\gemeenschappelijk\Third_Party\freertos-addons-1.1.0\c++\Source\cqueue.cpp **** 
  73:C:\Users\niels\Documents\GitHub\DSP\software\STM32Basis\HAL\gemeenschappelijk\Third_Party\freertos-addons-1.1.0\c++\Source\cqueue.cpp **** bool Queue::Peek(void *item, TickType_t Timeout)
  74:C:\Users\niels\Documents\GitHub\DSP\software\STM32Basis\HAL\gemeenschappelijk\Third_Party\freertos-addons-1.1.0\c++\Source\cqueue.cpp **** {
 397              	 .loc 2 74 1
 398              	 .cfi_startproc
 399              	 
 400              	 
 401 0000 80B5     	 push {r7,lr}
 402              	 .cfi_def_cfa_offset 8
 403              	 .cfi_offset 7,-8
 404              	 .cfi_offset 14,-4
 405 0002 86B0     	 sub sp,sp,#24
 406              	 .cfi_def_cfa_offset 32
 407 0004 00AF     	 add r7,sp,#0
 408              	 .cfi_def_cfa_register 7
 409 0006 F860     	 str r0,[r7,#12]
 410 0008 B960     	 str r1,[r7,#8]
 411 000a 7A60     	 str r2,[r7,#4]
  75:C:\Users\niels\Documents\GitHub\DSP\software\STM32Basis\HAL\gemeenschappelijk\Third_Party\freertos-addons-1.1.0\c++\Source\cqueue.cpp ****     BaseType_t success;
  76:C:\Users\niels\Documents\GitHub\DSP\software\STM32Basis\HAL\gemeenschappelijk\Third_Party\freertos-addons-1.1.0\c++\Source\cqueue.cpp **** 
  77:C:\Users\niels\Documents\GitHub\DSP\software\STM32Basis\HAL\gemeenschappelijk\Third_Party\freertos-addons-1.1.0\c++\Source\cqueue.cpp ****     success = xQueuePeek(handle, item, Timeout);
 412              	 .loc 2 77 15
ARM GAS   			page 14


 413 000c FB68     	 ldr r3,[r7,#12]
 414 000e 5868     	 ldr r0,[r3,#4]
 415 0010 0123     	 movs r3,#1
 416 0012 7A68     	 ldr r2,[r7,#4]
 417 0014 B968     	 ldr r1,[r7,#8]
 418 0016 FFF7FEFF 	 bl xQueueGenericReceive
 419 001a 7861     	 str r0,[r7,#20]
  78:C:\Users\niels\Documents\GitHub\DSP\software\STM32Basis\HAL\gemeenschappelijk\Third_Party\freertos-addons-1.1.0\c++\Source\cqueue.cpp **** 
  79:C:\Users\niels\Documents\GitHub\DSP\software\STM32Basis\HAL\gemeenschappelijk\Third_Party\freertos-addons-1.1.0\c++\Source\cqueue.cpp ****     return success == pdTRUE ? true : false;
 420              	 .loc 2 79 39
 421 001c 7B69     	 ldr r3,[r7,#20]
 422 001e 012B     	 cmp r3,#1
 423 0020 0CBF     	 ite eq
 424 0022 0123     	 moveq r3,#1
 425 0024 0023     	 movne r3,#0
 426 0026 DBB2     	 uxtb r3,r3
  80:C:\Users\niels\Documents\GitHub\DSP\software\STM32Basis\HAL\gemeenschappelijk\Third_Party\freertos-addons-1.1.0\c++\Source\cqueue.cpp **** }
 427              	 .loc 2 80 1
 428 0028 1846     	 mov r0,r3
 429 002a 1837     	 adds r7,r7,#24
 430              	 .cfi_def_cfa_offset 8
 431 002c BD46     	 mov sp,r7
 432              	 .cfi_def_cfa_register 13
 433              	 
 434 002e 80BD     	 pop {r7,pc}
 435              	 .cfi_endproc
 436              	.LFE1042:
 437              	 .size _ZN12cpp_freertos5Queue4PeekEPvm,.-_ZN12cpp_freertos5Queue4PeekEPvm
 438              	 .section .text._ZN12cpp_freertos5Queue14EnqueueFromISREPvPl,"ax",%progbits
 439              	 .align 1
 440              	 .global _ZN12cpp_freertos5Queue14EnqueueFromISREPvPl
 441              	 .syntax unified
 442              	 .thumb
 443              	 .thumb_func
 444              	 .type _ZN12cpp_freertos5Queue14EnqueueFromISREPvPl,%function
 445              	_ZN12cpp_freertos5Queue14EnqueueFromISREPvPl:
 446              	.LFB1043:
  81:C:\Users\niels\Documents\GitHub\DSP\software\STM32Basis\HAL\gemeenschappelijk\Third_Party\freertos-addons-1.1.0\c++\Source\cqueue.cpp **** 
  82:C:\Users\niels\Documents\GitHub\DSP\software\STM32Basis\HAL\gemeenschappelijk\Third_Party\freertos-addons-1.1.0\c++\Source\cqueue.cpp **** 
  83:C:\Users\niels\Documents\GitHub\DSP\software\STM32Basis\HAL\gemeenschappelijk\Third_Party\freertos-addons-1.1.0\c++\Source\cqueue.cpp **** bool Queue::EnqueueFromISR(void *item, BaseType_t *pxHigherPriorityTaskWoken)
  84:C:\Users\niels\Documents\GitHub\DSP\software\STM32Basis\HAL\gemeenschappelijk\Third_Party\freertos-addons-1.1.0\c++\Source\cqueue.cpp **** {
 447              	 .loc 2 84 1
 448              	 .cfi_startproc
 449              	 
 450              	 
 451 0000 80B5     	 push {r7,lr}
 452              	 .cfi_def_cfa_offset 8
 453              	 .cfi_offset 7,-8
 454              	 .cfi_offset 14,-4
 455 0002 86B0     	 sub sp,sp,#24
 456              	 .cfi_def_cfa_offset 32
 457 0004 00AF     	 add r7,sp,#0
 458              	 .cfi_def_cfa_register 7
 459 0006 F860     	 str r0,[r7,#12]
 460 0008 B960     	 str r1,[r7,#8]
 461 000a 7A60     	 str r2,[r7,#4]
  85:C:\Users\niels\Documents\GitHub\DSP\software\STM32Basis\HAL\gemeenschappelijk\Third_Party\freertos-addons-1.1.0\c++\Source\cqueue.cpp ****     BaseType_t success;
ARM GAS   			page 15


  86:C:\Users\niels\Documents\GitHub\DSP\software\STM32Basis\HAL\gemeenschappelijk\Third_Party\freertos-addons-1.1.0\c++\Source\cqueue.cpp **** 
  87:C:\Users\niels\Documents\GitHub\DSP\software\STM32Basis\HAL\gemeenschappelijk\Third_Party\freertos-addons-1.1.0\c++\Source\cqueue.cpp ****     success = xQueueSendToBackFromISR(handle, item, pxHigherPriorityTaskWoken);
 462              	 .loc 2 87 15
 463 000c FB68     	 ldr r3,[r7,#12]
 464 000e 5868     	 ldr r0,[r3,#4]
 465 0010 0023     	 movs r3,#0
 466 0012 7A68     	 ldr r2,[r7,#4]
 467 0014 B968     	 ldr r1,[r7,#8]
 468 0016 FFF7FEFF 	 bl xQueueGenericSendFromISR
 469 001a 7861     	 str r0,[r7,#20]
  88:C:\Users\niels\Documents\GitHub\DSP\software\STM32Basis\HAL\gemeenschappelijk\Third_Party\freertos-addons-1.1.0\c++\Source\cqueue.cpp **** 
  89:C:\Users\niels\Documents\GitHub\DSP\software\STM32Basis\HAL\gemeenschappelijk\Third_Party\freertos-addons-1.1.0\c++\Source\cqueue.cpp ****     return success == pdTRUE ? true : false;
 470              	 .loc 2 89 39
 471 001c 7B69     	 ldr r3,[r7,#20]
 472 001e 012B     	 cmp r3,#1
 473 0020 0CBF     	 ite eq
 474 0022 0123     	 moveq r3,#1
 475 0024 0023     	 movne r3,#0
 476 0026 DBB2     	 uxtb r3,r3
  90:C:\Users\niels\Documents\GitHub\DSP\software\STM32Basis\HAL\gemeenschappelijk\Third_Party\freertos-addons-1.1.0\c++\Source\cqueue.cpp **** }
 477              	 .loc 2 90 1
 478 0028 1846     	 mov r0,r3
 479 002a 1837     	 adds r7,r7,#24
 480              	 .cfi_def_cfa_offset 8
 481 002c BD46     	 mov sp,r7
 482              	 .cfi_def_cfa_register 13
 483              	 
 484 002e 80BD     	 pop {r7,pc}
 485              	 .cfi_endproc
 486              	.LFE1043:
 487              	 .size _ZN12cpp_freertos5Queue14EnqueueFromISREPvPl,.-_ZN12cpp_freertos5Queue14EnqueueFromISREPvPl
 488              	 .section .text._ZN12cpp_freertos5Queue14DequeueFromISREPvPl,"ax",%progbits
 489              	 .align 1
 490              	 .global _ZN12cpp_freertos5Queue14DequeueFromISREPvPl
 491              	 .syntax unified
 492              	 .thumb
 493              	 .thumb_func
 494              	 .type _ZN12cpp_freertos5Queue14DequeueFromISREPvPl,%function
 495              	_ZN12cpp_freertos5Queue14DequeueFromISREPvPl:
 496              	.LFB1044:
  91:C:\Users\niels\Documents\GitHub\DSP\software\STM32Basis\HAL\gemeenschappelijk\Third_Party\freertos-addons-1.1.0\c++\Source\cqueue.cpp **** 
  92:C:\Users\niels\Documents\GitHub\DSP\software\STM32Basis\HAL\gemeenschappelijk\Third_Party\freertos-addons-1.1.0\c++\Source\cqueue.cpp **** 
  93:C:\Users\niels\Documents\GitHub\DSP\software\STM32Basis\HAL\gemeenschappelijk\Third_Party\freertos-addons-1.1.0\c++\Source\cqueue.cpp **** bool Queue::DequeueFromISR(void *item, BaseType_t *pxHigherPriorityTaskWoken)
  94:C:\Users\niels\Documents\GitHub\DSP\software\STM32Basis\HAL\gemeenschappelijk\Third_Party\freertos-addons-1.1.0\c++\Source\cqueue.cpp **** {
 497              	 .loc 2 94 1
 498              	 .cfi_startproc
 499              	 
 500              	 
 501 0000 80B5     	 push {r7,lr}
 502              	 .cfi_def_cfa_offset 8
 503              	 .cfi_offset 7,-8
 504              	 .cfi_offset 14,-4
 505 0002 86B0     	 sub sp,sp,#24
 506              	 .cfi_def_cfa_offset 32
 507 0004 00AF     	 add r7,sp,#0
 508              	 .cfi_def_cfa_register 7
 509 0006 F860     	 str r0,[r7,#12]
ARM GAS   			page 16


 510 0008 B960     	 str r1,[r7,#8]
 511 000a 7A60     	 str r2,[r7,#4]
  95:C:\Users\niels\Documents\GitHub\DSP\software\STM32Basis\HAL\gemeenschappelijk\Third_Party\freertos-addons-1.1.0\c++\Source\cqueue.cpp ****     BaseType_t success;
  96:C:\Users\niels\Documents\GitHub\DSP\software\STM32Basis\HAL\gemeenschappelijk\Third_Party\freertos-addons-1.1.0\c++\Source\cqueue.cpp **** 
  97:C:\Users\niels\Documents\GitHub\DSP\software\STM32Basis\HAL\gemeenschappelijk\Third_Party\freertos-addons-1.1.0\c++\Source\cqueue.cpp ****     success = xQueueReceiveFromISR(handle, item, pxHigherPriorityTaskWoken);
 512              	 .loc 2 97 35
 513 000c FB68     	 ldr r3,[r7,#12]
 514 000e 5B68     	 ldr r3,[r3,#4]
 515 0010 7A68     	 ldr r2,[r7,#4]
 516 0012 B968     	 ldr r1,[r7,#8]
 517 0014 1846     	 mov r0,r3
 518 0016 FFF7FEFF 	 bl xQueueReceiveFromISR
 519 001a 7861     	 str r0,[r7,#20]
  98:C:\Users\niels\Documents\GitHub\DSP\software\STM32Basis\HAL\gemeenschappelijk\Third_Party\freertos-addons-1.1.0\c++\Source\cqueue.cpp **** 
  99:C:\Users\niels\Documents\GitHub\DSP\software\STM32Basis\HAL\gemeenschappelijk\Third_Party\freertos-addons-1.1.0\c++\Source\cqueue.cpp ****     return success == pdTRUE ? true : false;
 520              	 .loc 2 99 39
 521 001c 7B69     	 ldr r3,[r7,#20]
 522 001e 012B     	 cmp r3,#1
 523 0020 0CBF     	 ite eq
 524 0022 0123     	 moveq r3,#1
 525 0024 0023     	 movne r3,#0
 526 0026 DBB2     	 uxtb r3,r3
 100:C:\Users\niels\Documents\GitHub\DSP\software\STM32Basis\HAL\gemeenschappelijk\Third_Party\freertos-addons-1.1.0\c++\Source\cqueue.cpp **** }
 527              	 .loc 2 100 1
 528 0028 1846     	 mov r0,r3
 529 002a 1837     	 adds r7,r7,#24
 530              	 .cfi_def_cfa_offset 8
 531 002c BD46     	 mov sp,r7
 532              	 .cfi_def_cfa_register 13
 533              	 
 534 002e 80BD     	 pop {r7,pc}
 535              	 .cfi_endproc
 536              	.LFE1044:
 537              	 .size _ZN12cpp_freertos5Queue14DequeueFromISREPvPl,.-_ZN12cpp_freertos5Queue14DequeueFromISREPvPl
 538              	 .section .text._ZN12cpp_freertos5Queue11PeekFromISREPv,"ax",%progbits
 539              	 .align 1
 540              	 .global _ZN12cpp_freertos5Queue11PeekFromISREPv
 541              	 .syntax unified
 542              	 .thumb
 543              	 .thumb_func
 544              	 .type _ZN12cpp_freertos5Queue11PeekFromISREPv,%function
 545              	_ZN12cpp_freertos5Queue11PeekFromISREPv:
 546              	.LFB1045:
 101:C:\Users\niels\Documents\GitHub\DSP\software\STM32Basis\HAL\gemeenschappelijk\Third_Party\freertos-addons-1.1.0\c++\Source\cqueue.cpp **** 
 102:C:\Users\niels\Documents\GitHub\DSP\software\STM32Basis\HAL\gemeenschappelijk\Third_Party\freertos-addons-1.1.0\c++\Source\cqueue.cpp **** 
 103:C:\Users\niels\Documents\GitHub\DSP\software\STM32Basis\HAL\gemeenschappelijk\Third_Party\freertos-addons-1.1.0\c++\Source\cqueue.cpp **** bool Queue::PeekFromISR(void *item)
 104:C:\Users\niels\Documents\GitHub\DSP\software\STM32Basis\HAL\gemeenschappelijk\Third_Party\freertos-addons-1.1.0\c++\Source\cqueue.cpp **** {
 547              	 .loc 2 104 1
 548              	 .cfi_startproc
 549              	 
 550              	 
 551 0000 80B5     	 push {r7,lr}
 552              	 .cfi_def_cfa_offset 8
 553              	 .cfi_offset 7,-8
 554              	 .cfi_offset 14,-4
 555 0002 84B0     	 sub sp,sp,#16
 556              	 .cfi_def_cfa_offset 24
ARM GAS   			page 17


 557 0004 00AF     	 add r7,sp,#0
 558              	 .cfi_def_cfa_register 7
 559 0006 7860     	 str r0,[r7,#4]
 560 0008 3960     	 str r1,[r7]
 105:C:\Users\niels\Documents\GitHub\DSP\software\STM32Basis\HAL\gemeenschappelijk\Third_Party\freertos-addons-1.1.0\c++\Source\cqueue.cpp ****     BaseType_t success;
 106:C:\Users\niels\Documents\GitHub\DSP\software\STM32Basis\HAL\gemeenschappelijk\Third_Party\freertos-addons-1.1.0\c++\Source\cqueue.cpp **** 
 107:C:\Users\niels\Documents\GitHub\DSP\software\STM32Basis\HAL\gemeenschappelijk\Third_Party\freertos-addons-1.1.0\c++\Source\cqueue.cpp ****     success = xQueuePeekFromISR(handle, item);
 561              	 .loc 2 107 32
 562 000a 7B68     	 ldr r3,[r7,#4]
 563 000c 5B68     	 ldr r3,[r3,#4]
 564 000e 3968     	 ldr r1,[r7]
 565 0010 1846     	 mov r0,r3
 566 0012 FFF7FEFF 	 bl xQueuePeekFromISR
 567 0016 F860     	 str r0,[r7,#12]
 108:C:\Users\niels\Documents\GitHub\DSP\software\STM32Basis\HAL\gemeenschappelijk\Third_Party\freertos-addons-1.1.0\c++\Source\cqueue.cpp **** 
 109:C:\Users\niels\Documents\GitHub\DSP\software\STM32Basis\HAL\gemeenschappelijk\Third_Party\freertos-addons-1.1.0\c++\Source\cqueue.cpp ****     return success == pdTRUE ? true : false;
 568              	 .loc 2 109 39
 569 0018 FB68     	 ldr r3,[r7,#12]
 570 001a 012B     	 cmp r3,#1
 571 001c 0CBF     	 ite eq
 572 001e 0123     	 moveq r3,#1
 573 0020 0023     	 movne r3,#0
 574 0022 DBB2     	 uxtb r3,r3
 110:C:\Users\niels\Documents\GitHub\DSP\software\STM32Basis\HAL\gemeenschappelijk\Third_Party\freertos-addons-1.1.0\c++\Source\cqueue.cpp **** }
 575              	 .loc 2 110 1
 576 0024 1846     	 mov r0,r3
 577 0026 1037     	 adds r7,r7,#16
 578              	 .cfi_def_cfa_offset 8
 579 0028 BD46     	 mov sp,r7
 580              	 .cfi_def_cfa_register 13
 581              	 
 582 002a 80BD     	 pop {r7,pc}
 583              	 .cfi_endproc
 584              	.LFE1045:
 585              	 .size _ZN12cpp_freertos5Queue11PeekFromISREPv,.-_ZN12cpp_freertos5Queue11PeekFromISREPv
 586              	 .section .text._ZN12cpp_freertos5Queue7IsEmptyEv,"ax",%progbits
 587              	 .align 1
 588              	 .global _ZN12cpp_freertos5Queue7IsEmptyEv
 589              	 .syntax unified
 590              	 .thumb
 591              	 .thumb_func
 592              	 .type _ZN12cpp_freertos5Queue7IsEmptyEv,%function
 593              	_ZN12cpp_freertos5Queue7IsEmptyEv:
 594              	.LFB1046:
 111:C:\Users\niels\Documents\GitHub\DSP\software\STM32Basis\HAL\gemeenschappelijk\Third_Party\freertos-addons-1.1.0\c++\Source\cqueue.cpp **** 
 112:C:\Users\niels\Documents\GitHub\DSP\software\STM32Basis\HAL\gemeenschappelijk\Third_Party\freertos-addons-1.1.0\c++\Source\cqueue.cpp **** 
 113:C:\Users\niels\Documents\GitHub\DSP\software\STM32Basis\HAL\gemeenschappelijk\Third_Party\freertos-addons-1.1.0\c++\Source\cqueue.cpp **** bool Queue::IsEmpty()
 114:C:\Users\niels\Documents\GitHub\DSP\software\STM32Basis\HAL\gemeenschappelijk\Third_Party\freertos-addons-1.1.0\c++\Source\cqueue.cpp **** {
 595              	 .loc 2 114 1
 596              	 .cfi_startproc
 597              	 
 598              	 
 599 0000 80B5     	 push {r7,lr}
 600              	 .cfi_def_cfa_offset 8
 601              	 .cfi_offset 7,-8
 602              	 .cfi_offset 14,-4
 603 0002 84B0     	 sub sp,sp,#16
ARM GAS   			page 18


 604              	 .cfi_def_cfa_offset 24
 605 0004 00AF     	 add r7,sp,#0
 606              	 .cfi_def_cfa_register 7
 607 0006 7860     	 str r0,[r7,#4]
 115:C:\Users\niels\Documents\GitHub\DSP\software\STM32Basis\HAL\gemeenschappelijk\Third_Party\freertos-addons-1.1.0\c++\Source\cqueue.cpp ****     UBaseType_t cnt = uxQueueMessagesWaiting(handle);
 608              	 .loc 2 115 45
 609 0008 7B68     	 ldr r3,[r7,#4]
 610 000a 5B68     	 ldr r3,[r3,#4]
 611 000c 1846     	 mov r0,r3
 612 000e FFF7FEFF 	 bl uxQueueMessagesWaiting
 613 0012 F860     	 str r0,[r7,#12]
 116:C:\Users\niels\Documents\GitHub\DSP\software\STM32Basis\HAL\gemeenschappelijk\Third_Party\freertos-addons-1.1.0\c++\Source\cqueue.cpp **** 
 117:C:\Users\niels\Documents\GitHub\DSP\software\STM32Basis\HAL\gemeenschappelijk\Third_Party\freertos-addons-1.1.0\c++\Source\cqueue.cpp ****     return cnt == 0 ? true : false;
 614              	 .loc 2 117 30
 615 0014 FB68     	 ldr r3,[r7,#12]
 616 0016 002B     	 cmp r3,#0
 617 0018 0CBF     	 ite eq
 618 001a 0123     	 moveq r3,#1
 619 001c 0023     	 movne r3,#0
 620 001e DBB2     	 uxtb r3,r3
 118:C:\Users\niels\Documents\GitHub\DSP\software\STM32Basis\HAL\gemeenschappelijk\Third_Party\freertos-addons-1.1.0\c++\Source\cqueue.cpp **** }
 621              	 .loc 2 118 1
 622 0020 1846     	 mov r0,r3
 623 0022 1037     	 adds r7,r7,#16
 624              	 .cfi_def_cfa_offset 8
 625 0024 BD46     	 mov sp,r7
 626              	 .cfi_def_cfa_register 13
 627              	 
 628 0026 80BD     	 pop {r7,pc}
 629              	 .cfi_endproc
 630              	.LFE1046:
 631              	 .size _ZN12cpp_freertos5Queue7IsEmptyEv,.-_ZN12cpp_freertos5Queue7IsEmptyEv
 632              	 .section .text._ZN12cpp_freertos5Queue6IsFullEv,"ax",%progbits
 633              	 .align 1
 634              	 .global _ZN12cpp_freertos5Queue6IsFullEv
 635              	 .syntax unified
 636              	 .thumb
 637              	 .thumb_func
 638              	 .type _ZN12cpp_freertos5Queue6IsFullEv,%function
 639              	_ZN12cpp_freertos5Queue6IsFullEv:
 640              	.LFB1047:
 119:C:\Users\niels\Documents\GitHub\DSP\software\STM32Basis\HAL\gemeenschappelijk\Third_Party\freertos-addons-1.1.0\c++\Source\cqueue.cpp **** 
 120:C:\Users\niels\Documents\GitHub\DSP\software\STM32Basis\HAL\gemeenschappelijk\Third_Party\freertos-addons-1.1.0\c++\Source\cqueue.cpp **** 
 121:C:\Users\niels\Documents\GitHub\DSP\software\STM32Basis\HAL\gemeenschappelijk\Third_Party\freertos-addons-1.1.0\c++\Source\cqueue.cpp **** bool Queue::IsFull()
 122:C:\Users\niels\Documents\GitHub\DSP\software\STM32Basis\HAL\gemeenschappelijk\Third_Party\freertos-addons-1.1.0\c++\Source\cqueue.cpp **** {
 641              	 .loc 2 122 1
 642              	 .cfi_startproc
 643              	 
 644              	 
 645 0000 80B5     	 push {r7,lr}
 646              	 .cfi_def_cfa_offset 8
 647              	 .cfi_offset 7,-8
 648              	 .cfi_offset 14,-4
 649 0002 84B0     	 sub sp,sp,#16
 650              	 .cfi_def_cfa_offset 24
 651 0004 00AF     	 add r7,sp,#0
 652              	 .cfi_def_cfa_register 7
ARM GAS   			page 19


 653 0006 7860     	 str r0,[r7,#4]
 123:C:\Users\niels\Documents\GitHub\DSP\software\STM32Basis\HAL\gemeenschappelijk\Third_Party\freertos-addons-1.1.0\c++\Source\cqueue.cpp ****     UBaseType_t cnt = uxQueueSpacesAvailable(handle);
 654              	 .loc 2 123 45
 655 0008 7B68     	 ldr r3,[r7,#4]
 656 000a 5B68     	 ldr r3,[r3,#4]
 657 000c 1846     	 mov r0,r3
 658 000e FFF7FEFF 	 bl uxQueueSpacesAvailable
 659 0012 F860     	 str r0,[r7,#12]
 124:C:\Users\niels\Documents\GitHub\DSP\software\STM32Basis\HAL\gemeenschappelijk\Third_Party\freertos-addons-1.1.0\c++\Source\cqueue.cpp **** 
 125:C:\Users\niels\Documents\GitHub\DSP\software\STM32Basis\HAL\gemeenschappelijk\Third_Party\freertos-addons-1.1.0\c++\Source\cqueue.cpp ****     return cnt == 0 ? true : false;
 660              	 .loc 2 125 30
 661 0014 FB68     	 ldr r3,[r7,#12]
 662 0016 002B     	 cmp r3,#0
 663 0018 0CBF     	 ite eq
 664 001a 0123     	 moveq r3,#1
 665 001c 0023     	 movne r3,#0
 666 001e DBB2     	 uxtb r3,r3
 126:C:\Users\niels\Documents\GitHub\DSP\software\STM32Basis\HAL\gemeenschappelijk\Third_Party\freertos-addons-1.1.0\c++\Source\cqueue.cpp **** }
 667              	 .loc 2 126 1
 668 0020 1846     	 mov r0,r3
 669 0022 1037     	 adds r7,r7,#16
 670              	 .cfi_def_cfa_offset 8
 671 0024 BD46     	 mov sp,r7
 672              	 .cfi_def_cfa_register 13
 673              	 
 674 0026 80BD     	 pop {r7,pc}
 675              	 .cfi_endproc
 676              	.LFE1047:
 677              	 .size _ZN12cpp_freertos5Queue6IsFullEv,.-_ZN12cpp_freertos5Queue6IsFullEv
 678              	 .section .text._ZN12cpp_freertos5Queue5FlushEv,"ax",%progbits
 679              	 .align 1
 680              	 .global _ZN12cpp_freertos5Queue5FlushEv
 681              	 .syntax unified
 682              	 .thumb
 683              	 .thumb_func
 684              	 .type _ZN12cpp_freertos5Queue5FlushEv,%function
 685              	_ZN12cpp_freertos5Queue5FlushEv:
 686              	.LFB1048:
 127:C:\Users\niels\Documents\GitHub\DSP\software\STM32Basis\HAL\gemeenschappelijk\Third_Party\freertos-addons-1.1.0\c++\Source\cqueue.cpp **** 
 128:C:\Users\niels\Documents\GitHub\DSP\software\STM32Basis\HAL\gemeenschappelijk\Third_Party\freertos-addons-1.1.0\c++\Source\cqueue.cpp **** 
 129:C:\Users\niels\Documents\GitHub\DSP\software\STM32Basis\HAL\gemeenschappelijk\Third_Party\freertos-addons-1.1.0\c++\Source\cqueue.cpp **** void Queue::Flush()
 130:C:\Users\niels\Documents\GitHub\DSP\software\STM32Basis\HAL\gemeenschappelijk\Third_Party\freertos-addons-1.1.0\c++\Source\cqueue.cpp **** {
 687              	 .loc 2 130 1
 688              	 .cfi_startproc
 689              	 
 690              	 
 691 0000 80B5     	 push {r7,lr}
 692              	 .cfi_def_cfa_offset 8
 693              	 .cfi_offset 7,-8
 694              	 .cfi_offset 14,-4
 695 0002 82B0     	 sub sp,sp,#8
 696              	 .cfi_def_cfa_offset 16
 697 0004 00AF     	 add r7,sp,#0
 698              	 .cfi_def_cfa_register 7
 699 0006 7860     	 str r0,[r7,#4]
 131:C:\Users\niels\Documents\GitHub\DSP\software\STM32Basis\HAL\gemeenschappelijk\Third_Party\freertos-addons-1.1.0\c++\Source\cqueue.cpp ****     xQueueReset(handle);
 700              	 .loc 2 131 5
ARM GAS   			page 20


 701 0008 7B68     	 ldr r3,[r7,#4]
 702 000a 5B68     	 ldr r3,[r3,#4]
 703 000c 0021     	 movs r1,#0
 704 000e 1846     	 mov r0,r3
 705 0010 FFF7FEFF 	 bl xQueueGenericReset
 132:C:\Users\niels\Documents\GitHub\DSP\software\STM32Basis\HAL\gemeenschappelijk\Third_Party\freertos-addons-1.1.0\c++\Source\cqueue.cpp **** }
 706              	 .loc 2 132 1
 707 0014 00BF     	 nop
 708 0016 0837     	 adds r7,r7,#8
 709              	 .cfi_def_cfa_offset 8
 710 0018 BD46     	 mov sp,r7
 711              	 .cfi_def_cfa_register 13
 712              	 
 713 001a 80BD     	 pop {r7,pc}
 714              	 .cfi_endproc
 715              	.LFE1048:
 716              	 .size _ZN12cpp_freertos5Queue5FlushEv,.-_ZN12cpp_freertos5Queue5FlushEv
 717              	 .section .text._ZN12cpp_freertos5Queue8NumItemsEv,"ax",%progbits
 718              	 .align 1
 719              	 .global _ZN12cpp_freertos5Queue8NumItemsEv
 720              	 .syntax unified
 721              	 .thumb
 722              	 .thumb_func
 723              	 .type _ZN12cpp_freertos5Queue8NumItemsEv,%function
 724              	_ZN12cpp_freertos5Queue8NumItemsEv:
 725              	.LFB1049:
 133:C:\Users\niels\Documents\GitHub\DSP\software\STM32Basis\HAL\gemeenschappelijk\Third_Party\freertos-addons-1.1.0\c++\Source\cqueue.cpp **** 
 134:C:\Users\niels\Documents\GitHub\DSP\software\STM32Basis\HAL\gemeenschappelijk\Third_Party\freertos-addons-1.1.0\c++\Source\cqueue.cpp **** 
 135:C:\Users\niels\Documents\GitHub\DSP\software\STM32Basis\HAL\gemeenschappelijk\Third_Party\freertos-addons-1.1.0\c++\Source\cqueue.cpp **** UBaseType_t Queue::NumItems()
 136:C:\Users\niels\Documents\GitHub\DSP\software\STM32Basis\HAL\gemeenschappelijk\Third_Party\freertos-addons-1.1.0\c++\Source\cqueue.cpp **** {
 726              	 .loc 2 136 1
 727              	 .cfi_startproc
 728              	 
 729              	 
 730 0000 80B5     	 push {r7,lr}
 731              	 .cfi_def_cfa_offset 8
 732              	 .cfi_offset 7,-8
 733              	 .cfi_offset 14,-4
 734 0002 82B0     	 sub sp,sp,#8
 735              	 .cfi_def_cfa_offset 16
 736 0004 00AF     	 add r7,sp,#0
 737              	 .cfi_def_cfa_register 7
 738 0006 7860     	 str r0,[r7,#4]
 137:C:\Users\niels\Documents\GitHub\DSP\software\STM32Basis\HAL\gemeenschappelijk\Third_Party\freertos-addons-1.1.0\c++\Source\cqueue.cpp ****     return uxQueueMessagesWaiting(handle);
 739              	 .loc 2 137 34
 740 0008 7B68     	 ldr r3,[r7,#4]
 741 000a 5B68     	 ldr r3,[r3,#4]
 742 000c 1846     	 mov r0,r3
 743 000e FFF7FEFF 	 bl uxQueueMessagesWaiting
 744 0012 0346     	 mov r3,r0
 138:C:\Users\niels\Documents\GitHub\DSP\software\STM32Basis\HAL\gemeenschappelijk\Third_Party\freertos-addons-1.1.0\c++\Source\cqueue.cpp **** }
 745              	 .loc 2 138 1
 746 0014 1846     	 mov r0,r3
 747 0016 0837     	 adds r7,r7,#8
 748              	 .cfi_def_cfa_offset 8
 749 0018 BD46     	 mov sp,r7
 750              	 .cfi_def_cfa_register 13
ARM GAS   			page 21


 751              	 
 752 001a 80BD     	 pop {r7,pc}
 753              	 .cfi_endproc
 754              	.LFE1049:
 755              	 .size _ZN12cpp_freertos5Queue8NumItemsEv,.-_ZN12cpp_freertos5Queue8NumItemsEv
 756              	 .section .text._ZN12cpp_freertos5Queue13NumSpacesLeftEv,"ax",%progbits
 757              	 .align 1
 758              	 .global _ZN12cpp_freertos5Queue13NumSpacesLeftEv
 759              	 .syntax unified
 760              	 .thumb
 761              	 .thumb_func
 762              	 .type _ZN12cpp_freertos5Queue13NumSpacesLeftEv,%function
 763              	_ZN12cpp_freertos5Queue13NumSpacesLeftEv:
 764              	.LFB1050:
 139:C:\Users\niels\Documents\GitHub\DSP\software\STM32Basis\HAL\gemeenschappelijk\Third_Party\freertos-addons-1.1.0\c++\Source\cqueue.cpp **** 
 140:C:\Users\niels\Documents\GitHub\DSP\software\STM32Basis\HAL\gemeenschappelijk\Third_Party\freertos-addons-1.1.0\c++\Source\cqueue.cpp **** 
 141:C:\Users\niels\Documents\GitHub\DSP\software\STM32Basis\HAL\gemeenschappelijk\Third_Party\freertos-addons-1.1.0\c++\Source\cqueue.cpp **** UBaseType_t Queue::NumSpacesLeft()
 142:C:\Users\niels\Documents\GitHub\DSP\software\STM32Basis\HAL\gemeenschappelijk\Third_Party\freertos-addons-1.1.0\c++\Source\cqueue.cpp **** {
 765              	 .loc 2 142 1
 766              	 .cfi_startproc
 767              	 
 768              	 
 769 0000 80B5     	 push {r7,lr}
 770              	 .cfi_def_cfa_offset 8
 771              	 .cfi_offset 7,-8
 772              	 .cfi_offset 14,-4
 773 0002 82B0     	 sub sp,sp,#8
 774              	 .cfi_def_cfa_offset 16
 775 0004 00AF     	 add r7,sp,#0
 776              	 .cfi_def_cfa_register 7
 777 0006 7860     	 str r0,[r7,#4]
 143:C:\Users\niels\Documents\GitHub\DSP\software\STM32Basis\HAL\gemeenschappelijk\Third_Party\freertos-addons-1.1.0\c++\Source\cqueue.cpp ****     return uxQueueSpacesAvailable(handle);
 778              	 .loc 2 143 34
 779 0008 7B68     	 ldr r3,[r7,#4]
 780 000a 5B68     	 ldr r3,[r3,#4]
 781 000c 1846     	 mov r0,r3
 782 000e FFF7FEFF 	 bl uxQueueSpacesAvailable
 783 0012 0346     	 mov r3,r0
 144:C:\Users\niels\Documents\GitHub\DSP\software\STM32Basis\HAL\gemeenschappelijk\Third_Party\freertos-addons-1.1.0\c++\Source\cqueue.cpp **** }
 784              	 .loc 2 144 1
 785 0014 1846     	 mov r0,r3
 786 0016 0837     	 adds r7,r7,#8
 787              	 .cfi_def_cfa_offset 8
 788 0018 BD46     	 mov sp,r7
 789              	 .cfi_def_cfa_register 13
 790              	 
 791 001a 80BD     	 pop {r7,pc}
 792              	 .cfi_endproc
 793              	.LFE1050:
 794              	 .size _ZN12cpp_freertos5Queue13NumSpacesLeftEv,.-_ZN12cpp_freertos5Queue13NumSpacesLeftEv
 795              	 .section .text._ZN12cpp_freertos5DequeC2Emm,"ax",%progbits
 796              	 .align 1
 797              	 .global _ZN12cpp_freertos5DequeC2Emm
 798              	 .syntax unified
 799              	 .thumb
 800              	 .thumb_func
 801              	 .type _ZN12cpp_freertos5DequeC2Emm,%function
ARM GAS   			page 22


 802              	_ZN12cpp_freertos5DequeC2Emm:
 803              	.LFB1052:
 145:C:\Users\niels\Documents\GitHub\DSP\software\STM32Basis\HAL\gemeenschappelijk\Third_Party\freertos-addons-1.1.0\c++\Source\cqueue.cpp **** 
 146:C:\Users\niels\Documents\GitHub\DSP\software\STM32Basis\HAL\gemeenschappelijk\Third_Party\freertos-addons-1.1.0\c++\Source\cqueue.cpp **** 
 147:C:\Users\niels\Documents\GitHub\DSP\software\STM32Basis\HAL\gemeenschappelijk\Third_Party\freertos-addons-1.1.0\c++\Source\cqueue.cpp **** Deque::Deque(UBaseType_t maxItems, UBaseType_t itemSize)
 804              	 .loc 2 147 1
 805              	 .cfi_startproc
 806              	 
 807              	 
 808 0000 80B5     	 push {r7,lr}
 809              	 .cfi_def_cfa_offset 8
 810              	 .cfi_offset 7,-8
 811              	 .cfi_offset 14,-4
 812 0002 84B0     	 sub sp,sp,#16
 813              	 .cfi_def_cfa_offset 24
 814 0004 00AF     	 add r7,sp,#0
 815              	 .cfi_def_cfa_register 7
 816 0006 F860     	 str r0,[r7,#12]
 817 0008 B960     	 str r1,[r7,#8]
 818 000a 7A60     	 str r2,[r7,#4]
 819              	.LBB4:
 148:C:\Users\niels\Documents\GitHub\DSP\software\STM32Basis\HAL\gemeenschappelijk\Third_Party\freertos-addons-1.1.0\c++\Source\cqueue.cpp ****     : Queue(maxItems, itemSize)
 820              	 .loc 2 148 31
 821 000c FB68     	 ldr r3,[r7,#12]
 822 000e 7A68     	 ldr r2,[r7,#4]
 823 0010 B968     	 ldr r1,[r7,#8]
 824 0012 1846     	 mov r0,r3
 825 0014 FFF7FEFF 	 bl _ZN12cpp_freertos5QueueC2Emm
 826 0018 034A     	 ldr r2,.L39
 827 001a FB68     	 ldr r3,[r7,#12]
 828 001c 1A60     	 str r2,[r3]
 829              	.LBE4:
 149:C:\Users\niels\Documents\GitHub\DSP\software\STM32Basis\HAL\gemeenschappelijk\Third_Party\freertos-addons-1.1.0\c++\Source\cqueue.cpp **** {
 150:C:\Users\niels\Documents\GitHub\DSP\software\STM32Basis\HAL\gemeenschappelijk\Third_Party\freertos-addons-1.1.0\c++\Source\cqueue.cpp **** }
 830              	 .loc 2 150 1
 831 001e FB68     	 ldr r3,[r7,#12]
 832 0020 1846     	 mov r0,r3
 833 0022 1037     	 adds r7,r7,#16
 834              	 .cfi_def_cfa_offset 8
 835 0024 BD46     	 mov sp,r7
 836              	 .cfi_def_cfa_register 13
 837              	 
 838 0026 80BD     	 pop {r7,pc}
 839              	.L40:
 840              	 .align 2
 841              	.L39:
 842 0028 08000000 	 .word _ZTVN12cpp_freertos5DequeE+8
 843              	 .cfi_endproc
 844              	.LFE1052:
 845              	 .size _ZN12cpp_freertos5DequeC2Emm,.-_ZN12cpp_freertos5DequeC2Emm
 846              	 .global _ZN12cpp_freertos5DequeC1Emm
 847              	 .thumb_set _ZN12cpp_freertos5DequeC1Emm,_ZN12cpp_freertos5DequeC2Emm
 848              	 .section .text._ZN12cpp_freertos5Deque14EnqueueToFrontEPvm,"ax",%progbits
 849              	 .align 1
 850              	 .global _ZN12cpp_freertos5Deque14EnqueueToFrontEPvm
 851              	 .syntax unified
 852              	 .thumb
ARM GAS   			page 23


 853              	 .thumb_func
 854              	 .type _ZN12cpp_freertos5Deque14EnqueueToFrontEPvm,%function
 855              	_ZN12cpp_freertos5Deque14EnqueueToFrontEPvm:
 856              	.LFB1054:
 151:C:\Users\niels\Documents\GitHub\DSP\software\STM32Basis\HAL\gemeenschappelijk\Third_Party\freertos-addons-1.1.0\c++\Source\cqueue.cpp **** 
 152:C:\Users\niels\Documents\GitHub\DSP\software\STM32Basis\HAL\gemeenschappelijk\Third_Party\freertos-addons-1.1.0\c++\Source\cqueue.cpp **** 
 153:C:\Users\niels\Documents\GitHub\DSP\software\STM32Basis\HAL\gemeenschappelijk\Third_Party\freertos-addons-1.1.0\c++\Source\cqueue.cpp **** bool Deque::EnqueueToFront(void *item, TickType_t Timeout)
 154:C:\Users\niels\Documents\GitHub\DSP\software\STM32Basis\HAL\gemeenschappelijk\Third_Party\freertos-addons-1.1.0\c++\Source\cqueue.cpp **** {
 857              	 .loc 2 154 1
 858              	 .cfi_startproc
 859              	 
 860              	 
 861 0000 80B5     	 push {r7,lr}
 862              	 .cfi_def_cfa_offset 8
 863              	 .cfi_offset 7,-8
 864              	 .cfi_offset 14,-4
 865 0002 86B0     	 sub sp,sp,#24
 866              	 .cfi_def_cfa_offset 32
 867 0004 00AF     	 add r7,sp,#0
 868              	 .cfi_def_cfa_register 7
 869 0006 F860     	 str r0,[r7,#12]
 870 0008 B960     	 str r1,[r7,#8]
 871 000a 7A60     	 str r2,[r7,#4]
 155:C:\Users\niels\Documents\GitHub\DSP\software\STM32Basis\HAL\gemeenschappelijk\Third_Party\freertos-addons-1.1.0\c++\Source\cqueue.cpp ****     BaseType_t success;
 156:C:\Users\niels\Documents\GitHub\DSP\software\STM32Basis\HAL\gemeenschappelijk\Third_Party\freertos-addons-1.1.0\c++\Source\cqueue.cpp **** 
 157:C:\Users\niels\Documents\GitHub\DSP\software\STM32Basis\HAL\gemeenschappelijk\Third_Party\freertos-addons-1.1.0\c++\Source\cqueue.cpp ****     success = xQueueSendToFront(handle, item, Timeout);
 872              	 .loc 2 157 15
 873 000c FB68     	 ldr r3,[r7,#12]
 874 000e 5868     	 ldr r0,[r3,#4]
 875 0010 0123     	 movs r3,#1
 876 0012 7A68     	 ldr r2,[r7,#4]
 877 0014 B968     	 ldr r1,[r7,#8]
 878 0016 FFF7FEFF 	 bl xQueueGenericSend
 879 001a 7861     	 str r0,[r7,#20]
 158:C:\Users\niels\Documents\GitHub\DSP\software\STM32Basis\HAL\gemeenschappelijk\Third_Party\freertos-addons-1.1.0\c++\Source\cqueue.cpp **** 
 159:C:\Users\niels\Documents\GitHub\DSP\software\STM32Basis\HAL\gemeenschappelijk\Third_Party\freertos-addons-1.1.0\c++\Source\cqueue.cpp ****     return success == pdTRUE ? true : false;
 880              	 .loc 2 159 39
 881 001c 7B69     	 ldr r3,[r7,#20]
 882 001e 012B     	 cmp r3,#1
 883 0020 0CBF     	 ite eq
 884 0022 0123     	 moveq r3,#1
 885 0024 0023     	 movne r3,#0
 886 0026 DBB2     	 uxtb r3,r3
 160:C:\Users\niels\Documents\GitHub\DSP\software\STM32Basis\HAL\gemeenschappelijk\Third_Party\freertos-addons-1.1.0\c++\Source\cqueue.cpp **** }
 887              	 .loc 2 160 1
 888 0028 1846     	 mov r0,r3
 889 002a 1837     	 adds r7,r7,#24
 890              	 .cfi_def_cfa_offset 8
 891 002c BD46     	 mov sp,r7
 892              	 .cfi_def_cfa_register 13
 893              	 
 894 002e 80BD     	 pop {r7,pc}
 895              	 .cfi_endproc
 896              	.LFE1054:
 897              	 .size _ZN12cpp_freertos5Deque14EnqueueToFrontEPvm,.-_ZN12cpp_freertos5Deque14EnqueueToFrontEPvm
 898              	 .section .text._ZN12cpp_freertos5Deque21EnqueueToFrontFromISREPvPl,"ax",%progbits
 899              	 .align 1
ARM GAS   			page 24


 900              	 .global _ZN12cpp_freertos5Deque21EnqueueToFrontFromISREPvPl
 901              	 .syntax unified
 902              	 .thumb
 903              	 .thumb_func
 904              	 .type _ZN12cpp_freertos5Deque21EnqueueToFrontFromISREPvPl,%function
 905              	_ZN12cpp_freertos5Deque21EnqueueToFrontFromISREPvPl:
 906              	.LFB1055:
 161:C:\Users\niels\Documents\GitHub\DSP\software\STM32Basis\HAL\gemeenschappelijk\Third_Party\freertos-addons-1.1.0\c++\Source\cqueue.cpp **** 
 162:C:\Users\niels\Documents\GitHub\DSP\software\STM32Basis\HAL\gemeenschappelijk\Third_Party\freertos-addons-1.1.0\c++\Source\cqueue.cpp **** 
 163:C:\Users\niels\Documents\GitHub\DSP\software\STM32Basis\HAL\gemeenschappelijk\Third_Party\freertos-addons-1.1.0\c++\Source\cqueue.cpp **** bool Deque::EnqueueToFrontFromISR(void *item, BaseType_t *pxHigherPriorityTaskWoken)
 164:C:\Users\niels\Documents\GitHub\DSP\software\STM32Basis\HAL\gemeenschappelijk\Third_Party\freertos-addons-1.1.0\c++\Source\cqueue.cpp **** {
 907              	 .loc 2 164 1
 908              	 .cfi_startproc
 909              	 
 910              	 
 911 0000 80B5     	 push {r7,lr}
 912              	 .cfi_def_cfa_offset 8
 913              	 .cfi_offset 7,-8
 914              	 .cfi_offset 14,-4
 915 0002 86B0     	 sub sp,sp,#24
 916              	 .cfi_def_cfa_offset 32
 917 0004 00AF     	 add r7,sp,#0
 918              	 .cfi_def_cfa_register 7
 919 0006 F860     	 str r0,[r7,#12]
 920 0008 B960     	 str r1,[r7,#8]
 921 000a 7A60     	 str r2,[r7,#4]
 165:C:\Users\niels\Documents\GitHub\DSP\software\STM32Basis\HAL\gemeenschappelijk\Third_Party\freertos-addons-1.1.0\c++\Source\cqueue.cpp ****     BaseType_t success;
 166:C:\Users\niels\Documents\GitHub\DSP\software\STM32Basis\HAL\gemeenschappelijk\Third_Party\freertos-addons-1.1.0\c++\Source\cqueue.cpp **** 
 167:C:\Users\niels\Documents\GitHub\DSP\software\STM32Basis\HAL\gemeenschappelijk\Third_Party\freertos-addons-1.1.0\c++\Source\cqueue.cpp ****     success = xQueueSendToFrontFromISR(handle, item, pxHigherPriorityTaskWoken);
 922              	 .loc 2 167 15
 923 000c FB68     	 ldr r3,[r7,#12]
 924 000e 5868     	 ldr r0,[r3,#4]
 925 0010 0123     	 movs r3,#1
 926 0012 7A68     	 ldr r2,[r7,#4]
 927 0014 B968     	 ldr r1,[r7,#8]
 928 0016 FFF7FEFF 	 bl xQueueGenericSendFromISR
 929 001a 7861     	 str r0,[r7,#20]
 168:C:\Users\niels\Documents\GitHub\DSP\software\STM32Basis\HAL\gemeenschappelijk\Third_Party\freertos-addons-1.1.0\c++\Source\cqueue.cpp **** 
 169:C:\Users\niels\Documents\GitHub\DSP\software\STM32Basis\HAL\gemeenschappelijk\Third_Party\freertos-addons-1.1.0\c++\Source\cqueue.cpp ****     return success == pdTRUE ? true : false;
 930              	 .loc 2 169 39
 931 001c 7B69     	 ldr r3,[r7,#20]
 932 001e 012B     	 cmp r3,#1
 933 0020 0CBF     	 ite eq
 934 0022 0123     	 moveq r3,#1
 935 0024 0023     	 movne r3,#0
 936 0026 DBB2     	 uxtb r3,r3
 170:C:\Users\niels\Documents\GitHub\DSP\software\STM32Basis\HAL\gemeenschappelijk\Third_Party\freertos-addons-1.1.0\c++\Source\cqueue.cpp **** }
 937              	 .loc 2 170 1
 938 0028 1846     	 mov r0,r3
 939 002a 1837     	 adds r7,r7,#24
 940              	 .cfi_def_cfa_offset 8
 941 002c BD46     	 mov sp,r7
 942              	 .cfi_def_cfa_register 13
 943              	 
 944 002e 80BD     	 pop {r7,pc}
 945              	 .cfi_endproc
 946              	.LFE1055:
ARM GAS   			page 25


 947              	 .size _ZN12cpp_freertos5Deque21EnqueueToFrontFromISREPvPl,.-_ZN12cpp_freertos5Deque21EnqueueToFrontFromISREPvPl
 948              	 .section .text._ZN12cpp_freertos11BinaryQueueC2Em,"ax",%progbits
 949              	 .align 1
 950              	 .global _ZN12cpp_freertos11BinaryQueueC2Em
 951              	 .syntax unified
 952              	 .thumb
 953              	 .thumb_func
 954              	 .type _ZN12cpp_freertos11BinaryQueueC2Em,%function
 955              	_ZN12cpp_freertos11BinaryQueueC2Em:
 956              	.LFB1057:
 171:C:\Users\niels\Documents\GitHub\DSP\software\STM32Basis\HAL\gemeenschappelijk\Third_Party\freertos-addons-1.1.0\c++\Source\cqueue.cpp **** 
 172:C:\Users\niels\Documents\GitHub\DSP\software\STM32Basis\HAL\gemeenschappelijk\Third_Party\freertos-addons-1.1.0\c++\Source\cqueue.cpp **** 
 173:C:\Users\niels\Documents\GitHub\DSP\software\STM32Basis\HAL\gemeenschappelijk\Third_Party\freertos-addons-1.1.0\c++\Source\cqueue.cpp **** BinaryQueue::BinaryQueue(UBaseType_t itemSize)
 957              	 .loc 2 173 1
 958              	 .cfi_startproc
 959              	 
 960              	 
 961 0000 80B5     	 push {r7,lr}
 962              	 .cfi_def_cfa_offset 8
 963              	 .cfi_offset 7,-8
 964              	 .cfi_offset 14,-4
 965 0002 82B0     	 sub sp,sp,#8
 966              	 .cfi_def_cfa_offset 16
 967 0004 00AF     	 add r7,sp,#0
 968              	 .cfi_def_cfa_register 7
 969 0006 7860     	 str r0,[r7,#4]
 970 0008 3960     	 str r1,[r7]
 971              	.LBB5:
 174:C:\Users\niels\Documents\GitHub\DSP\software\STM32Basis\HAL\gemeenschappelijk\Third_Party\freertos-addons-1.1.0\c++\Source\cqueue.cpp ****     : Queue(1, itemSize)
 972              	 .loc 2 174 24
 973 000a 7B68     	 ldr r3,[r7,#4]
 974 000c 3A68     	 ldr r2,[r7]
 975 000e 0121     	 movs r1,#1
 976 0010 1846     	 mov r0,r3
 977 0012 FFF7FEFF 	 bl _ZN12cpp_freertos5QueueC2Emm
 978 0016 044A     	 ldr r2,.L47
 979 0018 7B68     	 ldr r3,[r7,#4]
 980 001a 1A60     	 str r2,[r3]
 981              	.LBE5:
 175:C:\Users\niels\Documents\GitHub\DSP\software\STM32Basis\HAL\gemeenschappelijk\Third_Party\freertos-addons-1.1.0\c++\Source\cqueue.cpp **** {
 176:C:\Users\niels\Documents\GitHub\DSP\software\STM32Basis\HAL\gemeenschappelijk\Third_Party\freertos-addons-1.1.0\c++\Source\cqueue.cpp **** }
 982              	 .loc 2 176 1
 983 001c 7B68     	 ldr r3,[r7,#4]
 984 001e 1846     	 mov r0,r3
 985 0020 0837     	 adds r7,r7,#8
 986              	 .cfi_def_cfa_offset 8
 987 0022 BD46     	 mov sp,r7
 988              	 .cfi_def_cfa_register 13
 989              	 
 990 0024 80BD     	 pop {r7,pc}
 991              	.L48:
 992 0026 00BF     	 .align 2
 993              	.L47:
 994 0028 08000000 	 .word _ZTVN12cpp_freertos11BinaryQueueE+8
 995              	 .cfi_endproc
 996              	.LFE1057:
 997              	 .size _ZN12cpp_freertos11BinaryQueueC2Em,.-_ZN12cpp_freertos11BinaryQueueC2Em
ARM GAS   			page 26


 998              	 .global _ZN12cpp_freertos11BinaryQueueC1Em
 999              	 .thumb_set _ZN12cpp_freertos11BinaryQueueC1Em,_ZN12cpp_freertos11BinaryQueueC2Em
 1000              	 .section .text._ZN12cpp_freertos11BinaryQueue7EnqueueEPv,"ax",%progbits
 1001              	 .align 1
 1002              	 .global _ZN12cpp_freertos11BinaryQueue7EnqueueEPv
 1003              	 .syntax unified
 1004              	 .thumb
 1005              	 .thumb_func
 1006              	 .type _ZN12cpp_freertos11BinaryQueue7EnqueueEPv,%function
 1007              	_ZN12cpp_freertos11BinaryQueue7EnqueueEPv:
 1008              	.LFB1059:
 177:C:\Users\niels\Documents\GitHub\DSP\software\STM32Basis\HAL\gemeenschappelijk\Third_Party\freertos-addons-1.1.0\c++\Source\cqueue.cpp **** 
 178:C:\Users\niels\Documents\GitHub\DSP\software\STM32Basis\HAL\gemeenschappelijk\Third_Party\freertos-addons-1.1.0\c++\Source\cqueue.cpp **** 
 179:C:\Users\niels\Documents\GitHub\DSP\software\STM32Basis\HAL\gemeenschappelijk\Third_Party\freertos-addons-1.1.0\c++\Source\cqueue.cpp **** bool BinaryQueue::Enqueue(void *item)
 180:C:\Users\niels\Documents\GitHub\DSP\software\STM32Basis\HAL\gemeenschappelijk\Third_Party\freertos-addons-1.1.0\c++\Source\cqueue.cpp **** {
 1009              	 .loc 2 180 1
 1010              	 .cfi_startproc
 1011              	 
 1012              	 
 1013 0000 80B5     	 push {r7,lr}
 1014              	 .cfi_def_cfa_offset 8
 1015              	 .cfi_offset 7,-8
 1016              	 .cfi_offset 14,-4
 1017 0002 82B0     	 sub sp,sp,#8
 1018              	 .cfi_def_cfa_offset 16
 1019 0004 00AF     	 add r7,sp,#0
 1020              	 .cfi_def_cfa_register 7
 1021 0006 7860     	 str r0,[r7,#4]
 1022 0008 3960     	 str r1,[r7]
 181:C:\Users\niels\Documents\GitHub\DSP\software\STM32Basis\HAL\gemeenschappelijk\Third_Party\freertos-addons-1.1.0\c++\Source\cqueue.cpp ****     (void)xQueueOverwrite(handle, item);
 1023              	 .loc 2 181 11
 1024 000a 7B68     	 ldr r3,[r7,#4]
 1025 000c 5868     	 ldr r0,[r3,#4]
 1026 000e 0223     	 movs r3,#2
 1027 0010 0022     	 movs r2,#0
 1028 0012 3968     	 ldr r1,[r7]
 1029 0014 FFF7FEFF 	 bl xQueueGenericSend
 182:C:\Users\niels\Documents\GitHub\DSP\software\STM32Basis\HAL\gemeenschappelijk\Third_Party\freertos-addons-1.1.0\c++\Source\cqueue.cpp ****     return true;
 1030              	 .loc 2 182 12
 1031 0018 0123     	 movs r3,#1
 183:C:\Users\niels\Documents\GitHub\DSP\software\STM32Basis\HAL\gemeenschappelijk\Third_Party\freertos-addons-1.1.0\c++\Source\cqueue.cpp **** }
 1032              	 .loc 2 183 1
 1033 001a 1846     	 mov r0,r3
 1034 001c 0837     	 adds r7,r7,#8
 1035              	 .cfi_def_cfa_offset 8
 1036 001e BD46     	 mov sp,r7
 1037              	 .cfi_def_cfa_register 13
 1038              	 
 1039 0020 80BD     	 pop {r7,pc}
 1040              	 .cfi_endproc
 1041              	.LFE1059:
 1042              	 .size _ZN12cpp_freertos11BinaryQueue7EnqueueEPv,.-_ZN12cpp_freertos11BinaryQueue7EnqueueEPv
 1043              	 .section .text._ZN12cpp_freertos11BinaryQueue14EnqueueFromISREPvPl,"ax",%progbits
 1044              	 .align 1
 1045              	 .global _ZN12cpp_freertos11BinaryQueue14EnqueueFromISREPvPl
 1046              	 .syntax unified
 1047              	 .thumb
ARM GAS   			page 27


 1048              	 .thumb_func
 1049              	 .type _ZN12cpp_freertos11BinaryQueue14EnqueueFromISREPvPl,%function
 1050              	_ZN12cpp_freertos11BinaryQueue14EnqueueFromISREPvPl:
 1051              	.LFB1060:
 184:C:\Users\niels\Documents\GitHub\DSP\software\STM32Basis\HAL\gemeenschappelijk\Third_Party\freertos-addons-1.1.0\c++\Source\cqueue.cpp **** 
 185:C:\Users\niels\Documents\GitHub\DSP\software\STM32Basis\HAL\gemeenschappelijk\Third_Party\freertos-addons-1.1.0\c++\Source\cqueue.cpp **** 
 186:C:\Users\niels\Documents\GitHub\DSP\software\STM32Basis\HAL\gemeenschappelijk\Third_Party\freertos-addons-1.1.0\c++\Source\cqueue.cpp **** bool BinaryQueue::EnqueueFromISR(void *item, BaseType_t *pxHigherPriorityTaskWoken)
 187:C:\Users\niels\Documents\GitHub\DSP\software\STM32Basis\HAL\gemeenschappelijk\Third_Party\freertos-addons-1.1.0\c++\Source\cqueue.cpp **** {
 1052              	 .loc 2 187 1
 1053              	 .cfi_startproc
 1054              	 
 1055              	 
 1056 0000 80B5     	 push {r7,lr}
 1057              	 .cfi_def_cfa_offset 8
 1058              	 .cfi_offset 7,-8
 1059              	 .cfi_offset 14,-4
 1060 0002 84B0     	 sub sp,sp,#16
 1061              	 .cfi_def_cfa_offset 24
 1062 0004 00AF     	 add r7,sp,#0
 1063              	 .cfi_def_cfa_register 7
 1064 0006 F860     	 str r0,[r7,#12]
 1065 0008 B960     	 str r1,[r7,#8]
 1066 000a 7A60     	 str r2,[r7,#4]
 188:C:\Users\niels\Documents\GitHub\DSP\software\STM32Basis\HAL\gemeenschappelijk\Third_Party\freertos-addons-1.1.0\c++\Source\cqueue.cpp ****     (void)xQueueOverwriteFromISR(handle, item, pxHigherPriorityTaskWoken);
 1067              	 .loc 2 188 11
 1068 000c FB68     	 ldr r3,[r7,#12]
 1069 000e 5868     	 ldr r0,[r3,#4]
 1070 0010 0223     	 movs r3,#2
 1071 0012 7A68     	 ldr r2,[r7,#4]
 1072 0014 B968     	 ldr r1,[r7,#8]
 1073 0016 FFF7FEFF 	 bl xQueueGenericSendFromISR
 189:C:\Users\niels\Documents\GitHub\DSP\software\STM32Basis\HAL\gemeenschappelijk\Third_Party\freertos-addons-1.1.0\c++\Source\cqueue.cpp ****     return true;
 1074              	 .loc 2 189 12
 1075 001a 0123     	 movs r3,#1
 190:C:\Users\niels\Documents\GitHub\DSP\software\STM32Basis\HAL\gemeenschappelijk\Third_Party\freertos-addons-1.1.0\c++\Source\cqueue.cpp **** }
 1076              	 .loc 2 190 1
 1077 001c 1846     	 mov r0,r3
 1078 001e 1037     	 adds r7,r7,#16
 1079              	 .cfi_def_cfa_offset 8
 1080 0020 BD46     	 mov sp,r7
 1081              	 .cfi_def_cfa_register 13
 1082              	 
 1083 0022 80BD     	 pop {r7,pc}
 1084              	 .cfi_endproc
 1085              	.LFE1060:
 1086              	 .size _ZN12cpp_freertos11BinaryQueue14EnqueueFromISREPvPl,.-_ZN12cpp_freertos11BinaryQueue14EnqueueFromISREPvPl
 1087              	 .global _ZTVN12cpp_freertos11BinaryQueueE
 1088              	 .section .rodata._ZTVN12cpp_freertos11BinaryQueueE,"a"
 1089              	 .align 2
 1090              	 .type _ZTVN12cpp_freertos11BinaryQueueE,%object
 1091              	 .size _ZTVN12cpp_freertos11BinaryQueueE,28
 1092              	_ZTVN12cpp_freertos11BinaryQueueE:
 1093 0000 00000000 	 .word 0
 1094 0004 00000000 	 .word 0
 1095 0008 00000000 	 .word _ZN12cpp_freertos11BinaryQueueD1Ev
 1096 000c 00000000 	 .word _ZN12cpp_freertos11BinaryQueueD0Ev
 1097 0010 00000000 	 .word _ZN12cpp_freertos11BinaryQueue7EnqueueEPv
ARM GAS   			page 28


 1098 0014 00000000 	 .word _ZN12cpp_freertos5Queue7EnqueueEPvm
 1099 0018 00000000 	 .word _ZN12cpp_freertos11BinaryQueue14EnqueueFromISREPvPl
 1100              	 .section .text._ZN12cpp_freertos11BinaryQueueD2Ev,"axG",%progbits,_ZN12cpp_freertos11BinaryQueueD5Ev,comdat
 1101              	 .align 1
 1102              	 .weak _ZN12cpp_freertos11BinaryQueueD2Ev
 1103              	 .syntax unified
 1104              	 .thumb
 1105              	 .thumb_func
 1106              	 .type _ZN12cpp_freertos11BinaryQueueD2Ev,%function
 1107              	_ZN12cpp_freertos11BinaryQueueD2Ev:
 1108              	.LFB1529:
 1109              	 .file 3 "c:\\users\\niels\\documents\\github\\dsp\\software\\stm32basis\\hal\\gemeenschappelijk\\third_party\\freertos-addons-1.1.0\\c++\\source\\include\\queue.hpp"
   1:c:\users\niels\documents\github\dsp\software\stm32basis\hal\gemeenschappelijk\third_party\freertos-addons-1.1.0\c++\source\include\queue.hpp **** /****************************************************************************
   2:c:\users\niels\documents\github\dsp\software\stm32basis\hal\gemeenschappelijk\third_party\freertos-addons-1.1.0\c++\source\include\queue.hpp ****  *
   3:c:\users\niels\documents\github\dsp\software\stm32basis\hal\gemeenschappelijk\third_party\freertos-addons-1.1.0\c++\source\include\queue.hpp ****  *  Copyright (c) 2016, Michael Becker (michael.f.becker@gmail.com)
   4:c:\users\niels\documents\github\dsp\software\stm32basis\hal\gemeenschappelijk\third_party\freertos-addons-1.1.0\c++\source\include\queue.hpp ****  *
   5:c:\users\niels\documents\github\dsp\software\stm32basis\hal\gemeenschappelijk\third_party\freertos-addons-1.1.0\c++\source\include\queue.hpp ****  *  This file is part of the FreeRTOS C++ Wrappers project.
   6:c:\users\niels\documents\github\dsp\software\stm32basis\hal\gemeenschappelijk\third_party\freertos-addons-1.1.0\c++\source\include\queue.hpp ****  *
   7:c:\users\niels\documents\github\dsp\software\stm32basis\hal\gemeenschappelijk\third_party\freertos-addons-1.1.0\c++\source\include\queue.hpp ****  *  The FreeRTOS C++ Wrappers project is free software: you can redistribute
   8:c:\users\niels\documents\github\dsp\software\stm32basis\hal\gemeenschappelijk\third_party\freertos-addons-1.1.0\c++\source\include\queue.hpp ****  *  it and/or modify it under the terms of the GNU General Public License as
   9:c:\users\niels\documents\github\dsp\software\stm32basis\hal\gemeenschappelijk\third_party\freertos-addons-1.1.0\c++\source\include\queue.hpp ****  *  published by the Free Software Foundation, either version 2
  10:c:\users\niels\documents\github\dsp\software\stm32basis\hal\gemeenschappelijk\third_party\freertos-addons-1.1.0\c++\source\include\queue.hpp ****  *  of the License, or (at your option) any later version.
  11:c:\users\niels\documents\github\dsp\software\stm32basis\hal\gemeenschappelijk\third_party\freertos-addons-1.1.0\c++\source\include\queue.hpp ****  *
  12:c:\users\niels\documents\github\dsp\software\stm32basis\hal\gemeenschappelijk\third_party\freertos-addons-1.1.0\c++\source\include\queue.hpp ****  *  The FreeRTOS C++ Wrappers project is distributed in the hope that it will
  13:c:\users\niels\documents\github\dsp\software\stm32basis\hal\gemeenschappelijk\third_party\freertos-addons-1.1.0\c++\source\include\queue.hpp ****  *  be useful, but WITHOUT ANY WARRANTY; without even the implied warranty of
  14:c:\users\niels\documents\github\dsp\software\stm32basis\hal\gemeenschappelijk\third_party\freertos-addons-1.1.0\c++\source\include\queue.hpp ****  *  MERCHANTABILITY or FITNESS FOR A PARTICULAR PURPOSE.  See the
  15:c:\users\niels\documents\github\dsp\software\stm32basis\hal\gemeenschappelijk\third_party\freertos-addons-1.1.0\c++\source\include\queue.hpp ****  *  GNU General Public License for more details.
  16:c:\users\niels\documents\github\dsp\software\stm32basis\hal\gemeenschappelijk\third_party\freertos-addons-1.1.0\c++\source\include\queue.hpp ****  *
  17:c:\users\niels\documents\github\dsp\software\stm32basis\hal\gemeenschappelijk\third_party\freertos-addons-1.1.0\c++\source\include\queue.hpp ****  *  You should have received a copy of the GNU General Public License
  18:c:\users\niels\documents\github\dsp\software\stm32basis\hal\gemeenschappelijk\third_party\freertos-addons-1.1.0\c++\source\include\queue.hpp ****  *  along with the FreeRTOS C++ Wrappers project.
  19:c:\users\niels\documents\github\dsp\software\stm32basis\hal\gemeenschappelijk\third_party\freertos-addons-1.1.0\c++\source\include\queue.hpp ****  *  If not, see <http://www.gnu.org/licenses/>.
  20:c:\users\niels\documents\github\dsp\software\stm32basis\hal\gemeenschappelijk\third_party\freertos-addons-1.1.0\c++\source\include\queue.hpp ****  *
  21:c:\users\niels\documents\github\dsp\software\stm32basis\hal\gemeenschappelijk\third_party\freertos-addons-1.1.0\c++\source\include\queue.hpp ****  ***************************************************************************/
  22:c:\users\niels\documents\github\dsp\software\stm32basis\hal\gemeenschappelijk\third_party\freertos-addons-1.1.0\c++\source\include\queue.hpp **** #ifndef QUEUE_HPP_
  23:c:\users\niels\documents\github\dsp\software\stm32basis\hal\gemeenschappelijk\third_party\freertos-addons-1.1.0\c++\source\include\queue.hpp **** #define QUEUE_HPP_
  24:c:\users\niels\documents\github\dsp\software\stm32basis\hal\gemeenschappelijk\third_party\freertos-addons-1.1.0\c++\source\include\queue.hpp **** 
  25:c:\users\niels\documents\github\dsp\software\stm32basis\hal\gemeenschappelijk\third_party\freertos-addons-1.1.0\c++\source\include\queue.hpp **** 
  26:c:\users\niels\documents\github\dsp\software\stm32basis\hal\gemeenschappelijk\third_party\freertos-addons-1.1.0\c++\source\include\queue.hpp **** #include <exception>
  27:c:\users\niels\documents\github\dsp\software\stm32basis\hal\gemeenschappelijk\third_party\freertos-addons-1.1.0\c++\source\include\queue.hpp **** #include <string>
  28:c:\users\niels\documents\github\dsp\software\stm32basis\hal\gemeenschappelijk\third_party\freertos-addons-1.1.0\c++\source\include\queue.hpp **** #include "FreeRTOS.h"
  29:c:\users\niels\documents\github\dsp\software\stm32basis\hal\gemeenschappelijk\third_party\freertos-addons-1.1.0\c++\source\include\queue.hpp **** #include "queue.h"
  30:c:\users\niels\documents\github\dsp\software\stm32basis\hal\gemeenschappelijk\third_party\freertos-addons-1.1.0\c++\source\include\queue.hpp **** // TODO - explore replacing sprintf with stringstream
  31:c:\users\niels\documents\github\dsp\software\stm32basis\hal\gemeenschappelijk\third_party\freertos-addons-1.1.0\c++\source\include\queue.hpp **** #include <cstdio>
  32:c:\users\niels\documents\github\dsp\software\stm32basis\hal\gemeenschappelijk\third_party\freertos-addons-1.1.0\c++\source\include\queue.hpp **** 
  33:c:\users\niels\documents\github\dsp\software\stm32basis\hal\gemeenschappelijk\third_party\freertos-addons-1.1.0\c++\source\include\queue.hpp **** 
  34:c:\users\niels\documents\github\dsp\software\stm32basis\hal\gemeenschappelijk\third_party\freertos-addons-1.1.0\c++\source\include\queue.hpp **** namespace cpp_freertos {
  35:c:\users\niels\documents\github\dsp\software\stm32basis\hal\gemeenschappelijk\third_party\freertos-addons-1.1.0\c++\source\include\queue.hpp **** 
  36:c:\users\niels\documents\github\dsp\software\stm32basis\hal\gemeenschappelijk\third_party\freertos-addons-1.1.0\c++\source\include\queue.hpp **** 
  37:c:\users\niels\documents\github\dsp\software\stm32basis\hal\gemeenschappelijk\third_party\freertos-addons-1.1.0\c++\source\include\queue.hpp **** /**
  38:c:\users\niels\documents\github\dsp\software\stm32basis\hal\gemeenschappelijk\third_party\freertos-addons-1.1.0\c++\source\include\queue.hpp ****  *  This is the exception that is thrown if a Queue constructor fails.
  39:c:\users\niels\documents\github\dsp\software\stm32basis\hal\gemeenschappelijk\third_party\freertos-addons-1.1.0\c++\source\include\queue.hpp ****  */
  40:c:\users\niels\documents\github\dsp\software\stm32basis\hal\gemeenschappelijk\third_party\freertos-addons-1.1.0\c++\source\include\queue.hpp **** class QueueCreateException : public std::exception {
  41:c:\users\niels\documents\github\dsp\software\stm32basis\hal\gemeenschappelijk\third_party\freertos-addons-1.1.0\c++\source\include\queue.hpp **** 
  42:c:\users\niels\documents\github\dsp\software\stm32basis\hal\gemeenschappelijk\third_party\freertos-addons-1.1.0\c++\source\include\queue.hpp ****     public:
  43:c:\users\niels\documents\github\dsp\software\stm32basis\hal\gemeenschappelijk\third_party\freertos-addons-1.1.0\c++\source\include\queue.hpp ****         /**
  44:c:\users\niels\documents\github\dsp\software\stm32basis\hal\gemeenschappelijk\third_party\freertos-addons-1.1.0\c++\source\include\queue.hpp ****          *  Create the exception.
  45:c:\users\niels\documents\github\dsp\software\stm32basis\hal\gemeenschappelijk\third_party\freertos-addons-1.1.0\c++\source\include\queue.hpp ****          */
ARM GAS   			page 29


  46:c:\users\niels\documents\github\dsp\software\stm32basis\hal\gemeenschappelijk\third_party\freertos-addons-1.1.0\c++\source\include\queue.hpp ****         QueueCreateException()
  47:c:\users\niels\documents\github\dsp\software\stm32basis\hal\gemeenschappelijk\third_party\freertos-addons-1.1.0\c++\source\include\queue.hpp ****         {
  48:c:\users\niels\documents\github\dsp\software\stm32basis\hal\gemeenschappelijk\third_party\freertos-addons-1.1.0\c++\source\include\queue.hpp ****             sprintf(errorString, "Queue Constructor Failed");
  49:c:\users\niels\documents\github\dsp\software\stm32basis\hal\gemeenschappelijk\third_party\freertos-addons-1.1.0\c++\source\include\queue.hpp ****         }
  50:c:\users\niels\documents\github\dsp\software\stm32basis\hal\gemeenschappelijk\third_party\freertos-addons-1.1.0\c++\source\include\queue.hpp **** 
  51:c:\users\niels\documents\github\dsp\software\stm32basis\hal\gemeenschappelijk\third_party\freertos-addons-1.1.0\c++\source\include\queue.hpp ****         /**
  52:c:\users\niels\documents\github\dsp\software\stm32basis\hal\gemeenschappelijk\third_party\freertos-addons-1.1.0\c++\source\include\queue.hpp ****          *  Create the exception.
  53:c:\users\niels\documents\github\dsp\software\stm32basis\hal\gemeenschappelijk\third_party\freertos-addons-1.1.0\c++\source\include\queue.hpp ****          */
  54:c:\users\niels\documents\github\dsp\software\stm32basis\hal\gemeenschappelijk\third_party\freertos-addons-1.1.0\c++\source\include\queue.hpp ****         explicit QueueCreateException(const char *info)
  55:c:\users\niels\documents\github\dsp\software\stm32basis\hal\gemeenschappelijk\third_party\freertos-addons-1.1.0\c++\source\include\queue.hpp ****         {
  56:c:\users\niels\documents\github\dsp\software\stm32basis\hal\gemeenschappelijk\third_party\freertos-addons-1.1.0\c++\source\include\queue.hpp ****             snprintf(errorString, sizeof(errorString),
  57:c:\users\niels\documents\github\dsp\software\stm32basis\hal\gemeenschappelijk\third_party\freertos-addons-1.1.0\c++\source\include\queue.hpp ****                         "Queue Constructor Failed %s", info);
  58:c:\users\niels\documents\github\dsp\software\stm32basis\hal\gemeenschappelijk\third_party\freertos-addons-1.1.0\c++\source\include\queue.hpp ****         }
  59:c:\users\niels\documents\github\dsp\software\stm32basis\hal\gemeenschappelijk\third_party\freertos-addons-1.1.0\c++\source\include\queue.hpp **** 
  60:c:\users\niels\documents\github\dsp\software\stm32basis\hal\gemeenschappelijk\third_party\freertos-addons-1.1.0\c++\source\include\queue.hpp ****         /**
  61:c:\users\niels\documents\github\dsp\software\stm32basis\hal\gemeenschappelijk\third_party\freertos-addons-1.1.0\c++\source\include\queue.hpp ****          *  Get what happened as a string.
  62:c:\users\niels\documents\github\dsp\software\stm32basis\hal\gemeenschappelijk\third_party\freertos-addons-1.1.0\c++\source\include\queue.hpp ****          *  We are overriding the base implementation here.
  63:c:\users\niels\documents\github\dsp\software\stm32basis\hal\gemeenschappelijk\third_party\freertos-addons-1.1.0\c++\source\include\queue.hpp ****          */
  64:c:\users\niels\documents\github\dsp\software\stm32basis\hal\gemeenschappelijk\third_party\freertos-addons-1.1.0\c++\source\include\queue.hpp ****         virtual const char *what() const throw()
  65:c:\users\niels\documents\github\dsp\software\stm32basis\hal\gemeenschappelijk\third_party\freertos-addons-1.1.0\c++\source\include\queue.hpp ****         {
  66:c:\users\niels\documents\github\dsp\software\stm32basis\hal\gemeenschappelijk\third_party\freertos-addons-1.1.0\c++\source\include\queue.hpp ****             return errorString;
  67:c:\users\niels\documents\github\dsp\software\stm32basis\hal\gemeenschappelijk\third_party\freertos-addons-1.1.0\c++\source\include\queue.hpp ****         }
  68:c:\users\niels\documents\github\dsp\software\stm32basis\hal\gemeenschappelijk\third_party\freertos-addons-1.1.0\c++\source\include\queue.hpp **** 
  69:c:\users\niels\documents\github\dsp\software\stm32basis\hal\gemeenschappelijk\third_party\freertos-addons-1.1.0\c++\source\include\queue.hpp ****     private:
  70:c:\users\niels\documents\github\dsp\software\stm32basis\hal\gemeenschappelijk\third_party\freertos-addons-1.1.0\c++\source\include\queue.hpp ****         /**
  71:c:\users\niels\documents\github\dsp\software\stm32basis\hal\gemeenschappelijk\third_party\freertos-addons-1.1.0\c++\source\include\queue.hpp ****          *  A text string representing what failed.
  72:c:\users\niels\documents\github\dsp\software\stm32basis\hal\gemeenschappelijk\third_party\freertos-addons-1.1.0\c++\source\include\queue.hpp ****          */
  73:c:\users\niels\documents\github\dsp\software\stm32basis\hal\gemeenschappelijk\third_party\freertos-addons-1.1.0\c++\source\include\queue.hpp ****         char errorString[80];
  74:c:\users\niels\documents\github\dsp\software\stm32basis\hal\gemeenschappelijk\third_party\freertos-addons-1.1.0\c++\source\include\queue.hpp **** };
  75:c:\users\niels\documents\github\dsp\software\stm32basis\hal\gemeenschappelijk\third_party\freertos-addons-1.1.0\c++\source\include\queue.hpp **** 
  76:c:\users\niels\documents\github\dsp\software\stm32basis\hal\gemeenschappelijk\third_party\freertos-addons-1.1.0\c++\source\include\queue.hpp **** 
  77:c:\users\niels\documents\github\dsp\software\stm32basis\hal\gemeenschappelijk\third_party\freertos-addons-1.1.0\c++\source\include\queue.hpp **** /**
  78:c:\users\niels\documents\github\dsp\software\stm32basis\hal\gemeenschappelijk\third_party\freertos-addons-1.1.0\c++\source\include\queue.hpp ****  *  Queue class wrapper for FreeRTOS queues. This class provides enqueue
  79:c:\users\niels\documents\github\dsp\software\stm32basis\hal\gemeenschappelijk\third_party\freertos-addons-1.1.0\c++\source\include\queue.hpp ****  *  and dequeue operations.
  80:c:\users\niels\documents\github\dsp\software\stm32basis\hal\gemeenschappelijk\third_party\freertos-addons-1.1.0\c++\source\include\queue.hpp ****  *
  81:c:\users\niels\documents\github\dsp\software\stm32basis\hal\gemeenschappelijk\third_party\freertos-addons-1.1.0\c++\source\include\queue.hpp ****  *  @note It is expected that an application will instantiate this class or
  82:c:\users\niels\documents\github\dsp\software\stm32basis\hal\gemeenschappelijk\third_party\freertos-addons-1.1.0\c++\source\include\queue.hpp ****  *        one of the derived classes and use that. It is not expected that
  83:c:\users\niels\documents\github\dsp\software\stm32basis\hal\gemeenschappelijk\third_party\freertos-addons-1.1.0\c++\source\include\queue.hpp ****  *        a user or application will derive from these classes.
  84:c:\users\niels\documents\github\dsp\software\stm32basis\hal\gemeenschappelijk\third_party\freertos-addons-1.1.0\c++\source\include\queue.hpp ****  */
  85:c:\users\niels\documents\github\dsp\software\stm32basis\hal\gemeenschappelijk\third_party\freertos-addons-1.1.0\c++\source\include\queue.hpp **** class Queue {
  86:c:\users\niels\documents\github\dsp\software\stm32basis\hal\gemeenschappelijk\third_party\freertos-addons-1.1.0\c++\source\include\queue.hpp **** 
  87:c:\users\niels\documents\github\dsp\software\stm32basis\hal\gemeenschappelijk\third_party\freertos-addons-1.1.0\c++\source\include\queue.hpp ****     /////////////////////////////////////////////////////////////////////////
  88:c:\users\niels\documents\github\dsp\software\stm32basis\hal\gemeenschappelijk\third_party\freertos-addons-1.1.0\c++\source\include\queue.hpp ****     //
  89:c:\users\niels\documents\github\dsp\software\stm32basis\hal\gemeenschappelijk\third_party\freertos-addons-1.1.0\c++\source\include\queue.hpp ****     //  Public API
  90:c:\users\niels\documents\github\dsp\software\stm32basis\hal\gemeenschappelijk\third_party\freertos-addons-1.1.0\c++\source\include\queue.hpp ****     //
  91:c:\users\niels\documents\github\dsp\software\stm32basis\hal\gemeenschappelijk\third_party\freertos-addons-1.1.0\c++\source\include\queue.hpp ****     /////////////////////////////////////////////////////////////////////////
  92:c:\users\niels\documents\github\dsp\software\stm32basis\hal\gemeenschappelijk\third_party\freertos-addons-1.1.0\c++\source\include\queue.hpp ****     public:
  93:c:\users\niels\documents\github\dsp\software\stm32basis\hal\gemeenschappelijk\third_party\freertos-addons-1.1.0\c++\source\include\queue.hpp ****         /**
  94:c:\users\niels\documents\github\dsp\software\stm32basis\hal\gemeenschappelijk\third_party\freertos-addons-1.1.0\c++\source\include\queue.hpp ****          *  Our constructor.
  95:c:\users\niels\documents\github\dsp\software\stm32basis\hal\gemeenschappelijk\third_party\freertos-addons-1.1.0\c++\source\include\queue.hpp ****          *
  96:c:\users\niels\documents\github\dsp\software\stm32basis\hal\gemeenschappelijk\third_party\freertos-addons-1.1.0\c++\source\include\queue.hpp ****          *  @throws QueueCreateException
  97:c:\users\niels\documents\github\dsp\software\stm32basis\hal\gemeenschappelijk\third_party\freertos-addons-1.1.0\c++\source\include\queue.hpp ****          *  @param maxItems Maximum number of items this queue can hold.
  98:c:\users\niels\documents\github\dsp\software\stm32basis\hal\gemeenschappelijk\third_party\freertos-addons-1.1.0\c++\source\include\queue.hpp ****          *  @param itemSize Size of an item in a queue.
  99:c:\users\niels\documents\github\dsp\software\stm32basis\hal\gemeenschappelijk\third_party\freertos-addons-1.1.0\c++\source\include\queue.hpp ****          *  @note FreeRTOS queues use a memcpy / fixed size scheme for queues.
 100:c:\users\niels\documents\github\dsp\software\stm32basis\hal\gemeenschappelijk\third_party\freertos-addons-1.1.0\c++\source\include\queue.hpp ****          */
 101:c:\users\niels\documents\github\dsp\software\stm32basis\hal\gemeenschappelijk\third_party\freertos-addons-1.1.0\c++\source\include\queue.hpp ****         Queue(UBaseType_t maxItems, UBaseType_t itemSize);
 102:c:\users\niels\documents\github\dsp\software\stm32basis\hal\gemeenschappelijk\third_party\freertos-addons-1.1.0\c++\source\include\queue.hpp **** 
ARM GAS   			page 30


 103:c:\users\niels\documents\github\dsp\software\stm32basis\hal\gemeenschappelijk\third_party\freertos-addons-1.1.0\c++\source\include\queue.hpp ****         /**
 104:c:\users\niels\documents\github\dsp\software\stm32basis\hal\gemeenschappelijk\third_party\freertos-addons-1.1.0\c++\source\include\queue.hpp ****          *  Our destructor.
 105:c:\users\niels\documents\github\dsp\software\stm32basis\hal\gemeenschappelijk\third_party\freertos-addons-1.1.0\c++\source\include\queue.hpp ****          */
 106:c:\users\niels\documents\github\dsp\software\stm32basis\hal\gemeenschappelijk\third_party\freertos-addons-1.1.0\c++\source\include\queue.hpp ****         virtual ~Queue();
 107:c:\users\niels\documents\github\dsp\software\stm32basis\hal\gemeenschappelijk\third_party\freertos-addons-1.1.0\c++\source\include\queue.hpp **** 
 108:c:\users\niels\documents\github\dsp\software\stm32basis\hal\gemeenschappelijk\third_party\freertos-addons-1.1.0\c++\source\include\queue.hpp ****         /**
 109:c:\users\niels\documents\github\dsp\software\stm32basis\hal\gemeenschappelijk\third_party\freertos-addons-1.1.0\c++\source\include\queue.hpp ****          *  Add an item to the back of the queue.
 110:c:\users\niels\documents\github\dsp\software\stm32basis\hal\gemeenschappelijk\third_party\freertos-addons-1.1.0\c++\source\include\queue.hpp ****          *
 111:c:\users\niels\documents\github\dsp\software\stm32basis\hal\gemeenschappelijk\third_party\freertos-addons-1.1.0\c++\source\include\queue.hpp ****          *  @param item The item you are adding.
 112:c:\users\niels\documents\github\dsp\software\stm32basis\hal\gemeenschappelijk\third_party\freertos-addons-1.1.0\c++\source\include\queue.hpp ****          *  @return true if the item was added, false if it was not.
 113:c:\users\niels\documents\github\dsp\software\stm32basis\hal\gemeenschappelijk\third_party\freertos-addons-1.1.0\c++\source\include\queue.hpp ****          */
 114:c:\users\niels\documents\github\dsp\software\stm32basis\hal\gemeenschappelijk\third_party\freertos-addons-1.1.0\c++\source\include\queue.hpp ****         virtual bool Enqueue(void *item);
 115:c:\users\niels\documents\github\dsp\software\stm32basis\hal\gemeenschappelijk\third_party\freertos-addons-1.1.0\c++\source\include\queue.hpp **** 
 116:c:\users\niels\documents\github\dsp\software\stm32basis\hal\gemeenschappelijk\third_party\freertos-addons-1.1.0\c++\source\include\queue.hpp ****         /**
 117:c:\users\niels\documents\github\dsp\software\stm32basis\hal\gemeenschappelijk\third_party\freertos-addons-1.1.0\c++\source\include\queue.hpp ****          *  Add an item to the back of the queue.
 118:c:\users\niels\documents\github\dsp\software\stm32basis\hal\gemeenschappelijk\third_party\freertos-addons-1.1.0\c++\source\include\queue.hpp ****          *
 119:c:\users\niels\documents\github\dsp\software\stm32basis\hal\gemeenschappelijk\third_party\freertos-addons-1.1.0\c++\source\include\queue.hpp ****          *  @param item The item you are adding.
 120:c:\users\niels\documents\github\dsp\software\stm32basis\hal\gemeenschappelijk\third_party\freertos-addons-1.1.0\c++\source\include\queue.hpp ****          *  @param Timeout How long to wait to add the item to the queue if
 121:c:\users\niels\documents\github\dsp\software\stm32basis\hal\gemeenschappelijk\third_party\freertos-addons-1.1.0\c++\source\include\queue.hpp ****          *         the queue is currently full.
 122:c:\users\niels\documents\github\dsp\software\stm32basis\hal\gemeenschappelijk\third_party\freertos-addons-1.1.0\c++\source\include\queue.hpp ****          *  @return true if the item was added, false if it was not.
 123:c:\users\niels\documents\github\dsp\software\stm32basis\hal\gemeenschappelijk\third_party\freertos-addons-1.1.0\c++\source\include\queue.hpp ****          */
 124:c:\users\niels\documents\github\dsp\software\stm32basis\hal\gemeenschappelijk\third_party\freertos-addons-1.1.0\c++\source\include\queue.hpp ****         virtual bool Enqueue(void *item, TickType_t Timeout);
 125:c:\users\niels\documents\github\dsp\software\stm32basis\hal\gemeenschappelijk\third_party\freertos-addons-1.1.0\c++\source\include\queue.hpp **** 
 126:c:\users\niels\documents\github\dsp\software\stm32basis\hal\gemeenschappelijk\third_party\freertos-addons-1.1.0\c++\source\include\queue.hpp ****         /**
 127:c:\users\niels\documents\github\dsp\software\stm32basis\hal\gemeenschappelijk\third_party\freertos-addons-1.1.0\c++\source\include\queue.hpp ****          *  Remove an item from the front of the queue.
 128:c:\users\niels\documents\github\dsp\software\stm32basis\hal\gemeenschappelijk\third_party\freertos-addons-1.1.0\c++\source\include\queue.hpp ****          *
 129:c:\users\niels\documents\github\dsp\software\stm32basis\hal\gemeenschappelijk\third_party\freertos-addons-1.1.0\c++\source\include\queue.hpp ****          *  @param item Where the item you are removing will be returned to.
 130:c:\users\niels\documents\github\dsp\software\stm32basis\hal\gemeenschappelijk\third_party\freertos-addons-1.1.0\c++\source\include\queue.hpp ****          *  @param Timeout How long to wait to remove an item if the queue
 131:c:\users\niels\documents\github\dsp\software\stm32basis\hal\gemeenschappelijk\third_party\freertos-addons-1.1.0\c++\source\include\queue.hpp ****          *         is currently empty.
 132:c:\users\niels\documents\github\dsp\software\stm32basis\hal\gemeenschappelijk\third_party\freertos-addons-1.1.0\c++\source\include\queue.hpp ****          *  @return true if an item was removed, false if no item was removed.
 133:c:\users\niels\documents\github\dsp\software\stm32basis\hal\gemeenschappelijk\third_party\freertos-addons-1.1.0\c++\source\include\queue.hpp ****          */
 134:c:\users\niels\documents\github\dsp\software\stm32basis\hal\gemeenschappelijk\third_party\freertos-addons-1.1.0\c++\source\include\queue.hpp ****         bool Dequeue(void *item, TickType_t Timeout = portMAX_DELAY);
 135:c:\users\niels\documents\github\dsp\software\stm32basis\hal\gemeenschappelijk\third_party\freertos-addons-1.1.0\c++\source\include\queue.hpp **** 
 136:c:\users\niels\documents\github\dsp\software\stm32basis\hal\gemeenschappelijk\third_party\freertos-addons-1.1.0\c++\source\include\queue.hpp ****         /**
 137:c:\users\niels\documents\github\dsp\software\stm32basis\hal\gemeenschappelijk\third_party\freertos-addons-1.1.0\c++\source\include\queue.hpp ****          *  Make a copy of an item from the front of the queue. This will
 138:c:\users\niels\documents\github\dsp\software\stm32basis\hal\gemeenschappelijk\third_party\freertos-addons-1.1.0\c++\source\include\queue.hpp ****          *  not remove it from the head of the queue.
 139:c:\users\niels\documents\github\dsp\software\stm32basis\hal\gemeenschappelijk\third_party\freertos-addons-1.1.0\c++\source\include\queue.hpp ****          *
 140:c:\users\niels\documents\github\dsp\software\stm32basis\hal\gemeenschappelijk\third_party\freertos-addons-1.1.0\c++\source\include\queue.hpp ****          *  @param item Where the item you are removing will be returned to.
 141:c:\users\niels\documents\github\dsp\software\stm32basis\hal\gemeenschappelijk\third_party\freertos-addons-1.1.0\c++\source\include\queue.hpp ****          *  @param Timeout How long to wait to remove an item if the queue
 142:c:\users\niels\documents\github\dsp\software\stm32basis\hal\gemeenschappelijk\third_party\freertos-addons-1.1.0\c++\source\include\queue.hpp ****          *         is currently empty.
 143:c:\users\niels\documents\github\dsp\software\stm32basis\hal\gemeenschappelijk\third_party\freertos-addons-1.1.0\c++\source\include\queue.hpp ****          *  @return true if an item was copied, false if no item was copied.
 144:c:\users\niels\documents\github\dsp\software\stm32basis\hal\gemeenschappelijk\third_party\freertos-addons-1.1.0\c++\source\include\queue.hpp ****          */
 145:c:\users\niels\documents\github\dsp\software\stm32basis\hal\gemeenschappelijk\third_party\freertos-addons-1.1.0\c++\source\include\queue.hpp ****         bool Peek(void *item, TickType_t Timeout = portMAX_DELAY);
 146:c:\users\niels\documents\github\dsp\software\stm32basis\hal\gemeenschappelijk\third_party\freertos-addons-1.1.0\c++\source\include\queue.hpp **** 
 147:c:\users\niels\documents\github\dsp\software\stm32basis\hal\gemeenschappelijk\third_party\freertos-addons-1.1.0\c++\source\include\queue.hpp ****         /**
 148:c:\users\niels\documents\github\dsp\software\stm32basis\hal\gemeenschappelijk\third_party\freertos-addons-1.1.0\c++\source\include\queue.hpp ****          *  Add an item to the back of the queue in ISR context.
 149:c:\users\niels\documents\github\dsp\software\stm32basis\hal\gemeenschappelijk\third_party\freertos-addons-1.1.0\c++\source\include\queue.hpp ****          *
 150:c:\users\niels\documents\github\dsp\software\stm32basis\hal\gemeenschappelijk\third_party\freertos-addons-1.1.0\c++\source\include\queue.hpp ****          *  @param item The item you are adding.
 151:c:\users\niels\documents\github\dsp\software\stm32basis\hal\gemeenschappelijk\third_party\freertos-addons-1.1.0\c++\source\include\queue.hpp ****          *  @param pxHigherPriorityTaskWoken Did this operation result in a
 152:c:\users\niels\documents\github\dsp\software\stm32basis\hal\gemeenschappelijk\third_party\freertos-addons-1.1.0\c++\source\include\queue.hpp ****          *         rescheduling event.
 153:c:\users\niels\documents\github\dsp\software\stm32basis\hal\gemeenschappelijk\third_party\freertos-addons-1.1.0\c++\source\include\queue.hpp ****          *  @return true if the item was added, false if it was not.
 154:c:\users\niels\documents\github\dsp\software\stm32basis\hal\gemeenschappelijk\third_party\freertos-addons-1.1.0\c++\source\include\queue.hpp ****          */
 155:c:\users\niels\documents\github\dsp\software\stm32basis\hal\gemeenschappelijk\third_party\freertos-addons-1.1.0\c++\source\include\queue.hpp ****         virtual bool EnqueueFromISR(void *item, BaseType_t *pxHigherPriorityTaskWoken);
 156:c:\users\niels\documents\github\dsp\software\stm32basis\hal\gemeenschappelijk\third_party\freertos-addons-1.1.0\c++\source\include\queue.hpp **** 
 157:c:\users\niels\documents\github\dsp\software\stm32basis\hal\gemeenschappelijk\third_party\freertos-addons-1.1.0\c++\source\include\queue.hpp ****         /**
 158:c:\users\niels\documents\github\dsp\software\stm32basis\hal\gemeenschappelijk\third_party\freertos-addons-1.1.0\c++\source\include\queue.hpp ****          *  Remove an item from the front of the queue in ISR context.
 159:c:\users\niels\documents\github\dsp\software\stm32basis\hal\gemeenschappelijk\third_party\freertos-addons-1.1.0\c++\source\include\queue.hpp ****          *
ARM GAS   			page 31


 160:c:\users\niels\documents\github\dsp\software\stm32basis\hal\gemeenschappelijk\third_party\freertos-addons-1.1.0\c++\source\include\queue.hpp ****          *  @param item Where the item you are removing will be returned to.
 161:c:\users\niels\documents\github\dsp\software\stm32basis\hal\gemeenschappelijk\third_party\freertos-addons-1.1.0\c++\source\include\queue.hpp ****          *  @param pxHigherPriorityTaskWoken Did this operation result in a
 162:c:\users\niels\documents\github\dsp\software\stm32basis\hal\gemeenschappelijk\third_party\freertos-addons-1.1.0\c++\source\include\queue.hpp ****          *         rescheduling event.
 163:c:\users\niels\documents\github\dsp\software\stm32basis\hal\gemeenschappelijk\third_party\freertos-addons-1.1.0\c++\source\include\queue.hpp ****          *  @return true if an item was removed, false if no item was removed.
 164:c:\users\niels\documents\github\dsp\software\stm32basis\hal\gemeenschappelijk\third_party\freertos-addons-1.1.0\c++\source\include\queue.hpp ****          */
 165:c:\users\niels\documents\github\dsp\software\stm32basis\hal\gemeenschappelijk\third_party\freertos-addons-1.1.0\c++\source\include\queue.hpp ****         bool DequeueFromISR(void *item, BaseType_t *pxHigherPriorityTaskWoken);
 166:c:\users\niels\documents\github\dsp\software\stm32basis\hal\gemeenschappelijk\third_party\freertos-addons-1.1.0\c++\source\include\queue.hpp **** 
 167:c:\users\niels\documents\github\dsp\software\stm32basis\hal\gemeenschappelijk\third_party\freertos-addons-1.1.0\c++\source\include\queue.hpp ****         /**
 168:c:\users\niels\documents\github\dsp\software\stm32basis\hal\gemeenschappelijk\third_party\freertos-addons-1.1.0\c++\source\include\queue.hpp ****          *  Make a copy of an item from the front of the queue. This will
 169:c:\users\niels\documents\github\dsp\software\stm32basis\hal\gemeenschappelijk\third_party\freertos-addons-1.1.0\c++\source\include\queue.hpp ****          *  not remove it from the head of the queue.
 170:c:\users\niels\documents\github\dsp\software\stm32basis\hal\gemeenschappelijk\third_party\freertos-addons-1.1.0\c++\source\include\queue.hpp ****          *
 171:c:\users\niels\documents\github\dsp\software\stm32basis\hal\gemeenschappelijk\third_party\freertos-addons-1.1.0\c++\source\include\queue.hpp ****          *  @param item Where the item you are removing will be returned to.
 172:c:\users\niels\documents\github\dsp\software\stm32basis\hal\gemeenschappelijk\third_party\freertos-addons-1.1.0\c++\source\include\queue.hpp ****          *  @return true if an item was copied, false if no item was copied.
 173:c:\users\niels\documents\github\dsp\software\stm32basis\hal\gemeenschappelijk\third_party\freertos-addons-1.1.0\c++\source\include\queue.hpp ****          */
 174:c:\users\niels\documents\github\dsp\software\stm32basis\hal\gemeenschappelijk\third_party\freertos-addons-1.1.0\c++\source\include\queue.hpp ****         bool PeekFromISR(void *item);
 175:c:\users\niels\documents\github\dsp\software\stm32basis\hal\gemeenschappelijk\third_party\freertos-addons-1.1.0\c++\source\include\queue.hpp **** 
 176:c:\users\niels\documents\github\dsp\software\stm32basis\hal\gemeenschappelijk\third_party\freertos-addons-1.1.0\c++\source\include\queue.hpp ****         /**
 177:c:\users\niels\documents\github\dsp\software\stm32basis\hal\gemeenschappelijk\third_party\freertos-addons-1.1.0\c++\source\include\queue.hpp ****          *  Is the queue empty?
 178:c:\users\niels\documents\github\dsp\software\stm32basis\hal\gemeenschappelijk\third_party\freertos-addons-1.1.0\c++\source\include\queue.hpp ****          *  @return true if the queue was empty when this was called, false if
 179:c:\users\niels\documents\github\dsp\software\stm32basis\hal\gemeenschappelijk\third_party\freertos-addons-1.1.0\c++\source\include\queue.hpp ****          *  the queue was not empty.
 180:c:\users\niels\documents\github\dsp\software\stm32basis\hal\gemeenschappelijk\third_party\freertos-addons-1.1.0\c++\source\include\queue.hpp ****          */
 181:c:\users\niels\documents\github\dsp\software\stm32basis\hal\gemeenschappelijk\third_party\freertos-addons-1.1.0\c++\source\include\queue.hpp ****         bool IsEmpty();
 182:c:\users\niels\documents\github\dsp\software\stm32basis\hal\gemeenschappelijk\third_party\freertos-addons-1.1.0\c++\source\include\queue.hpp **** 
 183:c:\users\niels\documents\github\dsp\software\stm32basis\hal\gemeenschappelijk\third_party\freertos-addons-1.1.0\c++\source\include\queue.hpp ****         /**
 184:c:\users\niels\documents\github\dsp\software\stm32basis\hal\gemeenschappelijk\third_party\freertos-addons-1.1.0\c++\source\include\queue.hpp ****          *  Is the queue full?
 185:c:\users\niels\documents\github\dsp\software\stm32basis\hal\gemeenschappelijk\third_party\freertos-addons-1.1.0\c++\source\include\queue.hpp ****          *  @return true if the queue was full when this was called, false if
 186:c:\users\niels\documents\github\dsp\software\stm32basis\hal\gemeenschappelijk\third_party\freertos-addons-1.1.0\c++\source\include\queue.hpp ****          *  the queue was not full.
 187:c:\users\niels\documents\github\dsp\software\stm32basis\hal\gemeenschappelijk\third_party\freertos-addons-1.1.0\c++\source\include\queue.hpp ****          */
 188:c:\users\niels\documents\github\dsp\software\stm32basis\hal\gemeenschappelijk\third_party\freertos-addons-1.1.0\c++\source\include\queue.hpp ****         bool IsFull();
 189:c:\users\niels\documents\github\dsp\software\stm32basis\hal\gemeenschappelijk\third_party\freertos-addons-1.1.0\c++\source\include\queue.hpp **** 
 190:c:\users\niels\documents\github\dsp\software\stm32basis\hal\gemeenschappelijk\third_party\freertos-addons-1.1.0\c++\source\include\queue.hpp ****         /**
 191:c:\users\niels\documents\github\dsp\software\stm32basis\hal\gemeenschappelijk\third_party\freertos-addons-1.1.0\c++\source\include\queue.hpp ****          *  Remove all objects from the queue.
 192:c:\users\niels\documents\github\dsp\software\stm32basis\hal\gemeenschappelijk\third_party\freertos-addons-1.1.0\c++\source\include\queue.hpp ****          */
 193:c:\users\niels\documents\github\dsp\software\stm32basis\hal\gemeenschappelijk\third_party\freertos-addons-1.1.0\c++\source\include\queue.hpp ****         void Flush();
 194:c:\users\niels\documents\github\dsp\software\stm32basis\hal\gemeenschappelijk\third_party\freertos-addons-1.1.0\c++\source\include\queue.hpp **** 
 195:c:\users\niels\documents\github\dsp\software\stm32basis\hal\gemeenschappelijk\third_party\freertos-addons-1.1.0\c++\source\include\queue.hpp ****         /**
 196:c:\users\niels\documents\github\dsp\software\stm32basis\hal\gemeenschappelijk\third_party\freertos-addons-1.1.0\c++\source\include\queue.hpp ****          *  How many items are currently in the queue.
 197:c:\users\niels\documents\github\dsp\software\stm32basis\hal\gemeenschappelijk\third_party\freertos-addons-1.1.0\c++\source\include\queue.hpp ****          *  @return the number of items in the queue.
 198:c:\users\niels\documents\github\dsp\software\stm32basis\hal\gemeenschappelijk\third_party\freertos-addons-1.1.0\c++\source\include\queue.hpp ****          */
 199:c:\users\niels\documents\github\dsp\software\stm32basis\hal\gemeenschappelijk\third_party\freertos-addons-1.1.0\c++\source\include\queue.hpp ****         UBaseType_t NumItems();
 200:c:\users\niels\documents\github\dsp\software\stm32basis\hal\gemeenschappelijk\third_party\freertos-addons-1.1.0\c++\source\include\queue.hpp **** 
 201:c:\users\niels\documents\github\dsp\software\stm32basis\hal\gemeenschappelijk\third_party\freertos-addons-1.1.0\c++\source\include\queue.hpp ****         /**
 202:c:\users\niels\documents\github\dsp\software\stm32basis\hal\gemeenschappelijk\third_party\freertos-addons-1.1.0\c++\source\include\queue.hpp ****          *  How many empty spaves are currently left in the queue.
 203:c:\users\niels\documents\github\dsp\software\stm32basis\hal\gemeenschappelijk\third_party\freertos-addons-1.1.0\c++\source\include\queue.hpp ****          *  @return the number of remaining spaces.
 204:c:\users\niels\documents\github\dsp\software\stm32basis\hal\gemeenschappelijk\third_party\freertos-addons-1.1.0\c++\source\include\queue.hpp ****          */
 205:c:\users\niels\documents\github\dsp\software\stm32basis\hal\gemeenschappelijk\third_party\freertos-addons-1.1.0\c++\source\include\queue.hpp ****         UBaseType_t NumSpacesLeft();
 206:c:\users\niels\documents\github\dsp\software\stm32basis\hal\gemeenschappelijk\third_party\freertos-addons-1.1.0\c++\source\include\queue.hpp **** 
 207:c:\users\niels\documents\github\dsp\software\stm32basis\hal\gemeenschappelijk\third_party\freertos-addons-1.1.0\c++\source\include\queue.hpp ****     /////////////////////////////////////////////////////////////////////////
 208:c:\users\niels\documents\github\dsp\software\stm32basis\hal\gemeenschappelijk\third_party\freertos-addons-1.1.0\c++\source\include\queue.hpp ****     //
 209:c:\users\niels\documents\github\dsp\software\stm32basis\hal\gemeenschappelijk\third_party\freertos-addons-1.1.0\c++\source\include\queue.hpp ****     //  Protected API
 210:c:\users\niels\documents\github\dsp\software\stm32basis\hal\gemeenschappelijk\third_party\freertos-addons-1.1.0\c++\source\include\queue.hpp ****     //  Not intended for use by application code.
 211:c:\users\niels\documents\github\dsp\software\stm32basis\hal\gemeenschappelijk\third_party\freertos-addons-1.1.0\c++\source\include\queue.hpp ****     //
 212:c:\users\niels\documents\github\dsp\software\stm32basis\hal\gemeenschappelijk\third_party\freertos-addons-1.1.0\c++\source\include\queue.hpp ****     /////////////////////////////////////////////////////////////////////////
 213:c:\users\niels\documents\github\dsp\software\stm32basis\hal\gemeenschappelijk\third_party\freertos-addons-1.1.0\c++\source\include\queue.hpp ****     protected:
 214:c:\users\niels\documents\github\dsp\software\stm32basis\hal\gemeenschappelijk\third_party\freertos-addons-1.1.0\c++\source\include\queue.hpp ****         /**
 215:c:\users\niels\documents\github\dsp\software\stm32basis\hal\gemeenschappelijk\third_party\freertos-addons-1.1.0\c++\source\include\queue.hpp ****          *  FreeRTOS queue handle.
 216:c:\users\niels\documents\github\dsp\software\stm32basis\hal\gemeenschappelijk\third_party\freertos-addons-1.1.0\c++\source\include\queue.hpp ****          */
ARM GAS   			page 32


 217:c:\users\niels\documents\github\dsp\software\stm32basis\hal\gemeenschappelijk\third_party\freertos-addons-1.1.0\c++\source\include\queue.hpp ****         QueueHandle_t handle;
 218:c:\users\niels\documents\github\dsp\software\stm32basis\hal\gemeenschappelijk\third_party\freertos-addons-1.1.0\c++\source\include\queue.hpp **** };
 219:c:\users\niels\documents\github\dsp\software\stm32basis\hal\gemeenschappelijk\third_party\freertos-addons-1.1.0\c++\source\include\queue.hpp **** 
 220:c:\users\niels\documents\github\dsp\software\stm32basis\hal\gemeenschappelijk\third_party\freertos-addons-1.1.0\c++\source\include\queue.hpp **** 
 221:c:\users\niels\documents\github\dsp\software\stm32basis\hal\gemeenschappelijk\third_party\freertos-addons-1.1.0\c++\source\include\queue.hpp **** /**
 222:c:\users\niels\documents\github\dsp\software\stm32basis\hal\gemeenschappelijk\third_party\freertos-addons-1.1.0\c++\source\include\queue.hpp ****  *  Enhanced queue class that implements a double ended queue (a "deque"),
 223:c:\users\niels\documents\github\dsp\software\stm32basis\hal\gemeenschappelijk\third_party\freertos-addons-1.1.0\c++\source\include\queue.hpp ****  *  almost. Unlike the traditional CommSci version, there is no way to
 224:c:\users\niels\documents\github\dsp\software\stm32basis\hal\gemeenschappelijk\third_party\freertos-addons-1.1.0\c++\source\include\queue.hpp ****  *  dequeue from the back. Practically, this most likely isn't a big deal.
 225:c:\users\niels\documents\github\dsp\software\stm32basis\hal\gemeenschappelijk\third_party\freertos-addons-1.1.0\c++\source\include\queue.hpp ****  *
 226:c:\users\niels\documents\github\dsp\software\stm32basis\hal\gemeenschappelijk\third_party\freertos-addons-1.1.0\c++\source\include\queue.hpp ****  *  @note It is expected that an application will instantiate this class or
 227:c:\users\niels\documents\github\dsp\software\stm32basis\hal\gemeenschappelijk\third_party\freertos-addons-1.1.0\c++\source\include\queue.hpp ****  *        one of the derived classes and use that. It is not expected that
 228:c:\users\niels\documents\github\dsp\software\stm32basis\hal\gemeenschappelijk\third_party\freertos-addons-1.1.0\c++\source\include\queue.hpp ****  *        a user or application will derive from these classes.
 229:c:\users\niels\documents\github\dsp\software\stm32basis\hal\gemeenschappelijk\third_party\freertos-addons-1.1.0\c++\source\include\queue.hpp ****  */
 230:c:\users\niels\documents\github\dsp\software\stm32basis\hal\gemeenschappelijk\third_party\freertos-addons-1.1.0\c++\source\include\queue.hpp **** class Deque : public Queue {
 231:c:\users\niels\documents\github\dsp\software\stm32basis\hal\gemeenschappelijk\third_party\freertos-addons-1.1.0\c++\source\include\queue.hpp **** 
 232:c:\users\niels\documents\github\dsp\software\stm32basis\hal\gemeenschappelijk\third_party\freertos-addons-1.1.0\c++\source\include\queue.hpp ****     /////////////////////////////////////////////////////////////////////////
 233:c:\users\niels\documents\github\dsp\software\stm32basis\hal\gemeenschappelijk\third_party\freertos-addons-1.1.0\c++\source\include\queue.hpp ****     //
 234:c:\users\niels\documents\github\dsp\software\stm32basis\hal\gemeenschappelijk\third_party\freertos-addons-1.1.0\c++\source\include\queue.hpp ****     //  Public API
 235:c:\users\niels\documents\github\dsp\software\stm32basis\hal\gemeenschappelijk\third_party\freertos-addons-1.1.0\c++\source\include\queue.hpp ****     //
 236:c:\users\niels\documents\github\dsp\software\stm32basis\hal\gemeenschappelijk\third_party\freertos-addons-1.1.0\c++\source\include\queue.hpp ****     /////////////////////////////////////////////////////////////////////////
 237:c:\users\niels\documents\github\dsp\software\stm32basis\hal\gemeenschappelijk\third_party\freertos-addons-1.1.0\c++\source\include\queue.hpp ****     public:
 238:c:\users\niels\documents\github\dsp\software\stm32basis\hal\gemeenschappelijk\third_party\freertos-addons-1.1.0\c++\source\include\queue.hpp ****         /**
 239:c:\users\niels\documents\github\dsp\software\stm32basis\hal\gemeenschappelijk\third_party\freertos-addons-1.1.0\c++\source\include\queue.hpp ****          *  Our constructor.
 240:c:\users\niels\documents\github\dsp\software\stm32basis\hal\gemeenschappelijk\third_party\freertos-addons-1.1.0\c++\source\include\queue.hpp ****          *
 241:c:\users\niels\documents\github\dsp\software\stm32basis\hal\gemeenschappelijk\third_party\freertos-addons-1.1.0\c++\source\include\queue.hpp ****          *  @throws QueueCreateException
 242:c:\users\niels\documents\github\dsp\software\stm32basis\hal\gemeenschappelijk\third_party\freertos-addons-1.1.0\c++\source\include\queue.hpp ****          *  @param maxItems Maximum number of items thsi queue can hold.
 243:c:\users\niels\documents\github\dsp\software\stm32basis\hal\gemeenschappelijk\third_party\freertos-addons-1.1.0\c++\source\include\queue.hpp ****          *  @param itemSize Size of an item in a queue.
 244:c:\users\niels\documents\github\dsp\software\stm32basis\hal\gemeenschappelijk\third_party\freertos-addons-1.1.0\c++\source\include\queue.hpp ****          *  @note FreeRTOS queues use a memcpy / fixed size scheme for queues.
 245:c:\users\niels\documents\github\dsp\software\stm32basis\hal\gemeenschappelijk\third_party\freertos-addons-1.1.0\c++\source\include\queue.hpp ****          */
 246:c:\users\niels\documents\github\dsp\software\stm32basis\hal\gemeenschappelijk\third_party\freertos-addons-1.1.0\c++\source\include\queue.hpp ****         Deque(UBaseType_t maxItems, UBaseType_t itemSize);
 247:c:\users\niels\documents\github\dsp\software\stm32basis\hal\gemeenschappelijk\third_party\freertos-addons-1.1.0\c++\source\include\queue.hpp **** 
 248:c:\users\niels\documents\github\dsp\software\stm32basis\hal\gemeenschappelijk\third_party\freertos-addons-1.1.0\c++\source\include\queue.hpp ****         /**
 249:c:\users\niels\documents\github\dsp\software\stm32basis\hal\gemeenschappelijk\third_party\freertos-addons-1.1.0\c++\source\include\queue.hpp ****          *  Add an item to the front of the queue. This will result in
 250:c:\users\niels\documents\github\dsp\software\stm32basis\hal\gemeenschappelijk\third_party\freertos-addons-1.1.0\c++\source\include\queue.hpp ****          *  the item being removed first, ahead of all of the items
 251:c:\users\niels\documents\github\dsp\software\stm32basis\hal\gemeenschappelijk\third_party\freertos-addons-1.1.0\c++\source\include\queue.hpp ****          *  added by the base calss Dequeue() function.
 252:c:\users\niels\documents\github\dsp\software\stm32basis\hal\gemeenschappelijk\third_party\freertos-addons-1.1.0\c++\source\include\queue.hpp ****          *
 253:c:\users\niels\documents\github\dsp\software\stm32basis\hal\gemeenschappelijk\third_party\freertos-addons-1.1.0\c++\source\include\queue.hpp ****          *  @param item The item you are adding.
 254:c:\users\niels\documents\github\dsp\software\stm32basis\hal\gemeenschappelijk\third_party\freertos-addons-1.1.0\c++\source\include\queue.hpp ****          *  @param Timeout How long to wait to add the item to the queue if
 255:c:\users\niels\documents\github\dsp\software\stm32basis\hal\gemeenschappelijk\third_party\freertos-addons-1.1.0\c++\source\include\queue.hpp ****          *         the queue is currently full.
 256:c:\users\niels\documents\github\dsp\software\stm32basis\hal\gemeenschappelijk\third_party\freertos-addons-1.1.0\c++\source\include\queue.hpp ****          *  @return true if the item was added, false if it was not.
 257:c:\users\niels\documents\github\dsp\software\stm32basis\hal\gemeenschappelijk\third_party\freertos-addons-1.1.0\c++\source\include\queue.hpp ****          */
 258:c:\users\niels\documents\github\dsp\software\stm32basis\hal\gemeenschappelijk\third_party\freertos-addons-1.1.0\c++\source\include\queue.hpp ****         bool EnqueueToFront(void *item, TickType_t Timeout = portMAX_DELAY);
 259:c:\users\niels\documents\github\dsp\software\stm32basis\hal\gemeenschappelijk\third_party\freertos-addons-1.1.0\c++\source\include\queue.hpp **** 
 260:c:\users\niels\documents\github\dsp\software\stm32basis\hal\gemeenschappelijk\third_party\freertos-addons-1.1.0\c++\source\include\queue.hpp ****         /**
 261:c:\users\niels\documents\github\dsp\software\stm32basis\hal\gemeenschappelijk\third_party\freertos-addons-1.1.0\c++\source\include\queue.hpp ****          *  Add an item to the front of the queue. This will result in
 262:c:\users\niels\documents\github\dsp\software\stm32basis\hal\gemeenschappelijk\third_party\freertos-addons-1.1.0\c++\source\include\queue.hpp ****          *  the item being removed first, ahead of all of the items
 263:c:\users\niels\documents\github\dsp\software\stm32basis\hal\gemeenschappelijk\third_party\freertos-addons-1.1.0\c++\source\include\queue.hpp ****          *  added by the base calss Dequeue() function.
 264:c:\users\niels\documents\github\dsp\software\stm32basis\hal\gemeenschappelijk\third_party\freertos-addons-1.1.0\c++\source\include\queue.hpp ****          *
 265:c:\users\niels\documents\github\dsp\software\stm32basis\hal\gemeenschappelijk\third_party\freertos-addons-1.1.0\c++\source\include\queue.hpp ****          *  @param item The item you are adding.
 266:c:\users\niels\documents\github\dsp\software\stm32basis\hal\gemeenschappelijk\third_party\freertos-addons-1.1.0\c++\source\include\queue.hpp ****          *  @param pxHigherPriorityTaskWoken Did this operation result in a
 267:c:\users\niels\documents\github\dsp\software\stm32basis\hal\gemeenschappelijk\third_party\freertos-addons-1.1.0\c++\source\include\queue.hpp ****          *         rescheduling event.
 268:c:\users\niels\documents\github\dsp\software\stm32basis\hal\gemeenschappelijk\third_party\freertos-addons-1.1.0\c++\source\include\queue.hpp ****          *  @return true if the item was added, false if it was not.
 269:c:\users\niels\documents\github\dsp\software\stm32basis\hal\gemeenschappelijk\third_party\freertos-addons-1.1.0\c++\source\include\queue.hpp ****          */
 270:c:\users\niels\documents\github\dsp\software\stm32basis\hal\gemeenschappelijk\third_party\freertos-addons-1.1.0\c++\source\include\queue.hpp ****         bool EnqueueToFrontFromISR(void *item, BaseType_t *pxHigherPriorityTaskWoken);
 271:c:\users\niels\documents\github\dsp\software\stm32basis\hal\gemeenschappelijk\third_party\freertos-addons-1.1.0\c++\source\include\queue.hpp **** };
 272:c:\users\niels\documents\github\dsp\software\stm32basis\hal\gemeenschappelijk\third_party\freertos-addons-1.1.0\c++\source\include\queue.hpp **** 
 273:c:\users\niels\documents\github\dsp\software\stm32basis\hal\gemeenschappelijk\third_party\freertos-addons-1.1.0\c++\source\include\queue.hpp **** 
ARM GAS   			page 33


 274:c:\users\niels\documents\github\dsp\software\stm32basis\hal\gemeenschappelijk\third_party\freertos-addons-1.1.0\c++\source\include\queue.hpp **** /**
 275:c:\users\niels\documents\github\dsp\software\stm32basis\hal\gemeenschappelijk\third_party\freertos-addons-1.1.0\c++\source\include\queue.hpp ****  *  Binary queue with overwrite. This queue can only hold one item.
 276:c:\users\niels\documents\github\dsp\software\stm32basis\hal\gemeenschappelijk\third_party\freertos-addons-1.1.0\c++\source\include\queue.hpp ****  *  If sucessive Enqueue operations are called, that item is overwritten
 277:c:\users\niels\documents\github\dsp\software\stm32basis\hal\gemeenschappelijk\third_party\freertos-addons-1.1.0\c++\source\include\queue.hpp ****  *  with whatever the last item was.
 278:c:\users\niels\documents\github\dsp\software\stm32basis\hal\gemeenschappelijk\third_party\freertos-addons-1.1.0\c++\source\include\queue.hpp ****  *
 279:c:\users\niels\documents\github\dsp\software\stm32basis\hal\gemeenschappelijk\third_party\freertos-addons-1.1.0\c++\source\include\queue.hpp ****  *  @note It is expected that an application will instantiate this class or
 280:c:\users\niels\documents\github\dsp\software\stm32basis\hal\gemeenschappelijk\third_party\freertos-addons-1.1.0\c++\source\include\queue.hpp ****  *        one of the derived classes and use that. It is not expected that
 281:c:\users\niels\documents\github\dsp\software\stm32basis\hal\gemeenschappelijk\third_party\freertos-addons-1.1.0\c++\source\include\queue.hpp ****  *        a user or application will derive from these classes.
 282:c:\users\niels\documents\github\dsp\software\stm32basis\hal\gemeenschappelijk\third_party\freertos-addons-1.1.0\c++\source\include\queue.hpp ****  */
 283:c:\users\niels\documents\github\dsp\software\stm32basis\hal\gemeenschappelijk\third_party\freertos-addons-1.1.0\c++\source\include\queue.hpp **** class BinaryQueue : public Queue {
 1110              	 .loc 3 283 7
 1111              	 .cfi_startproc
 1112              	 
 1113              	 
 1114 0000 80B5     	 push {r7,lr}
 1115              	 .cfi_def_cfa_offset 8
 1116              	 .cfi_offset 7,-8
 1117              	 .cfi_offset 14,-4
 1118 0002 82B0     	 sub sp,sp,#8
 1119              	 .cfi_def_cfa_offset 16
 1120 0004 00AF     	 add r7,sp,#0
 1121              	 .cfi_def_cfa_register 7
 1122 0006 7860     	 str r0,[r7,#4]
 1123              	.LBB6:
 1124              	 .loc 3 283 7
 1125 0008 054A     	 ldr r2,.L55
 1126 000a 7B68     	 ldr r3,[r7,#4]
 1127 000c 1A60     	 str r2,[r3]
 1128 000e 7B68     	 ldr r3,[r7,#4]
 1129 0010 1846     	 mov r0,r3
 1130 0012 FFF7FEFF 	 bl _ZN12cpp_freertos5QueueD2Ev
 1131              	.LBE6:
 1132 0016 7B68     	 ldr r3,[r7,#4]
 1133 0018 1846     	 mov r0,r3
 1134 001a 0837     	 adds r7,r7,#8
 1135              	 .cfi_def_cfa_offset 8
 1136 001c BD46     	 mov sp,r7
 1137              	 .cfi_def_cfa_register 13
 1138              	 
 1139 001e 80BD     	 pop {r7,pc}
 1140              	.L56:
 1141              	 .align 2
 1142              	.L55:
 1143 0020 08000000 	 .word _ZTVN12cpp_freertos11BinaryQueueE+8
 1144              	 .cfi_endproc
 1145              	.LFE1529:
 1146              	 .size _ZN12cpp_freertos11BinaryQueueD2Ev,.-_ZN12cpp_freertos11BinaryQueueD2Ev
 1147              	 .weak _ZN12cpp_freertos11BinaryQueueD1Ev
 1148              	 .thumb_set _ZN12cpp_freertos11BinaryQueueD1Ev,_ZN12cpp_freertos11BinaryQueueD2Ev
 1149              	 .section .text._ZN12cpp_freertos11BinaryQueueD0Ev,"axG",%progbits,_ZN12cpp_freertos11BinaryQueueD5Ev,comdat
 1150              	 .align 1
 1151              	 .weak _ZN12cpp_freertos11BinaryQueueD0Ev
 1152              	 .syntax unified
 1153              	 .thumb
 1154              	 .thumb_func
 1155              	 .type _ZN12cpp_freertos11BinaryQueueD0Ev,%function
 1156              	_ZN12cpp_freertos11BinaryQueueD0Ev:
ARM GAS   			page 34


 1157              	.LFB1531:
 1158              	 .loc 3 283 7
 1159              	 .cfi_startproc
 1160              	 
 1161              	 
 1162 0000 80B5     	 push {r7,lr}
 1163              	 .cfi_def_cfa_offset 8
 1164              	 .cfi_offset 7,-8
 1165              	 .cfi_offset 14,-4
 1166 0002 82B0     	 sub sp,sp,#8
 1167              	 .cfi_def_cfa_offset 16
 1168 0004 00AF     	 add r7,sp,#0
 1169              	 .cfi_def_cfa_register 7
 1170 0006 7860     	 str r0,[r7,#4]
 1171              	 .loc 3 283 7
 1172 0008 7868     	 ldr r0,[r7,#4]
 1173 000a FFF7FEFF 	 bl _ZN12cpp_freertos11BinaryQueueD1Ev
 1174 000e 0821     	 movs r1,#8
 1175 0010 7868     	 ldr r0,[r7,#4]
 1176 0012 FFF7FEFF 	 bl _ZdlPvj
 1177 0016 7B68     	 ldr r3,[r7,#4]
 1178 0018 1846     	 mov r0,r3
 1179 001a 0837     	 adds r7,r7,#8
 1180              	 .cfi_def_cfa_offset 8
 1181 001c BD46     	 mov sp,r7
 1182              	 .cfi_def_cfa_register 13
 1183              	 
 1184 001e 80BD     	 pop {r7,pc}
 1185              	 .cfi_endproc
 1186              	.LFE1531:
 1187              	 .size _ZN12cpp_freertos11BinaryQueueD0Ev,.-_ZN12cpp_freertos11BinaryQueueD0Ev
 1188              	 .weak _ZTVN12cpp_freertos5DequeE
 1189              	 .section .rodata._ZTVN12cpp_freertos5DequeE,"aG",%progbits,_ZTVN12cpp_freertos5DequeE,comdat
 1190              	 .align 2
 1191              	 .type _ZTVN12cpp_freertos5DequeE,%object
 1192              	 .size _ZTVN12cpp_freertos5DequeE,28
 1193              	_ZTVN12cpp_freertos5DequeE:
 1194 0000 00000000 	 .word 0
 1195 0004 00000000 	 .word 0
 1196 0008 00000000 	 .word _ZN12cpp_freertos5DequeD1Ev
 1197 000c 00000000 	 .word _ZN12cpp_freertos5DequeD0Ev
 1198 0010 00000000 	 .word _ZN12cpp_freertos5Queue7EnqueueEPv
 1199 0014 00000000 	 .word _ZN12cpp_freertos5Queue7EnqueueEPvm
 1200 0018 00000000 	 .word _ZN12cpp_freertos5Queue14EnqueueFromISREPvPl
 1201              	 .section .text._ZN12cpp_freertos5DequeD2Ev,"axG",%progbits,_ZN12cpp_freertos5DequeD5Ev,comdat
 1202              	 .align 1
 1203              	 .weak _ZN12cpp_freertos5DequeD2Ev
 1204              	 .syntax unified
 1205              	 .thumb
 1206              	 .thumb_func
 1207              	 .type _ZN12cpp_freertos5DequeD2Ev,%function
 1208              	_ZN12cpp_freertos5DequeD2Ev:
 1209              	.LFB1533:
 230:c:\users\niels\documents\github\dsp\software\stm32basis\hal\gemeenschappelijk\third_party\freertos-addons-1.1.0\c++\source\include\queue.hpp **** 
 1210              	 .loc 3 230 7
 1211              	 .cfi_startproc
 1212              	 
ARM GAS   			page 35


 1213              	 
 1214 0000 80B5     	 push {r7,lr}
 1215              	 .cfi_def_cfa_offset 8
 1216              	 .cfi_offset 7,-8
 1217              	 .cfi_offset 14,-4
 1218 0002 82B0     	 sub sp,sp,#8
 1219              	 .cfi_def_cfa_offset 16
 1220 0004 00AF     	 add r7,sp,#0
 1221              	 .cfi_def_cfa_register 7
 1222 0006 7860     	 str r0,[r7,#4]
 1223              	.LBB7:
 230:c:\users\niels\documents\github\dsp\software\stm32basis\hal\gemeenschappelijk\third_party\freertos-addons-1.1.0\c++\source\include\queue.hpp **** 
 1224              	 .loc 3 230 7
 1225 0008 054A     	 ldr r2,.L61
 1226 000a 7B68     	 ldr r3,[r7,#4]
 1227 000c 1A60     	 str r2,[r3]
 1228 000e 7B68     	 ldr r3,[r7,#4]
 1229 0010 1846     	 mov r0,r3
 1230 0012 FFF7FEFF 	 bl _ZN12cpp_freertos5QueueD2Ev
 1231              	.LBE7:
 1232 0016 7B68     	 ldr r3,[r7,#4]
 1233 0018 1846     	 mov r0,r3
 1234 001a 0837     	 adds r7,r7,#8
 1235              	 .cfi_def_cfa_offset 8
 1236 001c BD46     	 mov sp,r7
 1237              	 .cfi_def_cfa_register 13
 1238              	 
 1239 001e 80BD     	 pop {r7,pc}
 1240              	.L62:
 1241              	 .align 2
 1242              	.L61:
 1243 0020 08000000 	 .word _ZTVN12cpp_freertos5DequeE+8
 1244              	 .cfi_endproc
 1245              	.LFE1533:
 1246              	 .size _ZN12cpp_freertos5DequeD2Ev,.-_ZN12cpp_freertos5DequeD2Ev
 1247              	 .weak _ZN12cpp_freertos5DequeD1Ev
 1248              	 .thumb_set _ZN12cpp_freertos5DequeD1Ev,_ZN12cpp_freertos5DequeD2Ev
 1249              	 .section .text._ZN12cpp_freertos5DequeD0Ev,"axG",%progbits,_ZN12cpp_freertos5DequeD5Ev,comdat
 1250              	 .align 1
 1251              	 .weak _ZN12cpp_freertos5DequeD0Ev
 1252              	 .syntax unified
 1253              	 .thumb
 1254              	 .thumb_func
 1255              	 .type _ZN12cpp_freertos5DequeD0Ev,%function
 1256              	_ZN12cpp_freertos5DequeD0Ev:
 1257              	.LFB1535:
 230:c:\users\niels\documents\github\dsp\software\stm32basis\hal\gemeenschappelijk\third_party\freertos-addons-1.1.0\c++\source\include\queue.hpp **** 
 1258              	 .loc 3 230 7
 1259              	 .cfi_startproc
 1260              	 
 1261              	 
 1262 0000 80B5     	 push {r7,lr}
 1263              	 .cfi_def_cfa_offset 8
 1264              	 .cfi_offset 7,-8
 1265              	 .cfi_offset 14,-4
 1266 0002 82B0     	 sub sp,sp,#8
 1267              	 .cfi_def_cfa_offset 16
ARM GAS   			page 36


 1268 0004 00AF     	 add r7,sp,#0
 1269              	 .cfi_def_cfa_register 7
 1270 0006 7860     	 str r0,[r7,#4]
 230:c:\users\niels\documents\github\dsp\software\stm32basis\hal\gemeenschappelijk\third_party\freertos-addons-1.1.0\c++\source\include\queue.hpp **** 
 1271              	 .loc 3 230 7
 1272 0008 7868     	 ldr r0,[r7,#4]
 1273 000a FFF7FEFF 	 bl _ZN12cpp_freertos5DequeD1Ev
 1274 000e 0821     	 movs r1,#8
 1275 0010 7868     	 ldr r0,[r7,#4]
 1276 0012 FFF7FEFF 	 bl _ZdlPvj
 1277 0016 7B68     	 ldr r3,[r7,#4]
 1278 0018 1846     	 mov r0,r3
 1279 001a 0837     	 adds r7,r7,#8
 1280              	 .cfi_def_cfa_offset 8
 1281 001c BD46     	 mov sp,r7
 1282              	 .cfi_def_cfa_register 13
 1283              	 
 1284 001e 80BD     	 pop {r7,pc}
 1285              	 .cfi_endproc
 1286              	.LFE1535:
 1287              	 .size _ZN12cpp_freertos5DequeD0Ev,.-_ZN12cpp_freertos5DequeD0Ev
 1288              	 .global _ZTVN12cpp_freertos5QueueE
 1289              	 .section .rodata._ZTVN12cpp_freertos5QueueE,"a"
 1290              	 .align 2
 1291              	 .type _ZTVN12cpp_freertos5QueueE,%object
 1292              	 .size _ZTVN12cpp_freertos5QueueE,28
 1293              	_ZTVN12cpp_freertos5QueueE:
 1294 0000 00000000 	 .word 0
 1295 0004 00000000 	 .word 0
 1296 0008 00000000 	 .word _ZN12cpp_freertos5QueueD1Ev
 1297 000c 00000000 	 .word _ZN12cpp_freertos5QueueD0Ev
 1298 0010 00000000 	 .word _ZN12cpp_freertos5Queue7EnqueueEPv
 1299 0014 00000000 	 .word _ZN12cpp_freertos5Queue7EnqueueEPvm
 1300 0018 00000000 	 .word _ZN12cpp_freertos5Queue14EnqueueFromISREPvPl
 1301              	 .text
 1302              	.Letext0:
 1303              	 .file 4 "c:\\progra~2\\gnuarm~1\\102021~1.10\\arm-none-eabi\\include\\c++\\10.3.1\\bits\\exception_ptr.h"
 1304              	 .file 5 "c:\\progra~2\\gnuarm~1\\102021~1.10\\arm-none-eabi\\include\\c++\\10.3.1\\bits\\cpp_type_traits.h"
 1305              	 .file 6 "c:\\progra~2\\gnuarm~1\\102021~1.10\\arm-none-eabi\\include\\c++\\10.3.1\\bits\\stl_pair.h"
 1306              	 .file 7 "c:\\progra~2\\gnuarm~1\\102021~1.10\\arm-none-eabi\\include\\c++\\10.3.1\\type_traits"
 1307              	 .file 8 "c:\\progra~2\\gnuarm~1\\102021~1.10\\arm-none-eabi\\include\\c++\\10.3.1\\debug\\debug.h"
 1308              	 .file 9 "c:\\progra~2\\gnuarm~1\\102021~1.10\\arm-none-eabi\\include\\c++\\10.3.1\\cwchar"
 1309              	 .file 10 "c:\\progra~2\\gnuarm~1\\102021~1.10\\arm-none-eabi\\include\\c++\\10.3.1\\cstdint"
 1310              	 .file 11 "c:\\progra~2\\gnuarm~1\\102021~1.10\\arm-none-eabi\\include\\c++\\10.3.1\\clocale"
 1311              	 .file 12 "c:\\progra~2\\gnuarm~1\\102021~1.10\\arm-none-eabi\\include\\c++\\10.3.1\\cstdlib"
 1312              	 .file 13 "c:\\progra~2\\gnuarm~1\\102021~1.10\\arm-none-eabi\\include\\c++\\10.3.1\\cstdio"
 1313              	 .file 14 "c:\\progra~2\\gnuarm~1\\102021~1.10\\arm-none-eabi\\include\\c++\\10.3.1\\arm-none-eabi\\thumb\\v7e-m+fp\\hard\\bits\\c++config.h"
 1314              	 .file 15 "c:\\progra~2\\gnuarm~1\\102021~1.10\\arm-none-eabi\\include\\c++\\10.3.1\\bits\\basic_string.h"
 1315              	 .file 16 "c:\\progra~2\\gnuarm~1\\102021~1.10\\arm-none-eabi\\include\\c++\\10.3.1\\bits\\predefined_ops.h"
 1316              	 .file 17 "c:\\progra~2\\gnuarm~1\\102021~1.10\\lib\\gcc\\arm-none-eabi\\10.3.1\\include\\stddef.h"
 1317              	 .file 18 "c:\\progra~2\\gnuarm~1\\102021~1.10\\arm-none-eabi\\include\\machine\\_default_types.h"
 1318              	 .file 19 "c:\\progra~2\\gnuarm~1\\102021~1.10\\arm-none-eabi\\include\\sys\\_types.h"
 1319              	 .file 20 "c:\\progra~2\\gnuarm~1\\102021~1.10\\arm-none-eabi\\include\\sys\\reent.h"
 1320              	 .file 21 "c:\\progra~2\\gnuarm~1\\102021~1.10\\arm-none-eabi\\include\\sys\\lock.h"
 1321              	 .file 22 "c:\\progra~2\\gnuarm~1\\102021~1.10\\lib\\gcc\\arm-none-eabi\\10.3.1\\include\\stdarg.h"
 1322              	 .file 23 "c:\\progra~2\\gnuarm~1\\102021~1.10\\arm-none-eabi\\include\\wchar.h"
 1323              	 .file 24 "c:\\progra~2\\gnuarm~1\\102021~1.10\\arm-none-eabi\\include\\sys\\_stdint.h"
ARM GAS   			page 37


 1324              	 .file 25 "c:\\progra~2\\gnuarm~1\\102021~1.10\\arm-none-eabi\\include\\stdint.h"
 1325              	 .file 26 "c:\\progra~2\\gnuarm~1\\102021~1.10\\arm-none-eabi\\include\\locale.h"
 1326              	 .file 27 "c:\\progra~2\\gnuarm~1\\102021~1.10\\arm-none-eabi\\include\\stdlib.h"
 1327              	 .file 28 "c:\\progra~2\\gnuarm~1\\102021~1.10\\arm-none-eabi\\include\\stdio.h"
 1328              	 .file 29 "c:\\users\\niels\\documents\\github\\dsp\\software\\stm32basis\\hal\\gemeenschappelijk\\third_party\\freertos\\source\\portable\\gcc\\arm_cm4f\\portmacro.h"
 1329              	 .file 30 "c:\\users\\niels\\documents\\github\\dsp\\software\\stm32basis\\hal\\gemeenschappelijk\\third_party\\freertos\\source\\include\\queue.h"
 1330              	 .file 31 "<built-in>"