ARM GAS   			page 1


   1              	 .cpu cortex-m4
   2              	 .arch armv7e-m
   3              	 .fpu fpv4-sp-d16
   4              	 .eabi_attribute 27,1
   5              	 .eabi_attribute 28,1
   6              	 .eabi_attribute 20,1
   7              	 .eabi_attribute 21,1
   8              	 .eabi_attribute 23,3
   9              	 .eabi_attribute 24,1
  10              	 .eabi_attribute 25,1
  11              	 .eabi_attribute 26,1
  12              	 .eabi_attribute 30,6
  13              	 .eabi_attribute 34,0
  14              	 .eabi_attribute 18,4
  15              	 .file "cqueue.cpp"
  16              	 .text
  17              	.Ltext0:
  18              	 .cfi_sections .debug_frame
  19              	 .section .rodata._ZStL19piecewise_construct,"a"
  20              	 .align 2
  21              	 .type _ZStL19piecewise_construct,%object
  22              	 .size _ZStL19piecewise_construct,1
  23              	_ZStL19piecewise_construct:
  24 0000 00       	 .space 1
  25              	 .section .text._ZL20__gthread_key_deletei,"ax",%progbits
  26              	 .align 1
  27              	 .syntax unified
  28              	 .thumb
  29              	 .thumb_func
  30              	 .type _ZL20__gthread_key_deletei,%function
  31              	_ZL20__gthread_key_deletei:
  32              	.LFB652:
  33              	 .file 1 "c:\\progra~2\\gnuarm~1\\102021~1.10\\arm-none-eabi\\include\\c++\\10.3.1\\arm-none-eabi\\thumb\\v7e-m+fp\\hard\\bits\\gthr-default.h"
   1:c:\progra~2\gnuarm~1\102021~1.10\arm-none-eabi\include\c++\10.3.1\arm-none-eabi\thumb\v7e-m+fp\hard\bits\gthr-default.h **** /* Threads compatibility routines for libgcc2 and libobjc.  */
   2:c:\progra~2\gnuarm~1\102021~1.10\arm-none-eabi\include\c++\10.3.1\arm-none-eabi\thumb\v7e-m+fp\hard\bits\gthr-default.h **** /* Compile this one with gcc.  */
   3:c:\progra~2\gnuarm~1\102021~1.10\arm-none-eabi\include\c++\10.3.1\arm-none-eabi\thumb\v7e-m+fp\hard\bits\gthr-default.h **** /* Copyright (C) 1997-2020 Free Software Foundation, Inc.
   4:c:\progra~2\gnuarm~1\102021~1.10\arm-none-eabi\include\c++\10.3.1\arm-none-eabi\thumb\v7e-m+fp\hard\bits\gthr-default.h **** 
   5:c:\progra~2\gnuarm~1\102021~1.10\arm-none-eabi\include\c++\10.3.1\arm-none-eabi\thumb\v7e-m+fp\hard\bits\gthr-default.h **** This file is part of GCC.
   6:c:\progra~2\gnuarm~1\102021~1.10\arm-none-eabi\include\c++\10.3.1\arm-none-eabi\thumb\v7e-m+fp\hard\bits\gthr-default.h **** 
   7:c:\progra~2\gnuarm~1\102021~1.10\arm-none-eabi\include\c++\10.3.1\arm-none-eabi\thumb\v7e-m+fp\hard\bits\gthr-default.h **** GCC is free software; you can redistribute it and/or modify it under
   8:c:\progra~2\gnuarm~1\102021~1.10\arm-none-eabi\include\c++\10.3.1\arm-none-eabi\thumb\v7e-m+fp\hard\bits\gthr-default.h **** the terms of the GNU General Public License as published by the Free
   9:c:\progra~2\gnuarm~1\102021~1.10\arm-none-eabi\include\c++\10.3.1\arm-none-eabi\thumb\v7e-m+fp\hard\bits\gthr-default.h **** Software Foundation; either version 3, or (at your option) any later
  10:c:\progra~2\gnuarm~1\102021~1.10\arm-none-eabi\include\c++\10.3.1\arm-none-eabi\thumb\v7e-m+fp\hard\bits\gthr-default.h **** version.
  11:c:\progra~2\gnuarm~1\102021~1.10\arm-none-eabi\include\c++\10.3.1\arm-none-eabi\thumb\v7e-m+fp\hard\bits\gthr-default.h **** 
  12:c:\progra~2\gnuarm~1\102021~1.10\arm-none-eabi\include\c++\10.3.1\arm-none-eabi\thumb\v7e-m+fp\hard\bits\gthr-default.h **** GCC is distributed in the hope that it will be useful, but WITHOUT ANY
  13:c:\progra~2\gnuarm~1\102021~1.10\arm-none-eabi\include\c++\10.3.1\arm-none-eabi\thumb\v7e-m+fp\hard\bits\gthr-default.h **** WARRANTY; without even the implied warranty of MERCHANTABILITY or
  14:c:\progra~2\gnuarm~1\102021~1.10\arm-none-eabi\include\c++\10.3.1\arm-none-eabi\thumb\v7e-m+fp\hard\bits\gthr-default.h **** FITNESS FOR A PARTICULAR PURPOSE.  See the GNU General Public License
  15:c:\progra~2\gnuarm~1\102021~1.10\arm-none-eabi\include\c++\10.3.1\arm-none-eabi\thumb\v7e-m+fp\hard\bits\gthr-default.h **** for more details.
  16:c:\progra~2\gnuarm~1\102021~1.10\arm-none-eabi\include\c++\10.3.1\arm-none-eabi\thumb\v7e-m+fp\hard\bits\gthr-default.h **** 
  17:c:\progra~2\gnuarm~1\102021~1.10\arm-none-eabi\include\c++\10.3.1\arm-none-eabi\thumb\v7e-m+fp\hard\bits\gthr-default.h **** Under Section 7 of GPL version 3, you are granted additional
  18:c:\progra~2\gnuarm~1\102021~1.10\arm-none-eabi\include\c++\10.3.1\arm-none-eabi\thumb\v7e-m+fp\hard\bits\gthr-default.h **** permissions described in the GCC Runtime Library Exception, version
  19:c:\progra~2\gnuarm~1\102021~1.10\arm-none-eabi\include\c++\10.3.1\arm-none-eabi\thumb\v7e-m+fp\hard\bits\gthr-default.h **** 3.1, as published by the Free Software Foundation.
  20:c:\progra~2\gnuarm~1\102021~1.10\arm-none-eabi\include\c++\10.3.1\arm-none-eabi\thumb\v7e-m+fp\hard\bits\gthr-default.h **** 
  21:c:\progra~2\gnuarm~1\102021~1.10\arm-none-eabi\include\c++\10.3.1\arm-none-eabi\thumb\v7e-m+fp\hard\bits\gthr-default.h **** You should have received a copy of the GNU General Public License and
  22:c:\progra~2\gnuarm~1\102021~1.10\arm-none-eabi\include\c++\10.3.1\arm-none-eabi\thumb\v7e-m+fp\hard\bits\gthr-default.h **** a copy of the GCC Runtime Library Exception along with this program;
  23:c:\progra~2\gnuarm~1\102021~1.10\arm-none-eabi\include\c++\10.3.1\arm-none-eabi\thumb\v7e-m+fp\hard\bits\gthr-default.h **** see the files COPYING3 and COPYING.RUNTIME respectively.  If not, see
  24:c:\progra~2\gnuarm~1\102021~1.10\arm-none-eabi\include\c++\10.3.1\arm-none-eabi\thumb\v7e-m+fp\hard\bits\gthr-default.h **** <http://www.gnu.org/licenses/>.  */
ARM GAS   			page 2


  25:c:\progra~2\gnuarm~1\102021~1.10\arm-none-eabi\include\c++\10.3.1\arm-none-eabi\thumb\v7e-m+fp\hard\bits\gthr-default.h **** 
  26:c:\progra~2\gnuarm~1\102021~1.10\arm-none-eabi\include\c++\10.3.1\arm-none-eabi\thumb\v7e-m+fp\hard\bits\gthr-default.h **** #ifndef _GLIBCXX_GCC_GTHR_SINGLE_H
  27:c:\progra~2\gnuarm~1\102021~1.10\arm-none-eabi\include\c++\10.3.1\arm-none-eabi\thumb\v7e-m+fp\hard\bits\gthr-default.h **** #define _GLIBCXX_GCC_GTHR_SINGLE_H
  28:c:\progra~2\gnuarm~1\102021~1.10\arm-none-eabi\include\c++\10.3.1\arm-none-eabi\thumb\v7e-m+fp\hard\bits\gthr-default.h **** 
  29:c:\progra~2\gnuarm~1\102021~1.10\arm-none-eabi\include\c++\10.3.1\arm-none-eabi\thumb\v7e-m+fp\hard\bits\gthr-default.h **** /* Just provide compatibility for mutex handling.  */
  30:c:\progra~2\gnuarm~1\102021~1.10\arm-none-eabi\include\c++\10.3.1\arm-none-eabi\thumb\v7e-m+fp\hard\bits\gthr-default.h **** 
  31:c:\progra~2\gnuarm~1\102021~1.10\arm-none-eabi\include\c++\10.3.1\arm-none-eabi\thumb\v7e-m+fp\hard\bits\gthr-default.h **** typedef int __gthread_key_t;
  32:c:\progra~2\gnuarm~1\102021~1.10\arm-none-eabi\include\c++\10.3.1\arm-none-eabi\thumb\v7e-m+fp\hard\bits\gthr-default.h **** typedef int __gthread_once_t;
  33:c:\progra~2\gnuarm~1\102021~1.10\arm-none-eabi\include\c++\10.3.1\arm-none-eabi\thumb\v7e-m+fp\hard\bits\gthr-default.h **** typedef int __gthread_mutex_t;
  34:c:\progra~2\gnuarm~1\102021~1.10\arm-none-eabi\include\c++\10.3.1\arm-none-eabi\thumb\v7e-m+fp\hard\bits\gthr-default.h **** typedef int __gthread_recursive_mutex_t;
  35:c:\progra~2\gnuarm~1\102021~1.10\arm-none-eabi\include\c++\10.3.1\arm-none-eabi\thumb\v7e-m+fp\hard\bits\gthr-default.h **** 
  36:c:\progra~2\gnuarm~1\102021~1.10\arm-none-eabi\include\c++\10.3.1\arm-none-eabi\thumb\v7e-m+fp\hard\bits\gthr-default.h **** #define __GTHREAD_ONCE_INIT 0
  37:c:\progra~2\gnuarm~1\102021~1.10\arm-none-eabi\include\c++\10.3.1\arm-none-eabi\thumb\v7e-m+fp\hard\bits\gthr-default.h **** #define __GTHREAD_MUTEX_INIT 0
  38:c:\progra~2\gnuarm~1\102021~1.10\arm-none-eabi\include\c++\10.3.1\arm-none-eabi\thumb\v7e-m+fp\hard\bits\gthr-default.h **** #define __GTHREAD_MUTEX_INIT_FUNCTION(mx) do {} while (0)
  39:c:\progra~2\gnuarm~1\102021~1.10\arm-none-eabi\include\c++\10.3.1\arm-none-eabi\thumb\v7e-m+fp\hard\bits\gthr-default.h **** #define __GTHREAD_RECURSIVE_MUTEX_INIT 0
  40:c:\progra~2\gnuarm~1\102021~1.10\arm-none-eabi\include\c++\10.3.1\arm-none-eabi\thumb\v7e-m+fp\hard\bits\gthr-default.h **** 
  41:c:\progra~2\gnuarm~1\102021~1.10\arm-none-eabi\include\c++\10.3.1\arm-none-eabi\thumb\v7e-m+fp\hard\bits\gthr-default.h **** #define _GLIBCXX_UNUSED __attribute__((__unused__))
  42:c:\progra~2\gnuarm~1\102021~1.10\arm-none-eabi\include\c++\10.3.1\arm-none-eabi\thumb\v7e-m+fp\hard\bits\gthr-default.h **** 
  43:c:\progra~2\gnuarm~1\102021~1.10\arm-none-eabi\include\c++\10.3.1\arm-none-eabi\thumb\v7e-m+fp\hard\bits\gthr-default.h **** #ifdef _LIBOBJC
  44:c:\progra~2\gnuarm~1\102021~1.10\arm-none-eabi\include\c++\10.3.1\arm-none-eabi\thumb\v7e-m+fp\hard\bits\gthr-default.h **** 
  45:c:\progra~2\gnuarm~1\102021~1.10\arm-none-eabi\include\c++\10.3.1\arm-none-eabi\thumb\v7e-m+fp\hard\bits\gthr-default.h **** /* Thread local storage for a single thread */
  46:c:\progra~2\gnuarm~1\102021~1.10\arm-none-eabi\include\c++\10.3.1\arm-none-eabi\thumb\v7e-m+fp\hard\bits\gthr-default.h **** static void *thread_local_storage = NULL;
  47:c:\progra~2\gnuarm~1\102021~1.10\arm-none-eabi\include\c++\10.3.1\arm-none-eabi\thumb\v7e-m+fp\hard\bits\gthr-default.h **** 
  48:c:\progra~2\gnuarm~1\102021~1.10\arm-none-eabi\include\c++\10.3.1\arm-none-eabi\thumb\v7e-m+fp\hard\bits\gthr-default.h **** /* Backend initialization functions */
  49:c:\progra~2\gnuarm~1\102021~1.10\arm-none-eabi\include\c++\10.3.1\arm-none-eabi\thumb\v7e-m+fp\hard\bits\gthr-default.h **** 
  50:c:\progra~2\gnuarm~1\102021~1.10\arm-none-eabi\include\c++\10.3.1\arm-none-eabi\thumb\v7e-m+fp\hard\bits\gthr-default.h **** /* Initialize the threads subsystem.  */
  51:c:\progra~2\gnuarm~1\102021~1.10\arm-none-eabi\include\c++\10.3.1\arm-none-eabi\thumb\v7e-m+fp\hard\bits\gthr-default.h **** static inline int
  52:c:\progra~2\gnuarm~1\102021~1.10\arm-none-eabi\include\c++\10.3.1\arm-none-eabi\thumb\v7e-m+fp\hard\bits\gthr-default.h **** __gthread_objc_init_thread_system (void)
  53:c:\progra~2\gnuarm~1\102021~1.10\arm-none-eabi\include\c++\10.3.1\arm-none-eabi\thumb\v7e-m+fp\hard\bits\gthr-default.h **** {
  54:c:\progra~2\gnuarm~1\102021~1.10\arm-none-eabi\include\c++\10.3.1\arm-none-eabi\thumb\v7e-m+fp\hard\bits\gthr-default.h ****   /* No thread support available */
  55:c:\progra~2\gnuarm~1\102021~1.10\arm-none-eabi\include\c++\10.3.1\arm-none-eabi\thumb\v7e-m+fp\hard\bits\gthr-default.h ****   return -1;
  56:c:\progra~2\gnuarm~1\102021~1.10\arm-none-eabi\include\c++\10.3.1\arm-none-eabi\thumb\v7e-m+fp\hard\bits\gthr-default.h **** }
  57:c:\progra~2\gnuarm~1\102021~1.10\arm-none-eabi\include\c++\10.3.1\arm-none-eabi\thumb\v7e-m+fp\hard\bits\gthr-default.h **** 
  58:c:\progra~2\gnuarm~1\102021~1.10\arm-none-eabi\include\c++\10.3.1\arm-none-eabi\thumb\v7e-m+fp\hard\bits\gthr-default.h **** /* Close the threads subsystem.  */
  59:c:\progra~2\gnuarm~1\102021~1.10\arm-none-eabi\include\c++\10.3.1\arm-none-eabi\thumb\v7e-m+fp\hard\bits\gthr-default.h **** static inline int
  60:c:\progra~2\gnuarm~1\102021~1.10\arm-none-eabi\include\c++\10.3.1\arm-none-eabi\thumb\v7e-m+fp\hard\bits\gthr-default.h **** __gthread_objc_close_thread_system (void)
  61:c:\progra~2\gnuarm~1\102021~1.10\arm-none-eabi\include\c++\10.3.1\arm-none-eabi\thumb\v7e-m+fp\hard\bits\gthr-default.h **** {
  62:c:\progra~2\gnuarm~1\102021~1.10\arm-none-eabi\include\c++\10.3.1\arm-none-eabi\thumb\v7e-m+fp\hard\bits\gthr-default.h ****   /* No thread support available */
  63:c:\progra~2\gnuarm~1\102021~1.10\arm-none-eabi\include\c++\10.3.1\arm-none-eabi\thumb\v7e-m+fp\hard\bits\gthr-default.h ****   return -1;
  64:c:\progra~2\gnuarm~1\102021~1.10\arm-none-eabi\include\c++\10.3.1\arm-none-eabi\thumb\v7e-m+fp\hard\bits\gthr-default.h **** }
  65:c:\progra~2\gnuarm~1\102021~1.10\arm-none-eabi\include\c++\10.3.1\arm-none-eabi\thumb\v7e-m+fp\hard\bits\gthr-default.h **** 
  66:c:\progra~2\gnuarm~1\102021~1.10\arm-none-eabi\include\c++\10.3.1\arm-none-eabi\thumb\v7e-m+fp\hard\bits\gthr-default.h **** /* Backend thread functions */
  67:c:\progra~2\gnuarm~1\102021~1.10\arm-none-eabi\include\c++\10.3.1\arm-none-eabi\thumb\v7e-m+fp\hard\bits\gthr-default.h **** 
  68:c:\progra~2\gnuarm~1\102021~1.10\arm-none-eabi\include\c++\10.3.1\arm-none-eabi\thumb\v7e-m+fp\hard\bits\gthr-default.h **** /* Create a new thread of execution.  */
  69:c:\progra~2\gnuarm~1\102021~1.10\arm-none-eabi\include\c++\10.3.1\arm-none-eabi\thumb\v7e-m+fp\hard\bits\gthr-default.h **** static inline objc_thread_t
  70:c:\progra~2\gnuarm~1\102021~1.10\arm-none-eabi\include\c++\10.3.1\arm-none-eabi\thumb\v7e-m+fp\hard\bits\gthr-default.h **** __gthread_objc_thread_detach (void (* func)(void *), void * arg _GLIBCXX_UNUSED)
  71:c:\progra~2\gnuarm~1\102021~1.10\arm-none-eabi\include\c++\10.3.1\arm-none-eabi\thumb\v7e-m+fp\hard\bits\gthr-default.h **** {
  72:c:\progra~2\gnuarm~1\102021~1.10\arm-none-eabi\include\c++\10.3.1\arm-none-eabi\thumb\v7e-m+fp\hard\bits\gthr-default.h ****   /* No thread support available */
  73:c:\progra~2\gnuarm~1\102021~1.10\arm-none-eabi\include\c++\10.3.1\arm-none-eabi\thumb\v7e-m+fp\hard\bits\gthr-default.h ****   return NULL;
  74:c:\progra~2\gnuarm~1\102021~1.10\arm-none-eabi\include\c++\10.3.1\arm-none-eabi\thumb\v7e-m+fp\hard\bits\gthr-default.h **** }
  75:c:\progra~2\gnuarm~1\102021~1.10\arm-none-eabi\include\c++\10.3.1\arm-none-eabi\thumb\v7e-m+fp\hard\bits\gthr-default.h **** 
  76:c:\progra~2\gnuarm~1\102021~1.10\arm-none-eabi\include\c++\10.3.1\arm-none-eabi\thumb\v7e-m+fp\hard\bits\gthr-default.h **** /* Set the current thread's priority.  */
  77:c:\progra~2\gnuarm~1\102021~1.10\arm-none-eabi\include\c++\10.3.1\arm-none-eabi\thumb\v7e-m+fp\hard\bits\gthr-default.h **** static inline int
  78:c:\progra~2\gnuarm~1\102021~1.10\arm-none-eabi\include\c++\10.3.1\arm-none-eabi\thumb\v7e-m+fp\hard\bits\gthr-default.h **** __gthread_objc_thread_set_priority (int priority _GLIBCXX_UNUSED)
  79:c:\progra~2\gnuarm~1\102021~1.10\arm-none-eabi\include\c++\10.3.1\arm-none-eabi\thumb\v7e-m+fp\hard\bits\gthr-default.h **** {
  80:c:\progra~2\gnuarm~1\102021~1.10\arm-none-eabi\include\c++\10.3.1\arm-none-eabi\thumb\v7e-m+fp\hard\bits\gthr-default.h ****   /* No thread support available */
  81:c:\progra~2\gnuarm~1\102021~1.10\arm-none-eabi\include\c++\10.3.1\arm-none-eabi\thumb\v7e-m+fp\hard\bits\gthr-default.h ****   return -1;
ARM GAS   			page 3


  82:c:\progra~2\gnuarm~1\102021~1.10\arm-none-eabi\include\c++\10.3.1\arm-none-eabi\thumb\v7e-m+fp\hard\bits\gthr-default.h **** }
  83:c:\progra~2\gnuarm~1\102021~1.10\arm-none-eabi\include\c++\10.3.1\arm-none-eabi\thumb\v7e-m+fp\hard\bits\gthr-default.h **** 
  84:c:\progra~2\gnuarm~1\102021~1.10\arm-none-eabi\include\c++\10.3.1\arm-none-eabi\thumb\v7e-m+fp\hard\bits\gthr-default.h **** /* Return the current thread's priority.  */
  85:c:\progra~2\gnuarm~1\102021~1.10\arm-none-eabi\include\c++\10.3.1\arm-none-eabi\thumb\v7e-m+fp\hard\bits\gthr-default.h **** static inline int
  86:c:\progra~2\gnuarm~1\102021~1.10\arm-none-eabi\include\c++\10.3.1\arm-none-eabi\thumb\v7e-m+fp\hard\bits\gthr-default.h **** __gthread_objc_thread_get_priority (void)
  87:c:\progra~2\gnuarm~1\102021~1.10\arm-none-eabi\include\c++\10.3.1\arm-none-eabi\thumb\v7e-m+fp\hard\bits\gthr-default.h **** {
  88:c:\progra~2\gnuarm~1\102021~1.10\arm-none-eabi\include\c++\10.3.1\arm-none-eabi\thumb\v7e-m+fp\hard\bits\gthr-default.h ****   return OBJC_THREAD_INTERACTIVE_PRIORITY;
  89:c:\progra~2\gnuarm~1\102021~1.10\arm-none-eabi\include\c++\10.3.1\arm-none-eabi\thumb\v7e-m+fp\hard\bits\gthr-default.h **** }
  90:c:\progra~2\gnuarm~1\102021~1.10\arm-none-eabi\include\c++\10.3.1\arm-none-eabi\thumb\v7e-m+fp\hard\bits\gthr-default.h **** 
  91:c:\progra~2\gnuarm~1\102021~1.10\arm-none-eabi\include\c++\10.3.1\arm-none-eabi\thumb\v7e-m+fp\hard\bits\gthr-default.h **** /* Yield our process time to another thread.  */
  92:c:\progra~2\gnuarm~1\102021~1.10\arm-none-eabi\include\c++\10.3.1\arm-none-eabi\thumb\v7e-m+fp\hard\bits\gthr-default.h **** static inline void
  93:c:\progra~2\gnuarm~1\102021~1.10\arm-none-eabi\include\c++\10.3.1\arm-none-eabi\thumb\v7e-m+fp\hard\bits\gthr-default.h **** __gthread_objc_thread_yield (void)
  94:c:\progra~2\gnuarm~1\102021~1.10\arm-none-eabi\include\c++\10.3.1\arm-none-eabi\thumb\v7e-m+fp\hard\bits\gthr-default.h **** {
  95:c:\progra~2\gnuarm~1\102021~1.10\arm-none-eabi\include\c++\10.3.1\arm-none-eabi\thumb\v7e-m+fp\hard\bits\gthr-default.h ****   return;
  96:c:\progra~2\gnuarm~1\102021~1.10\arm-none-eabi\include\c++\10.3.1\arm-none-eabi\thumb\v7e-m+fp\hard\bits\gthr-default.h **** }
  97:c:\progra~2\gnuarm~1\102021~1.10\arm-none-eabi\include\c++\10.3.1\arm-none-eabi\thumb\v7e-m+fp\hard\bits\gthr-default.h **** 
  98:c:\progra~2\gnuarm~1\102021~1.10\arm-none-eabi\include\c++\10.3.1\arm-none-eabi\thumb\v7e-m+fp\hard\bits\gthr-default.h **** /* Terminate the current thread.  */
  99:c:\progra~2\gnuarm~1\102021~1.10\arm-none-eabi\include\c++\10.3.1\arm-none-eabi\thumb\v7e-m+fp\hard\bits\gthr-default.h **** static inline int
 100:c:\progra~2\gnuarm~1\102021~1.10\arm-none-eabi\include\c++\10.3.1\arm-none-eabi\thumb\v7e-m+fp\hard\bits\gthr-default.h **** __gthread_objc_thread_exit (void)
 101:c:\progra~2\gnuarm~1\102021~1.10\arm-none-eabi\include\c++\10.3.1\arm-none-eabi\thumb\v7e-m+fp\hard\bits\gthr-default.h **** {
 102:c:\progra~2\gnuarm~1\102021~1.10\arm-none-eabi\include\c++\10.3.1\arm-none-eabi\thumb\v7e-m+fp\hard\bits\gthr-default.h ****   /* No thread support available */
 103:c:\progra~2\gnuarm~1\102021~1.10\arm-none-eabi\include\c++\10.3.1\arm-none-eabi\thumb\v7e-m+fp\hard\bits\gthr-default.h ****   /* Should we really exit the program */
 104:c:\progra~2\gnuarm~1\102021~1.10\arm-none-eabi\include\c++\10.3.1\arm-none-eabi\thumb\v7e-m+fp\hard\bits\gthr-default.h ****   /* exit (&__objc_thread_exit_status); */
 105:c:\progra~2\gnuarm~1\102021~1.10\arm-none-eabi\include\c++\10.3.1\arm-none-eabi\thumb\v7e-m+fp\hard\bits\gthr-default.h ****   return -1;
 106:c:\progra~2\gnuarm~1\102021~1.10\arm-none-eabi\include\c++\10.3.1\arm-none-eabi\thumb\v7e-m+fp\hard\bits\gthr-default.h **** }
 107:c:\progra~2\gnuarm~1\102021~1.10\arm-none-eabi\include\c++\10.3.1\arm-none-eabi\thumb\v7e-m+fp\hard\bits\gthr-default.h **** 
 108:c:\progra~2\gnuarm~1\102021~1.10\arm-none-eabi\include\c++\10.3.1\arm-none-eabi\thumb\v7e-m+fp\hard\bits\gthr-default.h **** /* Returns an integer value which uniquely describes a thread.  */
 109:c:\progra~2\gnuarm~1\102021~1.10\arm-none-eabi\include\c++\10.3.1\arm-none-eabi\thumb\v7e-m+fp\hard\bits\gthr-default.h **** static inline objc_thread_t
 110:c:\progra~2\gnuarm~1\102021~1.10\arm-none-eabi\include\c++\10.3.1\arm-none-eabi\thumb\v7e-m+fp\hard\bits\gthr-default.h **** __gthread_objc_thread_id (void)
 111:c:\progra~2\gnuarm~1\102021~1.10\arm-none-eabi\include\c++\10.3.1\arm-none-eabi\thumb\v7e-m+fp\hard\bits\gthr-default.h **** {
 112:c:\progra~2\gnuarm~1\102021~1.10\arm-none-eabi\include\c++\10.3.1\arm-none-eabi\thumb\v7e-m+fp\hard\bits\gthr-default.h ****   /* No thread support, use 1.  */
 113:c:\progra~2\gnuarm~1\102021~1.10\arm-none-eabi\include\c++\10.3.1\arm-none-eabi\thumb\v7e-m+fp\hard\bits\gthr-default.h ****   return (objc_thread_t) 1;
 114:c:\progra~2\gnuarm~1\102021~1.10\arm-none-eabi\include\c++\10.3.1\arm-none-eabi\thumb\v7e-m+fp\hard\bits\gthr-default.h **** }
 115:c:\progra~2\gnuarm~1\102021~1.10\arm-none-eabi\include\c++\10.3.1\arm-none-eabi\thumb\v7e-m+fp\hard\bits\gthr-default.h **** 
 116:c:\progra~2\gnuarm~1\102021~1.10\arm-none-eabi\include\c++\10.3.1\arm-none-eabi\thumb\v7e-m+fp\hard\bits\gthr-default.h **** /* Sets the thread's local storage pointer.  */
 117:c:\progra~2\gnuarm~1\102021~1.10\arm-none-eabi\include\c++\10.3.1\arm-none-eabi\thumb\v7e-m+fp\hard\bits\gthr-default.h **** static inline int
 118:c:\progra~2\gnuarm~1\102021~1.10\arm-none-eabi\include\c++\10.3.1\arm-none-eabi\thumb\v7e-m+fp\hard\bits\gthr-default.h **** __gthread_objc_thread_set_data (void *value)
 119:c:\progra~2\gnuarm~1\102021~1.10\arm-none-eabi\include\c++\10.3.1\arm-none-eabi\thumb\v7e-m+fp\hard\bits\gthr-default.h **** {
 120:c:\progra~2\gnuarm~1\102021~1.10\arm-none-eabi\include\c++\10.3.1\arm-none-eabi\thumb\v7e-m+fp\hard\bits\gthr-default.h ****   thread_local_storage = value;
 121:c:\progra~2\gnuarm~1\102021~1.10\arm-none-eabi\include\c++\10.3.1\arm-none-eabi\thumb\v7e-m+fp\hard\bits\gthr-default.h ****   return 0;
 122:c:\progra~2\gnuarm~1\102021~1.10\arm-none-eabi\include\c++\10.3.1\arm-none-eabi\thumb\v7e-m+fp\hard\bits\gthr-default.h **** }
 123:c:\progra~2\gnuarm~1\102021~1.10\arm-none-eabi\include\c++\10.3.1\arm-none-eabi\thumb\v7e-m+fp\hard\bits\gthr-default.h **** 
 124:c:\progra~2\gnuarm~1\102021~1.10\arm-none-eabi\include\c++\10.3.1\arm-none-eabi\thumb\v7e-m+fp\hard\bits\gthr-default.h **** /* Returns the thread's local storage pointer.  */
 125:c:\progra~2\gnuarm~1\102021~1.10\arm-none-eabi\include\c++\10.3.1\arm-none-eabi\thumb\v7e-m+fp\hard\bits\gthr-default.h **** static inline void *
 126:c:\progra~2\gnuarm~1\102021~1.10\arm-none-eabi\include\c++\10.3.1\arm-none-eabi\thumb\v7e-m+fp\hard\bits\gthr-default.h **** __gthread_objc_thread_get_data (void)
 127:c:\progra~2\gnuarm~1\102021~1.10\arm-none-eabi\include\c++\10.3.1\arm-none-eabi\thumb\v7e-m+fp\hard\bits\gthr-default.h **** {
 128:c:\progra~2\gnuarm~1\102021~1.10\arm-none-eabi\include\c++\10.3.1\arm-none-eabi\thumb\v7e-m+fp\hard\bits\gthr-default.h ****   return thread_local_storage;
 129:c:\progra~2\gnuarm~1\102021~1.10\arm-none-eabi\include\c++\10.3.1\arm-none-eabi\thumb\v7e-m+fp\hard\bits\gthr-default.h **** }
 130:c:\progra~2\gnuarm~1\102021~1.10\arm-none-eabi\include\c++\10.3.1\arm-none-eabi\thumb\v7e-m+fp\hard\bits\gthr-default.h **** 
 131:c:\progra~2\gnuarm~1\102021~1.10\arm-none-eabi\include\c++\10.3.1\arm-none-eabi\thumb\v7e-m+fp\hard\bits\gthr-default.h **** /* Backend mutex functions */
 132:c:\progra~2\gnuarm~1\102021~1.10\arm-none-eabi\include\c++\10.3.1\arm-none-eabi\thumb\v7e-m+fp\hard\bits\gthr-default.h **** 
 133:c:\progra~2\gnuarm~1\102021~1.10\arm-none-eabi\include\c++\10.3.1\arm-none-eabi\thumb\v7e-m+fp\hard\bits\gthr-default.h **** /* Allocate a mutex.  */
 134:c:\progra~2\gnuarm~1\102021~1.10\arm-none-eabi\include\c++\10.3.1\arm-none-eabi\thumb\v7e-m+fp\hard\bits\gthr-default.h **** static inline int
 135:c:\progra~2\gnuarm~1\102021~1.10\arm-none-eabi\include\c++\10.3.1\arm-none-eabi\thumb\v7e-m+fp\hard\bits\gthr-default.h **** __gthread_objc_mutex_allocate (objc_mutex_t mutex _GLIBCXX_UNUSED)
 136:c:\progra~2\gnuarm~1\102021~1.10\arm-none-eabi\include\c++\10.3.1\arm-none-eabi\thumb\v7e-m+fp\hard\bits\gthr-default.h **** {
 137:c:\progra~2\gnuarm~1\102021~1.10\arm-none-eabi\include\c++\10.3.1\arm-none-eabi\thumb\v7e-m+fp\hard\bits\gthr-default.h ****   return 0;
 138:c:\progra~2\gnuarm~1\102021~1.10\arm-none-eabi\include\c++\10.3.1\arm-none-eabi\thumb\v7e-m+fp\hard\bits\gthr-default.h **** }
ARM GAS   			page 4


 139:c:\progra~2\gnuarm~1\102021~1.10\arm-none-eabi\include\c++\10.3.1\arm-none-eabi\thumb\v7e-m+fp\hard\bits\gthr-default.h **** 
 140:c:\progra~2\gnuarm~1\102021~1.10\arm-none-eabi\include\c++\10.3.1\arm-none-eabi\thumb\v7e-m+fp\hard\bits\gthr-default.h **** /* Deallocate a mutex.  */
 141:c:\progra~2\gnuarm~1\102021~1.10\arm-none-eabi\include\c++\10.3.1\arm-none-eabi\thumb\v7e-m+fp\hard\bits\gthr-default.h **** static inline int
 142:c:\progra~2\gnuarm~1\102021~1.10\arm-none-eabi\include\c++\10.3.1\arm-none-eabi\thumb\v7e-m+fp\hard\bits\gthr-default.h **** __gthread_objc_mutex_deallocate (objc_mutex_t mutex _GLIBCXX_UNUSED)
 143:c:\progra~2\gnuarm~1\102021~1.10\arm-none-eabi\include\c++\10.3.1\arm-none-eabi\thumb\v7e-m+fp\hard\bits\gthr-default.h **** {
 144:c:\progra~2\gnuarm~1\102021~1.10\arm-none-eabi\include\c++\10.3.1\arm-none-eabi\thumb\v7e-m+fp\hard\bits\gthr-default.h ****   return 0;
 145:c:\progra~2\gnuarm~1\102021~1.10\arm-none-eabi\include\c++\10.3.1\arm-none-eabi\thumb\v7e-m+fp\hard\bits\gthr-default.h **** }
 146:c:\progra~2\gnuarm~1\102021~1.10\arm-none-eabi\include\c++\10.3.1\arm-none-eabi\thumb\v7e-m+fp\hard\bits\gthr-default.h **** 
 147:c:\progra~2\gnuarm~1\102021~1.10\arm-none-eabi\include\c++\10.3.1\arm-none-eabi\thumb\v7e-m+fp\hard\bits\gthr-default.h **** /* Grab a lock on a mutex.  */
 148:c:\progra~2\gnuarm~1\102021~1.10\arm-none-eabi\include\c++\10.3.1\arm-none-eabi\thumb\v7e-m+fp\hard\bits\gthr-default.h **** static inline int
 149:c:\progra~2\gnuarm~1\102021~1.10\arm-none-eabi\include\c++\10.3.1\arm-none-eabi\thumb\v7e-m+fp\hard\bits\gthr-default.h **** __gthread_objc_mutex_lock (objc_mutex_t mutex _GLIBCXX_UNUSED)
 150:c:\progra~2\gnuarm~1\102021~1.10\arm-none-eabi\include\c++\10.3.1\arm-none-eabi\thumb\v7e-m+fp\hard\bits\gthr-default.h **** {
 151:c:\progra~2\gnuarm~1\102021~1.10\arm-none-eabi\include\c++\10.3.1\arm-none-eabi\thumb\v7e-m+fp\hard\bits\gthr-default.h ****   /* There can only be one thread, so we always get the lock */
 152:c:\progra~2\gnuarm~1\102021~1.10\arm-none-eabi\include\c++\10.3.1\arm-none-eabi\thumb\v7e-m+fp\hard\bits\gthr-default.h ****   return 0;
 153:c:\progra~2\gnuarm~1\102021~1.10\arm-none-eabi\include\c++\10.3.1\arm-none-eabi\thumb\v7e-m+fp\hard\bits\gthr-default.h **** }
 154:c:\progra~2\gnuarm~1\102021~1.10\arm-none-eabi\include\c++\10.3.1\arm-none-eabi\thumb\v7e-m+fp\hard\bits\gthr-default.h **** 
 155:c:\progra~2\gnuarm~1\102021~1.10\arm-none-eabi\include\c++\10.3.1\arm-none-eabi\thumb\v7e-m+fp\hard\bits\gthr-default.h **** /* Try to grab a lock on a mutex.  */
 156:c:\progra~2\gnuarm~1\102021~1.10\arm-none-eabi\include\c++\10.3.1\arm-none-eabi\thumb\v7e-m+fp\hard\bits\gthr-default.h **** static inline int
 157:c:\progra~2\gnuarm~1\102021~1.10\arm-none-eabi\include\c++\10.3.1\arm-none-eabi\thumb\v7e-m+fp\hard\bits\gthr-default.h **** __gthread_objc_mutex_trylock (objc_mutex_t mutex _GLIBCXX_UNUSED)
 158:c:\progra~2\gnuarm~1\102021~1.10\arm-none-eabi\include\c++\10.3.1\arm-none-eabi\thumb\v7e-m+fp\hard\bits\gthr-default.h **** {
 159:c:\progra~2\gnuarm~1\102021~1.10\arm-none-eabi\include\c++\10.3.1\arm-none-eabi\thumb\v7e-m+fp\hard\bits\gthr-default.h ****   /* There can only be one thread, so we always get the lock */
 160:c:\progra~2\gnuarm~1\102021~1.10\arm-none-eabi\include\c++\10.3.1\arm-none-eabi\thumb\v7e-m+fp\hard\bits\gthr-default.h ****   return 0;
 161:c:\progra~2\gnuarm~1\102021~1.10\arm-none-eabi\include\c++\10.3.1\arm-none-eabi\thumb\v7e-m+fp\hard\bits\gthr-default.h **** }
 162:c:\progra~2\gnuarm~1\102021~1.10\arm-none-eabi\include\c++\10.3.1\arm-none-eabi\thumb\v7e-m+fp\hard\bits\gthr-default.h **** 
 163:c:\progra~2\gnuarm~1\102021~1.10\arm-none-eabi\include\c++\10.3.1\arm-none-eabi\thumb\v7e-m+fp\hard\bits\gthr-default.h **** /* Unlock the mutex */
 164:c:\progra~2\gnuarm~1\102021~1.10\arm-none-eabi\include\c++\10.3.1\arm-none-eabi\thumb\v7e-m+fp\hard\bits\gthr-default.h **** static inline int
 165:c:\progra~2\gnuarm~1\102021~1.10\arm-none-eabi\include\c++\10.3.1\arm-none-eabi\thumb\v7e-m+fp\hard\bits\gthr-default.h **** __gthread_objc_mutex_unlock (objc_mutex_t mutex _GLIBCXX_UNUSED)
 166:c:\progra~2\gnuarm~1\102021~1.10\arm-none-eabi\include\c++\10.3.1\arm-none-eabi\thumb\v7e-m+fp\hard\bits\gthr-default.h **** {
 167:c:\progra~2\gnuarm~1\102021~1.10\arm-none-eabi\include\c++\10.3.1\arm-none-eabi\thumb\v7e-m+fp\hard\bits\gthr-default.h ****   return 0;
 168:c:\progra~2\gnuarm~1\102021~1.10\arm-none-eabi\include\c++\10.3.1\arm-none-eabi\thumb\v7e-m+fp\hard\bits\gthr-default.h **** }
 169:c:\progra~2\gnuarm~1\102021~1.10\arm-none-eabi\include\c++\10.3.1\arm-none-eabi\thumb\v7e-m+fp\hard\bits\gthr-default.h **** 
 170:c:\progra~2\gnuarm~1\102021~1.10\arm-none-eabi\include\c++\10.3.1\arm-none-eabi\thumb\v7e-m+fp\hard\bits\gthr-default.h **** /* Backend condition mutex functions */
 171:c:\progra~2\gnuarm~1\102021~1.10\arm-none-eabi\include\c++\10.3.1\arm-none-eabi\thumb\v7e-m+fp\hard\bits\gthr-default.h **** 
 172:c:\progra~2\gnuarm~1\102021~1.10\arm-none-eabi\include\c++\10.3.1\arm-none-eabi\thumb\v7e-m+fp\hard\bits\gthr-default.h **** /* Allocate a condition.  */
 173:c:\progra~2\gnuarm~1\102021~1.10\arm-none-eabi\include\c++\10.3.1\arm-none-eabi\thumb\v7e-m+fp\hard\bits\gthr-default.h **** static inline int
 174:c:\progra~2\gnuarm~1\102021~1.10\arm-none-eabi\include\c++\10.3.1\arm-none-eabi\thumb\v7e-m+fp\hard\bits\gthr-default.h **** __gthread_objc_condition_allocate (objc_condition_t condition _GLIBCXX_UNUSED)
 175:c:\progra~2\gnuarm~1\102021~1.10\arm-none-eabi\include\c++\10.3.1\arm-none-eabi\thumb\v7e-m+fp\hard\bits\gthr-default.h **** {
 176:c:\progra~2\gnuarm~1\102021~1.10\arm-none-eabi\include\c++\10.3.1\arm-none-eabi\thumb\v7e-m+fp\hard\bits\gthr-default.h ****   return 0;
 177:c:\progra~2\gnuarm~1\102021~1.10\arm-none-eabi\include\c++\10.3.1\arm-none-eabi\thumb\v7e-m+fp\hard\bits\gthr-default.h **** }
 178:c:\progra~2\gnuarm~1\102021~1.10\arm-none-eabi\include\c++\10.3.1\arm-none-eabi\thumb\v7e-m+fp\hard\bits\gthr-default.h **** 
 179:c:\progra~2\gnuarm~1\102021~1.10\arm-none-eabi\include\c++\10.3.1\arm-none-eabi\thumb\v7e-m+fp\hard\bits\gthr-default.h **** /* Deallocate a condition.  */
 180:c:\progra~2\gnuarm~1\102021~1.10\arm-none-eabi\include\c++\10.3.1\arm-none-eabi\thumb\v7e-m+fp\hard\bits\gthr-default.h **** static inline int
 181:c:\progra~2\gnuarm~1\102021~1.10\arm-none-eabi\include\c++\10.3.1\arm-none-eabi\thumb\v7e-m+fp\hard\bits\gthr-default.h **** __gthread_objc_condition_deallocate (objc_condition_t condition _GLIBCXX_UNUSED)
 182:c:\progra~2\gnuarm~1\102021~1.10\arm-none-eabi\include\c++\10.3.1\arm-none-eabi\thumb\v7e-m+fp\hard\bits\gthr-default.h **** {
 183:c:\progra~2\gnuarm~1\102021~1.10\arm-none-eabi\include\c++\10.3.1\arm-none-eabi\thumb\v7e-m+fp\hard\bits\gthr-default.h ****   return 0;
 184:c:\progra~2\gnuarm~1\102021~1.10\arm-none-eabi\include\c++\10.3.1\arm-none-eabi\thumb\v7e-m+fp\hard\bits\gthr-default.h **** }
 185:c:\progra~2\gnuarm~1\102021~1.10\arm-none-eabi\include\c++\10.3.1\arm-none-eabi\thumb\v7e-m+fp\hard\bits\gthr-default.h **** 
 186:c:\progra~2\gnuarm~1\102021~1.10\arm-none-eabi\include\c++\10.3.1\arm-none-eabi\thumb\v7e-m+fp\hard\bits\gthr-default.h **** /* Wait on the condition */
 187:c:\progra~2\gnuarm~1\102021~1.10\arm-none-eabi\include\c++\10.3.1\arm-none-eabi\thumb\v7e-m+fp\hard\bits\gthr-default.h **** static inline int
 188:c:\progra~2\gnuarm~1\102021~1.10\arm-none-eabi\include\c++\10.3.1\arm-none-eabi\thumb\v7e-m+fp\hard\bits\gthr-default.h **** __gthread_objc_condition_wait (objc_condition_t condition _GLIBCXX_UNUSED,
 189:c:\progra~2\gnuarm~1\102021~1.10\arm-none-eabi\include\c++\10.3.1\arm-none-eabi\thumb\v7e-m+fp\hard\bits\gthr-default.h **** 			       objc_mutex_t mutex _GLIBCXX_UNUSED)
 190:c:\progra~2\gnuarm~1\102021~1.10\arm-none-eabi\include\c++\10.3.1\arm-none-eabi\thumb\v7e-m+fp\hard\bits\gthr-default.h **** {
 191:c:\progra~2\gnuarm~1\102021~1.10\arm-none-eabi\include\c++\10.3.1\arm-none-eabi\thumb\v7e-m+fp\hard\bits\gthr-default.h ****   return 0;
 192:c:\progra~2\gnuarm~1\102021~1.10\arm-none-eabi\include\c++\10.3.1\arm-none-eabi\thumb\v7e-m+fp\hard\bits\gthr-default.h **** }
 193:c:\progra~2\gnuarm~1\102021~1.10\arm-none-eabi\include\c++\10.3.1\arm-none-eabi\thumb\v7e-m+fp\hard\bits\gthr-default.h **** 
 194:c:\progra~2\gnuarm~1\102021~1.10\arm-none-eabi\include\c++\10.3.1\arm-none-eabi\thumb\v7e-m+fp\hard\bits\gthr-default.h **** /* Wake up all threads waiting on this condition.  */
 195:c:\progra~2\gnuarm~1\102021~1.10\arm-none-eabi\include\c++\10.3.1\arm-none-eabi\thumb\v7e-m+fp\hard\bits\gthr-default.h **** static inline int
ARM GAS   			page 5


 196:c:\progra~2\gnuarm~1\102021~1.10\arm-none-eabi\include\c++\10.3.1\arm-none-eabi\thumb\v7e-m+fp\hard\bits\gthr-default.h **** __gthread_objc_condition_broadcast (objc_condition_t condition _GLIBCXX_UNUSED)
 197:c:\progra~2\gnuarm~1\102021~1.10\arm-none-eabi\include\c++\10.3.1\arm-none-eabi\thumb\v7e-m+fp\hard\bits\gthr-default.h **** {
 198:c:\progra~2\gnuarm~1\102021~1.10\arm-none-eabi\include\c++\10.3.1\arm-none-eabi\thumb\v7e-m+fp\hard\bits\gthr-default.h ****   return 0;
 199:c:\progra~2\gnuarm~1\102021~1.10\arm-none-eabi\include\c++\10.3.1\arm-none-eabi\thumb\v7e-m+fp\hard\bits\gthr-default.h **** }
 200:c:\progra~2\gnuarm~1\102021~1.10\arm-none-eabi\include\c++\10.3.1\arm-none-eabi\thumb\v7e-m+fp\hard\bits\gthr-default.h **** 
 201:c:\progra~2\gnuarm~1\102021~1.10\arm-none-eabi\include\c++\10.3.1\arm-none-eabi\thumb\v7e-m+fp\hard\bits\gthr-default.h **** /* Wake up one thread waiting on this condition.  */
 202:c:\progra~2\gnuarm~1\102021~1.10\arm-none-eabi\include\c++\10.3.1\arm-none-eabi\thumb\v7e-m+fp\hard\bits\gthr-default.h **** static inline int
 203:c:\progra~2\gnuarm~1\102021~1.10\arm-none-eabi\include\c++\10.3.1\arm-none-eabi\thumb\v7e-m+fp\hard\bits\gthr-default.h **** __gthread_objc_condition_signal (objc_condition_t condition _GLIBCXX_UNUSED)
 204:c:\progra~2\gnuarm~1\102021~1.10\arm-none-eabi\include\c++\10.3.1\arm-none-eabi\thumb\v7e-m+fp\hard\bits\gthr-default.h **** {
 205:c:\progra~2\gnuarm~1\102021~1.10\arm-none-eabi\include\c++\10.3.1\arm-none-eabi\thumb\v7e-m+fp\hard\bits\gthr-default.h ****   return 0;
 206:c:\progra~2\gnuarm~1\102021~1.10\arm-none-eabi\include\c++\10.3.1\arm-none-eabi\thumb\v7e-m+fp\hard\bits\gthr-default.h **** }
 207:c:\progra~2\gnuarm~1\102021~1.10\arm-none-eabi\include\c++\10.3.1\arm-none-eabi\thumb\v7e-m+fp\hard\bits\gthr-default.h **** 
 208:c:\progra~2\gnuarm~1\102021~1.10\arm-none-eabi\include\c++\10.3.1\arm-none-eabi\thumb\v7e-m+fp\hard\bits\gthr-default.h **** #else /* _LIBOBJC */
 209:c:\progra~2\gnuarm~1\102021~1.10\arm-none-eabi\include\c++\10.3.1\arm-none-eabi\thumb\v7e-m+fp\hard\bits\gthr-default.h **** 
 210:c:\progra~2\gnuarm~1\102021~1.10\arm-none-eabi\include\c++\10.3.1\arm-none-eabi\thumb\v7e-m+fp\hard\bits\gthr-default.h **** static inline int
 211:c:\progra~2\gnuarm~1\102021~1.10\arm-none-eabi\include\c++\10.3.1\arm-none-eabi\thumb\v7e-m+fp\hard\bits\gthr-default.h **** __gthread_active_p (void)
 212:c:\progra~2\gnuarm~1\102021~1.10\arm-none-eabi\include\c++\10.3.1\arm-none-eabi\thumb\v7e-m+fp\hard\bits\gthr-default.h **** {
 213:c:\progra~2\gnuarm~1\102021~1.10\arm-none-eabi\include\c++\10.3.1\arm-none-eabi\thumb\v7e-m+fp\hard\bits\gthr-default.h ****   return 0;
 214:c:\progra~2\gnuarm~1\102021~1.10\arm-none-eabi\include\c++\10.3.1\arm-none-eabi\thumb\v7e-m+fp\hard\bits\gthr-default.h **** }
 215:c:\progra~2\gnuarm~1\102021~1.10\arm-none-eabi\include\c++\10.3.1\arm-none-eabi\thumb\v7e-m+fp\hard\bits\gthr-default.h **** 
 216:c:\progra~2\gnuarm~1\102021~1.10\arm-none-eabi\include\c++\10.3.1\arm-none-eabi\thumb\v7e-m+fp\hard\bits\gthr-default.h **** static inline int
 217:c:\progra~2\gnuarm~1\102021~1.10\arm-none-eabi\include\c++\10.3.1\arm-none-eabi\thumb\v7e-m+fp\hard\bits\gthr-default.h **** __gthread_once (__gthread_once_t *__once _GLIBCXX_UNUSED, void (*__func) (void) _GLIBCXX_UNUSED)
 218:c:\progra~2\gnuarm~1\102021~1.10\arm-none-eabi\include\c++\10.3.1\arm-none-eabi\thumb\v7e-m+fp\hard\bits\gthr-default.h **** {
 219:c:\progra~2\gnuarm~1\102021~1.10\arm-none-eabi\include\c++\10.3.1\arm-none-eabi\thumb\v7e-m+fp\hard\bits\gthr-default.h ****   return 0;
 220:c:\progra~2\gnuarm~1\102021~1.10\arm-none-eabi\include\c++\10.3.1\arm-none-eabi\thumb\v7e-m+fp\hard\bits\gthr-default.h **** }
 221:c:\progra~2\gnuarm~1\102021~1.10\arm-none-eabi\include\c++\10.3.1\arm-none-eabi\thumb\v7e-m+fp\hard\bits\gthr-default.h **** 
 222:c:\progra~2\gnuarm~1\102021~1.10\arm-none-eabi\include\c++\10.3.1\arm-none-eabi\thumb\v7e-m+fp\hard\bits\gthr-default.h **** static inline int _GLIBCXX_UNUSED
 223:c:\progra~2\gnuarm~1\102021~1.10\arm-none-eabi\include\c++\10.3.1\arm-none-eabi\thumb\v7e-m+fp\hard\bits\gthr-default.h **** __gthread_key_create (__gthread_key_t *__key _GLIBCXX_UNUSED, void (*__func) (void *) _GLIBCXX_UNUS
 224:c:\progra~2\gnuarm~1\102021~1.10\arm-none-eabi\include\c++\10.3.1\arm-none-eabi\thumb\v7e-m+fp\hard\bits\gthr-default.h **** {
 225:c:\progra~2\gnuarm~1\102021~1.10\arm-none-eabi\include\c++\10.3.1\arm-none-eabi\thumb\v7e-m+fp\hard\bits\gthr-default.h ****   return 0;
 226:c:\progra~2\gnuarm~1\102021~1.10\arm-none-eabi\include\c++\10.3.1\arm-none-eabi\thumb\v7e-m+fp\hard\bits\gthr-default.h **** }
 227:c:\progra~2\gnuarm~1\102021~1.10\arm-none-eabi\include\c++\10.3.1\arm-none-eabi\thumb\v7e-m+fp\hard\bits\gthr-default.h **** 
 228:c:\progra~2\gnuarm~1\102021~1.10\arm-none-eabi\include\c++\10.3.1\arm-none-eabi\thumb\v7e-m+fp\hard\bits\gthr-default.h **** static int _GLIBCXX_UNUSED
 229:c:\progra~2\gnuarm~1\102021~1.10\arm-none-eabi\include\c++\10.3.1\arm-none-eabi\thumb\v7e-m+fp\hard\bits\gthr-default.h **** __gthread_key_delete (__gthread_key_t __key _GLIBCXX_UNUSED)
 230:c:\progra~2\gnuarm~1\102021~1.10\arm-none-eabi\include\c++\10.3.1\arm-none-eabi\thumb\v7e-m+fp\hard\bits\gthr-default.h **** {
  34              	 .loc 1 230 1
  35              	 .cfi_startproc
  36              	 
  37              	 
  38              	 
  39 0000 80B4     	 push {r7}
  40              	 .cfi_def_cfa_offset 4
  41              	 .cfi_offset 7,-4
  42 0002 83B0     	 sub sp,sp,#12
  43              	 .cfi_def_cfa_offset 16
  44 0004 00AF     	 add r7,sp,#0
  45              	 .cfi_def_cfa_register 7
  46 0006 7860     	 str r0,[r7,#4]
 231:c:\progra~2\gnuarm~1\102021~1.10\arm-none-eabi\include\c++\10.3.1\arm-none-eabi\thumb\v7e-m+fp\hard\bits\gthr-default.h ****   return 0;
  47              	 .loc 1 231 10
  48 0008 0023     	 movs r3,#0
 232:c:\progra~2\gnuarm~1\102021~1.10\arm-none-eabi\include\c++\10.3.1\arm-none-eabi\thumb\v7e-m+fp\hard\bits\gthr-default.h **** }
  49              	 .loc 1 232 1
  50 000a 1846     	 mov r0,r3
  51 000c 0C37     	 adds r7,r7,#12
  52              	 .cfi_def_cfa_offset 4
  53 000e BD46     	 mov sp,r7
ARM GAS   			page 6


  54              	 .cfi_def_cfa_register 13
  55              	 
  56 0010 5DF8047B 	 ldr r7,[sp],#4
  57              	 .cfi_restore 7
  58              	 .cfi_def_cfa_offset 0
  59 0014 7047     	 bx lr
  60              	 .cfi_endproc
  61              	.LFE652:
  62              	 .size _ZL20__gthread_key_deletei,.-_ZL20__gthread_key_deletei
  63              	 .section .rodata
  64              	 .align 2
  65              	.LC0:
  66 0000 68616E64 	 .ascii "handle != NULL\000"
  66      6C652021 
  66      3D204E55 
  66      4C4C00
  67 000f 00       	 .align 2
  68              	.LC1:
  69 0010 6370705F 	 .ascii "cpp_freertos::Queue::Queue(UBaseType_t, UBaseType_t"
  69      66726565 
  69      72746F73 
  69      3A3A5175 
  69      6575653A 
  70 0043 2900     	 .ascii ")\000"
  71 0045 000000   	 .align 2
  72              	.LC2:
  73 0048 433A5C55 	 .ascii "C:\\Users\\niels\\Documents\\Elektrotechniek\\Jaar "
  73      73657273 
  73      5C6E6965 
  73      6C735C44 
  73      6F63756D 
  74 0076 335C6473 	 .ascii "3\\dspl\\software\\STM32Basis\\HAL\\gemeenschappeli"
  74      706C5C73 
  74      6F667477 
  74      6172655C 
  74      53544D33 
  75 00a4 6A6B5C54 	 .ascii "jk\\Third_Party\\freertos-addons-1.1.0\\c++\\Source"
  75      68697264 
  75      5F506172 
  75      74795C66 
  75      72656572 
  76 00d3 5C637175 	 .ascii "\\cqueue.cpp\000"
  76      6575652E 
  76      63707000 
  77              	 .section .text._ZN12cpp_freertos5QueueC2Emm,"ax",%progbits
  78              	 .align 1
  79              	 .global _ZN12cpp_freertos5QueueC2Emm
  80              	 .syntax unified
  81              	 .thumb
  82              	 .thumb_func
  83              	 .type _ZN12cpp_freertos5QueueC2Emm,%function
  84              	_ZN12cpp_freertos5QueueC2Emm:
  85              	.LFB1033:
  86              	 .file 2 "C:\\Users\\niels\\Documents\\Elektrotechniek\\Jaar 3\\dspl\\software\\STM32Basis\\HAL\\gemeenschappelijk\\Third_Party\\freertos-addons-1.1.0\\c++\\Source\\cqueue.cpp"
   1:C:\Users\niels\Documents\Elektrotechniek\Jaar 3\dspl\software\STM32Basis\HAL\gemeenschappelijk\Third_Party\freertos-addons-1.1.0\c++\Source\cqueue.cpp **** /****************************************************************************
   2:C:\Users\niels\Documents\Elektrotechniek\Jaar 3\dspl\software\STM32Basis\HAL\gemeenschappelijk\Third_Party\freertos-addons-1.1.0\c++\Source\cqueue.cpp ****  *
   3:C:\Users\niels\Documents\Elektrotechniek\Jaar 3\dspl\software\STM32Basis\HAL\gemeenschappelijk\Third_Party\freertos-addons-1.1.0\c++\Source\cqueue.cpp ****  *  Copyright (c) 2016, Michael Becker (michael.f.becker@gmail.com)
ARM GAS   			page 7


   4:C:\Users\niels\Documents\Elektrotechniek\Jaar 3\dspl\software\STM32Basis\HAL\gemeenschappelijk\Third_Party\freertos-addons-1.1.0\c++\Source\cqueue.cpp ****  *
   5:C:\Users\niels\Documents\Elektrotechniek\Jaar 3\dspl\software\STM32Basis\HAL\gemeenschappelijk\Third_Party\freertos-addons-1.1.0\c++\Source\cqueue.cpp ****  *  This file is part of the FreeRTOS C++ Wrappers project.
   6:C:\Users\niels\Documents\Elektrotechniek\Jaar 3\dspl\software\STM32Basis\HAL\gemeenschappelijk\Third_Party\freertos-addons-1.1.0\c++\Source\cqueue.cpp ****  *
   7:C:\Users\niels\Documents\Elektrotechniek\Jaar 3\dspl\software\STM32Basis\HAL\gemeenschappelijk\Third_Party\freertos-addons-1.1.0\c++\Source\cqueue.cpp ****  *  The FreeRTOS C++ Wrappers project is free software: you can redistribute
   8:C:\Users\niels\Documents\Elektrotechniek\Jaar 3\dspl\software\STM32Basis\HAL\gemeenschappelijk\Third_Party\freertos-addons-1.1.0\c++\Source\cqueue.cpp ****  *  it and/or modify it under the terms of the GNU General Public License as
   9:C:\Users\niels\Documents\Elektrotechniek\Jaar 3\dspl\software\STM32Basis\HAL\gemeenschappelijk\Third_Party\freertos-addons-1.1.0\c++\Source\cqueue.cpp ****  *  published by the Free Software Foundation, either version 2
  10:C:\Users\niels\Documents\Elektrotechniek\Jaar 3\dspl\software\STM32Basis\HAL\gemeenschappelijk\Third_Party\freertos-addons-1.1.0\c++\Source\cqueue.cpp ****  *  of the License, or (at your option) any later version.
  11:C:\Users\niels\Documents\Elektrotechniek\Jaar 3\dspl\software\STM32Basis\HAL\gemeenschappelijk\Third_Party\freertos-addons-1.1.0\c++\Source\cqueue.cpp ****  *
  12:C:\Users\niels\Documents\Elektrotechniek\Jaar 3\dspl\software\STM32Basis\HAL\gemeenschappelijk\Third_Party\freertos-addons-1.1.0\c++\Source\cqueue.cpp ****  *  The FreeRTOS C++ Wrappers project is distributed in the hope that it will
  13:C:\Users\niels\Documents\Elektrotechniek\Jaar 3\dspl\software\STM32Basis\HAL\gemeenschappelijk\Third_Party\freertos-addons-1.1.0\c++\Source\cqueue.cpp ****  *  be useful, but WITHOUT ANY WARRANTY; without even the implied warranty of
  14:C:\Users\niels\Documents\Elektrotechniek\Jaar 3\dspl\software\STM32Basis\HAL\gemeenschappelijk\Third_Party\freertos-addons-1.1.0\c++\Source\cqueue.cpp ****  *  MERCHANTABILITY or FITNESS FOR A PARTICULAR PURPOSE.  See the
  15:C:\Users\niels\Documents\Elektrotechniek\Jaar 3\dspl\software\STM32Basis\HAL\gemeenschappelijk\Third_Party\freertos-addons-1.1.0\c++\Source\cqueue.cpp ****  *  GNU General Public License for more details.
  16:C:\Users\niels\Documents\Elektrotechniek\Jaar 3\dspl\software\STM32Basis\HAL\gemeenschappelijk\Third_Party\freertos-addons-1.1.0\c++\Source\cqueue.cpp ****  *
  17:C:\Users\niels\Documents\Elektrotechniek\Jaar 3\dspl\software\STM32Basis\HAL\gemeenschappelijk\Third_Party\freertos-addons-1.1.0\c++\Source\cqueue.cpp ****  *  You should have received a copy of the GNU General Public License
  18:C:\Users\niels\Documents\Elektrotechniek\Jaar 3\dspl\software\STM32Basis\HAL\gemeenschappelijk\Third_Party\freertos-addons-1.1.0\c++\Source\cqueue.cpp ****  *  along with the FreeRTOS C++ Wrappers project.
  19:C:\Users\niels\Documents\Elektrotechniek\Jaar 3\dspl\software\STM32Basis\HAL\gemeenschappelijk\Third_Party\freertos-addons-1.1.0\c++\Source\cqueue.cpp ****  *  If not, see <http://www.gnu.org/licenses/>.
  20:C:\Users\niels\Documents\Elektrotechniek\Jaar 3\dspl\software\STM32Basis\HAL\gemeenschappelijk\Third_Party\freertos-addons-1.1.0\c++\Source\cqueue.cpp ****  *
  21:C:\Users\niels\Documents\Elektrotechniek\Jaar 3\dspl\software\STM32Basis\HAL\gemeenschappelijk\Third_Party\freertos-addons-1.1.0\c++\Source\cqueue.cpp ****  ***************************************************************************/
  22:C:\Users\niels\Documents\Elektrotechniek\Jaar 3\dspl\software\STM32Basis\HAL\gemeenschappelijk\Third_Party\freertos-addons-1.1.0\c++\Source\cqueue.cpp **** #include <assert.h>
  23:C:\Users\niels\Documents\Elektrotechniek\Jaar 3\dspl\software\STM32Basis\HAL\gemeenschappelijk\Third_Party\freertos-addons-1.1.0\c++\Source\cqueue.cpp **** #include "queue.hpp"
  24:C:\Users\niels\Documents\Elektrotechniek\Jaar 3\dspl\software\STM32Basis\HAL\gemeenschappelijk\Third_Party\freertos-addons-1.1.0\c++\Source\cqueue.cpp **** 
  25:C:\Users\niels\Documents\Elektrotechniek\Jaar 3\dspl\software\STM32Basis\HAL\gemeenschappelijk\Third_Party\freertos-addons-1.1.0\c++\Source\cqueue.cpp **** 
  26:C:\Users\niels\Documents\Elektrotechniek\Jaar 3\dspl\software\STM32Basis\HAL\gemeenschappelijk\Third_Party\freertos-addons-1.1.0\c++\Source\cqueue.cpp **** using namespace cpp_freertos;
  27:C:\Users\niels\Documents\Elektrotechniek\Jaar 3\dspl\software\STM32Basis\HAL\gemeenschappelijk\Third_Party\freertos-addons-1.1.0\c++\Source\cqueue.cpp **** 
  28:C:\Users\niels\Documents\Elektrotechniek\Jaar 3\dspl\software\STM32Basis\HAL\gemeenschappelijk\Third_Party\freertos-addons-1.1.0\c++\Source\cqueue.cpp **** 
  29:C:\Users\niels\Documents\Elektrotechniek\Jaar 3\dspl\software\STM32Basis\HAL\gemeenschappelijk\Third_Party\freertos-addons-1.1.0\c++\Source\cqueue.cpp **** Queue::Queue(UBaseType_t maxItems, UBaseType_t itemSize)
  87              	 .loc 2 29 1
  88              	 .cfi_startproc
  89              	 
  90              	 
  91 0000 80B5     	 push {r7,lr}
  92              	 .cfi_def_cfa_offset 8
  93              	 .cfi_offset 7,-8
  94              	 .cfi_offset 14,-4
  95 0002 84B0     	 sub sp,sp,#16
  96              	 .cfi_def_cfa_offset 24
  97 0004 00AF     	 add r7,sp,#0
  98              	 .cfi_def_cfa_register 7
  99 0006 F860     	 str r0,[r7,#12]
 100 0008 B960     	 str r1,[r7,#8]
 101 000a 7A60     	 str r2,[r7,#4]
 102              	.LBB2:
 103              	 .loc 2 29 56
 104 000c 0C4A     	 ldr r2,.L6
 105 000e FB68     	 ldr r3,[r7,#12]
 106 0010 1A60     	 str r2,[r3]
  30:C:\Users\niels\Documents\Elektrotechniek\Jaar 3\dspl\software\STM32Basis\HAL\gemeenschappelijk\Third_Party\freertos-addons-1.1.0\c++\Source\cqueue.cpp **** {
  31:C:\Users\niels\Documents\Elektrotechniek\Jaar 3\dspl\software\STM32Basis\HAL\gemeenschappelijk\Third_Party\freertos-addons-1.1.0\c++\Source\cqueue.cpp ****     handle = xQueueCreate(maxItems, itemSize);
 107              	 .loc 2 31 14
 108 0012 0022     	 movs r2,#0
 109 0014 7968     	 ldr r1,[r7,#4]
 110 0016 B868     	 ldr r0,[r7,#8]
 111 0018 FFF7FEFF 	 bl xQueueGenericCreate
 112 001c 0246     	 mov r2,r0
 113              	 .loc 2 31 12
 114 001e FB68     	 ldr r3,[r7,#12]
 115 0020 5A60     	 str r2,[r3,#4]
ARM GAS   			page 8


  32:C:\Users\niels\Documents\Elektrotechniek\Jaar 3\dspl\software\STM32Basis\HAL\gemeenschappelijk\Third_Party\freertos-addons-1.1.0\c++\Source\cqueue.cpp **** 
  33:C:\Users\niels\Documents\Elektrotechniek\Jaar 3\dspl\software\STM32Basis\HAL\gemeenschappelijk\Third_Party\freertos-addons-1.1.0\c++\Source\cqueue.cpp ****     assert(handle != NULL);
 116              	 .loc 2 33 5
 117 0022 FB68     	 ldr r3,[r7,#12]
 118 0024 5B68     	 ldr r3,[r3,#4]
 119 0026 002B     	 cmp r3,#0
 120 0028 05D1     	 bne .L4
 121              	 .loc 2 33 5 is_stmt 0 discriminator 1
 122 002a 064B     	 ldr r3,.L6+4
 123 002c 064A     	 ldr r2,.L6+8
 124 002e 2121     	 movs r1,#33
 125 0030 0648     	 ldr r0,.L6+12
 126 0032 FFF7FEFF 	 bl __assert_func
 127              	.L4:
 128              	.LBE2:
  34:C:\Users\niels\Documents\Elektrotechniek\Jaar 3\dspl\software\STM32Basis\HAL\gemeenschappelijk\Third_Party\freertos-addons-1.1.0\c++\Source\cqueue.cpp **** }
 129              	 .loc 2 34 1 is_stmt 1
 130 0036 FB68     	 ldr r3,[r7,#12]
 131 0038 1846     	 mov r0,r3
 132 003a 1037     	 adds r7,r7,#16
 133              	 .cfi_def_cfa_offset 8
 134 003c BD46     	 mov sp,r7
 135              	 .cfi_def_cfa_register 13
 136              	 
 137 003e 80BD     	 pop {r7,pc}
 138              	.L7:
 139              	 .align 2
 140              	.L6:
 141 0040 08000000 	 .word _ZTVN12cpp_freertos5QueueE+8
 142 0044 00000000 	 .word .LC0
 143 0048 10000000 	 .word .LC1
 144 004c 48000000 	 .word .LC2
 145              	 .cfi_endproc
 146              	.LFE1033:
 147              	 .size _ZN12cpp_freertos5QueueC2Emm,.-_ZN12cpp_freertos5QueueC2Emm
 148              	 .global _ZN12cpp_freertos5QueueC1Emm
 149              	 .thumb_set _ZN12cpp_freertos5QueueC1Emm,_ZN12cpp_freertos5QueueC2Emm
 150              	 .section .text._ZN12cpp_freertos5QueueD2Ev,"ax",%progbits
 151              	 .align 1
 152              	 .global _ZN12cpp_freertos5QueueD2Ev
 153              	 .syntax unified
 154              	 .thumb
 155              	 .thumb_func
 156              	 .type _ZN12cpp_freertos5QueueD2Ev,%function
 157              	_ZN12cpp_freertos5QueueD2Ev:
 158              	.LFB1036:
  35:C:\Users\niels\Documents\Elektrotechniek\Jaar 3\dspl\software\STM32Basis\HAL\gemeenschappelijk\Third_Party\freertos-addons-1.1.0\c++\Source\cqueue.cpp **** 
  36:C:\Users\niels\Documents\Elektrotechniek\Jaar 3\dspl\software\STM32Basis\HAL\gemeenschappelijk\Third_Party\freertos-addons-1.1.0\c++\Source\cqueue.cpp **** 
  37:C:\Users\niels\Documents\Elektrotechniek\Jaar 3\dspl\software\STM32Basis\HAL\gemeenschappelijk\Third_Party\freertos-addons-1.1.0\c++\Source\cqueue.cpp **** Queue::~Queue()
 159              	 .loc 2 37 1
 160              	 .cfi_startproc
 161              	 
 162              	 
 163 0000 80B5     	 push {r7,lr}
 164              	 .cfi_def_cfa_offset 8
 165              	 .cfi_offset 7,-8
 166              	 .cfi_offset 14,-4
ARM GAS   			page 9


 167 0002 82B0     	 sub sp,sp,#8
 168              	 .cfi_def_cfa_offset 16
 169 0004 00AF     	 add r7,sp,#0
 170              	 .cfi_def_cfa_register 7
 171 0006 7860     	 str r0,[r7,#4]
 172              	.LBB3:
 173              	 .loc 2 37 15
 174 0008 064A     	 ldr r2,.L10
 175 000a 7B68     	 ldr r3,[r7,#4]
 176 000c 1A60     	 str r2,[r3]
  38:C:\Users\niels\Documents\Elektrotechniek\Jaar 3\dspl\software\STM32Basis\HAL\gemeenschappelijk\Third_Party\freertos-addons-1.1.0\c++\Source\cqueue.cpp **** {
  39:C:\Users\niels\Documents\Elektrotechniek\Jaar 3\dspl\software\STM32Basis\HAL\gemeenschappelijk\Third_Party\freertos-addons-1.1.0\c++\Source\cqueue.cpp ****     vQueueDelete(handle);
 177              	 .loc 2 39 17
 178 000e 7B68     	 ldr r3,[r7,#4]
 179 0010 5B68     	 ldr r3,[r3,#4]
 180 0012 1846     	 mov r0,r3
 181 0014 FFF7FEFF 	 bl vQueueDelete
 182              	.LBE3:
  40:C:\Users\niels\Documents\Elektrotechniek\Jaar 3\dspl\software\STM32Basis\HAL\gemeenschappelijk\Third_Party\freertos-addons-1.1.0\c++\Source\cqueue.cpp **** }
 183              	 .loc 2 40 1
 184 0018 7B68     	 ldr r3,[r7,#4]
 185 001a 1846     	 mov r0,r3
 186 001c 0837     	 adds r7,r7,#8
 187              	 .cfi_def_cfa_offset 8
 188 001e BD46     	 mov sp,r7
 189              	 .cfi_def_cfa_register 13
 190              	 
 191 0020 80BD     	 pop {r7,pc}
 192              	.L11:
 193 0022 00BF     	 .align 2
 194              	.L10:
 195 0024 08000000 	 .word _ZTVN12cpp_freertos5QueueE+8
 196              	 .cfi_endproc
 197              	.LFE1036:
 198              	 .size _ZN12cpp_freertos5QueueD2Ev,.-_ZN12cpp_freertos5QueueD2Ev
 199              	 .global _ZN12cpp_freertos5QueueD1Ev
 200              	 .thumb_set _ZN12cpp_freertos5QueueD1Ev,_ZN12cpp_freertos5QueueD2Ev
 201              	 .section .text._ZN12cpp_freertos5QueueD0Ev,"ax",%progbits
 202              	 .align 1
 203              	 .global _ZN12cpp_freertos5QueueD0Ev
 204              	 .syntax unified
 205              	 .thumb
 206              	 .thumb_func
 207              	 .type _ZN12cpp_freertos5QueueD0Ev,%function
 208              	_ZN12cpp_freertos5QueueD0Ev:
 209              	.LFB1038:
  37:C:\Users\niels\Documents\Elektrotechniek\Jaar 3\dspl\software\STM32Basis\HAL\gemeenschappelijk\Third_Party\freertos-addons-1.1.0\c++\Source\cqueue.cpp **** {
 210              	 .loc 2 37 1
 211              	 .cfi_startproc
 212              	 
 213              	 
 214 0000 80B5     	 push {r7,lr}
 215              	 .cfi_def_cfa_offset 8
 216              	 .cfi_offset 7,-8
 217              	 .cfi_offset 14,-4
 218 0002 82B0     	 sub sp,sp,#8
 219              	 .cfi_def_cfa_offset 16
ARM GAS   			page 10


 220 0004 00AF     	 add r7,sp,#0
 221              	 .cfi_def_cfa_register 7
 222 0006 7860     	 str r0,[r7,#4]
 223              	 .loc 2 40 1
 224 0008 7868     	 ldr r0,[r7,#4]
 225 000a FFF7FEFF 	 bl _ZN12cpp_freertos5QueueD1Ev
 226 000e 0821     	 movs r1,#8
 227 0010 7868     	 ldr r0,[r7,#4]
 228 0012 FFF7FEFF 	 bl _ZdlPvj
 229 0016 7B68     	 ldr r3,[r7,#4]
 230 0018 1846     	 mov r0,r3
 231 001a 0837     	 adds r7,r7,#8
 232              	 .cfi_def_cfa_offset 8
 233 001c BD46     	 mov sp,r7
 234              	 .cfi_def_cfa_register 13
 235              	 
 236 001e 80BD     	 pop {r7,pc}
 237              	 .cfi_endproc
 238              	.LFE1038:
 239              	 .size _ZN12cpp_freertos5QueueD0Ev,.-_ZN12cpp_freertos5QueueD0Ev
 240              	 .section .text._ZN12cpp_freertos5Queue7EnqueueEPv,"ax",%progbits
 241              	 .align 1
 242              	 .global _ZN12cpp_freertos5Queue7EnqueueEPv
 243              	 .syntax unified
 244              	 .thumb
 245              	 .thumb_func
 246              	 .type _ZN12cpp_freertos5Queue7EnqueueEPv,%function
 247              	_ZN12cpp_freertos5Queue7EnqueueEPv:
 248              	.LFB1039:
  41:C:\Users\niels\Documents\Elektrotechniek\Jaar 3\dspl\software\STM32Basis\HAL\gemeenschappelijk\Third_Party\freertos-addons-1.1.0\c++\Source\cqueue.cpp **** 
  42:C:\Users\niels\Documents\Elektrotechniek\Jaar 3\dspl\software\STM32Basis\HAL\gemeenschappelijk\Third_Party\freertos-addons-1.1.0\c++\Source\cqueue.cpp **** 
  43:C:\Users\niels\Documents\Elektrotechniek\Jaar 3\dspl\software\STM32Basis\HAL\gemeenschappelijk\Third_Party\freertos-addons-1.1.0\c++\Source\cqueue.cpp **** bool Queue::Enqueue(void *item)
  44:C:\Users\niels\Documents\Elektrotechniek\Jaar 3\dspl\software\STM32Basis\HAL\gemeenschappelijk\Third_Party\freertos-addons-1.1.0\c++\Source\cqueue.cpp **** {
 249              	 .loc 2 44 1
 250              	 .cfi_startproc
 251              	 
 252              	 
 253 0000 80B5     	 push {r7,lr}
 254              	 .cfi_def_cfa_offset 8
 255              	 .cfi_offset 7,-8
 256              	 .cfi_offset 14,-4
 257 0002 84B0     	 sub sp,sp,#16
 258              	 .cfi_def_cfa_offset 24
 259 0004 00AF     	 add r7,sp,#0
 260              	 .cfi_def_cfa_register 7
 261 0006 7860     	 str r0,[r7,#4]
 262 0008 3960     	 str r1,[r7]
  45:C:\Users\niels\Documents\Elektrotechniek\Jaar 3\dspl\software\STM32Basis\HAL\gemeenschappelijk\Third_Party\freertos-addons-1.1.0\c++\Source\cqueue.cpp ****     BaseType_t success;
  46:C:\Users\niels\Documents\Elektrotechniek\Jaar 3\dspl\software\STM32Basis\HAL\gemeenschappelijk\Third_Party\freertos-addons-1.1.0\c++\Source\cqueue.cpp **** 
  47:C:\Users\niels\Documents\Elektrotechniek\Jaar 3\dspl\software\STM32Basis\HAL\gemeenschappelijk\Third_Party\freertos-addons-1.1.0\c++\Source\cqueue.cpp ****     success = xQueueSendToBack(handle, item, portMAX_DELAY);
 263              	 .loc 2 47 15
 264 000a 7B68     	 ldr r3,[r7,#4]
 265 000c 5868     	 ldr r0,[r3,#4]
 266 000e 0023     	 movs r3,#0
 267 0010 4FF0FF32 	 mov r2,#-1
 268 0014 3968     	 ldr r1,[r7]
 269 0016 FFF7FEFF 	 bl xQueueGenericSend
ARM GAS   			page 11


 270 001a F860     	 str r0,[r7,#12]
  48:C:\Users\niels\Documents\Elektrotechniek\Jaar 3\dspl\software\STM32Basis\HAL\gemeenschappelijk\Third_Party\freertos-addons-1.1.0\c++\Source\cqueue.cpp **** 
  49:C:\Users\niels\Documents\Elektrotechniek\Jaar 3\dspl\software\STM32Basis\HAL\gemeenschappelijk\Third_Party\freertos-addons-1.1.0\c++\Source\cqueue.cpp ****     return success == pdTRUE ? true : false;
 271              	 .loc 2 49 39
 272 001c FB68     	 ldr r3,[r7,#12]
 273 001e 012B     	 cmp r3,#1
 274 0020 0CBF     	 ite eq
 275 0022 0123     	 moveq r3,#1
 276 0024 0023     	 movne r3,#0
 277 0026 DBB2     	 uxtb r3,r3
  50:C:\Users\niels\Documents\Elektrotechniek\Jaar 3\dspl\software\STM32Basis\HAL\gemeenschappelijk\Third_Party\freertos-addons-1.1.0\c++\Source\cqueue.cpp **** }
 278              	 .loc 2 50 1
 279 0028 1846     	 mov r0,r3
 280 002a 1037     	 adds r7,r7,#16
 281              	 .cfi_def_cfa_offset 8
 282 002c BD46     	 mov sp,r7
 283              	 .cfi_def_cfa_register 13
 284              	 
 285 002e 80BD     	 pop {r7,pc}
 286              	 .cfi_endproc
 287              	.LFE1039:
 288              	 .size _ZN12cpp_freertos5Queue7EnqueueEPv,.-_ZN12cpp_freertos5Queue7EnqueueEPv
 289              	 .section .text._ZN12cpp_freertos5Queue7EnqueueEPvm,"ax",%progbits
 290              	 .align 1
 291              	 .global _ZN12cpp_freertos5Queue7EnqueueEPvm
 292              	 .syntax unified
 293              	 .thumb
 294              	 .thumb_func
 295              	 .type _ZN12cpp_freertos5Queue7EnqueueEPvm,%function
 296              	_ZN12cpp_freertos5Queue7EnqueueEPvm:
 297              	.LFB1040:
  51:C:\Users\niels\Documents\Elektrotechniek\Jaar 3\dspl\software\STM32Basis\HAL\gemeenschappelijk\Third_Party\freertos-addons-1.1.0\c++\Source\cqueue.cpp **** 
  52:C:\Users\niels\Documents\Elektrotechniek\Jaar 3\dspl\software\STM32Basis\HAL\gemeenschappelijk\Third_Party\freertos-addons-1.1.0\c++\Source\cqueue.cpp **** 
  53:C:\Users\niels\Documents\Elektrotechniek\Jaar 3\dspl\software\STM32Basis\HAL\gemeenschappelijk\Third_Party\freertos-addons-1.1.0\c++\Source\cqueue.cpp **** bool Queue::Enqueue(void *item, TickType_t Timeout)
  54:C:\Users\niels\Documents\Elektrotechniek\Jaar 3\dspl\software\STM32Basis\HAL\gemeenschappelijk\Third_Party\freertos-addons-1.1.0\c++\Source\cqueue.cpp **** {
 298              	 .loc 2 54 1
 299              	 .cfi_startproc
 300              	 
 301              	 
 302 0000 80B5     	 push {r7,lr}
 303              	 .cfi_def_cfa_offset 8
 304              	 .cfi_offset 7,-8
 305              	 .cfi_offset 14,-4
 306 0002 86B0     	 sub sp,sp,#24
 307              	 .cfi_def_cfa_offset 32
 308 0004 00AF     	 add r7,sp,#0
 309              	 .cfi_def_cfa_register 7
 310 0006 F860     	 str r0,[r7,#12]
 311 0008 B960     	 str r1,[r7,#8]
 312 000a 7A60     	 str r2,[r7,#4]
  55:C:\Users\niels\Documents\Elektrotechniek\Jaar 3\dspl\software\STM32Basis\HAL\gemeenschappelijk\Third_Party\freertos-addons-1.1.0\c++\Source\cqueue.cpp ****     BaseType_t success;
  56:C:\Users\niels\Documents\Elektrotechniek\Jaar 3\dspl\software\STM32Basis\HAL\gemeenschappelijk\Third_Party\freertos-addons-1.1.0\c++\Source\cqueue.cpp **** 
  57:C:\Users\niels\Documents\Elektrotechniek\Jaar 3\dspl\software\STM32Basis\HAL\gemeenschappelijk\Third_Party\freertos-addons-1.1.0\c++\Source\cqueue.cpp ****     success = xQueueSendToBack(handle, item, Timeout);
 313              	 .loc 2 57 15
 314 000c FB68     	 ldr r3,[r7,#12]
 315 000e 5868     	 ldr r0,[r3,#4]
 316 0010 0023     	 movs r3,#0
ARM GAS   			page 12


 317 0012 7A68     	 ldr r2,[r7,#4]
 318 0014 B968     	 ldr r1,[r7,#8]
 319 0016 FFF7FEFF 	 bl xQueueGenericSend
 320 001a 7861     	 str r0,[r7,#20]
  58:C:\Users\niels\Documents\Elektrotechniek\Jaar 3\dspl\software\STM32Basis\HAL\gemeenschappelijk\Third_Party\freertos-addons-1.1.0\c++\Source\cqueue.cpp **** 
  59:C:\Users\niels\Documents\Elektrotechniek\Jaar 3\dspl\software\STM32Basis\HAL\gemeenschappelijk\Third_Party\freertos-addons-1.1.0\c++\Source\cqueue.cpp ****     return success == pdTRUE ? true : false;
 321              	 .loc 2 59 39
 322 001c 7B69     	 ldr r3,[r7,#20]
 323 001e 012B     	 cmp r3,#1
 324 0020 0CBF     	 ite eq
 325 0022 0123     	 moveq r3,#1
 326 0024 0023     	 movne r3,#0
 327 0026 DBB2     	 uxtb r3,r3
  60:C:\Users\niels\Documents\Elektrotechniek\Jaar 3\dspl\software\STM32Basis\HAL\gemeenschappelijk\Third_Party\freertos-addons-1.1.0\c++\Source\cqueue.cpp **** }
 328              	 .loc 2 60 1
 329 0028 1846     	 mov r0,r3
 330 002a 1837     	 adds r7,r7,#24
 331              	 .cfi_def_cfa_offset 8
 332 002c BD46     	 mov sp,r7
 333              	 .cfi_def_cfa_register 13
 334              	 
 335 002e 80BD     	 pop {r7,pc}
 336              	 .cfi_endproc
 337              	.LFE1040:
 338              	 .size _ZN12cpp_freertos5Queue7EnqueueEPvm,.-_ZN12cpp_freertos5Queue7EnqueueEPvm
 339              	 .section .text._ZN12cpp_freertos5Queue7DequeueEPvm,"ax",%progbits
 340              	 .align 1
 341              	 .global _ZN12cpp_freertos5Queue7DequeueEPvm
 342              	 .syntax unified
 343              	 .thumb
 344              	 .thumb_func
 345              	 .type _ZN12cpp_freertos5Queue7DequeueEPvm,%function
 346              	_ZN12cpp_freertos5Queue7DequeueEPvm:
 347              	.LFB1041:
  61:C:\Users\niels\Documents\Elektrotechniek\Jaar 3\dspl\software\STM32Basis\HAL\gemeenschappelijk\Third_Party\freertos-addons-1.1.0\c++\Source\cqueue.cpp **** 
  62:C:\Users\niels\Documents\Elektrotechniek\Jaar 3\dspl\software\STM32Basis\HAL\gemeenschappelijk\Third_Party\freertos-addons-1.1.0\c++\Source\cqueue.cpp **** 
  63:C:\Users\niels\Documents\Elektrotechniek\Jaar 3\dspl\software\STM32Basis\HAL\gemeenschappelijk\Third_Party\freertos-addons-1.1.0\c++\Source\cqueue.cpp **** bool Queue::Dequeue(void *item, TickType_t Timeout)
  64:C:\Users\niels\Documents\Elektrotechniek\Jaar 3\dspl\software\STM32Basis\HAL\gemeenschappelijk\Third_Party\freertos-addons-1.1.0\c++\Source\cqueue.cpp **** {
 348              	 .loc 2 64 1
 349              	 .cfi_startproc
 350              	 
 351              	 
 352 0000 80B5     	 push {r7,lr}
 353              	 .cfi_def_cfa_offset 8
 354              	 .cfi_offset 7,-8
 355              	 .cfi_offset 14,-4
 356 0002 86B0     	 sub sp,sp,#24
 357              	 .cfi_def_cfa_offset 32
 358 0004 00AF     	 add r7,sp,#0
 359              	 .cfi_def_cfa_register 7
 360 0006 F860     	 str r0,[r7,#12]
 361 0008 B960     	 str r1,[r7,#8]
 362 000a 7A60     	 str r2,[r7,#4]
  65:C:\Users\niels\Documents\Elektrotechniek\Jaar 3\dspl\software\STM32Basis\HAL\gemeenschappelijk\Third_Party\freertos-addons-1.1.0\c++\Source\cqueue.cpp ****     BaseType_t success;
  66:C:\Users\niels\Documents\Elektrotechniek\Jaar 3\dspl\software\STM32Basis\HAL\gemeenschappelijk\Third_Party\freertos-addons-1.1.0\c++\Source\cqueue.cpp **** 
  67:C:\Users\niels\Documents\Elektrotechniek\Jaar 3\dspl\software\STM32Basis\HAL\gemeenschappelijk\Third_Party\freertos-addons-1.1.0\c++\Source\cqueue.cpp ****     success = xQueueReceive(handle, item, Timeout);
 363              	 .loc 2 67 15
ARM GAS   			page 13


 364 000c FB68     	 ldr r3,[r7,#12]
 365 000e 5868     	 ldr r0,[r3,#4]
 366 0010 0023     	 movs r3,#0
 367 0012 7A68     	 ldr r2,[r7,#4]
 368 0014 B968     	 ldr r1,[r7,#8]
 369 0016 FFF7FEFF 	 bl xQueueGenericReceive
 370 001a 7861     	 str r0,[r7,#20]
  68:C:\Users\niels\Documents\Elektrotechniek\Jaar 3\dspl\software\STM32Basis\HAL\gemeenschappelijk\Third_Party\freertos-addons-1.1.0\c++\Source\cqueue.cpp **** 
  69:C:\Users\niels\Documents\Elektrotechniek\Jaar 3\dspl\software\STM32Basis\HAL\gemeenschappelijk\Third_Party\freertos-addons-1.1.0\c++\Source\cqueue.cpp ****     return success == pdTRUE ? true : false;
 371              	 .loc 2 69 39
 372 001c 7B69     	 ldr r3,[r7,#20]
 373 001e 012B     	 cmp r3,#1
 374 0020 0CBF     	 ite eq
 375 0022 0123     	 moveq r3,#1
 376 0024 0023     	 movne r3,#0
 377 0026 DBB2     	 uxtb r3,r3
  70:C:\Users\niels\Documents\Elektrotechniek\Jaar 3\dspl\software\STM32Basis\HAL\gemeenschappelijk\Third_Party\freertos-addons-1.1.0\c++\Source\cqueue.cpp **** }
 378              	 .loc 2 70 1
 379 0028 1846     	 mov r0,r3
 380 002a 1837     	 adds r7,r7,#24
 381              	 .cfi_def_cfa_offset 8
 382 002c BD46     	 mov sp,r7
 383              	 .cfi_def_cfa_register 13
 384              	 
 385 002e 80BD     	 pop {r7,pc}
 386              	 .cfi_endproc
 387              	.LFE1041:
 388              	 .size _ZN12cpp_freertos5Queue7DequeueEPvm,.-_ZN12cpp_freertos5Queue7DequeueEPvm
 389              	 .section .text._ZN12cpp_freertos5Queue4PeekEPvm,"ax",%progbits
 390              	 .align 1
 391              	 .global _ZN12cpp_freertos5Queue4PeekEPvm
 392              	 .syntax unified
 393              	 .thumb
 394              	 .thumb_func
 395              	 .type _ZN12cpp_freertos5Queue4PeekEPvm,%function
 396              	_ZN12cpp_freertos5Queue4PeekEPvm:
 397              	.LFB1042:
  71:C:\Users\niels\Documents\Elektrotechniek\Jaar 3\dspl\software\STM32Basis\HAL\gemeenschappelijk\Third_Party\freertos-addons-1.1.0\c++\Source\cqueue.cpp **** 
  72:C:\Users\niels\Documents\Elektrotechniek\Jaar 3\dspl\software\STM32Basis\HAL\gemeenschappelijk\Third_Party\freertos-addons-1.1.0\c++\Source\cqueue.cpp **** 
  73:C:\Users\niels\Documents\Elektrotechniek\Jaar 3\dspl\software\STM32Basis\HAL\gemeenschappelijk\Third_Party\freertos-addons-1.1.0\c++\Source\cqueue.cpp **** bool Queue::Peek(void *item, TickType_t Timeout)
  74:C:\Users\niels\Documents\Elektrotechniek\Jaar 3\dspl\software\STM32Basis\HAL\gemeenschappelijk\Third_Party\freertos-addons-1.1.0\c++\Source\cqueue.cpp **** {
 398              	 .loc 2 74 1
 399              	 .cfi_startproc
 400              	 
 401              	 
 402 0000 80B5     	 push {r7,lr}
 403              	 .cfi_def_cfa_offset 8
 404              	 .cfi_offset 7,-8
 405              	 .cfi_offset 14,-4
 406 0002 86B0     	 sub sp,sp,#24
 407              	 .cfi_def_cfa_offset 32
 408 0004 00AF     	 add r7,sp,#0
 409              	 .cfi_def_cfa_register 7
 410 0006 F860     	 str r0,[r7,#12]
 411 0008 B960     	 str r1,[r7,#8]
 412 000a 7A60     	 str r2,[r7,#4]
  75:C:\Users\niels\Documents\Elektrotechniek\Jaar 3\dspl\software\STM32Basis\HAL\gemeenschappelijk\Third_Party\freertos-addons-1.1.0\c++\Source\cqueue.cpp ****     BaseType_t success;
ARM GAS   			page 14


  76:C:\Users\niels\Documents\Elektrotechniek\Jaar 3\dspl\software\STM32Basis\HAL\gemeenschappelijk\Third_Party\freertos-addons-1.1.0\c++\Source\cqueue.cpp **** 
  77:C:\Users\niels\Documents\Elektrotechniek\Jaar 3\dspl\software\STM32Basis\HAL\gemeenschappelijk\Third_Party\freertos-addons-1.1.0\c++\Source\cqueue.cpp ****     success = xQueuePeek(handle, item, Timeout);
 413              	 .loc 2 77 15
 414 000c FB68     	 ldr r3,[r7,#12]
 415 000e 5868     	 ldr r0,[r3,#4]
 416 0010 0123     	 movs r3,#1
 417 0012 7A68     	 ldr r2,[r7,#4]
 418 0014 B968     	 ldr r1,[r7,#8]
 419 0016 FFF7FEFF 	 bl xQueueGenericReceive
 420 001a 7861     	 str r0,[r7,#20]
  78:C:\Users\niels\Documents\Elektrotechniek\Jaar 3\dspl\software\STM32Basis\HAL\gemeenschappelijk\Third_Party\freertos-addons-1.1.0\c++\Source\cqueue.cpp **** 
  79:C:\Users\niels\Documents\Elektrotechniek\Jaar 3\dspl\software\STM32Basis\HAL\gemeenschappelijk\Third_Party\freertos-addons-1.1.0\c++\Source\cqueue.cpp ****     return success == pdTRUE ? true : false;
 421              	 .loc 2 79 39
 422 001c 7B69     	 ldr r3,[r7,#20]
 423 001e 012B     	 cmp r3,#1
 424 0020 0CBF     	 ite eq
 425 0022 0123     	 moveq r3,#1
 426 0024 0023     	 movne r3,#0
 427 0026 DBB2     	 uxtb r3,r3
  80:C:\Users\niels\Documents\Elektrotechniek\Jaar 3\dspl\software\STM32Basis\HAL\gemeenschappelijk\Third_Party\freertos-addons-1.1.0\c++\Source\cqueue.cpp **** }
 428              	 .loc 2 80 1
 429 0028 1846     	 mov r0,r3
 430 002a 1837     	 adds r7,r7,#24
 431              	 .cfi_def_cfa_offset 8
 432 002c BD46     	 mov sp,r7
 433              	 .cfi_def_cfa_register 13
 434              	 
 435 002e 80BD     	 pop {r7,pc}
 436              	 .cfi_endproc
 437              	.LFE1042:
 438              	 .size _ZN12cpp_freertos5Queue4PeekEPvm,.-_ZN12cpp_freertos5Queue4PeekEPvm
 439              	 .section .text._ZN12cpp_freertos5Queue14EnqueueFromISREPvPl,"ax",%progbits
 440              	 .align 1
 441              	 .global _ZN12cpp_freertos5Queue14EnqueueFromISREPvPl
 442              	 .syntax unified
 443              	 .thumb
 444              	 .thumb_func
 445              	 .type _ZN12cpp_freertos5Queue14EnqueueFromISREPvPl,%function
 446              	_ZN12cpp_freertos5Queue14EnqueueFromISREPvPl:
 447              	.LFB1043:
  81:C:\Users\niels\Documents\Elektrotechniek\Jaar 3\dspl\software\STM32Basis\HAL\gemeenschappelijk\Third_Party\freertos-addons-1.1.0\c++\Source\cqueue.cpp **** 
  82:C:\Users\niels\Documents\Elektrotechniek\Jaar 3\dspl\software\STM32Basis\HAL\gemeenschappelijk\Third_Party\freertos-addons-1.1.0\c++\Source\cqueue.cpp **** 
  83:C:\Users\niels\Documents\Elektrotechniek\Jaar 3\dspl\software\STM32Basis\HAL\gemeenschappelijk\Third_Party\freertos-addons-1.1.0\c++\Source\cqueue.cpp **** bool Queue::EnqueueFromISR(void *item, BaseType_t *pxHigherPriorityTaskWoken)
  84:C:\Users\niels\Documents\Elektrotechniek\Jaar 3\dspl\software\STM32Basis\HAL\gemeenschappelijk\Third_Party\freertos-addons-1.1.0\c++\Source\cqueue.cpp **** {
 448              	 .loc 2 84 1
 449              	 .cfi_startproc
 450              	 
 451              	 
 452 0000 80B5     	 push {r7,lr}
 453              	 .cfi_def_cfa_offset 8
 454              	 .cfi_offset 7,-8
 455              	 .cfi_offset 14,-4
 456 0002 86B0     	 sub sp,sp,#24
 457              	 .cfi_def_cfa_offset 32
 458 0004 00AF     	 add r7,sp,#0
 459              	 .cfi_def_cfa_register 7
 460 0006 F860     	 str r0,[r7,#12]
ARM GAS   			page 15


 461 0008 B960     	 str r1,[r7,#8]
 462 000a 7A60     	 str r2,[r7,#4]
  85:C:\Users\niels\Documents\Elektrotechniek\Jaar 3\dspl\software\STM32Basis\HAL\gemeenschappelijk\Third_Party\freertos-addons-1.1.0\c++\Source\cqueue.cpp ****     BaseType_t success;
  86:C:\Users\niels\Documents\Elektrotechniek\Jaar 3\dspl\software\STM32Basis\HAL\gemeenschappelijk\Third_Party\freertos-addons-1.1.0\c++\Source\cqueue.cpp **** 
  87:C:\Users\niels\Documents\Elektrotechniek\Jaar 3\dspl\software\STM32Basis\HAL\gemeenschappelijk\Third_Party\freertos-addons-1.1.0\c++\Source\cqueue.cpp ****     success = xQueueSendToBackFromISR(handle, item, pxHigherPriorityTaskWoken);
 463              	 .loc 2 87 15
 464 000c FB68     	 ldr r3,[r7,#12]
 465 000e 5868     	 ldr r0,[r3,#4]
 466 0010 0023     	 movs r3,#0
 467 0012 7A68     	 ldr r2,[r7,#4]
 468 0014 B968     	 ldr r1,[r7,#8]
 469 0016 FFF7FEFF 	 bl xQueueGenericSendFromISR
 470 001a 7861     	 str r0,[r7,#20]
  88:C:\Users\niels\Documents\Elektrotechniek\Jaar 3\dspl\software\STM32Basis\HAL\gemeenschappelijk\Third_Party\freertos-addons-1.1.0\c++\Source\cqueue.cpp **** 
  89:C:\Users\niels\Documents\Elektrotechniek\Jaar 3\dspl\software\STM32Basis\HAL\gemeenschappelijk\Third_Party\freertos-addons-1.1.0\c++\Source\cqueue.cpp ****     return success == pdTRUE ? true : false;
 471              	 .loc 2 89 39
 472 001c 7B69     	 ldr r3,[r7,#20]
 473 001e 012B     	 cmp r3,#1
 474 0020 0CBF     	 ite eq
 475 0022 0123     	 moveq r3,#1
 476 0024 0023     	 movne r3,#0
 477 0026 DBB2     	 uxtb r3,r3
  90:C:\Users\niels\Documents\Elektrotechniek\Jaar 3\dspl\software\STM32Basis\HAL\gemeenschappelijk\Third_Party\freertos-addons-1.1.0\c++\Source\cqueue.cpp **** }
 478              	 .loc 2 90 1
 479 0028 1846     	 mov r0,r3
 480 002a 1837     	 adds r7,r7,#24
 481              	 .cfi_def_cfa_offset 8
 482 002c BD46     	 mov sp,r7
 483              	 .cfi_def_cfa_register 13
 484              	 
 485 002e 80BD     	 pop {r7,pc}
 486              	 .cfi_endproc
 487              	.LFE1043:
 488              	 .size _ZN12cpp_freertos5Queue14EnqueueFromISREPvPl,.-_ZN12cpp_freertos5Queue14EnqueueFromISREPvPl
 489              	 .section .text._ZN12cpp_freertos5Queue14DequeueFromISREPvPl,"ax",%progbits
 490              	 .align 1
 491              	 .global _ZN12cpp_freertos5Queue14DequeueFromISREPvPl
 492              	 .syntax unified
 493              	 .thumb
 494              	 .thumb_func
 495              	 .type _ZN12cpp_freertos5Queue14DequeueFromISREPvPl,%function
 496              	_ZN12cpp_freertos5Queue14DequeueFromISREPvPl:
 497              	.LFB1044:
  91:C:\Users\niels\Documents\Elektrotechniek\Jaar 3\dspl\software\STM32Basis\HAL\gemeenschappelijk\Third_Party\freertos-addons-1.1.0\c++\Source\cqueue.cpp **** 
  92:C:\Users\niels\Documents\Elektrotechniek\Jaar 3\dspl\software\STM32Basis\HAL\gemeenschappelijk\Third_Party\freertos-addons-1.1.0\c++\Source\cqueue.cpp **** 
  93:C:\Users\niels\Documents\Elektrotechniek\Jaar 3\dspl\software\STM32Basis\HAL\gemeenschappelijk\Third_Party\freertos-addons-1.1.0\c++\Source\cqueue.cpp **** bool Queue::DequeueFromISR(void *item, BaseType_t *pxHigherPriorityTaskWoken)
  94:C:\Users\niels\Documents\Elektrotechniek\Jaar 3\dspl\software\STM32Basis\HAL\gemeenschappelijk\Third_Party\freertos-addons-1.1.0\c++\Source\cqueue.cpp **** {
 498              	 .loc 2 94 1
 499              	 .cfi_startproc
 500              	 
 501              	 
 502 0000 80B5     	 push {r7,lr}
 503              	 .cfi_def_cfa_offset 8
 504              	 .cfi_offset 7,-8
 505              	 .cfi_offset 14,-4
 506 0002 86B0     	 sub sp,sp,#24
 507              	 .cfi_def_cfa_offset 32
ARM GAS   			page 16


 508 0004 00AF     	 add r7,sp,#0
 509              	 .cfi_def_cfa_register 7
 510 0006 F860     	 str r0,[r7,#12]
 511 0008 B960     	 str r1,[r7,#8]
 512 000a 7A60     	 str r2,[r7,#4]
  95:C:\Users\niels\Documents\Elektrotechniek\Jaar 3\dspl\software\STM32Basis\HAL\gemeenschappelijk\Third_Party\freertos-addons-1.1.0\c++\Source\cqueue.cpp ****     BaseType_t success;
  96:C:\Users\niels\Documents\Elektrotechniek\Jaar 3\dspl\software\STM32Basis\HAL\gemeenschappelijk\Third_Party\freertos-addons-1.1.0\c++\Source\cqueue.cpp **** 
  97:C:\Users\niels\Documents\Elektrotechniek\Jaar 3\dspl\software\STM32Basis\HAL\gemeenschappelijk\Third_Party\freertos-addons-1.1.0\c++\Source\cqueue.cpp ****     success = xQueueReceiveFromISR(handle, item, pxHigherPriorityTaskWoken);
 513              	 .loc 2 97 35
 514 000c FB68     	 ldr r3,[r7,#12]
 515 000e 5B68     	 ldr r3,[r3,#4]
 516 0010 7A68     	 ldr r2,[r7,#4]
 517 0012 B968     	 ldr r1,[r7,#8]
 518 0014 1846     	 mov r0,r3
 519 0016 FFF7FEFF 	 bl xQueueReceiveFromISR
 520 001a 7861     	 str r0,[r7,#20]
  98:C:\Users\niels\Documents\Elektrotechniek\Jaar 3\dspl\software\STM32Basis\HAL\gemeenschappelijk\Third_Party\freertos-addons-1.1.0\c++\Source\cqueue.cpp **** 
  99:C:\Users\niels\Documents\Elektrotechniek\Jaar 3\dspl\software\STM32Basis\HAL\gemeenschappelijk\Third_Party\freertos-addons-1.1.0\c++\Source\cqueue.cpp ****     return success == pdTRUE ? true : false;
 521              	 .loc 2 99 39
 522 001c 7B69     	 ldr r3,[r7,#20]
 523 001e 012B     	 cmp r3,#1
 524 0020 0CBF     	 ite eq
 525 0022 0123     	 moveq r3,#1
 526 0024 0023     	 movne r3,#0
 527 0026 DBB2     	 uxtb r3,r3
 100:C:\Users\niels\Documents\Elektrotechniek\Jaar 3\dspl\software\STM32Basis\HAL\gemeenschappelijk\Third_Party\freertos-addons-1.1.0\c++\Source\cqueue.cpp **** }
 528              	 .loc 2 100 1
 529 0028 1846     	 mov r0,r3
 530 002a 1837     	 adds r7,r7,#24
 531              	 .cfi_def_cfa_offset 8
 532 002c BD46     	 mov sp,r7
 533              	 .cfi_def_cfa_register 13
 534              	 
 535 002e 80BD     	 pop {r7,pc}
 536              	 .cfi_endproc
 537              	.LFE1044:
 538              	 .size _ZN12cpp_freertos5Queue14DequeueFromISREPvPl,.-_ZN12cpp_freertos5Queue14DequeueFromISREPvPl
 539              	 .section .text._ZN12cpp_freertos5Queue11PeekFromISREPv,"ax",%progbits
 540              	 .align 1
 541              	 .global _ZN12cpp_freertos5Queue11PeekFromISREPv
 542              	 .syntax unified
 543              	 .thumb
 544              	 .thumb_func
 545              	 .type _ZN12cpp_freertos5Queue11PeekFromISREPv,%function
 546              	_ZN12cpp_freertos5Queue11PeekFromISREPv:
 547              	.LFB1045:
 101:C:\Users\niels\Documents\Elektrotechniek\Jaar 3\dspl\software\STM32Basis\HAL\gemeenschappelijk\Third_Party\freertos-addons-1.1.0\c++\Source\cqueue.cpp **** 
 102:C:\Users\niels\Documents\Elektrotechniek\Jaar 3\dspl\software\STM32Basis\HAL\gemeenschappelijk\Third_Party\freertos-addons-1.1.0\c++\Source\cqueue.cpp **** 
 103:C:\Users\niels\Documents\Elektrotechniek\Jaar 3\dspl\software\STM32Basis\HAL\gemeenschappelijk\Third_Party\freertos-addons-1.1.0\c++\Source\cqueue.cpp **** bool Queue::PeekFromISR(void *item)
 104:C:\Users\niels\Documents\Elektrotechniek\Jaar 3\dspl\software\STM32Basis\HAL\gemeenschappelijk\Third_Party\freertos-addons-1.1.0\c++\Source\cqueue.cpp **** {
 548              	 .loc 2 104 1
 549              	 .cfi_startproc
 550              	 
 551              	 
 552 0000 80B5     	 push {r7,lr}
 553              	 .cfi_def_cfa_offset 8
 554              	 .cfi_offset 7,-8
ARM GAS   			page 17


 555              	 .cfi_offset 14,-4
 556 0002 84B0     	 sub sp,sp,#16
 557              	 .cfi_def_cfa_offset 24
 558 0004 00AF     	 add r7,sp,#0
 559              	 .cfi_def_cfa_register 7
 560 0006 7860     	 str r0,[r7,#4]
 561 0008 3960     	 str r1,[r7]
 105:C:\Users\niels\Documents\Elektrotechniek\Jaar 3\dspl\software\STM32Basis\HAL\gemeenschappelijk\Third_Party\freertos-addons-1.1.0\c++\Source\cqueue.cpp ****     BaseType_t success;
 106:C:\Users\niels\Documents\Elektrotechniek\Jaar 3\dspl\software\STM32Basis\HAL\gemeenschappelijk\Third_Party\freertos-addons-1.1.0\c++\Source\cqueue.cpp **** 
 107:C:\Users\niels\Documents\Elektrotechniek\Jaar 3\dspl\software\STM32Basis\HAL\gemeenschappelijk\Third_Party\freertos-addons-1.1.0\c++\Source\cqueue.cpp ****     success = xQueuePeekFromISR(handle, item);
 562              	 .loc 2 107 32
 563 000a 7B68     	 ldr r3,[r7,#4]
 564 000c 5B68     	 ldr r3,[r3,#4]
 565 000e 3968     	 ldr r1,[r7]
 566 0010 1846     	 mov r0,r3
 567 0012 FFF7FEFF 	 bl xQueuePeekFromISR
 568 0016 F860     	 str r0,[r7,#12]
 108:C:\Users\niels\Documents\Elektrotechniek\Jaar 3\dspl\software\STM32Basis\HAL\gemeenschappelijk\Third_Party\freertos-addons-1.1.0\c++\Source\cqueue.cpp **** 
 109:C:\Users\niels\Documents\Elektrotechniek\Jaar 3\dspl\software\STM32Basis\HAL\gemeenschappelijk\Third_Party\freertos-addons-1.1.0\c++\Source\cqueue.cpp ****     return success == pdTRUE ? true : false;
 569              	 .loc 2 109 39
 570 0018 FB68     	 ldr r3,[r7,#12]
 571 001a 012B     	 cmp r3,#1
 572 001c 0CBF     	 ite eq
 573 001e 0123     	 moveq r3,#1
 574 0020 0023     	 movne r3,#0
 575 0022 DBB2     	 uxtb r3,r3
 110:C:\Users\niels\Documents\Elektrotechniek\Jaar 3\dspl\software\STM32Basis\HAL\gemeenschappelijk\Third_Party\freertos-addons-1.1.0\c++\Source\cqueue.cpp **** }
 576              	 .loc 2 110 1
 577 0024 1846     	 mov r0,r3
 578 0026 1037     	 adds r7,r7,#16
 579              	 .cfi_def_cfa_offset 8
 580 0028 BD46     	 mov sp,r7
 581              	 .cfi_def_cfa_register 13
 582              	 
 583 002a 80BD     	 pop {r7,pc}
 584              	 .cfi_endproc
 585              	.LFE1045:
 586              	 .size _ZN12cpp_freertos5Queue11PeekFromISREPv,.-_ZN12cpp_freertos5Queue11PeekFromISREPv
 587              	 .section .text._ZN12cpp_freertos5Queue7IsEmptyEv,"ax",%progbits
 588              	 .align 1
 589              	 .global _ZN12cpp_freertos5Queue7IsEmptyEv
 590              	 .syntax unified
 591              	 .thumb
 592              	 .thumb_func
 593              	 .type _ZN12cpp_freertos5Queue7IsEmptyEv,%function
 594              	_ZN12cpp_freertos5Queue7IsEmptyEv:
 595              	.LFB1046:
 111:C:\Users\niels\Documents\Elektrotechniek\Jaar 3\dspl\software\STM32Basis\HAL\gemeenschappelijk\Third_Party\freertos-addons-1.1.0\c++\Source\cqueue.cpp **** 
 112:C:\Users\niels\Documents\Elektrotechniek\Jaar 3\dspl\software\STM32Basis\HAL\gemeenschappelijk\Third_Party\freertos-addons-1.1.0\c++\Source\cqueue.cpp **** 
 113:C:\Users\niels\Documents\Elektrotechniek\Jaar 3\dspl\software\STM32Basis\HAL\gemeenschappelijk\Third_Party\freertos-addons-1.1.0\c++\Source\cqueue.cpp **** bool Queue::IsEmpty()
 114:C:\Users\niels\Documents\Elektrotechniek\Jaar 3\dspl\software\STM32Basis\HAL\gemeenschappelijk\Third_Party\freertos-addons-1.1.0\c++\Source\cqueue.cpp **** {
 596              	 .loc 2 114 1
 597              	 .cfi_startproc
 598              	 
 599              	 
 600 0000 80B5     	 push {r7,lr}
 601              	 .cfi_def_cfa_offset 8
ARM GAS   			page 18


 602              	 .cfi_offset 7,-8
 603              	 .cfi_offset 14,-4
 604 0002 84B0     	 sub sp,sp,#16
 605              	 .cfi_def_cfa_offset 24
 606 0004 00AF     	 add r7,sp,#0
 607              	 .cfi_def_cfa_register 7
 608 0006 7860     	 str r0,[r7,#4]
 115:C:\Users\niels\Documents\Elektrotechniek\Jaar 3\dspl\software\STM32Basis\HAL\gemeenschappelijk\Third_Party\freertos-addons-1.1.0\c++\Source\cqueue.cpp ****     UBaseType_t cnt = uxQueueMessagesWaiting(handle);
 609              	 .loc 2 115 45
 610 0008 7B68     	 ldr r3,[r7,#4]
 611 000a 5B68     	 ldr r3,[r3,#4]
 612 000c 1846     	 mov r0,r3
 613 000e FFF7FEFF 	 bl uxQueueMessagesWaiting
 614 0012 F860     	 str r0,[r7,#12]
 116:C:\Users\niels\Documents\Elektrotechniek\Jaar 3\dspl\software\STM32Basis\HAL\gemeenschappelijk\Third_Party\freertos-addons-1.1.0\c++\Source\cqueue.cpp **** 
 117:C:\Users\niels\Documents\Elektrotechniek\Jaar 3\dspl\software\STM32Basis\HAL\gemeenschappelijk\Third_Party\freertos-addons-1.1.0\c++\Source\cqueue.cpp ****     return cnt == 0 ? true : false;
 615              	 .loc 2 117 30
 616 0014 FB68     	 ldr r3,[r7,#12]
 617 0016 002B     	 cmp r3,#0
 618 0018 0CBF     	 ite eq
 619 001a 0123     	 moveq r3,#1
 620 001c 0023     	 movne r3,#0
 621 001e DBB2     	 uxtb r3,r3
 118:C:\Users\niels\Documents\Elektrotechniek\Jaar 3\dspl\software\STM32Basis\HAL\gemeenschappelijk\Third_Party\freertos-addons-1.1.0\c++\Source\cqueue.cpp **** }
 622              	 .loc 2 118 1
 623 0020 1846     	 mov r0,r3
 624 0022 1037     	 adds r7,r7,#16
 625              	 .cfi_def_cfa_offset 8
 626 0024 BD46     	 mov sp,r7
 627              	 .cfi_def_cfa_register 13
 628              	 
 629 0026 80BD     	 pop {r7,pc}
 630              	 .cfi_endproc
 631              	.LFE1046:
 632              	 .size _ZN12cpp_freertos5Queue7IsEmptyEv,.-_ZN12cpp_freertos5Queue7IsEmptyEv
 633              	 .section .text._ZN12cpp_freertos5Queue6IsFullEv,"ax",%progbits
 634              	 .align 1
 635              	 .global _ZN12cpp_freertos5Queue6IsFullEv
 636              	 .syntax unified
 637              	 .thumb
 638              	 .thumb_func
 639              	 .type _ZN12cpp_freertos5Queue6IsFullEv,%function
 640              	_ZN12cpp_freertos5Queue6IsFullEv:
 641              	.LFB1047:
 119:C:\Users\niels\Documents\Elektrotechniek\Jaar 3\dspl\software\STM32Basis\HAL\gemeenschappelijk\Third_Party\freertos-addons-1.1.0\c++\Source\cqueue.cpp **** 
 120:C:\Users\niels\Documents\Elektrotechniek\Jaar 3\dspl\software\STM32Basis\HAL\gemeenschappelijk\Third_Party\freertos-addons-1.1.0\c++\Source\cqueue.cpp **** 
 121:C:\Users\niels\Documents\Elektrotechniek\Jaar 3\dspl\software\STM32Basis\HAL\gemeenschappelijk\Third_Party\freertos-addons-1.1.0\c++\Source\cqueue.cpp **** bool Queue::IsFull()
 122:C:\Users\niels\Documents\Elektrotechniek\Jaar 3\dspl\software\STM32Basis\HAL\gemeenschappelijk\Third_Party\freertos-addons-1.1.0\c++\Source\cqueue.cpp **** {
 642              	 .loc 2 122 1
 643              	 .cfi_startproc
 644              	 
 645              	 
 646 0000 80B5     	 push {r7,lr}
 647              	 .cfi_def_cfa_offset 8
 648              	 .cfi_offset 7,-8
 649              	 .cfi_offset 14,-4
 650 0002 84B0     	 sub sp,sp,#16
ARM GAS   			page 19


 651              	 .cfi_def_cfa_offset 24
 652 0004 00AF     	 add r7,sp,#0
 653              	 .cfi_def_cfa_register 7
 654 0006 7860     	 str r0,[r7,#4]
 123:C:\Users\niels\Documents\Elektrotechniek\Jaar 3\dspl\software\STM32Basis\HAL\gemeenschappelijk\Third_Party\freertos-addons-1.1.0\c++\Source\cqueue.cpp ****     UBaseType_t cnt = uxQueueSpacesAvailable(handle);
 655              	 .loc 2 123 45
 656 0008 7B68     	 ldr r3,[r7,#4]
 657 000a 5B68     	 ldr r3,[r3,#4]
 658 000c 1846     	 mov r0,r3
 659 000e FFF7FEFF 	 bl uxQueueSpacesAvailable
 660 0012 F860     	 str r0,[r7,#12]
 124:C:\Users\niels\Documents\Elektrotechniek\Jaar 3\dspl\software\STM32Basis\HAL\gemeenschappelijk\Third_Party\freertos-addons-1.1.0\c++\Source\cqueue.cpp **** 
 125:C:\Users\niels\Documents\Elektrotechniek\Jaar 3\dspl\software\STM32Basis\HAL\gemeenschappelijk\Third_Party\freertos-addons-1.1.0\c++\Source\cqueue.cpp ****     return cnt == 0 ? true : false;
 661              	 .loc 2 125 30
 662 0014 FB68     	 ldr r3,[r7,#12]
 663 0016 002B     	 cmp r3,#0
 664 0018 0CBF     	 ite eq
 665 001a 0123     	 moveq r3,#1
 666 001c 0023     	 movne r3,#0
 667 001e DBB2     	 uxtb r3,r3
 126:C:\Users\niels\Documents\Elektrotechniek\Jaar 3\dspl\software\STM32Basis\HAL\gemeenschappelijk\Third_Party\freertos-addons-1.1.0\c++\Source\cqueue.cpp **** }
 668              	 .loc 2 126 1
 669 0020 1846     	 mov r0,r3
 670 0022 1037     	 adds r7,r7,#16
 671              	 .cfi_def_cfa_offset 8
 672 0024 BD46     	 mov sp,r7
 673              	 .cfi_def_cfa_register 13
 674              	 
 675 0026 80BD     	 pop {r7,pc}
 676              	 .cfi_endproc
 677              	.LFE1047:
 678              	 .size _ZN12cpp_freertos5Queue6IsFullEv,.-_ZN12cpp_freertos5Queue6IsFullEv
 679              	 .section .text._ZN12cpp_freertos5Queue5FlushEv,"ax",%progbits
 680              	 .align 1
 681              	 .global _ZN12cpp_freertos5Queue5FlushEv
 682              	 .syntax unified
 683              	 .thumb
 684              	 .thumb_func
 685              	 .type _ZN12cpp_freertos5Queue5FlushEv,%function
 686              	_ZN12cpp_freertos5Queue5FlushEv:
 687              	.LFB1048:
 127:C:\Users\niels\Documents\Elektrotechniek\Jaar 3\dspl\software\STM32Basis\HAL\gemeenschappelijk\Third_Party\freertos-addons-1.1.0\c++\Source\cqueue.cpp **** 
 128:C:\Users\niels\Documents\Elektrotechniek\Jaar 3\dspl\software\STM32Basis\HAL\gemeenschappelijk\Third_Party\freertos-addons-1.1.0\c++\Source\cqueue.cpp **** 
 129:C:\Users\niels\Documents\Elektrotechniek\Jaar 3\dspl\software\STM32Basis\HAL\gemeenschappelijk\Third_Party\freertos-addons-1.1.0\c++\Source\cqueue.cpp **** void Queue::Flush()
 130:C:\Users\niels\Documents\Elektrotechniek\Jaar 3\dspl\software\STM32Basis\HAL\gemeenschappelijk\Third_Party\freertos-addons-1.1.0\c++\Source\cqueue.cpp **** {
 688              	 .loc 2 130 1
 689              	 .cfi_startproc
 690              	 
 691              	 
 692 0000 80B5     	 push {r7,lr}
 693              	 .cfi_def_cfa_offset 8
 694              	 .cfi_offset 7,-8
 695              	 .cfi_offset 14,-4
 696 0002 82B0     	 sub sp,sp,#8
 697              	 .cfi_def_cfa_offset 16
 698 0004 00AF     	 add r7,sp,#0
 699              	 .cfi_def_cfa_register 7
ARM GAS   			page 20


 700 0006 7860     	 str r0,[r7,#4]
 131:C:\Users\niels\Documents\Elektrotechniek\Jaar 3\dspl\software\STM32Basis\HAL\gemeenschappelijk\Third_Party\freertos-addons-1.1.0\c++\Source\cqueue.cpp ****     xQueueReset(handle);
 701              	 .loc 2 131 5
 702 0008 7B68     	 ldr r3,[r7,#4]
 703 000a 5B68     	 ldr r3,[r3,#4]
 704 000c 0021     	 movs r1,#0
 705 000e 1846     	 mov r0,r3
 706 0010 FFF7FEFF 	 bl xQueueGenericReset
 132:C:\Users\niels\Documents\Elektrotechniek\Jaar 3\dspl\software\STM32Basis\HAL\gemeenschappelijk\Third_Party\freertos-addons-1.1.0\c++\Source\cqueue.cpp **** }
 707              	 .loc 2 132 1
 708 0014 00BF     	 nop
 709 0016 0837     	 adds r7,r7,#8
 710              	 .cfi_def_cfa_offset 8
 711 0018 BD46     	 mov sp,r7
 712              	 .cfi_def_cfa_register 13
 713              	 
 714 001a 80BD     	 pop {r7,pc}
 715              	 .cfi_endproc
 716              	.LFE1048:
 717              	 .size _ZN12cpp_freertos5Queue5FlushEv,.-_ZN12cpp_freertos5Queue5FlushEv
 718              	 .section .text._ZN12cpp_freertos5Queue8NumItemsEv,"ax",%progbits
 719              	 .align 1
 720              	 .global _ZN12cpp_freertos5Queue8NumItemsEv
 721              	 .syntax unified
 722              	 .thumb
 723              	 .thumb_func
 724              	 .type _ZN12cpp_freertos5Queue8NumItemsEv,%function
 725              	_ZN12cpp_freertos5Queue8NumItemsEv:
 726              	.LFB1049:
 133:C:\Users\niels\Documents\Elektrotechniek\Jaar 3\dspl\software\STM32Basis\HAL\gemeenschappelijk\Third_Party\freertos-addons-1.1.0\c++\Source\cqueue.cpp **** 
 134:C:\Users\niels\Documents\Elektrotechniek\Jaar 3\dspl\software\STM32Basis\HAL\gemeenschappelijk\Third_Party\freertos-addons-1.1.0\c++\Source\cqueue.cpp **** 
 135:C:\Users\niels\Documents\Elektrotechniek\Jaar 3\dspl\software\STM32Basis\HAL\gemeenschappelijk\Third_Party\freertos-addons-1.1.0\c++\Source\cqueue.cpp **** UBaseType_t Queue::NumItems()
 136:C:\Users\niels\Documents\Elektrotechniek\Jaar 3\dspl\software\STM32Basis\HAL\gemeenschappelijk\Third_Party\freertos-addons-1.1.0\c++\Source\cqueue.cpp **** {
 727              	 .loc 2 136 1
 728              	 .cfi_startproc
 729              	 
 730              	 
 731 0000 80B5     	 push {r7,lr}
 732              	 .cfi_def_cfa_offset 8
 733              	 .cfi_offset 7,-8
 734              	 .cfi_offset 14,-4
 735 0002 82B0     	 sub sp,sp,#8
 736              	 .cfi_def_cfa_offset 16
 737 0004 00AF     	 add r7,sp,#0
 738              	 .cfi_def_cfa_register 7
 739 0006 7860     	 str r0,[r7,#4]
 137:C:\Users\niels\Documents\Elektrotechniek\Jaar 3\dspl\software\STM32Basis\HAL\gemeenschappelijk\Third_Party\freertos-addons-1.1.0\c++\Source\cqueue.cpp ****     return uxQueueMessagesWaiting(handle);
 740              	 .loc 2 137 34
 741 0008 7B68     	 ldr r3,[r7,#4]
 742 000a 5B68     	 ldr r3,[r3,#4]
 743 000c 1846     	 mov r0,r3
 744 000e FFF7FEFF 	 bl uxQueueMessagesWaiting
 745 0012 0346     	 mov r3,r0
 138:C:\Users\niels\Documents\Elektrotechniek\Jaar 3\dspl\software\STM32Basis\HAL\gemeenschappelijk\Third_Party\freertos-addons-1.1.0\c++\Source\cqueue.cpp **** }
 746              	 .loc 2 138 1
 747 0014 1846     	 mov r0,r3
 748 0016 0837     	 adds r7,r7,#8
ARM GAS   			page 21


 749              	 .cfi_def_cfa_offset 8
 750 0018 BD46     	 mov sp,r7
 751              	 .cfi_def_cfa_register 13
 752              	 
 753 001a 80BD     	 pop {r7,pc}
 754              	 .cfi_endproc
 755              	.LFE1049:
 756              	 .size _ZN12cpp_freertos5Queue8NumItemsEv,.-_ZN12cpp_freertos5Queue8NumItemsEv
 757              	 .section .text._ZN12cpp_freertos5Queue13NumSpacesLeftEv,"ax",%progbits
 758              	 .align 1
 759              	 .global _ZN12cpp_freertos5Queue13NumSpacesLeftEv
 760              	 .syntax unified
 761              	 .thumb
 762              	 .thumb_func
 763              	 .type _ZN12cpp_freertos5Queue13NumSpacesLeftEv,%function
 764              	_ZN12cpp_freertos5Queue13NumSpacesLeftEv:
 765              	.LFB1050:
 139:C:\Users\niels\Documents\Elektrotechniek\Jaar 3\dspl\software\STM32Basis\HAL\gemeenschappelijk\Third_Party\freertos-addons-1.1.0\c++\Source\cqueue.cpp **** 
 140:C:\Users\niels\Documents\Elektrotechniek\Jaar 3\dspl\software\STM32Basis\HAL\gemeenschappelijk\Third_Party\freertos-addons-1.1.0\c++\Source\cqueue.cpp **** 
 141:C:\Users\niels\Documents\Elektrotechniek\Jaar 3\dspl\software\STM32Basis\HAL\gemeenschappelijk\Third_Party\freertos-addons-1.1.0\c++\Source\cqueue.cpp **** UBaseType_t Queue::NumSpacesLeft()
 142:C:\Users\niels\Documents\Elektrotechniek\Jaar 3\dspl\software\STM32Basis\HAL\gemeenschappelijk\Third_Party\freertos-addons-1.1.0\c++\Source\cqueue.cpp **** {
 766              	 .loc 2 142 1
 767              	 .cfi_startproc
 768              	 
 769              	 
 770 0000 80B5     	 push {r7,lr}
 771              	 .cfi_def_cfa_offset 8
 772              	 .cfi_offset 7,-8
 773              	 .cfi_offset 14,-4
 774 0002 82B0     	 sub sp,sp,#8
 775              	 .cfi_def_cfa_offset 16
 776 0004 00AF     	 add r7,sp,#0
 777              	 .cfi_def_cfa_register 7
 778 0006 7860     	 str r0,[r7,#4]
 143:C:\Users\niels\Documents\Elektrotechniek\Jaar 3\dspl\software\STM32Basis\HAL\gemeenschappelijk\Third_Party\freertos-addons-1.1.0\c++\Source\cqueue.cpp ****     return uxQueueSpacesAvailable(handle);
 779              	 .loc 2 143 34
 780 0008 7B68     	 ldr r3,[r7,#4]
 781 000a 5B68     	 ldr r3,[r3,#4]
 782 000c 1846     	 mov r0,r3
 783 000e FFF7FEFF 	 bl uxQueueSpacesAvailable
 784 0012 0346     	 mov r3,r0
 144:C:\Users\niels\Documents\Elektrotechniek\Jaar 3\dspl\software\STM32Basis\HAL\gemeenschappelijk\Third_Party\freertos-addons-1.1.0\c++\Source\cqueue.cpp **** }
 785              	 .loc 2 144 1
 786 0014 1846     	 mov r0,r3
 787 0016 0837     	 adds r7,r7,#8
 788              	 .cfi_def_cfa_offset 8
 789 0018 BD46     	 mov sp,r7
 790              	 .cfi_def_cfa_register 13
 791              	 
 792 001a 80BD     	 pop {r7,pc}
 793              	 .cfi_endproc
 794              	.LFE1050:
 795              	 .size _ZN12cpp_freertos5Queue13NumSpacesLeftEv,.-_ZN12cpp_freertos5Queue13NumSpacesLeftEv
 796              	 .section .text._ZN12cpp_freertos5DequeC2Emm,"ax",%progbits
 797              	 .align 1
 798              	 .global _ZN12cpp_freertos5DequeC2Emm
 799              	 .syntax unified
ARM GAS   			page 22


 800              	 .thumb
 801              	 .thumb_func
 802              	 .type _ZN12cpp_freertos5DequeC2Emm,%function
 803              	_ZN12cpp_freertos5DequeC2Emm:
 804              	.LFB1052:
 145:C:\Users\niels\Documents\Elektrotechniek\Jaar 3\dspl\software\STM32Basis\HAL\gemeenschappelijk\Third_Party\freertos-addons-1.1.0\c++\Source\cqueue.cpp **** 
 146:C:\Users\niels\Documents\Elektrotechniek\Jaar 3\dspl\software\STM32Basis\HAL\gemeenschappelijk\Third_Party\freertos-addons-1.1.0\c++\Source\cqueue.cpp **** 
 147:C:\Users\niels\Documents\Elektrotechniek\Jaar 3\dspl\software\STM32Basis\HAL\gemeenschappelijk\Third_Party\freertos-addons-1.1.0\c++\Source\cqueue.cpp **** Deque::Deque(UBaseType_t maxItems, UBaseType_t itemSize)
 805              	 .loc 2 147 1
 806              	 .cfi_startproc
 807              	 
 808              	 
 809 0000 80B5     	 push {r7,lr}
 810              	 .cfi_def_cfa_offset 8
 811              	 .cfi_offset 7,-8
 812              	 .cfi_offset 14,-4
 813 0002 84B0     	 sub sp,sp,#16
 814              	 .cfi_def_cfa_offset 24
 815 0004 00AF     	 add r7,sp,#0
 816              	 .cfi_def_cfa_register 7
 817 0006 F860     	 str r0,[r7,#12]
 818 0008 B960     	 str r1,[r7,#8]
 819 000a 7A60     	 str r2,[r7,#4]
 820              	.LBB4:
 148:C:\Users\niels\Documents\Elektrotechniek\Jaar 3\dspl\software\STM32Basis\HAL\gemeenschappelijk\Third_Party\freertos-addons-1.1.0\c++\Source\cqueue.cpp ****     : Queue(maxItems, itemSize)
 821              	 .loc 2 148 31
 822 000c FB68     	 ldr r3,[r7,#12]
 823 000e 7A68     	 ldr r2,[r7,#4]
 824 0010 B968     	 ldr r1,[r7,#8]
 825 0012 1846     	 mov r0,r3
 826 0014 FFF7FEFF 	 bl _ZN12cpp_freertos5QueueC2Emm
 827 0018 034A     	 ldr r2,.L39
 828 001a FB68     	 ldr r3,[r7,#12]
 829 001c 1A60     	 str r2,[r3]
 830              	.LBE4:
 149:C:\Users\niels\Documents\Elektrotechniek\Jaar 3\dspl\software\STM32Basis\HAL\gemeenschappelijk\Third_Party\freertos-addons-1.1.0\c++\Source\cqueue.cpp **** {
 150:C:\Users\niels\Documents\Elektrotechniek\Jaar 3\dspl\software\STM32Basis\HAL\gemeenschappelijk\Third_Party\freertos-addons-1.1.0\c++\Source\cqueue.cpp **** }
 831              	 .loc 2 150 1
 832 001e FB68     	 ldr r3,[r7,#12]
 833 0020 1846     	 mov r0,r3
 834 0022 1037     	 adds r7,r7,#16
 835              	 .cfi_def_cfa_offset 8
 836 0024 BD46     	 mov sp,r7
 837              	 .cfi_def_cfa_register 13
 838              	 
 839 0026 80BD     	 pop {r7,pc}
 840              	.L40:
 841              	 .align 2
 842              	.L39:
 843 0028 08000000 	 .word _ZTVN12cpp_freertos5DequeE+8
 844              	 .cfi_endproc
 845              	.LFE1052:
 846              	 .size _ZN12cpp_freertos5DequeC2Emm,.-_ZN12cpp_freertos5DequeC2Emm
 847              	 .global _ZN12cpp_freertos5DequeC1Emm
 848              	 .thumb_set _ZN12cpp_freertos5DequeC1Emm,_ZN12cpp_freertos5DequeC2Emm
 849              	 .section .text._ZN12cpp_freertos5Deque14EnqueueToFrontEPvm,"ax",%progbits
 850              	 .align 1
ARM GAS   			page 23


 851              	 .global _ZN12cpp_freertos5Deque14EnqueueToFrontEPvm
 852              	 .syntax unified
 853              	 .thumb
 854              	 .thumb_func
 855              	 .type _ZN12cpp_freertos5Deque14EnqueueToFrontEPvm,%function
 856              	_ZN12cpp_freertos5Deque14EnqueueToFrontEPvm:
 857              	.LFB1054:
 151:C:\Users\niels\Documents\Elektrotechniek\Jaar 3\dspl\software\STM32Basis\HAL\gemeenschappelijk\Third_Party\freertos-addons-1.1.0\c++\Source\cqueue.cpp **** 
 152:C:\Users\niels\Documents\Elektrotechniek\Jaar 3\dspl\software\STM32Basis\HAL\gemeenschappelijk\Third_Party\freertos-addons-1.1.0\c++\Source\cqueue.cpp **** 
 153:C:\Users\niels\Documents\Elektrotechniek\Jaar 3\dspl\software\STM32Basis\HAL\gemeenschappelijk\Third_Party\freertos-addons-1.1.0\c++\Source\cqueue.cpp **** bool Deque::EnqueueToFront(void *item, TickType_t Timeout)
 154:C:\Users\niels\Documents\Elektrotechniek\Jaar 3\dspl\software\STM32Basis\HAL\gemeenschappelijk\Third_Party\freertos-addons-1.1.0\c++\Source\cqueue.cpp **** {
 858              	 .loc 2 154 1
 859              	 .cfi_startproc
 860              	 
 861              	 
 862 0000 80B5     	 push {r7,lr}
 863              	 .cfi_def_cfa_offset 8
 864              	 .cfi_offset 7,-8
 865              	 .cfi_offset 14,-4
 866 0002 86B0     	 sub sp,sp,#24
 867              	 .cfi_def_cfa_offset 32
 868 0004 00AF     	 add r7,sp,#0
 869              	 .cfi_def_cfa_register 7
 870 0006 F860     	 str r0,[r7,#12]
 871 0008 B960     	 str r1,[r7,#8]
 872 000a 7A60     	 str r2,[r7,#4]
 155:C:\Users\niels\Documents\Elektrotechniek\Jaar 3\dspl\software\STM32Basis\HAL\gemeenschappelijk\Third_Party\freertos-addons-1.1.0\c++\Source\cqueue.cpp ****     BaseType_t success;
 156:C:\Users\niels\Documents\Elektrotechniek\Jaar 3\dspl\software\STM32Basis\HAL\gemeenschappelijk\Third_Party\freertos-addons-1.1.0\c++\Source\cqueue.cpp **** 
 157:C:\Users\niels\Documents\Elektrotechniek\Jaar 3\dspl\software\STM32Basis\HAL\gemeenschappelijk\Third_Party\freertos-addons-1.1.0\c++\Source\cqueue.cpp ****     success = xQueueSendToFront(handle, item, Timeout);
 873              	 .loc 2 157 15
 874 000c FB68     	 ldr r3,[r7,#12]
 875 000e 5868     	 ldr r0,[r3,#4]
 876 0010 0123     	 movs r3,#1
 877 0012 7A68     	 ldr r2,[r7,#4]
 878 0014 B968     	 ldr r1,[r7,#8]
 879 0016 FFF7FEFF 	 bl xQueueGenericSend
 880 001a 7861     	 str r0,[r7,#20]
 158:C:\Users\niels\Documents\Elektrotechniek\Jaar 3\dspl\software\STM32Basis\HAL\gemeenschappelijk\Third_Party\freertos-addons-1.1.0\c++\Source\cqueue.cpp **** 
 159:C:\Users\niels\Documents\Elektrotechniek\Jaar 3\dspl\software\STM32Basis\HAL\gemeenschappelijk\Third_Party\freertos-addons-1.1.0\c++\Source\cqueue.cpp ****     return success == pdTRUE ? true : false;
 881              	 .loc 2 159 39
 882 001c 7B69     	 ldr r3,[r7,#20]
 883 001e 012B     	 cmp r3,#1
 884 0020 0CBF     	 ite eq
 885 0022 0123     	 moveq r3,#1
 886 0024 0023     	 movne r3,#0
 887 0026 DBB2     	 uxtb r3,r3
 160:C:\Users\niels\Documents\Elektrotechniek\Jaar 3\dspl\software\STM32Basis\HAL\gemeenschappelijk\Third_Party\freertos-addons-1.1.0\c++\Source\cqueue.cpp **** }
 888              	 .loc 2 160 1
 889 0028 1846     	 mov r0,r3
 890 002a 1837     	 adds r7,r7,#24
 891              	 .cfi_def_cfa_offset 8
 892 002c BD46     	 mov sp,r7
 893              	 .cfi_def_cfa_register 13
 894              	 
 895 002e 80BD     	 pop {r7,pc}
 896              	 .cfi_endproc
 897              	.LFE1054:
ARM GAS   			page 24


 898              	 .size _ZN12cpp_freertos5Deque14EnqueueToFrontEPvm,.-_ZN12cpp_freertos5Deque14EnqueueToFrontEPvm
 899              	 .section .text._ZN12cpp_freertos5Deque21EnqueueToFrontFromISREPvPl,"ax",%progbits
 900              	 .align 1
 901              	 .global _ZN12cpp_freertos5Deque21EnqueueToFrontFromISREPvPl
 902              	 .syntax unified
 903              	 .thumb
 904              	 .thumb_func
 905              	 .type _ZN12cpp_freertos5Deque21EnqueueToFrontFromISREPvPl,%function
 906              	_ZN12cpp_freertos5Deque21EnqueueToFrontFromISREPvPl:
 907              	.LFB1055:
 161:C:\Users\niels\Documents\Elektrotechniek\Jaar 3\dspl\software\STM32Basis\HAL\gemeenschappelijk\Third_Party\freertos-addons-1.1.0\c++\Source\cqueue.cpp **** 
 162:C:\Users\niels\Documents\Elektrotechniek\Jaar 3\dspl\software\STM32Basis\HAL\gemeenschappelijk\Third_Party\freertos-addons-1.1.0\c++\Source\cqueue.cpp **** 
 163:C:\Users\niels\Documents\Elektrotechniek\Jaar 3\dspl\software\STM32Basis\HAL\gemeenschappelijk\Third_Party\freertos-addons-1.1.0\c++\Source\cqueue.cpp **** bool Deque::EnqueueToFrontFromISR(void *item, BaseType_t *pxHigherPriorityTaskWoken)
 164:C:\Users\niels\Documents\Elektrotechniek\Jaar 3\dspl\software\STM32Basis\HAL\gemeenschappelijk\Third_Party\freertos-addons-1.1.0\c++\Source\cqueue.cpp **** {
 908              	 .loc 2 164 1
 909              	 .cfi_startproc
 910              	 
 911              	 
 912 0000 80B5     	 push {r7,lr}
 913              	 .cfi_def_cfa_offset 8
 914              	 .cfi_offset 7,-8
 915              	 .cfi_offset 14,-4
 916 0002 86B0     	 sub sp,sp,#24
 917              	 .cfi_def_cfa_offset 32
 918 0004 00AF     	 add r7,sp,#0
 919              	 .cfi_def_cfa_register 7
 920 0006 F860     	 str r0,[r7,#12]
 921 0008 B960     	 str r1,[r7,#8]
 922 000a 7A60     	 str r2,[r7,#4]
 165:C:\Users\niels\Documents\Elektrotechniek\Jaar 3\dspl\software\STM32Basis\HAL\gemeenschappelijk\Third_Party\freertos-addons-1.1.0\c++\Source\cqueue.cpp ****     BaseType_t success;
 166:C:\Users\niels\Documents\Elektrotechniek\Jaar 3\dspl\software\STM32Basis\HAL\gemeenschappelijk\Third_Party\freertos-addons-1.1.0\c++\Source\cqueue.cpp **** 
 167:C:\Users\niels\Documents\Elektrotechniek\Jaar 3\dspl\software\STM32Basis\HAL\gemeenschappelijk\Third_Party\freertos-addons-1.1.0\c++\Source\cqueue.cpp ****     success = xQueueSendToFrontFromISR(handle, item, pxHigherPriorityTaskWoken);
 923              	 .loc 2 167 15
 924 000c FB68     	 ldr r3,[r7,#12]
 925 000e 5868     	 ldr r0,[r3,#4]
 926 0010 0123     	 movs r3,#1
 927 0012 7A68     	 ldr r2,[r7,#4]
 928 0014 B968     	 ldr r1,[r7,#8]
 929 0016 FFF7FEFF 	 bl xQueueGenericSendFromISR
 930 001a 7861     	 str r0,[r7,#20]
 168:C:\Users\niels\Documents\Elektrotechniek\Jaar 3\dspl\software\STM32Basis\HAL\gemeenschappelijk\Third_Party\freertos-addons-1.1.0\c++\Source\cqueue.cpp **** 
 169:C:\Users\niels\Documents\Elektrotechniek\Jaar 3\dspl\software\STM32Basis\HAL\gemeenschappelijk\Third_Party\freertos-addons-1.1.0\c++\Source\cqueue.cpp ****     return success == pdTRUE ? true : false;
 931              	 .loc 2 169 39
 932 001c 7B69     	 ldr r3,[r7,#20]
 933 001e 012B     	 cmp r3,#1
 934 0020 0CBF     	 ite eq
 935 0022 0123     	 moveq r3,#1
 936 0024 0023     	 movne r3,#0
 937 0026 DBB2     	 uxtb r3,r3
 170:C:\Users\niels\Documents\Elektrotechniek\Jaar 3\dspl\software\STM32Basis\HAL\gemeenschappelijk\Third_Party\freertos-addons-1.1.0\c++\Source\cqueue.cpp **** }
 938              	 .loc 2 170 1
 939 0028 1846     	 mov r0,r3
 940 002a 1837     	 adds r7,r7,#24
 941              	 .cfi_def_cfa_offset 8
 942 002c BD46     	 mov sp,r7
 943              	 .cfi_def_cfa_register 13
 944              	 
ARM GAS   			page 25


 945 002e 80BD     	 pop {r7,pc}
 946              	 .cfi_endproc
 947              	.LFE1055:
 948              	 .size _ZN12cpp_freertos5Deque21EnqueueToFrontFromISREPvPl,.-_ZN12cpp_freertos5Deque21EnqueueToFrontFromISREPvPl
 949              	 .section .text._ZN12cpp_freertos11BinaryQueueC2Em,"ax",%progbits
 950              	 .align 1
 951              	 .global _ZN12cpp_freertos11BinaryQueueC2Em
 952              	 .syntax unified
 953              	 .thumb
 954              	 .thumb_func
 955              	 .type _ZN12cpp_freertos11BinaryQueueC2Em,%function
 956              	_ZN12cpp_freertos11BinaryQueueC2Em:
 957              	.LFB1057:
 171:C:\Users\niels\Documents\Elektrotechniek\Jaar 3\dspl\software\STM32Basis\HAL\gemeenschappelijk\Third_Party\freertos-addons-1.1.0\c++\Source\cqueue.cpp **** 
 172:C:\Users\niels\Documents\Elektrotechniek\Jaar 3\dspl\software\STM32Basis\HAL\gemeenschappelijk\Third_Party\freertos-addons-1.1.0\c++\Source\cqueue.cpp **** 
 173:C:\Users\niels\Documents\Elektrotechniek\Jaar 3\dspl\software\STM32Basis\HAL\gemeenschappelijk\Third_Party\freertos-addons-1.1.0\c++\Source\cqueue.cpp **** BinaryQueue::BinaryQueue(UBaseType_t itemSize)
 958              	 .loc 2 173 1
 959              	 .cfi_startproc
 960              	 
 961              	 
 962 0000 80B5     	 push {r7,lr}
 963              	 .cfi_def_cfa_offset 8
 964              	 .cfi_offset 7,-8
 965              	 .cfi_offset 14,-4
 966 0002 82B0     	 sub sp,sp,#8
 967              	 .cfi_def_cfa_offset 16
 968 0004 00AF     	 add r7,sp,#0
 969              	 .cfi_def_cfa_register 7
 970 0006 7860     	 str r0,[r7,#4]
 971 0008 3960     	 str r1,[r7]
 972              	.LBB5:
 174:C:\Users\niels\Documents\Elektrotechniek\Jaar 3\dspl\software\STM32Basis\HAL\gemeenschappelijk\Third_Party\freertos-addons-1.1.0\c++\Source\cqueue.cpp ****     : Queue(1, itemSize)
 973              	 .loc 2 174 24
 974 000a 7B68     	 ldr r3,[r7,#4]
 975 000c 3A68     	 ldr r2,[r7]
 976 000e 0121     	 movs r1,#1
 977 0010 1846     	 mov r0,r3
 978 0012 FFF7FEFF 	 bl _ZN12cpp_freertos5QueueC2Emm
 979 0016 044A     	 ldr r2,.L47
 980 0018 7B68     	 ldr r3,[r7,#4]
 981 001a 1A60     	 str r2,[r3]
 982              	.LBE5:
 175:C:\Users\niels\Documents\Elektrotechniek\Jaar 3\dspl\software\STM32Basis\HAL\gemeenschappelijk\Third_Party\freertos-addons-1.1.0\c++\Source\cqueue.cpp **** {
 176:C:\Users\niels\Documents\Elektrotechniek\Jaar 3\dspl\software\STM32Basis\HAL\gemeenschappelijk\Third_Party\freertos-addons-1.1.0\c++\Source\cqueue.cpp **** }
 983              	 .loc 2 176 1
 984 001c 7B68     	 ldr r3,[r7,#4]
 985 001e 1846     	 mov r0,r3
 986 0020 0837     	 adds r7,r7,#8
 987              	 .cfi_def_cfa_offset 8
 988 0022 BD46     	 mov sp,r7
 989              	 .cfi_def_cfa_register 13
 990              	 
 991 0024 80BD     	 pop {r7,pc}
 992              	.L48:
 993 0026 00BF     	 .align 2
 994              	.L47:
 995 0028 08000000 	 .word _ZTVN12cpp_freertos11BinaryQueueE+8
ARM GAS   			page 26


 996              	 .cfi_endproc
 997              	.LFE1057:
 998              	 .size _ZN12cpp_freertos11BinaryQueueC2Em,.-_ZN12cpp_freertos11BinaryQueueC2Em
 999              	 .global _ZN12cpp_freertos11BinaryQueueC1Em
 1000              	 .thumb_set _ZN12cpp_freertos11BinaryQueueC1Em,_ZN12cpp_freertos11BinaryQueueC2Em
 1001              	 .section .text._ZN12cpp_freertos11BinaryQueue7EnqueueEPv,"ax",%progbits
 1002              	 .align 1
 1003              	 .global _ZN12cpp_freertos11BinaryQueue7EnqueueEPv
 1004              	 .syntax unified
 1005              	 .thumb
 1006              	 .thumb_func
 1007              	 .type _ZN12cpp_freertos11BinaryQueue7EnqueueEPv,%function
 1008              	_ZN12cpp_freertos11BinaryQueue7EnqueueEPv:
 1009              	.LFB1059:
 177:C:\Users\niels\Documents\Elektrotechniek\Jaar 3\dspl\software\STM32Basis\HAL\gemeenschappelijk\Third_Party\freertos-addons-1.1.0\c++\Source\cqueue.cpp **** 
 178:C:\Users\niels\Documents\Elektrotechniek\Jaar 3\dspl\software\STM32Basis\HAL\gemeenschappelijk\Third_Party\freertos-addons-1.1.0\c++\Source\cqueue.cpp **** 
 179:C:\Users\niels\Documents\Elektrotechniek\Jaar 3\dspl\software\STM32Basis\HAL\gemeenschappelijk\Third_Party\freertos-addons-1.1.0\c++\Source\cqueue.cpp **** bool BinaryQueue::Enqueue(void *item)
 180:C:\Users\niels\Documents\Elektrotechniek\Jaar 3\dspl\software\STM32Basis\HAL\gemeenschappelijk\Third_Party\freertos-addons-1.1.0\c++\Source\cqueue.cpp **** {
 1010              	 .loc 2 180 1
 1011              	 .cfi_startproc
 1012              	 
 1013              	 
 1014 0000 80B5     	 push {r7,lr}
 1015              	 .cfi_def_cfa_offset 8
 1016              	 .cfi_offset 7,-8
 1017              	 .cfi_offset 14,-4
 1018 0002 82B0     	 sub sp,sp,#8
 1019              	 .cfi_def_cfa_offset 16
 1020 0004 00AF     	 add r7,sp,#0
 1021              	 .cfi_def_cfa_register 7
 1022 0006 7860     	 str r0,[r7,#4]
 1023 0008 3960     	 str r1,[r7]
 181:C:\Users\niels\Documents\Elektrotechniek\Jaar 3\dspl\software\STM32Basis\HAL\gemeenschappelijk\Third_Party\freertos-addons-1.1.0\c++\Source\cqueue.cpp ****     (void)xQueueOverwrite(handle, item);
 1024              	 .loc 2 181 11
 1025 000a 7B68     	 ldr r3,[r7,#4]
 1026 000c 5868     	 ldr r0,[r3,#4]
 1027 000e 0223     	 movs r3,#2
 1028 0010 0022     	 movs r2,#0
 1029 0012 3968     	 ldr r1,[r7]
 1030 0014 FFF7FEFF 	 bl xQueueGenericSend
 182:C:\Users\niels\Documents\Elektrotechniek\Jaar 3\dspl\software\STM32Basis\HAL\gemeenschappelijk\Third_Party\freertos-addons-1.1.0\c++\Source\cqueue.cpp ****     return true;
 1031              	 .loc 2 182 12
 1032 0018 0123     	 movs r3,#1
 183:C:\Users\niels\Documents\Elektrotechniek\Jaar 3\dspl\software\STM32Basis\HAL\gemeenschappelijk\Third_Party\freertos-addons-1.1.0\c++\Source\cqueue.cpp **** }
 1033              	 .loc 2 183 1
 1034 001a 1846     	 mov r0,r3
 1035 001c 0837     	 adds r7,r7,#8
 1036              	 .cfi_def_cfa_offset 8
 1037 001e BD46     	 mov sp,r7
 1038              	 .cfi_def_cfa_register 13
 1039              	 
 1040 0020 80BD     	 pop {r7,pc}
 1041              	 .cfi_endproc
 1042              	.LFE1059:
 1043              	 .size _ZN12cpp_freertos11BinaryQueue7EnqueueEPv,.-_ZN12cpp_freertos11BinaryQueue7EnqueueEPv
 1044              	 .section .text._ZN12cpp_freertos11BinaryQueue14EnqueueFromISREPvPl,"ax",%progbits
 1045              	 .align 1
ARM GAS   			page 27


 1046              	 .global _ZN12cpp_freertos11BinaryQueue14EnqueueFromISREPvPl
 1047              	 .syntax unified
 1048              	 .thumb
 1049              	 .thumb_func
 1050              	 .type _ZN12cpp_freertos11BinaryQueue14EnqueueFromISREPvPl,%function
 1051              	_ZN12cpp_freertos11BinaryQueue14EnqueueFromISREPvPl:
 1052              	.LFB1060:
 184:C:\Users\niels\Documents\Elektrotechniek\Jaar 3\dspl\software\STM32Basis\HAL\gemeenschappelijk\Third_Party\freertos-addons-1.1.0\c++\Source\cqueue.cpp **** 
 185:C:\Users\niels\Documents\Elektrotechniek\Jaar 3\dspl\software\STM32Basis\HAL\gemeenschappelijk\Third_Party\freertos-addons-1.1.0\c++\Source\cqueue.cpp **** 
 186:C:\Users\niels\Documents\Elektrotechniek\Jaar 3\dspl\software\STM32Basis\HAL\gemeenschappelijk\Third_Party\freertos-addons-1.1.0\c++\Source\cqueue.cpp **** bool BinaryQueue::EnqueueFromISR(void *item, BaseType_t *pxHigherPriorityTaskWoken)
 187:C:\Users\niels\Documents\Elektrotechniek\Jaar 3\dspl\software\STM32Basis\HAL\gemeenschappelijk\Third_Party\freertos-addons-1.1.0\c++\Source\cqueue.cpp **** {
 1053              	 .loc 2 187 1
 1054              	 .cfi_startproc
 1055              	 
 1056              	 
 1057 0000 80B5     	 push {r7,lr}
 1058              	 .cfi_def_cfa_offset 8
 1059              	 .cfi_offset 7,-8
 1060              	 .cfi_offset 14,-4
 1061 0002 84B0     	 sub sp,sp,#16
 1062              	 .cfi_def_cfa_offset 24
 1063 0004 00AF     	 add r7,sp,#0
 1064              	 .cfi_def_cfa_register 7
 1065 0006 F860     	 str r0,[r7,#12]
 1066 0008 B960     	 str r1,[r7,#8]
 1067 000a 7A60     	 str r2,[r7,#4]
 188:C:\Users\niels\Documents\Elektrotechniek\Jaar 3\dspl\software\STM32Basis\HAL\gemeenschappelijk\Third_Party\freertos-addons-1.1.0\c++\Source\cqueue.cpp ****     (void)xQueueOverwriteFromISR(handle, item, pxHigherPriorityTaskWoken);
 1068              	 .loc 2 188 11
 1069 000c FB68     	 ldr r3,[r7,#12]
 1070 000e 5868     	 ldr r0,[r3,#4]
 1071 0010 0223     	 movs r3,#2
 1072 0012 7A68     	 ldr r2,[r7,#4]
 1073 0014 B968     	 ldr r1,[r7,#8]
 1074 0016 FFF7FEFF 	 bl xQueueGenericSendFromISR
 189:C:\Users\niels\Documents\Elektrotechniek\Jaar 3\dspl\software\STM32Basis\HAL\gemeenschappelijk\Third_Party\freertos-addons-1.1.0\c++\Source\cqueue.cpp ****     return true;
 1075              	 .loc 2 189 12
 1076 001a 0123     	 movs r3,#1
 190:C:\Users\niels\Documents\Elektrotechniek\Jaar 3\dspl\software\STM32Basis\HAL\gemeenschappelijk\Third_Party\freertos-addons-1.1.0\c++\Source\cqueue.cpp **** }
 1077              	 .loc 2 190 1
 1078 001c 1846     	 mov r0,r3
 1079 001e 1037     	 adds r7,r7,#16
 1080              	 .cfi_def_cfa_offset 8
 1081 0020 BD46     	 mov sp,r7
 1082              	 .cfi_def_cfa_register 13
 1083              	 
 1084 0022 80BD     	 pop {r7,pc}
 1085              	 .cfi_endproc
 1086              	.LFE1060:
 1087              	 .size _ZN12cpp_freertos11BinaryQueue14EnqueueFromISREPvPl,.-_ZN12cpp_freertos11BinaryQueue14EnqueueFromISREPvPl
 1088              	 .global _ZTVN12cpp_freertos11BinaryQueueE
 1089              	 .section .rodata._ZTVN12cpp_freertos11BinaryQueueE,"a"
 1090              	 .align 2
 1091              	 .type _ZTVN12cpp_freertos11BinaryQueueE,%object
 1092              	 .size _ZTVN12cpp_freertos11BinaryQueueE,28
 1093              	_ZTVN12cpp_freertos11BinaryQueueE:
 1094 0000 00000000 	 .word 0
 1095 0004 00000000 	 .word 0
ARM GAS   			page 28


 1096 0008 00000000 	 .word _ZN12cpp_freertos11BinaryQueueD1Ev
 1097 000c 00000000 	 .word _ZN12cpp_freertos11BinaryQueueD0Ev
 1098 0010 00000000 	 .word _ZN12cpp_freertos11BinaryQueue7EnqueueEPv
 1099 0014 00000000 	 .word _ZN12cpp_freertos5Queue7EnqueueEPvm
 1100 0018 00000000 	 .word _ZN12cpp_freertos11BinaryQueue14EnqueueFromISREPvPl
 1101              	 .section .text._ZN12cpp_freertos11BinaryQueueD2Ev,"axG",%progbits,_ZN12cpp_freertos11BinaryQueueD5Ev,comdat
 1102              	 .align 1
 1103              	 .weak _ZN12cpp_freertos11BinaryQueueD2Ev
 1104              	 .syntax unified
 1105              	 .thumb
 1106              	 .thumb_func
 1107              	 .type _ZN12cpp_freertos11BinaryQueueD2Ev,%function
 1108              	_ZN12cpp_freertos11BinaryQueueD2Ev:
 1109              	.LFB1529:
 1110              	 .file 3 "c:\\users\\niels\\docume~1\\elektr~1\\jaar3~1\\dspl\\software\\stm32b~1\\hal\\gemeen~1\\third_~1\\freert~1.0\\c__~1\\source\\include\\queue.hpp"
   1:c:\users\niels\docume~1\elektr~1\jaar3~1\dspl\software\stm32b~1\hal\gemeen~1\third_~1\freert~1.0\c__~1\source\include\queue.hpp **** /****************************************************************************
   2:c:\users\niels\docume~1\elektr~1\jaar3~1\dspl\software\stm32b~1\hal\gemeen~1\third_~1\freert~1.0\c__~1\source\include\queue.hpp ****  *
   3:c:\users\niels\docume~1\elektr~1\jaar3~1\dspl\software\stm32b~1\hal\gemeen~1\third_~1\freert~1.0\c__~1\source\include\queue.hpp ****  *  Copyright (c) 2016, Michael Becker (michael.f.becker@gmail.com)
   4:c:\users\niels\docume~1\elektr~1\jaar3~1\dspl\software\stm32b~1\hal\gemeen~1\third_~1\freert~1.0\c__~1\source\include\queue.hpp ****  *
   5:c:\users\niels\docume~1\elektr~1\jaar3~1\dspl\software\stm32b~1\hal\gemeen~1\third_~1\freert~1.0\c__~1\source\include\queue.hpp ****  *  This file is part of the FreeRTOS C++ Wrappers project.
   6:c:\users\niels\docume~1\elektr~1\jaar3~1\dspl\software\stm32b~1\hal\gemeen~1\third_~1\freert~1.0\c__~1\source\include\queue.hpp ****  *
   7:c:\users\niels\docume~1\elektr~1\jaar3~1\dspl\software\stm32b~1\hal\gemeen~1\third_~1\freert~1.0\c__~1\source\include\queue.hpp ****  *  The FreeRTOS C++ Wrappers project is free software: you can redistribute
   8:c:\users\niels\docume~1\elektr~1\jaar3~1\dspl\software\stm32b~1\hal\gemeen~1\third_~1\freert~1.0\c__~1\source\include\queue.hpp ****  *  it and/or modify it under the terms of the GNU General Public License as
   9:c:\users\niels\docume~1\elektr~1\jaar3~1\dspl\software\stm32b~1\hal\gemeen~1\third_~1\freert~1.0\c__~1\source\include\queue.hpp ****  *  published by the Free Software Foundation, either version 2
  10:c:\users\niels\docume~1\elektr~1\jaar3~1\dspl\software\stm32b~1\hal\gemeen~1\third_~1\freert~1.0\c__~1\source\include\queue.hpp ****  *  of the License, or (at your option) any later version.
  11:c:\users\niels\docume~1\elektr~1\jaar3~1\dspl\software\stm32b~1\hal\gemeen~1\third_~1\freert~1.0\c__~1\source\include\queue.hpp ****  *
  12:c:\users\niels\docume~1\elektr~1\jaar3~1\dspl\software\stm32b~1\hal\gemeen~1\third_~1\freert~1.0\c__~1\source\include\queue.hpp ****  *  The FreeRTOS C++ Wrappers project is distributed in the hope that it will
  13:c:\users\niels\docume~1\elektr~1\jaar3~1\dspl\software\stm32b~1\hal\gemeen~1\third_~1\freert~1.0\c__~1\source\include\queue.hpp ****  *  be useful, but WITHOUT ANY WARRANTY; without even the implied warranty of
  14:c:\users\niels\docume~1\elektr~1\jaar3~1\dspl\software\stm32b~1\hal\gemeen~1\third_~1\freert~1.0\c__~1\source\include\queue.hpp ****  *  MERCHANTABILITY or FITNESS FOR A PARTICULAR PURPOSE.  See the
  15:c:\users\niels\docume~1\elektr~1\jaar3~1\dspl\software\stm32b~1\hal\gemeen~1\third_~1\freert~1.0\c__~1\source\include\queue.hpp ****  *  GNU General Public License for more details.
  16:c:\users\niels\docume~1\elektr~1\jaar3~1\dspl\software\stm32b~1\hal\gemeen~1\third_~1\freert~1.0\c__~1\source\include\queue.hpp ****  *
  17:c:\users\niels\docume~1\elektr~1\jaar3~1\dspl\software\stm32b~1\hal\gemeen~1\third_~1\freert~1.0\c__~1\source\include\queue.hpp ****  *  You should have received a copy of the GNU General Public License
  18:c:\users\niels\docume~1\elektr~1\jaar3~1\dspl\software\stm32b~1\hal\gemeen~1\third_~1\freert~1.0\c__~1\source\include\queue.hpp ****  *  along with the FreeRTOS C++ Wrappers project.
  19:c:\users\niels\docume~1\elektr~1\jaar3~1\dspl\software\stm32b~1\hal\gemeen~1\third_~1\freert~1.0\c__~1\source\include\queue.hpp ****  *  If not, see <http://www.gnu.org/licenses/>.
  20:c:\users\niels\docume~1\elektr~1\jaar3~1\dspl\software\stm32b~1\hal\gemeen~1\third_~1\freert~1.0\c__~1\source\include\queue.hpp ****  *
  21:c:\users\niels\docume~1\elektr~1\jaar3~1\dspl\software\stm32b~1\hal\gemeen~1\third_~1\freert~1.0\c__~1\source\include\queue.hpp ****  ***************************************************************************/
  22:c:\users\niels\docume~1\elektr~1\jaar3~1\dspl\software\stm32b~1\hal\gemeen~1\third_~1\freert~1.0\c__~1\source\include\queue.hpp **** #ifndef QUEUE_HPP_
  23:c:\users\niels\docume~1\elektr~1\jaar3~1\dspl\software\stm32b~1\hal\gemeen~1\third_~1\freert~1.0\c__~1\source\include\queue.hpp **** #define QUEUE_HPP_
  24:c:\users\niels\docume~1\elektr~1\jaar3~1\dspl\software\stm32b~1\hal\gemeen~1\third_~1\freert~1.0\c__~1\source\include\queue.hpp **** 
  25:c:\users\niels\docume~1\elektr~1\jaar3~1\dspl\software\stm32b~1\hal\gemeen~1\third_~1\freert~1.0\c__~1\source\include\queue.hpp **** 
  26:c:\users\niels\docume~1\elektr~1\jaar3~1\dspl\software\stm32b~1\hal\gemeen~1\third_~1\freert~1.0\c__~1\source\include\queue.hpp **** #include <exception>
  27:c:\users\niels\docume~1\elektr~1\jaar3~1\dspl\software\stm32b~1\hal\gemeen~1\third_~1\freert~1.0\c__~1\source\include\queue.hpp **** #include <string>
  28:c:\users\niels\docume~1\elektr~1\jaar3~1\dspl\software\stm32b~1\hal\gemeen~1\third_~1\freert~1.0\c__~1\source\include\queue.hpp **** #include "FreeRTOS.h"
  29:c:\users\niels\docume~1\elektr~1\jaar3~1\dspl\software\stm32b~1\hal\gemeen~1\third_~1\freert~1.0\c__~1\source\include\queue.hpp **** #include "queue.h"
  30:c:\users\niels\docume~1\elektr~1\jaar3~1\dspl\software\stm32b~1\hal\gemeen~1\third_~1\freert~1.0\c__~1\source\include\queue.hpp **** // TODO - explore replacing sprintf with stringstream
  31:c:\users\niels\docume~1\elektr~1\jaar3~1\dspl\software\stm32b~1\hal\gemeen~1\third_~1\freert~1.0\c__~1\source\include\queue.hpp **** #include <cstdio>
  32:c:\users\niels\docume~1\elektr~1\jaar3~1\dspl\software\stm32b~1\hal\gemeen~1\third_~1\freert~1.0\c__~1\source\include\queue.hpp **** 
  33:c:\users\niels\docume~1\elektr~1\jaar3~1\dspl\software\stm32b~1\hal\gemeen~1\third_~1\freert~1.0\c__~1\source\include\queue.hpp **** 
  34:c:\users\niels\docume~1\elektr~1\jaar3~1\dspl\software\stm32b~1\hal\gemeen~1\third_~1\freert~1.0\c__~1\source\include\queue.hpp **** namespace cpp_freertos {
  35:c:\users\niels\docume~1\elektr~1\jaar3~1\dspl\software\stm32b~1\hal\gemeen~1\third_~1\freert~1.0\c__~1\source\include\queue.hpp **** 
  36:c:\users\niels\docume~1\elektr~1\jaar3~1\dspl\software\stm32b~1\hal\gemeen~1\third_~1\freert~1.0\c__~1\source\include\queue.hpp **** 
  37:c:\users\niels\docume~1\elektr~1\jaar3~1\dspl\software\stm32b~1\hal\gemeen~1\third_~1\freert~1.0\c__~1\source\include\queue.hpp **** /**
  38:c:\users\niels\docume~1\elektr~1\jaar3~1\dspl\software\stm32b~1\hal\gemeen~1\third_~1\freert~1.0\c__~1\source\include\queue.hpp ****  *  This is the exception that is thrown if a Queue constructor fails.
  39:c:\users\niels\docume~1\elektr~1\jaar3~1\dspl\software\stm32b~1\hal\gemeen~1\third_~1\freert~1.0\c__~1\source\include\queue.hpp ****  */
  40:c:\users\niels\docume~1\elektr~1\jaar3~1\dspl\software\stm32b~1\hal\gemeen~1\third_~1\freert~1.0\c__~1\source\include\queue.hpp **** class QueueCreateException : public std::exception {
  41:c:\users\niels\docume~1\elektr~1\jaar3~1\dspl\software\stm32b~1\hal\gemeen~1\third_~1\freert~1.0\c__~1\source\include\queue.hpp **** 
  42:c:\users\niels\docume~1\elektr~1\jaar3~1\dspl\software\stm32b~1\hal\gemeen~1\third_~1\freert~1.0\c__~1\source\include\queue.hpp ****     public:
ARM GAS   			page 29


  43:c:\users\niels\docume~1\elektr~1\jaar3~1\dspl\software\stm32b~1\hal\gemeen~1\third_~1\freert~1.0\c__~1\source\include\queue.hpp ****         /**
  44:c:\users\niels\docume~1\elektr~1\jaar3~1\dspl\software\stm32b~1\hal\gemeen~1\third_~1\freert~1.0\c__~1\source\include\queue.hpp ****          *  Create the exception.
  45:c:\users\niels\docume~1\elektr~1\jaar3~1\dspl\software\stm32b~1\hal\gemeen~1\third_~1\freert~1.0\c__~1\source\include\queue.hpp ****          */
  46:c:\users\niels\docume~1\elektr~1\jaar3~1\dspl\software\stm32b~1\hal\gemeen~1\third_~1\freert~1.0\c__~1\source\include\queue.hpp ****         QueueCreateException()
  47:c:\users\niels\docume~1\elektr~1\jaar3~1\dspl\software\stm32b~1\hal\gemeen~1\third_~1\freert~1.0\c__~1\source\include\queue.hpp ****         {
  48:c:\users\niels\docume~1\elektr~1\jaar3~1\dspl\software\stm32b~1\hal\gemeen~1\third_~1\freert~1.0\c__~1\source\include\queue.hpp ****             sprintf(errorString, "Queue Constructor Failed");
  49:c:\users\niels\docume~1\elektr~1\jaar3~1\dspl\software\stm32b~1\hal\gemeen~1\third_~1\freert~1.0\c__~1\source\include\queue.hpp ****         }
  50:c:\users\niels\docume~1\elektr~1\jaar3~1\dspl\software\stm32b~1\hal\gemeen~1\third_~1\freert~1.0\c__~1\source\include\queue.hpp **** 
  51:c:\users\niels\docume~1\elektr~1\jaar3~1\dspl\software\stm32b~1\hal\gemeen~1\third_~1\freert~1.0\c__~1\source\include\queue.hpp ****         /**
  52:c:\users\niels\docume~1\elektr~1\jaar3~1\dspl\software\stm32b~1\hal\gemeen~1\third_~1\freert~1.0\c__~1\source\include\queue.hpp ****          *  Create the exception.
  53:c:\users\niels\docume~1\elektr~1\jaar3~1\dspl\software\stm32b~1\hal\gemeen~1\third_~1\freert~1.0\c__~1\source\include\queue.hpp ****          */
  54:c:\users\niels\docume~1\elektr~1\jaar3~1\dspl\software\stm32b~1\hal\gemeen~1\third_~1\freert~1.0\c__~1\source\include\queue.hpp ****         explicit QueueCreateException(const char *info)
  55:c:\users\niels\docume~1\elektr~1\jaar3~1\dspl\software\stm32b~1\hal\gemeen~1\third_~1\freert~1.0\c__~1\source\include\queue.hpp ****         {
  56:c:\users\niels\docume~1\elektr~1\jaar3~1\dspl\software\stm32b~1\hal\gemeen~1\third_~1\freert~1.0\c__~1\source\include\queue.hpp ****             snprintf(errorString, sizeof(errorString),
  57:c:\users\niels\docume~1\elektr~1\jaar3~1\dspl\software\stm32b~1\hal\gemeen~1\third_~1\freert~1.0\c__~1\source\include\queue.hpp ****                         "Queue Constructor Failed %s", info);
  58:c:\users\niels\docume~1\elektr~1\jaar3~1\dspl\software\stm32b~1\hal\gemeen~1\third_~1\freert~1.0\c__~1\source\include\queue.hpp ****         }
  59:c:\users\niels\docume~1\elektr~1\jaar3~1\dspl\software\stm32b~1\hal\gemeen~1\third_~1\freert~1.0\c__~1\source\include\queue.hpp **** 
  60:c:\users\niels\docume~1\elektr~1\jaar3~1\dspl\software\stm32b~1\hal\gemeen~1\third_~1\freert~1.0\c__~1\source\include\queue.hpp ****         /**
  61:c:\users\niels\docume~1\elektr~1\jaar3~1\dspl\software\stm32b~1\hal\gemeen~1\third_~1\freert~1.0\c__~1\source\include\queue.hpp ****          *  Get what happened as a string.
  62:c:\users\niels\docume~1\elektr~1\jaar3~1\dspl\software\stm32b~1\hal\gemeen~1\third_~1\freert~1.0\c__~1\source\include\queue.hpp ****          *  We are overriding the base implementation here.
  63:c:\users\niels\docume~1\elektr~1\jaar3~1\dspl\software\stm32b~1\hal\gemeen~1\third_~1\freert~1.0\c__~1\source\include\queue.hpp ****          */
  64:c:\users\niels\docume~1\elektr~1\jaar3~1\dspl\software\stm32b~1\hal\gemeen~1\third_~1\freert~1.0\c__~1\source\include\queue.hpp ****         virtual const char *what() const throw()
  65:c:\users\niels\docume~1\elektr~1\jaar3~1\dspl\software\stm32b~1\hal\gemeen~1\third_~1\freert~1.0\c__~1\source\include\queue.hpp ****         {
  66:c:\users\niels\docume~1\elektr~1\jaar3~1\dspl\software\stm32b~1\hal\gemeen~1\third_~1\freert~1.0\c__~1\source\include\queue.hpp ****             return errorString;
  67:c:\users\niels\docume~1\elektr~1\jaar3~1\dspl\software\stm32b~1\hal\gemeen~1\third_~1\freert~1.0\c__~1\source\include\queue.hpp ****         }
  68:c:\users\niels\docume~1\elektr~1\jaar3~1\dspl\software\stm32b~1\hal\gemeen~1\third_~1\freert~1.0\c__~1\source\include\queue.hpp **** 
  69:c:\users\niels\docume~1\elektr~1\jaar3~1\dspl\software\stm32b~1\hal\gemeen~1\third_~1\freert~1.0\c__~1\source\include\queue.hpp ****     private:
  70:c:\users\niels\docume~1\elektr~1\jaar3~1\dspl\software\stm32b~1\hal\gemeen~1\third_~1\freert~1.0\c__~1\source\include\queue.hpp ****         /**
  71:c:\users\niels\docume~1\elektr~1\jaar3~1\dspl\software\stm32b~1\hal\gemeen~1\third_~1\freert~1.0\c__~1\source\include\queue.hpp ****          *  A text string representing what failed.
  72:c:\users\niels\docume~1\elektr~1\jaar3~1\dspl\software\stm32b~1\hal\gemeen~1\third_~1\freert~1.0\c__~1\source\include\queue.hpp ****          */
  73:c:\users\niels\docume~1\elektr~1\jaar3~1\dspl\software\stm32b~1\hal\gemeen~1\third_~1\freert~1.0\c__~1\source\include\queue.hpp ****         char errorString[80];
  74:c:\users\niels\docume~1\elektr~1\jaar3~1\dspl\software\stm32b~1\hal\gemeen~1\third_~1\freert~1.0\c__~1\source\include\queue.hpp **** };
  75:c:\users\niels\docume~1\elektr~1\jaar3~1\dspl\software\stm32b~1\hal\gemeen~1\third_~1\freert~1.0\c__~1\source\include\queue.hpp **** 
  76:c:\users\niels\docume~1\elektr~1\jaar3~1\dspl\software\stm32b~1\hal\gemeen~1\third_~1\freert~1.0\c__~1\source\include\queue.hpp **** 
  77:c:\users\niels\docume~1\elektr~1\jaar3~1\dspl\software\stm32b~1\hal\gemeen~1\third_~1\freert~1.0\c__~1\source\include\queue.hpp **** /**
  78:c:\users\niels\docume~1\elektr~1\jaar3~1\dspl\software\stm32b~1\hal\gemeen~1\third_~1\freert~1.0\c__~1\source\include\queue.hpp ****  *  Queue class wrapper for FreeRTOS queues. This class provides enqueue
  79:c:\users\niels\docume~1\elektr~1\jaar3~1\dspl\software\stm32b~1\hal\gemeen~1\third_~1\freert~1.0\c__~1\source\include\queue.hpp ****  *  and dequeue operations.
  80:c:\users\niels\docume~1\elektr~1\jaar3~1\dspl\software\stm32b~1\hal\gemeen~1\third_~1\freert~1.0\c__~1\source\include\queue.hpp ****  *
  81:c:\users\niels\docume~1\elektr~1\jaar3~1\dspl\software\stm32b~1\hal\gemeen~1\third_~1\freert~1.0\c__~1\source\include\queue.hpp ****  *  @note It is expected that an application will instantiate this class or
  82:c:\users\niels\docume~1\elektr~1\jaar3~1\dspl\software\stm32b~1\hal\gemeen~1\third_~1\freert~1.0\c__~1\source\include\queue.hpp ****  *        one of the derived classes and use that. It is not expected that
  83:c:\users\niels\docume~1\elektr~1\jaar3~1\dspl\software\stm32b~1\hal\gemeen~1\third_~1\freert~1.0\c__~1\source\include\queue.hpp ****  *        a user or application will derive from these classes.
  84:c:\users\niels\docume~1\elektr~1\jaar3~1\dspl\software\stm32b~1\hal\gemeen~1\third_~1\freert~1.0\c__~1\source\include\queue.hpp ****  */
  85:c:\users\niels\docume~1\elektr~1\jaar3~1\dspl\software\stm32b~1\hal\gemeen~1\third_~1\freert~1.0\c__~1\source\include\queue.hpp **** class Queue {
  86:c:\users\niels\docume~1\elektr~1\jaar3~1\dspl\software\stm32b~1\hal\gemeen~1\third_~1\freert~1.0\c__~1\source\include\queue.hpp **** 
  87:c:\users\niels\docume~1\elektr~1\jaar3~1\dspl\software\stm32b~1\hal\gemeen~1\third_~1\freert~1.0\c__~1\source\include\queue.hpp ****     /////////////////////////////////////////////////////////////////////////
  88:c:\users\niels\docume~1\elektr~1\jaar3~1\dspl\software\stm32b~1\hal\gemeen~1\third_~1\freert~1.0\c__~1\source\include\queue.hpp ****     //
  89:c:\users\niels\docume~1\elektr~1\jaar3~1\dspl\software\stm32b~1\hal\gemeen~1\third_~1\freert~1.0\c__~1\source\include\queue.hpp ****     //  Public API
  90:c:\users\niels\docume~1\elektr~1\jaar3~1\dspl\software\stm32b~1\hal\gemeen~1\third_~1\freert~1.0\c__~1\source\include\queue.hpp ****     //
  91:c:\users\niels\docume~1\elektr~1\jaar3~1\dspl\software\stm32b~1\hal\gemeen~1\third_~1\freert~1.0\c__~1\source\include\queue.hpp ****     /////////////////////////////////////////////////////////////////////////
  92:c:\users\niels\docume~1\elektr~1\jaar3~1\dspl\software\stm32b~1\hal\gemeen~1\third_~1\freert~1.0\c__~1\source\include\queue.hpp ****     public:
  93:c:\users\niels\docume~1\elektr~1\jaar3~1\dspl\software\stm32b~1\hal\gemeen~1\third_~1\freert~1.0\c__~1\source\include\queue.hpp ****         /**
  94:c:\users\niels\docume~1\elektr~1\jaar3~1\dspl\software\stm32b~1\hal\gemeen~1\third_~1\freert~1.0\c__~1\source\include\queue.hpp ****          *  Our constructor.
  95:c:\users\niels\docume~1\elektr~1\jaar3~1\dspl\software\stm32b~1\hal\gemeen~1\third_~1\freert~1.0\c__~1\source\include\queue.hpp ****          *
  96:c:\users\niels\docume~1\elektr~1\jaar3~1\dspl\software\stm32b~1\hal\gemeen~1\third_~1\freert~1.0\c__~1\source\include\queue.hpp ****          *  @throws QueueCreateException
  97:c:\users\niels\docume~1\elektr~1\jaar3~1\dspl\software\stm32b~1\hal\gemeen~1\third_~1\freert~1.0\c__~1\source\include\queue.hpp ****          *  @param maxItems Maximum number of items this queue can hold.
  98:c:\users\niels\docume~1\elektr~1\jaar3~1\dspl\software\stm32b~1\hal\gemeen~1\third_~1\freert~1.0\c__~1\source\include\queue.hpp ****          *  @param itemSize Size of an item in a queue.
  99:c:\users\niels\docume~1\elektr~1\jaar3~1\dspl\software\stm32b~1\hal\gemeen~1\third_~1\freert~1.0\c__~1\source\include\queue.hpp ****          *  @note FreeRTOS queues use a memcpy / fixed size scheme for queues.
ARM GAS   			page 30


 100:c:\users\niels\docume~1\elektr~1\jaar3~1\dspl\software\stm32b~1\hal\gemeen~1\third_~1\freert~1.0\c__~1\source\include\queue.hpp ****          */
 101:c:\users\niels\docume~1\elektr~1\jaar3~1\dspl\software\stm32b~1\hal\gemeen~1\third_~1\freert~1.0\c__~1\source\include\queue.hpp ****         Queue(UBaseType_t maxItems, UBaseType_t itemSize);
 102:c:\users\niels\docume~1\elektr~1\jaar3~1\dspl\software\stm32b~1\hal\gemeen~1\third_~1\freert~1.0\c__~1\source\include\queue.hpp **** 
 103:c:\users\niels\docume~1\elektr~1\jaar3~1\dspl\software\stm32b~1\hal\gemeen~1\third_~1\freert~1.0\c__~1\source\include\queue.hpp ****         /**
 104:c:\users\niels\docume~1\elektr~1\jaar3~1\dspl\software\stm32b~1\hal\gemeen~1\third_~1\freert~1.0\c__~1\source\include\queue.hpp ****          *  Our destructor.
 105:c:\users\niels\docume~1\elektr~1\jaar3~1\dspl\software\stm32b~1\hal\gemeen~1\third_~1\freert~1.0\c__~1\source\include\queue.hpp ****          */
 106:c:\users\niels\docume~1\elektr~1\jaar3~1\dspl\software\stm32b~1\hal\gemeen~1\third_~1\freert~1.0\c__~1\source\include\queue.hpp ****         virtual ~Queue();
 107:c:\users\niels\docume~1\elektr~1\jaar3~1\dspl\software\stm32b~1\hal\gemeen~1\third_~1\freert~1.0\c__~1\source\include\queue.hpp **** 
 108:c:\users\niels\docume~1\elektr~1\jaar3~1\dspl\software\stm32b~1\hal\gemeen~1\third_~1\freert~1.0\c__~1\source\include\queue.hpp ****         /**
 109:c:\users\niels\docume~1\elektr~1\jaar3~1\dspl\software\stm32b~1\hal\gemeen~1\third_~1\freert~1.0\c__~1\source\include\queue.hpp ****          *  Add an item to the back of the queue.
 110:c:\users\niels\docume~1\elektr~1\jaar3~1\dspl\software\stm32b~1\hal\gemeen~1\third_~1\freert~1.0\c__~1\source\include\queue.hpp ****          *
 111:c:\users\niels\docume~1\elektr~1\jaar3~1\dspl\software\stm32b~1\hal\gemeen~1\third_~1\freert~1.0\c__~1\source\include\queue.hpp ****          *  @param item The item you are adding.
 112:c:\users\niels\docume~1\elektr~1\jaar3~1\dspl\software\stm32b~1\hal\gemeen~1\third_~1\freert~1.0\c__~1\source\include\queue.hpp ****          *  @return true if the item was added, false if it was not.
 113:c:\users\niels\docume~1\elektr~1\jaar3~1\dspl\software\stm32b~1\hal\gemeen~1\third_~1\freert~1.0\c__~1\source\include\queue.hpp ****          */
 114:c:\users\niels\docume~1\elektr~1\jaar3~1\dspl\software\stm32b~1\hal\gemeen~1\third_~1\freert~1.0\c__~1\source\include\queue.hpp ****         virtual bool Enqueue(void *item);
 115:c:\users\niels\docume~1\elektr~1\jaar3~1\dspl\software\stm32b~1\hal\gemeen~1\third_~1\freert~1.0\c__~1\source\include\queue.hpp **** 
 116:c:\users\niels\docume~1\elektr~1\jaar3~1\dspl\software\stm32b~1\hal\gemeen~1\third_~1\freert~1.0\c__~1\source\include\queue.hpp ****         /**
 117:c:\users\niels\docume~1\elektr~1\jaar3~1\dspl\software\stm32b~1\hal\gemeen~1\third_~1\freert~1.0\c__~1\source\include\queue.hpp ****          *  Add an item to the back of the queue.
 118:c:\users\niels\docume~1\elektr~1\jaar3~1\dspl\software\stm32b~1\hal\gemeen~1\third_~1\freert~1.0\c__~1\source\include\queue.hpp ****          *
 119:c:\users\niels\docume~1\elektr~1\jaar3~1\dspl\software\stm32b~1\hal\gemeen~1\third_~1\freert~1.0\c__~1\source\include\queue.hpp ****          *  @param item The item you are adding.
 120:c:\users\niels\docume~1\elektr~1\jaar3~1\dspl\software\stm32b~1\hal\gemeen~1\third_~1\freert~1.0\c__~1\source\include\queue.hpp ****          *  @param Timeout How long to wait to add the item to the queue if
 121:c:\users\niels\docume~1\elektr~1\jaar3~1\dspl\software\stm32b~1\hal\gemeen~1\third_~1\freert~1.0\c__~1\source\include\queue.hpp ****          *         the queue is currently full.
 122:c:\users\niels\docume~1\elektr~1\jaar3~1\dspl\software\stm32b~1\hal\gemeen~1\third_~1\freert~1.0\c__~1\source\include\queue.hpp ****          *  @return true if the item was added, false if it was not.
 123:c:\users\niels\docume~1\elektr~1\jaar3~1\dspl\software\stm32b~1\hal\gemeen~1\third_~1\freert~1.0\c__~1\source\include\queue.hpp ****          */
 124:c:\users\niels\docume~1\elektr~1\jaar3~1\dspl\software\stm32b~1\hal\gemeen~1\third_~1\freert~1.0\c__~1\source\include\queue.hpp ****         virtual bool Enqueue(void *item, TickType_t Timeout);
 125:c:\users\niels\docume~1\elektr~1\jaar3~1\dspl\software\stm32b~1\hal\gemeen~1\third_~1\freert~1.0\c__~1\source\include\queue.hpp **** 
 126:c:\users\niels\docume~1\elektr~1\jaar3~1\dspl\software\stm32b~1\hal\gemeen~1\third_~1\freert~1.0\c__~1\source\include\queue.hpp ****         /**
 127:c:\users\niels\docume~1\elektr~1\jaar3~1\dspl\software\stm32b~1\hal\gemeen~1\third_~1\freert~1.0\c__~1\source\include\queue.hpp ****          *  Remove an item from the front of the queue.
 128:c:\users\niels\docume~1\elektr~1\jaar3~1\dspl\software\stm32b~1\hal\gemeen~1\third_~1\freert~1.0\c__~1\source\include\queue.hpp ****          *
 129:c:\users\niels\docume~1\elektr~1\jaar3~1\dspl\software\stm32b~1\hal\gemeen~1\third_~1\freert~1.0\c__~1\source\include\queue.hpp ****          *  @param item Where the item you are removing will be returned to.
 130:c:\users\niels\docume~1\elektr~1\jaar3~1\dspl\software\stm32b~1\hal\gemeen~1\third_~1\freert~1.0\c__~1\source\include\queue.hpp ****          *  @param Timeout How long to wait to remove an item if the queue
 131:c:\users\niels\docume~1\elektr~1\jaar3~1\dspl\software\stm32b~1\hal\gemeen~1\third_~1\freert~1.0\c__~1\source\include\queue.hpp ****          *         is currently empty.
 132:c:\users\niels\docume~1\elektr~1\jaar3~1\dspl\software\stm32b~1\hal\gemeen~1\third_~1\freert~1.0\c__~1\source\include\queue.hpp ****          *  @return true if an item was removed, false if no item was removed.
 133:c:\users\niels\docume~1\elektr~1\jaar3~1\dspl\software\stm32b~1\hal\gemeen~1\third_~1\freert~1.0\c__~1\source\include\queue.hpp ****          */
 134:c:\users\niels\docume~1\elektr~1\jaar3~1\dspl\software\stm32b~1\hal\gemeen~1\third_~1\freert~1.0\c__~1\source\include\queue.hpp ****         bool Dequeue(void *item, TickType_t Timeout = portMAX_DELAY);
 135:c:\users\niels\docume~1\elektr~1\jaar3~1\dspl\software\stm32b~1\hal\gemeen~1\third_~1\freert~1.0\c__~1\source\include\queue.hpp **** 
 136:c:\users\niels\docume~1\elektr~1\jaar3~1\dspl\software\stm32b~1\hal\gemeen~1\third_~1\freert~1.0\c__~1\source\include\queue.hpp ****         /**
 137:c:\users\niels\docume~1\elektr~1\jaar3~1\dspl\software\stm32b~1\hal\gemeen~1\third_~1\freert~1.0\c__~1\source\include\queue.hpp ****          *  Make a copy of an item from the front of the queue. This will
 138:c:\users\niels\docume~1\elektr~1\jaar3~1\dspl\software\stm32b~1\hal\gemeen~1\third_~1\freert~1.0\c__~1\source\include\queue.hpp ****          *  not remove it from the head of the queue.
 139:c:\users\niels\docume~1\elektr~1\jaar3~1\dspl\software\stm32b~1\hal\gemeen~1\third_~1\freert~1.0\c__~1\source\include\queue.hpp ****          *
 140:c:\users\niels\docume~1\elektr~1\jaar3~1\dspl\software\stm32b~1\hal\gemeen~1\third_~1\freert~1.0\c__~1\source\include\queue.hpp ****          *  @param item Where the item you are removing will be returned to.
 141:c:\users\niels\docume~1\elektr~1\jaar3~1\dspl\software\stm32b~1\hal\gemeen~1\third_~1\freert~1.0\c__~1\source\include\queue.hpp ****          *  @param Timeout How long to wait to remove an item if the queue
 142:c:\users\niels\docume~1\elektr~1\jaar3~1\dspl\software\stm32b~1\hal\gemeen~1\third_~1\freert~1.0\c__~1\source\include\queue.hpp ****          *         is currently empty.
 143:c:\users\niels\docume~1\elektr~1\jaar3~1\dspl\software\stm32b~1\hal\gemeen~1\third_~1\freert~1.0\c__~1\source\include\queue.hpp ****          *  @return true if an item was copied, false if no item was copied.
 144:c:\users\niels\docume~1\elektr~1\jaar3~1\dspl\software\stm32b~1\hal\gemeen~1\third_~1\freert~1.0\c__~1\source\include\queue.hpp ****          */
 145:c:\users\niels\docume~1\elektr~1\jaar3~1\dspl\software\stm32b~1\hal\gemeen~1\third_~1\freert~1.0\c__~1\source\include\queue.hpp ****         bool Peek(void *item, TickType_t Timeout = portMAX_DELAY);
 146:c:\users\niels\docume~1\elektr~1\jaar3~1\dspl\software\stm32b~1\hal\gemeen~1\third_~1\freert~1.0\c__~1\source\include\queue.hpp **** 
 147:c:\users\niels\docume~1\elektr~1\jaar3~1\dspl\software\stm32b~1\hal\gemeen~1\third_~1\freert~1.0\c__~1\source\include\queue.hpp ****         /**
 148:c:\users\niels\docume~1\elektr~1\jaar3~1\dspl\software\stm32b~1\hal\gemeen~1\third_~1\freert~1.0\c__~1\source\include\queue.hpp ****          *  Add an item to the back of the queue in ISR context.
 149:c:\users\niels\docume~1\elektr~1\jaar3~1\dspl\software\stm32b~1\hal\gemeen~1\third_~1\freert~1.0\c__~1\source\include\queue.hpp ****          *
 150:c:\users\niels\docume~1\elektr~1\jaar3~1\dspl\software\stm32b~1\hal\gemeen~1\third_~1\freert~1.0\c__~1\source\include\queue.hpp ****          *  @param item The item you are adding.
 151:c:\users\niels\docume~1\elektr~1\jaar3~1\dspl\software\stm32b~1\hal\gemeen~1\third_~1\freert~1.0\c__~1\source\include\queue.hpp ****          *  @param pxHigherPriorityTaskWoken Did this operation result in a
 152:c:\users\niels\docume~1\elektr~1\jaar3~1\dspl\software\stm32b~1\hal\gemeen~1\third_~1\freert~1.0\c__~1\source\include\queue.hpp ****          *         rescheduling event.
 153:c:\users\niels\docume~1\elektr~1\jaar3~1\dspl\software\stm32b~1\hal\gemeen~1\third_~1\freert~1.0\c__~1\source\include\queue.hpp ****          *  @return true if the item was added, false if it was not.
 154:c:\users\niels\docume~1\elektr~1\jaar3~1\dspl\software\stm32b~1\hal\gemeen~1\third_~1\freert~1.0\c__~1\source\include\queue.hpp ****          */
 155:c:\users\niels\docume~1\elektr~1\jaar3~1\dspl\software\stm32b~1\hal\gemeen~1\third_~1\freert~1.0\c__~1\source\include\queue.hpp ****         virtual bool EnqueueFromISR(void *item, BaseType_t *pxHigherPriorityTaskWoken);
 156:c:\users\niels\docume~1\elektr~1\jaar3~1\dspl\software\stm32b~1\hal\gemeen~1\third_~1\freert~1.0\c__~1\source\include\queue.hpp **** 
ARM GAS   			page 31


 157:c:\users\niels\docume~1\elektr~1\jaar3~1\dspl\software\stm32b~1\hal\gemeen~1\third_~1\freert~1.0\c__~1\source\include\queue.hpp ****         /**
 158:c:\users\niels\docume~1\elektr~1\jaar3~1\dspl\software\stm32b~1\hal\gemeen~1\third_~1\freert~1.0\c__~1\source\include\queue.hpp ****          *  Remove an item from the front of the queue in ISR context.
 159:c:\users\niels\docume~1\elektr~1\jaar3~1\dspl\software\stm32b~1\hal\gemeen~1\third_~1\freert~1.0\c__~1\source\include\queue.hpp ****          *
 160:c:\users\niels\docume~1\elektr~1\jaar3~1\dspl\software\stm32b~1\hal\gemeen~1\third_~1\freert~1.0\c__~1\source\include\queue.hpp ****          *  @param item Where the item you are removing will be returned to.
 161:c:\users\niels\docume~1\elektr~1\jaar3~1\dspl\software\stm32b~1\hal\gemeen~1\third_~1\freert~1.0\c__~1\source\include\queue.hpp ****          *  @param pxHigherPriorityTaskWoken Did this operation result in a
 162:c:\users\niels\docume~1\elektr~1\jaar3~1\dspl\software\stm32b~1\hal\gemeen~1\third_~1\freert~1.0\c__~1\source\include\queue.hpp ****          *         rescheduling event.
 163:c:\users\niels\docume~1\elektr~1\jaar3~1\dspl\software\stm32b~1\hal\gemeen~1\third_~1\freert~1.0\c__~1\source\include\queue.hpp ****          *  @return true if an item was removed, false if no item was removed.
 164:c:\users\niels\docume~1\elektr~1\jaar3~1\dspl\software\stm32b~1\hal\gemeen~1\third_~1\freert~1.0\c__~1\source\include\queue.hpp ****          */
 165:c:\users\niels\docume~1\elektr~1\jaar3~1\dspl\software\stm32b~1\hal\gemeen~1\third_~1\freert~1.0\c__~1\source\include\queue.hpp ****         bool DequeueFromISR(void *item, BaseType_t *pxHigherPriorityTaskWoken);
 166:c:\users\niels\docume~1\elektr~1\jaar3~1\dspl\software\stm32b~1\hal\gemeen~1\third_~1\freert~1.0\c__~1\source\include\queue.hpp **** 
 167:c:\users\niels\docume~1\elektr~1\jaar3~1\dspl\software\stm32b~1\hal\gemeen~1\third_~1\freert~1.0\c__~1\source\include\queue.hpp ****         /**
 168:c:\users\niels\docume~1\elektr~1\jaar3~1\dspl\software\stm32b~1\hal\gemeen~1\third_~1\freert~1.0\c__~1\source\include\queue.hpp ****          *  Make a copy of an item from the front of the queue. This will
 169:c:\users\niels\docume~1\elektr~1\jaar3~1\dspl\software\stm32b~1\hal\gemeen~1\third_~1\freert~1.0\c__~1\source\include\queue.hpp ****          *  not remove it from the head of the queue.
 170:c:\users\niels\docume~1\elektr~1\jaar3~1\dspl\software\stm32b~1\hal\gemeen~1\third_~1\freert~1.0\c__~1\source\include\queue.hpp ****          *
 171:c:\users\niels\docume~1\elektr~1\jaar3~1\dspl\software\stm32b~1\hal\gemeen~1\third_~1\freert~1.0\c__~1\source\include\queue.hpp ****          *  @param item Where the item you are removing will be returned to.
 172:c:\users\niels\docume~1\elektr~1\jaar3~1\dspl\software\stm32b~1\hal\gemeen~1\third_~1\freert~1.0\c__~1\source\include\queue.hpp ****          *  @return true if an item was copied, false if no item was copied.
 173:c:\users\niels\docume~1\elektr~1\jaar3~1\dspl\software\stm32b~1\hal\gemeen~1\third_~1\freert~1.0\c__~1\source\include\queue.hpp ****          */
 174:c:\users\niels\docume~1\elektr~1\jaar3~1\dspl\software\stm32b~1\hal\gemeen~1\third_~1\freert~1.0\c__~1\source\include\queue.hpp ****         bool PeekFromISR(void *item);
 175:c:\users\niels\docume~1\elektr~1\jaar3~1\dspl\software\stm32b~1\hal\gemeen~1\third_~1\freert~1.0\c__~1\source\include\queue.hpp **** 
 176:c:\users\niels\docume~1\elektr~1\jaar3~1\dspl\software\stm32b~1\hal\gemeen~1\third_~1\freert~1.0\c__~1\source\include\queue.hpp ****         /**
 177:c:\users\niels\docume~1\elektr~1\jaar3~1\dspl\software\stm32b~1\hal\gemeen~1\third_~1\freert~1.0\c__~1\source\include\queue.hpp ****          *  Is the queue empty?
 178:c:\users\niels\docume~1\elektr~1\jaar3~1\dspl\software\stm32b~1\hal\gemeen~1\third_~1\freert~1.0\c__~1\source\include\queue.hpp ****          *  @return true if the queue was empty when this was called, false if
 179:c:\users\niels\docume~1\elektr~1\jaar3~1\dspl\software\stm32b~1\hal\gemeen~1\third_~1\freert~1.0\c__~1\source\include\queue.hpp ****          *  the queue was not empty.
 180:c:\users\niels\docume~1\elektr~1\jaar3~1\dspl\software\stm32b~1\hal\gemeen~1\third_~1\freert~1.0\c__~1\source\include\queue.hpp ****          */
 181:c:\users\niels\docume~1\elektr~1\jaar3~1\dspl\software\stm32b~1\hal\gemeen~1\third_~1\freert~1.0\c__~1\source\include\queue.hpp ****         bool IsEmpty();
 182:c:\users\niels\docume~1\elektr~1\jaar3~1\dspl\software\stm32b~1\hal\gemeen~1\third_~1\freert~1.0\c__~1\source\include\queue.hpp **** 
 183:c:\users\niels\docume~1\elektr~1\jaar3~1\dspl\software\stm32b~1\hal\gemeen~1\third_~1\freert~1.0\c__~1\source\include\queue.hpp ****         /**
 184:c:\users\niels\docume~1\elektr~1\jaar3~1\dspl\software\stm32b~1\hal\gemeen~1\third_~1\freert~1.0\c__~1\source\include\queue.hpp ****          *  Is the queue full?
 185:c:\users\niels\docume~1\elektr~1\jaar3~1\dspl\software\stm32b~1\hal\gemeen~1\third_~1\freert~1.0\c__~1\source\include\queue.hpp ****          *  @return true if the queue was full when this was called, false if
 186:c:\users\niels\docume~1\elektr~1\jaar3~1\dspl\software\stm32b~1\hal\gemeen~1\third_~1\freert~1.0\c__~1\source\include\queue.hpp ****          *  the queue was not full.
 187:c:\users\niels\docume~1\elektr~1\jaar3~1\dspl\software\stm32b~1\hal\gemeen~1\third_~1\freert~1.0\c__~1\source\include\queue.hpp ****          */
 188:c:\users\niels\docume~1\elektr~1\jaar3~1\dspl\software\stm32b~1\hal\gemeen~1\third_~1\freert~1.0\c__~1\source\include\queue.hpp ****         bool IsFull();
 189:c:\users\niels\docume~1\elektr~1\jaar3~1\dspl\software\stm32b~1\hal\gemeen~1\third_~1\freert~1.0\c__~1\source\include\queue.hpp **** 
 190:c:\users\niels\docume~1\elektr~1\jaar3~1\dspl\software\stm32b~1\hal\gemeen~1\third_~1\freert~1.0\c__~1\source\include\queue.hpp ****         /**
 191:c:\users\niels\docume~1\elektr~1\jaar3~1\dspl\software\stm32b~1\hal\gemeen~1\third_~1\freert~1.0\c__~1\source\include\queue.hpp ****          *  Remove all objects from the queue.
 192:c:\users\niels\docume~1\elektr~1\jaar3~1\dspl\software\stm32b~1\hal\gemeen~1\third_~1\freert~1.0\c__~1\source\include\queue.hpp ****          */
 193:c:\users\niels\docume~1\elektr~1\jaar3~1\dspl\software\stm32b~1\hal\gemeen~1\third_~1\freert~1.0\c__~1\source\include\queue.hpp ****         void Flush();
 194:c:\users\niels\docume~1\elektr~1\jaar3~1\dspl\software\stm32b~1\hal\gemeen~1\third_~1\freert~1.0\c__~1\source\include\queue.hpp **** 
 195:c:\users\niels\docume~1\elektr~1\jaar3~1\dspl\software\stm32b~1\hal\gemeen~1\third_~1\freert~1.0\c__~1\source\include\queue.hpp ****         /**
 196:c:\users\niels\docume~1\elektr~1\jaar3~1\dspl\software\stm32b~1\hal\gemeen~1\third_~1\freert~1.0\c__~1\source\include\queue.hpp ****          *  How many items are currently in the queue.
 197:c:\users\niels\docume~1\elektr~1\jaar3~1\dspl\software\stm32b~1\hal\gemeen~1\third_~1\freert~1.0\c__~1\source\include\queue.hpp ****          *  @return the number of items in the queue.
 198:c:\users\niels\docume~1\elektr~1\jaar3~1\dspl\software\stm32b~1\hal\gemeen~1\third_~1\freert~1.0\c__~1\source\include\queue.hpp ****          */
 199:c:\users\niels\docume~1\elektr~1\jaar3~1\dspl\software\stm32b~1\hal\gemeen~1\third_~1\freert~1.0\c__~1\source\include\queue.hpp ****         UBaseType_t NumItems();
 200:c:\users\niels\docume~1\elektr~1\jaar3~1\dspl\software\stm32b~1\hal\gemeen~1\third_~1\freert~1.0\c__~1\source\include\queue.hpp **** 
 201:c:\users\niels\docume~1\elektr~1\jaar3~1\dspl\software\stm32b~1\hal\gemeen~1\third_~1\freert~1.0\c__~1\source\include\queue.hpp ****         /**
 202:c:\users\niels\docume~1\elektr~1\jaar3~1\dspl\software\stm32b~1\hal\gemeen~1\third_~1\freert~1.0\c__~1\source\include\queue.hpp ****          *  How many empty spaves are currently left in the queue.
 203:c:\users\niels\docume~1\elektr~1\jaar3~1\dspl\software\stm32b~1\hal\gemeen~1\third_~1\freert~1.0\c__~1\source\include\queue.hpp ****          *  @return the number of remaining spaces.
 204:c:\users\niels\docume~1\elektr~1\jaar3~1\dspl\software\stm32b~1\hal\gemeen~1\third_~1\freert~1.0\c__~1\source\include\queue.hpp ****          */
 205:c:\users\niels\docume~1\elektr~1\jaar3~1\dspl\software\stm32b~1\hal\gemeen~1\third_~1\freert~1.0\c__~1\source\include\queue.hpp ****         UBaseType_t NumSpacesLeft();
 206:c:\users\niels\docume~1\elektr~1\jaar3~1\dspl\software\stm32b~1\hal\gemeen~1\third_~1\freert~1.0\c__~1\source\include\queue.hpp **** 
 207:c:\users\niels\docume~1\elektr~1\jaar3~1\dspl\software\stm32b~1\hal\gemeen~1\third_~1\freert~1.0\c__~1\source\include\queue.hpp ****     /////////////////////////////////////////////////////////////////////////
 208:c:\users\niels\docume~1\elektr~1\jaar3~1\dspl\software\stm32b~1\hal\gemeen~1\third_~1\freert~1.0\c__~1\source\include\queue.hpp ****     //
 209:c:\users\niels\docume~1\elektr~1\jaar3~1\dspl\software\stm32b~1\hal\gemeen~1\third_~1\freert~1.0\c__~1\source\include\queue.hpp ****     //  Protected API
 210:c:\users\niels\docume~1\elektr~1\jaar3~1\dspl\software\stm32b~1\hal\gemeen~1\third_~1\freert~1.0\c__~1\source\include\queue.hpp ****     //  Not intended for use by application code.
 211:c:\users\niels\docume~1\elektr~1\jaar3~1\dspl\software\stm32b~1\hal\gemeen~1\third_~1\freert~1.0\c__~1\source\include\queue.hpp ****     //
 212:c:\users\niels\docume~1\elektr~1\jaar3~1\dspl\software\stm32b~1\hal\gemeen~1\third_~1\freert~1.0\c__~1\source\include\queue.hpp ****     /////////////////////////////////////////////////////////////////////////
 213:c:\users\niels\docume~1\elektr~1\jaar3~1\dspl\software\stm32b~1\hal\gemeen~1\third_~1\freert~1.0\c__~1\source\include\queue.hpp ****     protected:
ARM GAS   			page 32


 214:c:\users\niels\docume~1\elektr~1\jaar3~1\dspl\software\stm32b~1\hal\gemeen~1\third_~1\freert~1.0\c__~1\source\include\queue.hpp ****         /**
 215:c:\users\niels\docume~1\elektr~1\jaar3~1\dspl\software\stm32b~1\hal\gemeen~1\third_~1\freert~1.0\c__~1\source\include\queue.hpp ****          *  FreeRTOS queue handle.
 216:c:\users\niels\docume~1\elektr~1\jaar3~1\dspl\software\stm32b~1\hal\gemeen~1\third_~1\freert~1.0\c__~1\source\include\queue.hpp ****          */
 217:c:\users\niels\docume~1\elektr~1\jaar3~1\dspl\software\stm32b~1\hal\gemeen~1\third_~1\freert~1.0\c__~1\source\include\queue.hpp ****         QueueHandle_t handle;
 218:c:\users\niels\docume~1\elektr~1\jaar3~1\dspl\software\stm32b~1\hal\gemeen~1\third_~1\freert~1.0\c__~1\source\include\queue.hpp **** };
 219:c:\users\niels\docume~1\elektr~1\jaar3~1\dspl\software\stm32b~1\hal\gemeen~1\third_~1\freert~1.0\c__~1\source\include\queue.hpp **** 
 220:c:\users\niels\docume~1\elektr~1\jaar3~1\dspl\software\stm32b~1\hal\gemeen~1\third_~1\freert~1.0\c__~1\source\include\queue.hpp **** 
 221:c:\users\niels\docume~1\elektr~1\jaar3~1\dspl\software\stm32b~1\hal\gemeen~1\third_~1\freert~1.0\c__~1\source\include\queue.hpp **** /**
 222:c:\users\niels\docume~1\elektr~1\jaar3~1\dspl\software\stm32b~1\hal\gemeen~1\third_~1\freert~1.0\c__~1\source\include\queue.hpp ****  *  Enhanced queue class that implements a double ended queue (a "deque"),
 223:c:\users\niels\docume~1\elektr~1\jaar3~1\dspl\software\stm32b~1\hal\gemeen~1\third_~1\freert~1.0\c__~1\source\include\queue.hpp ****  *  almost. Unlike the traditional CommSci version, there is no way to
 224:c:\users\niels\docume~1\elektr~1\jaar3~1\dspl\software\stm32b~1\hal\gemeen~1\third_~1\freert~1.0\c__~1\source\include\queue.hpp ****  *  dequeue from the back. Practically, this most likely isn't a big deal.
 225:c:\users\niels\docume~1\elektr~1\jaar3~1\dspl\software\stm32b~1\hal\gemeen~1\third_~1\freert~1.0\c__~1\source\include\queue.hpp ****  *
 226:c:\users\niels\docume~1\elektr~1\jaar3~1\dspl\software\stm32b~1\hal\gemeen~1\third_~1\freert~1.0\c__~1\source\include\queue.hpp ****  *  @note It is expected that an application will instantiate this class or
 227:c:\users\niels\docume~1\elektr~1\jaar3~1\dspl\software\stm32b~1\hal\gemeen~1\third_~1\freert~1.0\c__~1\source\include\queue.hpp ****  *        one of the derived classes and use that. It is not expected that
 228:c:\users\niels\docume~1\elektr~1\jaar3~1\dspl\software\stm32b~1\hal\gemeen~1\third_~1\freert~1.0\c__~1\source\include\queue.hpp ****  *        a user or application will derive from these classes.
 229:c:\users\niels\docume~1\elektr~1\jaar3~1\dspl\software\stm32b~1\hal\gemeen~1\third_~1\freert~1.0\c__~1\source\include\queue.hpp ****  */
 230:c:\users\niels\docume~1\elektr~1\jaar3~1\dspl\software\stm32b~1\hal\gemeen~1\third_~1\freert~1.0\c__~1\source\include\queue.hpp **** class Deque : public Queue {
 231:c:\users\niels\docume~1\elektr~1\jaar3~1\dspl\software\stm32b~1\hal\gemeen~1\third_~1\freert~1.0\c__~1\source\include\queue.hpp **** 
 232:c:\users\niels\docume~1\elektr~1\jaar3~1\dspl\software\stm32b~1\hal\gemeen~1\third_~1\freert~1.0\c__~1\source\include\queue.hpp ****     /////////////////////////////////////////////////////////////////////////
 233:c:\users\niels\docume~1\elektr~1\jaar3~1\dspl\software\stm32b~1\hal\gemeen~1\third_~1\freert~1.0\c__~1\source\include\queue.hpp ****     //
 234:c:\users\niels\docume~1\elektr~1\jaar3~1\dspl\software\stm32b~1\hal\gemeen~1\third_~1\freert~1.0\c__~1\source\include\queue.hpp ****     //  Public API
 235:c:\users\niels\docume~1\elektr~1\jaar3~1\dspl\software\stm32b~1\hal\gemeen~1\third_~1\freert~1.0\c__~1\source\include\queue.hpp ****     //
 236:c:\users\niels\docume~1\elektr~1\jaar3~1\dspl\software\stm32b~1\hal\gemeen~1\third_~1\freert~1.0\c__~1\source\include\queue.hpp ****     /////////////////////////////////////////////////////////////////////////
 237:c:\users\niels\docume~1\elektr~1\jaar3~1\dspl\software\stm32b~1\hal\gemeen~1\third_~1\freert~1.0\c__~1\source\include\queue.hpp ****     public:
 238:c:\users\niels\docume~1\elektr~1\jaar3~1\dspl\software\stm32b~1\hal\gemeen~1\third_~1\freert~1.0\c__~1\source\include\queue.hpp ****         /**
 239:c:\users\niels\docume~1\elektr~1\jaar3~1\dspl\software\stm32b~1\hal\gemeen~1\third_~1\freert~1.0\c__~1\source\include\queue.hpp ****          *  Our constructor.
 240:c:\users\niels\docume~1\elektr~1\jaar3~1\dspl\software\stm32b~1\hal\gemeen~1\third_~1\freert~1.0\c__~1\source\include\queue.hpp ****          *
 241:c:\users\niels\docume~1\elektr~1\jaar3~1\dspl\software\stm32b~1\hal\gemeen~1\third_~1\freert~1.0\c__~1\source\include\queue.hpp ****          *  @throws QueueCreateException
 242:c:\users\niels\docume~1\elektr~1\jaar3~1\dspl\software\stm32b~1\hal\gemeen~1\third_~1\freert~1.0\c__~1\source\include\queue.hpp ****          *  @param maxItems Maximum number of items thsi queue can hold.
 243:c:\users\niels\docume~1\elektr~1\jaar3~1\dspl\software\stm32b~1\hal\gemeen~1\third_~1\freert~1.0\c__~1\source\include\queue.hpp ****          *  @param itemSize Size of an item in a queue.
 244:c:\users\niels\docume~1\elektr~1\jaar3~1\dspl\software\stm32b~1\hal\gemeen~1\third_~1\freert~1.0\c__~1\source\include\queue.hpp ****          *  @note FreeRTOS queues use a memcpy / fixed size scheme for queues.
 245:c:\users\niels\docume~1\elektr~1\jaar3~1\dspl\software\stm32b~1\hal\gemeen~1\third_~1\freert~1.0\c__~1\source\include\queue.hpp ****          */
 246:c:\users\niels\docume~1\elektr~1\jaar3~1\dspl\software\stm32b~1\hal\gemeen~1\third_~1\freert~1.0\c__~1\source\include\queue.hpp ****         Deque(UBaseType_t maxItems, UBaseType_t itemSize);
 247:c:\users\niels\docume~1\elektr~1\jaar3~1\dspl\software\stm32b~1\hal\gemeen~1\third_~1\freert~1.0\c__~1\source\include\queue.hpp **** 
 248:c:\users\niels\docume~1\elektr~1\jaar3~1\dspl\software\stm32b~1\hal\gemeen~1\third_~1\freert~1.0\c__~1\source\include\queue.hpp ****         /**
 249:c:\users\niels\docume~1\elektr~1\jaar3~1\dspl\software\stm32b~1\hal\gemeen~1\third_~1\freert~1.0\c__~1\source\include\queue.hpp ****          *  Add an item to the front of the queue. This will result in
 250:c:\users\niels\docume~1\elektr~1\jaar3~1\dspl\software\stm32b~1\hal\gemeen~1\third_~1\freert~1.0\c__~1\source\include\queue.hpp ****          *  the item being removed first, ahead of all of the items
 251:c:\users\niels\docume~1\elektr~1\jaar3~1\dspl\software\stm32b~1\hal\gemeen~1\third_~1\freert~1.0\c__~1\source\include\queue.hpp ****          *  added by the base calss Dequeue() function.
 252:c:\users\niels\docume~1\elektr~1\jaar3~1\dspl\software\stm32b~1\hal\gemeen~1\third_~1\freert~1.0\c__~1\source\include\queue.hpp ****          *
 253:c:\users\niels\docume~1\elektr~1\jaar3~1\dspl\software\stm32b~1\hal\gemeen~1\third_~1\freert~1.0\c__~1\source\include\queue.hpp ****          *  @param item The item you are adding.
 254:c:\users\niels\docume~1\elektr~1\jaar3~1\dspl\software\stm32b~1\hal\gemeen~1\third_~1\freert~1.0\c__~1\source\include\queue.hpp ****          *  @param Timeout How long to wait to add the item to the queue if
 255:c:\users\niels\docume~1\elektr~1\jaar3~1\dspl\software\stm32b~1\hal\gemeen~1\third_~1\freert~1.0\c__~1\source\include\queue.hpp ****          *         the queue is currently full.
 256:c:\users\niels\docume~1\elektr~1\jaar3~1\dspl\software\stm32b~1\hal\gemeen~1\third_~1\freert~1.0\c__~1\source\include\queue.hpp ****          *  @return true if the item was added, false if it was not.
 257:c:\users\niels\docume~1\elektr~1\jaar3~1\dspl\software\stm32b~1\hal\gemeen~1\third_~1\freert~1.0\c__~1\source\include\queue.hpp ****          */
 258:c:\users\niels\docume~1\elektr~1\jaar3~1\dspl\software\stm32b~1\hal\gemeen~1\third_~1\freert~1.0\c__~1\source\include\queue.hpp ****         bool EnqueueToFront(void *item, TickType_t Timeout = portMAX_DELAY);
 259:c:\users\niels\docume~1\elektr~1\jaar3~1\dspl\software\stm32b~1\hal\gemeen~1\third_~1\freert~1.0\c__~1\source\include\queue.hpp **** 
 260:c:\users\niels\docume~1\elektr~1\jaar3~1\dspl\software\stm32b~1\hal\gemeen~1\third_~1\freert~1.0\c__~1\source\include\queue.hpp ****         /**
 261:c:\users\niels\docume~1\elektr~1\jaar3~1\dspl\software\stm32b~1\hal\gemeen~1\third_~1\freert~1.0\c__~1\source\include\queue.hpp ****          *  Add an item to the front of the queue. This will result in
 262:c:\users\niels\docume~1\elektr~1\jaar3~1\dspl\software\stm32b~1\hal\gemeen~1\third_~1\freert~1.0\c__~1\source\include\queue.hpp ****          *  the item being removed first, ahead of all of the items
 263:c:\users\niels\docume~1\elektr~1\jaar3~1\dspl\software\stm32b~1\hal\gemeen~1\third_~1\freert~1.0\c__~1\source\include\queue.hpp ****          *  added by the base calss Dequeue() function.
 264:c:\users\niels\docume~1\elektr~1\jaar3~1\dspl\software\stm32b~1\hal\gemeen~1\third_~1\freert~1.0\c__~1\source\include\queue.hpp ****          *
 265:c:\users\niels\docume~1\elektr~1\jaar3~1\dspl\software\stm32b~1\hal\gemeen~1\third_~1\freert~1.0\c__~1\source\include\queue.hpp ****          *  @param item The item you are adding.
 266:c:\users\niels\docume~1\elektr~1\jaar3~1\dspl\software\stm32b~1\hal\gemeen~1\third_~1\freert~1.0\c__~1\source\include\queue.hpp ****          *  @param pxHigherPriorityTaskWoken Did this operation result in a
 267:c:\users\niels\docume~1\elektr~1\jaar3~1\dspl\software\stm32b~1\hal\gemeen~1\third_~1\freert~1.0\c__~1\source\include\queue.hpp ****          *         rescheduling event.
 268:c:\users\niels\docume~1\elektr~1\jaar3~1\dspl\software\stm32b~1\hal\gemeen~1\third_~1\freert~1.0\c__~1\source\include\queue.hpp ****          *  @return true if the item was added, false if it was not.
 269:c:\users\niels\docume~1\elektr~1\jaar3~1\dspl\software\stm32b~1\hal\gemeen~1\third_~1\freert~1.0\c__~1\source\include\queue.hpp ****          */
 270:c:\users\niels\docume~1\elektr~1\jaar3~1\dspl\software\stm32b~1\hal\gemeen~1\third_~1\freert~1.0\c__~1\source\include\queue.hpp ****         bool EnqueueToFrontFromISR(void *item, BaseType_t *pxHigherPriorityTaskWoken);
ARM GAS   			page 33


 271:c:\users\niels\docume~1\elektr~1\jaar3~1\dspl\software\stm32b~1\hal\gemeen~1\third_~1\freert~1.0\c__~1\source\include\queue.hpp **** };
 272:c:\users\niels\docume~1\elektr~1\jaar3~1\dspl\software\stm32b~1\hal\gemeen~1\third_~1\freert~1.0\c__~1\source\include\queue.hpp **** 
 273:c:\users\niels\docume~1\elektr~1\jaar3~1\dspl\software\stm32b~1\hal\gemeen~1\third_~1\freert~1.0\c__~1\source\include\queue.hpp **** 
 274:c:\users\niels\docume~1\elektr~1\jaar3~1\dspl\software\stm32b~1\hal\gemeen~1\third_~1\freert~1.0\c__~1\source\include\queue.hpp **** /**
 275:c:\users\niels\docume~1\elektr~1\jaar3~1\dspl\software\stm32b~1\hal\gemeen~1\third_~1\freert~1.0\c__~1\source\include\queue.hpp ****  *  Binary queue with overwrite. This queue can only hold one item.
 276:c:\users\niels\docume~1\elektr~1\jaar3~1\dspl\software\stm32b~1\hal\gemeen~1\third_~1\freert~1.0\c__~1\source\include\queue.hpp ****  *  If sucessive Enqueue operations are called, that item is overwritten
 277:c:\users\niels\docume~1\elektr~1\jaar3~1\dspl\software\stm32b~1\hal\gemeen~1\third_~1\freert~1.0\c__~1\source\include\queue.hpp ****  *  with whatever the last item was.
 278:c:\users\niels\docume~1\elektr~1\jaar3~1\dspl\software\stm32b~1\hal\gemeen~1\third_~1\freert~1.0\c__~1\source\include\queue.hpp ****  *
 279:c:\users\niels\docume~1\elektr~1\jaar3~1\dspl\software\stm32b~1\hal\gemeen~1\third_~1\freert~1.0\c__~1\source\include\queue.hpp ****  *  @note It is expected that an application will instantiate this class or
 280:c:\users\niels\docume~1\elektr~1\jaar3~1\dspl\software\stm32b~1\hal\gemeen~1\third_~1\freert~1.0\c__~1\source\include\queue.hpp ****  *        one of the derived classes and use that. It is not expected that
 281:c:\users\niels\docume~1\elektr~1\jaar3~1\dspl\software\stm32b~1\hal\gemeen~1\third_~1\freert~1.0\c__~1\source\include\queue.hpp ****  *        a user or application will derive from these classes.
 282:c:\users\niels\docume~1\elektr~1\jaar3~1\dspl\software\stm32b~1\hal\gemeen~1\third_~1\freert~1.0\c__~1\source\include\queue.hpp ****  */
 283:c:\users\niels\docume~1\elektr~1\jaar3~1\dspl\software\stm32b~1\hal\gemeen~1\third_~1\freert~1.0\c__~1\source\include\queue.hpp **** class BinaryQueue : public Queue {
 1111              	 .loc 3 283 7
 1112              	 .cfi_startproc
 1113              	 
 1114              	 
 1115 0000 80B5     	 push {r7,lr}
 1116              	 .cfi_def_cfa_offset 8
 1117              	 .cfi_offset 7,-8
 1118              	 .cfi_offset 14,-4
 1119 0002 82B0     	 sub sp,sp,#8
 1120              	 .cfi_def_cfa_offset 16
 1121 0004 00AF     	 add r7,sp,#0
 1122              	 .cfi_def_cfa_register 7
 1123 0006 7860     	 str r0,[r7,#4]
 1124              	.LBB6:
 1125              	 .loc 3 283 7
 1126 0008 054A     	 ldr r2,.L55
 1127 000a 7B68     	 ldr r3,[r7,#4]
 1128 000c 1A60     	 str r2,[r3]
 1129 000e 7B68     	 ldr r3,[r7,#4]
 1130 0010 1846     	 mov r0,r3
 1131 0012 FFF7FEFF 	 bl _ZN12cpp_freertos5QueueD2Ev
 1132              	.LBE6:
 1133 0016 7B68     	 ldr r3,[r7,#4]
 1134 0018 1846     	 mov r0,r3
 1135 001a 0837     	 adds r7,r7,#8
 1136              	 .cfi_def_cfa_offset 8
 1137 001c BD46     	 mov sp,r7
 1138              	 .cfi_def_cfa_register 13
 1139              	 
 1140 001e 80BD     	 pop {r7,pc}
 1141              	.L56:
 1142              	 .align 2
 1143              	.L55:
 1144 0020 08000000 	 .word _ZTVN12cpp_freertos11BinaryQueueE+8
 1145              	 .cfi_endproc
 1146              	.LFE1529:
 1147              	 .size _ZN12cpp_freertos11BinaryQueueD2Ev,.-_ZN12cpp_freertos11BinaryQueueD2Ev
 1148              	 .weak _ZN12cpp_freertos11BinaryQueueD1Ev
 1149              	 .thumb_set _ZN12cpp_freertos11BinaryQueueD1Ev,_ZN12cpp_freertos11BinaryQueueD2Ev
 1150              	 .section .text._ZN12cpp_freertos11BinaryQueueD0Ev,"axG",%progbits,_ZN12cpp_freertos11BinaryQueueD5Ev,comdat
 1151              	 .align 1
 1152              	 .weak _ZN12cpp_freertos11BinaryQueueD0Ev
 1153              	 .syntax unified
 1154              	 .thumb
ARM GAS   			page 34


 1155              	 .thumb_func
 1156              	 .type _ZN12cpp_freertos11BinaryQueueD0Ev,%function
 1157              	_ZN12cpp_freertos11BinaryQueueD0Ev:
 1158              	.LFB1531:
 1159              	 .loc 3 283 7
 1160              	 .cfi_startproc
 1161              	 
 1162              	 
 1163 0000 80B5     	 push {r7,lr}
 1164              	 .cfi_def_cfa_offset 8
 1165              	 .cfi_offset 7,-8
 1166              	 .cfi_offset 14,-4
 1167 0002 82B0     	 sub sp,sp,#8
 1168              	 .cfi_def_cfa_offset 16
 1169 0004 00AF     	 add r7,sp,#0
 1170              	 .cfi_def_cfa_register 7
 1171 0006 7860     	 str r0,[r7,#4]
 1172              	 .loc 3 283 7
 1173 0008 7868     	 ldr r0,[r7,#4]
 1174 000a FFF7FEFF 	 bl _ZN12cpp_freertos11BinaryQueueD1Ev
 1175 000e 0821     	 movs r1,#8
 1176 0010 7868     	 ldr r0,[r7,#4]
 1177 0012 FFF7FEFF 	 bl _ZdlPvj
 1178 0016 7B68     	 ldr r3,[r7,#4]
 1179 0018 1846     	 mov r0,r3
 1180 001a 0837     	 adds r7,r7,#8
 1181              	 .cfi_def_cfa_offset 8
 1182 001c BD46     	 mov sp,r7
 1183              	 .cfi_def_cfa_register 13
 1184              	 
 1185 001e 80BD     	 pop {r7,pc}
 1186              	 .cfi_endproc
 1187              	.LFE1531:
 1188              	 .size _ZN12cpp_freertos11BinaryQueueD0Ev,.-_ZN12cpp_freertos11BinaryQueueD0Ev
 1189              	 .weak _ZTVN12cpp_freertos5DequeE
 1190              	 .section .rodata._ZTVN12cpp_freertos5DequeE,"aG",%progbits,_ZTVN12cpp_freertos5DequeE,comdat
 1191              	 .align 2
 1192              	 .type _ZTVN12cpp_freertos5DequeE,%object
 1193              	 .size _ZTVN12cpp_freertos5DequeE,28
 1194              	_ZTVN12cpp_freertos5DequeE:
 1195 0000 00000000 	 .word 0
 1196 0004 00000000 	 .word 0
 1197 0008 00000000 	 .word _ZN12cpp_freertos5DequeD1Ev
 1198 000c 00000000 	 .word _ZN12cpp_freertos5DequeD0Ev
 1199 0010 00000000 	 .word _ZN12cpp_freertos5Queue7EnqueueEPv
 1200 0014 00000000 	 .word _ZN12cpp_freertos5Queue7EnqueueEPvm
 1201 0018 00000000 	 .word _ZN12cpp_freertos5Queue14EnqueueFromISREPvPl
 1202              	 .section .text._ZN12cpp_freertos5DequeD2Ev,"axG",%progbits,_ZN12cpp_freertos5DequeD5Ev,comdat
 1203              	 .align 1
 1204              	 .weak _ZN12cpp_freertos5DequeD2Ev
 1205              	 .syntax unified
 1206              	 .thumb
 1207              	 .thumb_func
 1208              	 .type _ZN12cpp_freertos5DequeD2Ev,%function
 1209              	_ZN12cpp_freertos5DequeD2Ev:
 1210              	.LFB1533:
 230:c:\users\niels\docume~1\elektr~1\jaar3~1\dspl\software\stm32b~1\hal\gemeen~1\third_~1\freert~1.0\c__~1\source\include\queue.hpp **** 
ARM GAS   			page 35


 1211              	 .loc 3 230 7
 1212              	 .cfi_startproc
 1213              	 
 1214              	 
 1215 0000 80B5     	 push {r7,lr}
 1216              	 .cfi_def_cfa_offset 8
 1217              	 .cfi_offset 7,-8
 1218              	 .cfi_offset 14,-4
 1219 0002 82B0     	 sub sp,sp,#8
 1220              	 .cfi_def_cfa_offset 16
 1221 0004 00AF     	 add r7,sp,#0
 1222              	 .cfi_def_cfa_register 7
 1223 0006 7860     	 str r0,[r7,#4]
 1224              	.LBB7:
 230:c:\users\niels\docume~1\elektr~1\jaar3~1\dspl\software\stm32b~1\hal\gemeen~1\third_~1\freert~1.0\c__~1\source\include\queue.hpp **** 
 1225              	 .loc 3 230 7
 1226 0008 054A     	 ldr r2,.L61
 1227 000a 7B68     	 ldr r3,[r7,#4]
 1228 000c 1A60     	 str r2,[r3]
 1229 000e 7B68     	 ldr r3,[r7,#4]
 1230 0010 1846     	 mov r0,r3
 1231 0012 FFF7FEFF 	 bl _ZN12cpp_freertos5QueueD2Ev
 1232              	.LBE7:
 1233 0016 7B68     	 ldr r3,[r7,#4]
 1234 0018 1846     	 mov r0,r3
 1235 001a 0837     	 adds r7,r7,#8
 1236              	 .cfi_def_cfa_offset 8
 1237 001c BD46     	 mov sp,r7
 1238              	 .cfi_def_cfa_register 13
 1239              	 
 1240 001e 80BD     	 pop {r7,pc}
 1241              	.L62:
 1242              	 .align 2
 1243              	.L61:
 1244 0020 08000000 	 .word _ZTVN12cpp_freertos5DequeE+8
 1245              	 .cfi_endproc
 1246              	.LFE1533:
 1247              	 .size _ZN12cpp_freertos5DequeD2Ev,.-_ZN12cpp_freertos5DequeD2Ev
 1248              	 .weak _ZN12cpp_freertos5DequeD1Ev
 1249              	 .thumb_set _ZN12cpp_freertos5DequeD1Ev,_ZN12cpp_freertos5DequeD2Ev
 1250              	 .section .text._ZN12cpp_freertos5DequeD0Ev,"axG",%progbits,_ZN12cpp_freertos5DequeD5Ev,comdat
 1251              	 .align 1
 1252              	 .weak _ZN12cpp_freertos5DequeD0Ev
 1253              	 .syntax unified
 1254              	 .thumb
 1255              	 .thumb_func
 1256              	 .type _ZN12cpp_freertos5DequeD0Ev,%function
 1257              	_ZN12cpp_freertos5DequeD0Ev:
 1258              	.LFB1535:
 230:c:\users\niels\docume~1\elektr~1\jaar3~1\dspl\software\stm32b~1\hal\gemeen~1\third_~1\freert~1.0\c__~1\source\include\queue.hpp **** 
 1259              	 .loc 3 230 7
 1260              	 .cfi_startproc
 1261              	 
 1262              	 
 1263 0000 80B5     	 push {r7,lr}
 1264              	 .cfi_def_cfa_offset 8
 1265              	 .cfi_offset 7,-8
ARM GAS   			page 36


 1266              	 .cfi_offset 14,-4
 1267 0002 82B0     	 sub sp,sp,#8
 1268              	 .cfi_def_cfa_offset 16
 1269 0004 00AF     	 add r7,sp,#0
 1270              	 .cfi_def_cfa_register 7
 1271 0006 7860     	 str r0,[r7,#4]
 230:c:\users\niels\docume~1\elektr~1\jaar3~1\dspl\software\stm32b~1\hal\gemeen~1\third_~1\freert~1.0\c__~1\source\include\queue.hpp **** 
 1272              	 .loc 3 230 7
 1273 0008 7868     	 ldr r0,[r7,#4]
 1274 000a FFF7FEFF 	 bl _ZN12cpp_freertos5DequeD1Ev
 1275 000e 0821     	 movs r1,#8
 1276 0010 7868     	 ldr r0,[r7,#4]
 1277 0012 FFF7FEFF 	 bl _ZdlPvj
 1278 0016 7B68     	 ldr r3,[r7,#4]
 1279 0018 1846     	 mov r0,r3
 1280 001a 0837     	 adds r7,r7,#8
 1281              	 .cfi_def_cfa_offset 8
 1282 001c BD46     	 mov sp,r7
 1283              	 .cfi_def_cfa_register 13
 1284              	 
 1285 001e 80BD     	 pop {r7,pc}
 1286              	 .cfi_endproc
 1287              	.LFE1535:
 1288              	 .size _ZN12cpp_freertos5DequeD0Ev,.-_ZN12cpp_freertos5DequeD0Ev
 1289              	 .global _ZTVN12cpp_freertos5QueueE
 1290              	 .section .rodata._ZTVN12cpp_freertos5QueueE,"a"
 1291              	 .align 2
 1292              	 .type _ZTVN12cpp_freertos5QueueE,%object
 1293              	 .size _ZTVN12cpp_freertos5QueueE,28
 1294              	_ZTVN12cpp_freertos5QueueE:
 1295 0000 00000000 	 .word 0
 1296 0004 00000000 	 .word 0
 1297 0008 00000000 	 .word _ZN12cpp_freertos5QueueD1Ev
 1298 000c 00000000 	 .word _ZN12cpp_freertos5QueueD0Ev
 1299 0010 00000000 	 .word _ZN12cpp_freertos5Queue7EnqueueEPv
 1300 0014 00000000 	 .word _ZN12cpp_freertos5Queue7EnqueueEPvm
 1301 0018 00000000 	 .word _ZN12cpp_freertos5Queue14EnqueueFromISREPvPl
 1302              	 .text
 1303              	.Letext0:
 1304              	 .file 4 "c:\\progra~2\\gnuarm~1\\102021~1.10\\arm-none-eabi\\include\\c++\\10.3.1\\bits\\exception_ptr.h"
 1305              	 .file 5 "c:\\progra~2\\gnuarm~1\\102021~1.10\\arm-none-eabi\\include\\c++\\10.3.1\\bits\\cpp_type_traits.h"
 1306              	 .file 6 "c:\\progra~2\\gnuarm~1\\102021~1.10\\arm-none-eabi\\include\\c++\\10.3.1\\bits\\stl_pair.h"
 1307              	 .file 7 "c:\\progra~2\\gnuarm~1\\102021~1.10\\arm-none-eabi\\include\\c++\\10.3.1\\type_traits"
 1308              	 .file 8 "c:\\progra~2\\gnuarm~1\\102021~1.10\\arm-none-eabi\\include\\c++\\10.3.1\\debug\\debug.h"
 1309              	 .file 9 "c:\\progra~2\\gnuarm~1\\102021~1.10\\arm-none-eabi\\include\\c++\\10.3.1\\cwchar"
 1310              	 .file 10 "c:\\progra~2\\gnuarm~1\\102021~1.10\\arm-none-eabi\\include\\c++\\10.3.1\\cstdint"
 1311              	 .file 11 "c:\\progra~2\\gnuarm~1\\102021~1.10\\arm-none-eabi\\include\\c++\\10.3.1\\clocale"
 1312              	 .file 12 "c:\\progra~2\\gnuarm~1\\102021~1.10\\arm-none-eabi\\include\\c++\\10.3.1\\cstdlib"
 1313              	 .file 13 "c:\\progra~2\\gnuarm~1\\102021~1.10\\arm-none-eabi\\include\\c++\\10.3.1\\cstdio"
 1314              	 .file 14 "c:\\progra~2\\gnuarm~1\\102021~1.10\\arm-none-eabi\\include\\c++\\10.3.1\\arm-none-eabi\\thumb\\v7e-m+fp\\hard\\bits\\c++config.h"
 1315              	 .file 15 "c:\\progra~2\\gnuarm~1\\102021~1.10\\arm-none-eabi\\include\\c++\\10.3.1\\bits\\basic_string.h"
 1316              	 .file 16 "c:\\progra~2\\gnuarm~1\\102021~1.10\\arm-none-eabi\\include\\c++\\10.3.1\\bits\\predefined_ops.h"
 1317              	 .file 17 "c:\\progra~2\\gnuarm~1\\102021~1.10\\lib\\gcc\\arm-none-eabi\\10.3.1\\include\\stddef.h"
 1318              	 .file 18 "c:\\progra~2\\gnuarm~1\\102021~1.10\\arm-none-eabi\\include\\machine\\_default_types.h"
 1319              	 .file 19 "c:\\progra~2\\gnuarm~1\\102021~1.10\\arm-none-eabi\\include\\sys\\_types.h"
 1320              	 .file 20 "c:\\progra~2\\gnuarm~1\\102021~1.10\\arm-none-eabi\\include\\sys\\reent.h"
 1321              	 .file 21 "c:\\progra~2\\gnuarm~1\\102021~1.10\\arm-none-eabi\\include\\sys\\lock.h"
ARM GAS   			page 37


 1322              	 .file 22 "c:\\progra~2\\gnuarm~1\\102021~1.10\\lib\\gcc\\arm-none-eabi\\10.3.1\\include\\stdarg.h"
 1323              	 .file 23 "c:\\progra~2\\gnuarm~1\\102021~1.10\\arm-none-eabi\\include\\wchar.h"
 1324              	 .file 24 "c:\\progra~2\\gnuarm~1\\102021~1.10\\arm-none-eabi\\include\\sys\\_stdint.h"
 1325              	 .file 25 "c:\\progra~2\\gnuarm~1\\102021~1.10\\arm-none-eabi\\include\\stdint.h"
 1326              	 .file 26 "c:\\progra~2\\gnuarm~1\\102021~1.10\\arm-none-eabi\\include\\locale.h"
 1327              	 .file 27 "c:\\progra~2\\gnuarm~1\\102021~1.10\\arm-none-eabi\\include\\stdlib.h"
 1328              	 .file 28 "c:\\progra~2\\gnuarm~1\\102021~1.10\\arm-none-eabi\\include\\stdio.h"
 1329              	 .file 29 "c:\\users\\niels\\docume~1\\elektr~1\\jaar3~1\\dspl\\software\\stm32b~1\\hal\\gemeen~1\\third_~1\\freertos\\source\\portable\\gcc\\arm_cm4f\\portmacro.h"
 1330              	 .file 30 "c:\\users\\niels\\docume~1\\elektr~1\\jaar3~1\\dspl\\software\\stm32b~1\\hal\\gemeen~1\\third_~1\\freertos\\source\\include\\queue.h"
 1331              	 .file 31 "<built-in>"
 1332              	 .section .debug_info,"",%progbits
 1333              	.Ldebug_info0:
 1334 0000 F92E0000 	 .4byte 0x2ef9
 1335 0004 0400     	 .2byte 0x4
 1336 0006 00000000 	 .4byte .Ldebug_abbrev0
 1337 000a 04       	 .byte 0x4
 1338 000b 01       	 .uleb128 0x1
 1339 000c 0B040000 	 .4byte .LASF432
 1340 0010 04       	 .byte 0x4
 1341 0011 6B0A0000 	 .4byte .LASF433
 1342 0015 4F120000 	 .4byte .LASF434
 1343 0019 00000000 	 .4byte .Ldebug_ranges0+0
 1344 001d 00000000 	 .4byte 0
 1345 0021 00000000 	 .4byte .Ldebug_line0
 1346 0025 02       	 .uleb128 0x2
 1347 0026 73746400 	 .ascii "std\000"
 1348 002a 1F       	 .byte 0x1f
 1349 002b 00       	 .byte 0
 1350 002c 57080000 	 .4byte 0x857
 1351 0030 03       	 .uleb128 0x3
 1352 0031 B60D0000 	 .4byte .LASF31
 1353 0035 0E       	 .byte 0xe
 1354 0036 1E01     	 .2byte 0x11e
 1355 0038 41       	 .byte 0x41
 1356 0039 04       	 .uleb128 0x4
 1357 003a 0E       	 .byte 0xe
 1358 003b 1E01     	 .2byte 0x11e
 1359 003d 41       	 .byte 0x41
 1360 003e 30000000 	 .4byte 0x30
 1361 0042 05       	 .uleb128 0x5
 1362 0043 E8010000 	 .4byte .LASF33
 1363 0047 04       	 .byte 0x4
 1364 0048 35       	 .byte 0x35
 1365 0049 0D       	 .byte 0xd
 1366 004a 3D020000 	 .4byte 0x23d
 1367 004e 06       	 .uleb128 0x6
 1368 004f AB0C0000 	 .4byte .LASF4
 1369 0053 04       	 .byte 0x4
 1370 0054 04       	 .byte 0x4
 1371 0055 50       	 .byte 0x50
 1372 0056 0B       	 .byte 0xb
 1373 0057 2F020000 	 .4byte 0x22f
 1374 005b 07       	 .uleb128 0x7
 1375 005c 30080000 	 .4byte .LASF80
 1376 0060 04       	 .byte 0x4
 1377 0061 52       	 .byte 0x52
 1378 0062 0D       	 .byte 0xd
ARM GAS   			page 38


 1379 0063 1E090000 	 .4byte 0x91e
 1380 0067 00       	 .byte 0
 1381 0068 08       	 .uleb128 0x8
 1382 0069 AB0C0000 	 .4byte .LASF4
 1383 006d 04       	 .byte 0x4
 1384 006e 54       	 .byte 0x54
 1385 006f 10       	 .byte 0x10
 1386 0070 36000000 	 .4byte .LASF5
 1387 0074 20090000 	 .4byte 0x920
 1388 0078 80000000 	 .4byte 0x80
 1389 007c 8B000000 	 .4byte 0x8b
 1390 0080 09       	 .uleb128 0x9
 1391 0081 20090000 	 .4byte 0x920
 1392 0085 0A       	 .uleb128 0xa
 1393 0086 1E090000 	 .4byte 0x91e
 1394 008a 00       	 .byte 0
 1395 008b 0B       	 .uleb128 0xb
 1396 008c 81130000 	 .4byte .LASF0
 1397 0090 04       	 .byte 0x4
 1398 0091 56       	 .byte 0x56
 1399 0092 0C       	 .byte 0xc
 1400 0093 98180000 	 .4byte .LASF2
 1401 0097 9F000000 	 .4byte 0x9f
 1402 009b A5000000 	 .4byte 0xa5
 1403 009f 09       	 .uleb128 0x9
 1404 00a0 20090000 	 .4byte 0x920
 1405 00a4 00       	 .byte 0
 1406 00a5 0B       	 .uleb128 0xb
 1407 00a6 B6150000 	 .4byte .LASF1
 1408 00aa 04       	 .byte 0x4
 1409 00ab 57       	 .byte 0x57
 1410 00ac 0C       	 .byte 0xc
 1411 00ad B8140000 	 .4byte .LASF3
 1412 00b1 B9000000 	 .4byte 0xb9
 1413 00b5 BF000000 	 .4byte 0xbf
 1414 00b9 09       	 .uleb128 0x9
 1415 00ba 20090000 	 .4byte 0x920
 1416 00be 00       	 .byte 0
 1417 00bf 0C       	 .uleb128 0xc
 1418 00c0 700E0000 	 .4byte .LASF15
 1419 00c4 04       	 .byte 0x4
 1420 00c5 59       	 .byte 0x59
 1421 00c6 0D       	 .byte 0xd
 1422 00c7 4B150000 	 .4byte .LASF17
 1423 00cb 1E090000 	 .4byte 0x91e
 1424 00cf D7000000 	 .4byte 0xd7
 1425 00d3 DD000000 	 .4byte 0xdd
 1426 00d7 09       	 .uleb128 0x9
 1427 00d8 26090000 	 .4byte 0x926
 1428 00dc 00       	 .byte 0
 1429 00dd 0D       	 .uleb128 0xd
 1430 00de AB0C0000 	 .4byte .LASF4
 1431 00e2 04       	 .byte 0x4
 1432 00e3 61       	 .byte 0x61
 1433 00e4 07       	 .byte 0x7
 1434 00e5 0C100000 	 .4byte .LASF6
 1435 00e9 20090000 	 .4byte 0x920
ARM GAS   			page 39


 1436 00ed 01       	 .byte 0x1
 1437 00ee F6000000 	 .4byte 0xf6
 1438 00f2 FC000000 	 .4byte 0xfc
 1439 00f6 09       	 .uleb128 0x9
 1440 00f7 20090000 	 .4byte 0x920
 1441 00fb 00       	 .byte 0
 1442 00fc 0D       	 .uleb128 0xd
 1443 00fd AB0C0000 	 .4byte .LASF4
 1444 0101 04       	 .byte 0x4
 1445 0102 63       	 .byte 0x63
 1446 0103 07       	 .byte 0x7
 1447 0104 F4160000 	 .4byte .LASF7
 1448 0108 20090000 	 .4byte 0x920
 1449 010c 01       	 .byte 0x1
 1450 010d 15010000 	 .4byte 0x115
 1451 0111 20010000 	 .4byte 0x120
 1452 0115 09       	 .uleb128 0x9
 1453 0116 20090000 	 .4byte 0x920
 1454 011a 0A       	 .uleb128 0xa
 1455 011b 2C090000 	 .4byte 0x92c
 1456 011f 00       	 .byte 0
 1457 0120 0D       	 .uleb128 0xd
 1458 0121 AB0C0000 	 .4byte .LASF4
 1459 0125 04       	 .byte 0x4
 1460 0126 66       	 .byte 0x66
 1461 0127 07       	 .byte 0x7
 1462 0128 2E140000 	 .4byte .LASF8
 1463 012c 20090000 	 .4byte 0x920
 1464 0130 01       	 .byte 0x1
 1465 0131 39010000 	 .4byte 0x139
 1466 0135 44010000 	 .4byte 0x144
 1467 0139 09       	 .uleb128 0x9
 1468 013a 20090000 	 .4byte 0x920
 1469 013e 0A       	 .uleb128 0xa
 1470 013f 5B020000 	 .4byte 0x25b
 1471 0143 00       	 .byte 0
 1472 0144 0D       	 .uleb128 0xd
 1473 0145 AB0C0000 	 .4byte .LASF4
 1474 0149 04       	 .byte 0x4
 1475 014a 6A       	 .byte 0x6a
 1476 014b 07       	 .byte 0x7
 1477 014c 6D070000 	 .4byte .LASF9
 1478 0150 20090000 	 .4byte 0x920
 1479 0154 01       	 .byte 0x1
 1480 0155 5D010000 	 .4byte 0x15d
 1481 0159 68010000 	 .4byte 0x168
 1482 015d 09       	 .uleb128 0x9
 1483 015e 20090000 	 .4byte 0x920
 1484 0162 0A       	 .uleb128 0xa
 1485 0163 32090000 	 .4byte 0x932
 1486 0167 00       	 .byte 0
 1487 0168 0D       	 .uleb128 0xd
 1488 0169 660E0000 	 .4byte .LASF10
 1489 016d 04       	 .byte 0x4
 1490 016e 77       	 .byte 0x77
 1491 016f 07       	 .byte 0x7
 1492 0170 D6170000 	 .4byte .LASF11
ARM GAS   			page 40


 1493 0174 38090000 	 .4byte 0x938
 1494 0178 01       	 .byte 0x1
 1495 0179 81010000 	 .4byte 0x181
 1496 017d 8C010000 	 .4byte 0x18c
 1497 0181 09       	 .uleb128 0x9
 1498 0182 20090000 	 .4byte 0x920
 1499 0186 0A       	 .uleb128 0xa
 1500 0187 2C090000 	 .4byte 0x92c
 1501 018b 00       	 .byte 0
 1502 018c 0D       	 .uleb128 0xd
 1503 018d 660E0000 	 .4byte .LASF10
 1504 0191 04       	 .byte 0x4
 1505 0192 7B       	 .byte 0x7b
 1506 0193 07       	 .byte 0x7
 1507 0194 44110000 	 .4byte .LASF12
 1508 0198 38090000 	 .4byte 0x938
 1509 019c 01       	 .byte 0x1
 1510 019d A5010000 	 .4byte 0x1a5
 1511 01a1 B0010000 	 .4byte 0x1b0
 1512 01a5 09       	 .uleb128 0x9
 1513 01a6 20090000 	 .4byte 0x920
 1514 01aa 0A       	 .uleb128 0xa
 1515 01ab 32090000 	 .4byte 0x932
 1516 01af 00       	 .byte 0
 1517 01b0 0D       	 .uleb128 0xd
 1518 01b1 86000000 	 .4byte .LASF13
 1519 01b5 04       	 .byte 0x4
 1520 01b6 82       	 .byte 0x82
 1521 01b7 07       	 .byte 0x7
 1522 01b8 0B0C0000 	 .4byte .LASF14
 1523 01bc 1E090000 	 .4byte 0x91e
 1524 01c0 01       	 .byte 0x1
 1525 01c1 C9010000 	 .4byte 0x1c9
 1526 01c5 D4010000 	 .4byte 0x1d4
 1527 01c9 09       	 .uleb128 0x9
 1528 01ca 20090000 	 .4byte 0x920
 1529 01ce 09       	 .uleb128 0x9
 1530 01cf EC080000 	 .4byte 0x8ec
 1531 01d3 00       	 .byte 0
 1532 01d4 0E       	 .uleb128 0xe
 1533 01d5 A60C0000 	 .4byte .LASF16
 1534 01d9 04       	 .byte 0x4
 1535 01da 85       	 .byte 0x85
 1536 01db 07       	 .byte 0x7
 1537 01dc 8F010000 	 .4byte .LASF18
 1538 01e0 01       	 .byte 0x1
 1539 01e1 E9010000 	 .4byte 0x1e9
 1540 01e5 F4010000 	 .4byte 0x1f4
 1541 01e9 09       	 .uleb128 0x9
 1542 01ea 20090000 	 .4byte 0x920
 1543 01ee 0A       	 .uleb128 0xa
 1544 01ef 38090000 	 .4byte 0x938
 1545 01f3 00       	 .byte 0
 1546 01f4 0F       	 .uleb128 0xf
 1547 01f5 03130000 	 .4byte .LASF370
 1548 01f9 04       	 .byte 0x4
 1549 01fa 91       	 .byte 0x91
ARM GAS   			page 41


 1550 01fb 10       	 .byte 0x10
 1551 01fc 37130000 	 .4byte .LASF371
 1552 0200 3E090000 	 .4byte 0x93e
 1553 0204 01       	 .byte 0x1
 1554 0205 0D020000 	 .4byte 0x20d
 1555 0209 13020000 	 .4byte 0x213
 1556 020d 09       	 .uleb128 0x9
 1557 020e 26090000 	 .4byte 0x926
 1558 0212 00       	 .byte 0
 1559 0213 10       	 .uleb128 0x10
 1560 0214 D7100000 	 .4byte .LASF19
 1561 0218 04       	 .byte 0x4
 1562 0219 9A       	 .byte 0x9a
 1563 021a 07       	 .byte 0x7
 1564 021b CE0C0000 	 .4byte .LASF20
 1565 021f 45090000 	 .4byte 0x945
 1566 0223 01       	 .byte 0x1
 1567 0224 28020000 	 .4byte 0x228
 1568 0228 09       	 .uleb128 0x9
 1569 0229 26090000 	 .4byte 0x926
 1570 022d 00       	 .byte 0
 1571 022e 00       	 .byte 0
 1572 022f 11       	 .uleb128 0x11
 1573 0230 4E000000 	 .4byte 0x4e
 1574 0234 12       	 .uleb128 0x12
 1575 0235 04       	 .byte 0x4
 1576 0236 4A       	 .byte 0x4a
 1577 0237 10       	 .byte 0x10
 1578 0238 45020000 	 .4byte 0x245
 1579 023c 00       	 .byte 0
 1580 023d 12       	 .uleb128 0x12
 1581 023e 04       	 .byte 0x4
 1582 023f 3A       	 .byte 0x3a
 1583 0240 1A       	 .byte 0x1a
 1584 0241 4E000000 	 .4byte 0x4e
 1585 0245 13       	 .uleb128 0x13
 1586 0246 83100000 	 .4byte .LASF21
 1587 024a 04       	 .byte 0x4
 1588 024b 46       	 .byte 0x46
 1589 024c 08       	 .byte 0x8
 1590 024d 29070000 	 .4byte .LASF22
 1591 0251 5B020000 	 .4byte 0x25b
 1592 0255 0A       	 .uleb128 0xa
 1593 0256 4E000000 	 .4byte 0x4e
 1594 025a 00       	 .byte 0
 1595 025b 14       	 .uleb128 0x14
 1596 025c 57030000 	 .4byte .LASF36
 1597 0260 0E       	 .byte 0xe
 1598 0261 0C01     	 .2byte 0x10c
 1599 0263 1D       	 .byte 0x1d
 1600 0264 19090000 	 .4byte 0x919
 1601 0268 15       	 .uleb128 0x15
 1602 0269 7B150000 	 .4byte .LASF435
 1603 026d 11       	 .uleb128 0x11
 1604 026e 68020000 	 .4byte 0x268
 1605 0272 16       	 .uleb128 0x16
 1606 0273 B5020000 	 .4byte .LASF29
ARM GAS   			page 42


 1607 0277 07       	 .byte 0x7
 1608 0278 680A     	 .2byte 0xa68
 1609 027a 0D       	 .byte 0xd
 1610 027b 17       	 .uleb128 0x17
 1611 027c E20D0000 	 .4byte .LASF23
 1612 0280 01       	 .byte 0x1
 1613 0281 05       	 .byte 0x5
 1614 0282 7F       	 .byte 0x7f
 1615 0283 0C       	 .byte 0xc
 1616 0284 A7020000 	 .4byte 0x2a7
 1617 0288 18       	 .uleb128 0x18
 1618 0289 07       	 .byte 0x7
 1619 028a 01       	 .byte 0x1
 1620 028b 4B090000 	 .4byte 0x94b
 1621 028f 05       	 .byte 0x5
 1622 0290 81       	 .byte 0x81
 1623 0291 0C       	 .byte 0xc
 1624 0292 9D020000 	 .4byte 0x29d
 1625 0296 19       	 .uleb128 0x19
 1626 0297 EE090000 	 .4byte .LASF25
 1627 029b 00       	 .byte 0
 1628 029c 00       	 .byte 0
 1629 029d 1A       	 .uleb128 0x1a
 1630 029e 5F547000 	 .ascii "_Tp\000"
 1631 02a2 12090000 	 .4byte 0x912
 1632 02a6 00       	 .byte 0
 1633 02a7 17       	 .uleb128 0x17
 1634 02a8 430A0000 	 .4byte .LASF24
 1635 02ac 01       	 .byte 0x1
 1636 02ad 05       	 .byte 0x5
 1637 02ae 7F       	 .byte 0x7f
 1638 02af 0C       	 .byte 0xc
 1639 02b0 D3020000 	 .4byte 0x2d3
 1640 02b4 18       	 .uleb128 0x18
 1641 02b5 07       	 .byte 0x7
 1642 02b6 01       	 .byte 0x1
 1643 02b7 4B090000 	 .4byte 0x94b
 1644 02bb 05       	 .byte 0x5
 1645 02bc 81       	 .byte 0x81
 1646 02bd 0C       	 .byte 0xc
 1647 02be C9020000 	 .4byte 0x2c9
 1648 02c2 19       	 .uleb128 0x19
 1649 02c3 EE090000 	 .4byte .LASF25
 1650 02c7 00       	 .byte 0
 1651 02c8 00       	 .byte 0
 1652 02c9 1A       	 .uleb128 0x1a
 1653 02ca 5F547000 	 .ascii "_Tp\000"
 1654 02ce 96090000 	 .4byte 0x996
 1655 02d2 00       	 .byte 0
 1656 02d3 17       	 .uleb128 0x17
 1657 02d4 E0060000 	 .4byte .LASF26
 1658 02d8 01       	 .byte 0x1
 1659 02d9 05       	 .byte 0x5
 1660 02da 7F       	 .byte 0x7f
 1661 02db 0C       	 .byte 0xc
 1662 02dc FF020000 	 .4byte 0x2ff
 1663 02e0 18       	 .uleb128 0x18
ARM GAS   			page 43


 1664 02e1 07       	 .byte 0x7
 1665 02e2 01       	 .byte 0x1
 1666 02e3 4B090000 	 .4byte 0x94b
 1667 02e7 05       	 .byte 0x5
 1668 02e8 81       	 .byte 0x81
 1669 02e9 0C       	 .byte 0xc
 1670 02ea F5020000 	 .4byte 0x2f5
 1671 02ee 19       	 .uleb128 0x19
 1672 02ef EE090000 	 .4byte .LASF25
 1673 02f3 00       	 .byte 0
 1674 02f4 00       	 .byte 0
 1675 02f5 1A       	 .uleb128 0x1a
 1676 02f6 5F547000 	 .ascii "_Tp\000"
 1677 02fa 9D090000 	 .4byte 0x99d
 1678 02fe 00       	 .byte 0
 1679 02ff 17       	 .uleb128 0x17
 1680 0300 100A0000 	 .4byte .LASF27
 1681 0304 01       	 .byte 0x1
 1682 0305 06       	 .byte 0x6
 1683 0306 50       	 .byte 0x50
 1684 0307 0A       	 .byte 0xa
 1685 0308 28030000 	 .4byte 0x328
 1686 030c 1B       	 .uleb128 0x1b
 1687 030d 100A0000 	 .4byte .LASF27
 1688 0311 06       	 .byte 0x6
 1689 0312 50       	 .byte 0x50
 1690 0313 2B       	 .byte 0x2b
 1691 0314 D0000000 	 .4byte .LASF28
 1692 0318 A4090000 	 .4byte 0x9a4
 1693 031c 01       	 .byte 0x1
 1694 031d 21030000 	 .4byte 0x321
 1695 0321 09       	 .uleb128 0x9
 1696 0322 A4090000 	 .4byte 0x9a4
 1697 0326 00       	 .byte 0
 1698 0327 00       	 .byte 0
 1699 0328 11       	 .uleb128 0x11
 1700 0329 FF020000 	 .4byte 0x2ff
 1701 032d 1C       	 .uleb128 0x1c
 1702 032e 520E0000 	 .4byte .LASF436
 1703 0332 06       	 .byte 0x6
 1704 0333 53       	 .byte 0x53
 1705 0334 35       	 .byte 0x35
 1706 0335 28030000 	 .4byte 0x328
 1707 0339 01       	 .byte 0x1
 1708 033a 00       	 .byte 0
 1709 033b 1D       	 .uleb128 0x1d
 1710 033c 1C000000 	 .4byte .LASF30
 1711 0340 08       	 .byte 0x8
 1712 0341 32       	 .byte 0x32
 1713 0342 0D       	 .byte 0xd
 1714 0343 12       	 .uleb128 0x12
 1715 0344 09       	 .byte 0x9
 1716 0345 40       	 .byte 0x40
 1717 0346 0B       	 .byte 0xb
 1718 0347 5C130000 	 .4byte 0x135c
 1719 034b 12       	 .uleb128 0x12
 1720 034c 09       	 .byte 0x9
ARM GAS   			page 44


 1721 034d 8D       	 .byte 0x8d
 1722 034e 0B       	 .byte 0xb
 1723 034f C4090000 	 .4byte 0x9c4
 1724 0353 12       	 .uleb128 0x12
 1725 0354 09       	 .byte 0x9
 1726 0355 8F       	 .byte 0x8f
 1727 0356 0B       	 .byte 0xb
 1728 0357 6D130000 	 .4byte 0x136d
 1729 035b 12       	 .uleb128 0x12
 1730 035c 09       	 .byte 0x9
 1731 035d 90       	 .byte 0x90
 1732 035e 0B       	 .byte 0xb
 1733 035f 83130000 	 .4byte 0x1383
 1734 0363 12       	 .uleb128 0x12
 1735 0364 09       	 .byte 0x9
 1736 0365 91       	 .byte 0x91
 1737 0366 0B       	 .byte 0xb
 1738 0367 99130000 	 .4byte 0x1399
 1739 036b 12       	 .uleb128 0x12
 1740 036c 09       	 .byte 0x9
 1741 036d 92       	 .byte 0x92
 1742 036e 0B       	 .byte 0xb
 1743 036f BF130000 	 .4byte 0x13bf
 1744 0373 12       	 .uleb128 0x12
 1745 0374 09       	 .byte 0x9
 1746 0375 93       	 .byte 0x93
 1747 0376 0B       	 .byte 0xb
 1748 0377 DA130000 	 .4byte 0x13da
 1749 037b 12       	 .uleb128 0x12
 1750 037c 09       	 .byte 0x9
 1751 037d 94       	 .byte 0x94
 1752 037e 0B       	 .byte 0xb
 1753 037f FB130000 	 .4byte 0x13fb
 1754 0383 12       	 .uleb128 0x12
 1755 0384 09       	 .byte 0x9
 1756 0385 95       	 .byte 0x95
 1757 0386 0B       	 .byte 0xb
 1758 0387 16140000 	 .4byte 0x1416
 1759 038b 12       	 .uleb128 0x12
 1760 038c 09       	 .byte 0x9
 1761 038d 96       	 .byte 0x96
 1762 038e 0B       	 .byte 0xb
 1763 038f 33140000 	 .4byte 0x1433
 1764 0393 12       	 .uleb128 0x12
 1765 0394 09       	 .byte 0x9
 1766 0395 97       	 .byte 0x97
 1767 0396 0B       	 .byte 0xb
 1768 0397 50140000 	 .4byte 0x1450
 1769 039b 12       	 .uleb128 0x12
 1770 039c 09       	 .byte 0x9
 1771 039d 98       	 .byte 0x98
 1772 039e 0B       	 .byte 0xb
 1773 039f 66140000 	 .4byte 0x1466
 1774 03a3 12       	 .uleb128 0x12
 1775 03a4 09       	 .byte 0x9
 1776 03a5 99       	 .byte 0x99
 1777 03a6 0B       	 .byte 0xb
ARM GAS   			page 45


 1778 03a7 72140000 	 .4byte 0x1472
 1779 03ab 12       	 .uleb128 0x12
 1780 03ac 09       	 .byte 0x9
 1781 03ad 9A       	 .byte 0x9a
 1782 03ae 0B       	 .byte 0xb
 1783 03af 98140000 	 .4byte 0x1498
 1784 03b3 12       	 .uleb128 0x12
 1785 03b4 09       	 .byte 0x9
 1786 03b5 9B       	 .byte 0x9b
 1787 03b6 0B       	 .byte 0xb
 1788 03b7 BD140000 	 .4byte 0x14bd
 1789 03bb 12       	 .uleb128 0x12
 1790 03bc 09       	 .byte 0x9
 1791 03bd 9C       	 .byte 0x9c
 1792 03be 0B       	 .byte 0xb
 1793 03bf D9140000 	 .4byte 0x14d9
 1794 03c3 12       	 .uleb128 0x12
 1795 03c4 09       	 .byte 0x9
 1796 03c5 9D       	 .byte 0x9d
 1797 03c6 0B       	 .byte 0xb
 1798 03c7 04150000 	 .4byte 0x1504
 1799 03cb 12       	 .uleb128 0x12
 1800 03cc 09       	 .byte 0x9
 1801 03cd 9E       	 .byte 0x9e
 1802 03ce 0B       	 .byte 0xb
 1803 03cf 1F150000 	 .4byte 0x151f
 1804 03d3 12       	 .uleb128 0x12
 1805 03d4 09       	 .byte 0x9
 1806 03d5 A0       	 .byte 0xa0
 1807 03d6 0B       	 .byte 0xb
 1808 03d7 35150000 	 .4byte 0x1535
 1809 03db 12       	 .uleb128 0x12
 1810 03dc 09       	 .byte 0x9
 1811 03dd A2       	 .byte 0xa2
 1812 03de 0B       	 .byte 0xb
 1813 03df 57150000 	 .4byte 0x1557
 1814 03e3 12       	 .uleb128 0x12
 1815 03e4 09       	 .byte 0x9
 1816 03e5 A3       	 .byte 0xa3
 1817 03e6 0B       	 .byte 0xb
 1818 03e7 74150000 	 .4byte 0x1574
 1819 03eb 12       	 .uleb128 0x12
 1820 03ec 09       	 .byte 0x9
 1821 03ed A4       	 .byte 0xa4
 1822 03ee 0B       	 .byte 0xb
 1823 03ef 8F150000 	 .4byte 0x158f
 1824 03f3 12       	 .uleb128 0x12
 1825 03f4 09       	 .byte 0x9
 1826 03f5 A6       	 .byte 0xa6
 1827 03f6 0B       	 .byte 0xb
 1828 03f7 B0150000 	 .4byte 0x15b0
 1829 03fb 12       	 .uleb128 0x12
 1830 03fc 09       	 .byte 0x9
 1831 03fd A9       	 .byte 0xa9
 1832 03fe 0B       	 .byte 0xb
 1833 03ff D1150000 	 .4byte 0x15d1
 1834 0403 12       	 .uleb128 0x12
ARM GAS   			page 46


 1835 0404 09       	 .byte 0x9
 1836 0405 AC       	 .byte 0xac
 1837 0406 0B       	 .byte 0xb
 1838 0407 F7150000 	 .4byte 0x15f7
 1839 040b 12       	 .uleb128 0x12
 1840 040c 09       	 .byte 0x9
 1841 040d AE       	 .byte 0xae
 1842 040e 0B       	 .byte 0xb
 1843 040f 18160000 	 .4byte 0x1618
 1844 0413 12       	 .uleb128 0x12
 1845 0414 09       	 .byte 0x9
 1846 0415 B0       	 .byte 0xb0
 1847 0416 0B       	 .byte 0xb
 1848 0417 34160000 	 .4byte 0x1634
 1849 041b 12       	 .uleb128 0x12
 1850 041c 09       	 .byte 0x9
 1851 041d B2       	 .byte 0xb2
 1852 041e 0B       	 .byte 0xb
 1853 041f 50160000 	 .4byte 0x1650
 1854 0423 12       	 .uleb128 0x12
 1855 0424 09       	 .byte 0x9
 1856 0425 B3       	 .byte 0xb3
 1857 0426 0B       	 .byte 0xb
 1858 0427 70160000 	 .4byte 0x1670
 1859 042b 12       	 .uleb128 0x12
 1860 042c 09       	 .byte 0x9
 1861 042d B4       	 .byte 0xb4
 1862 042e 0B       	 .byte 0xb
 1863 042f 8B160000 	 .4byte 0x168b
 1864 0433 12       	 .uleb128 0x12
 1865 0434 09       	 .byte 0x9
 1866 0435 B5       	 .byte 0xb5
 1867 0436 0B       	 .byte 0xb
 1868 0437 A6160000 	 .4byte 0x16a6
 1869 043b 12       	 .uleb128 0x12
 1870 043c 09       	 .byte 0x9
 1871 043d B6       	 .byte 0xb6
 1872 043e 0B       	 .byte 0xb
 1873 043f C1160000 	 .4byte 0x16c1
 1874 0443 12       	 .uleb128 0x12
 1875 0444 09       	 .byte 0x9
 1876 0445 B7       	 .byte 0xb7
 1877 0446 0B       	 .byte 0xb
 1878 0447 DC160000 	 .4byte 0x16dc
 1879 044b 12       	 .uleb128 0x12
 1880 044c 09       	 .byte 0x9
 1881 044d B8       	 .byte 0xb8
 1882 044e 0B       	 .byte 0xb
 1883 044f F7160000 	 .4byte 0x16f7
 1884 0453 12       	 .uleb128 0x12
 1885 0454 09       	 .byte 0x9
 1886 0455 B9       	 .byte 0xb9
 1887 0456 0B       	 .byte 0xb
 1888 0457 2B170000 	 .4byte 0x172b
 1889 045b 12       	 .uleb128 0x12
 1890 045c 09       	 .byte 0x9
 1891 045d BA       	 .byte 0xba
ARM GAS   			page 47


 1892 045e 0B       	 .byte 0xb
 1893 045f 41170000 	 .4byte 0x1741
 1894 0463 12       	 .uleb128 0x12
 1895 0464 09       	 .byte 0x9
 1896 0465 BB       	 .byte 0xbb
 1897 0466 0B       	 .byte 0xb
 1898 0467 61170000 	 .4byte 0x1761
 1899 046b 12       	 .uleb128 0x12
 1900 046c 09       	 .byte 0x9
 1901 046d BC       	 .byte 0xbc
 1902 046e 0B       	 .byte 0xb
 1903 046f 81170000 	 .4byte 0x1781
 1904 0473 12       	 .uleb128 0x12
 1905 0474 09       	 .byte 0x9
 1906 0475 BD       	 .byte 0xbd
 1907 0476 0B       	 .byte 0xb
 1908 0477 A1170000 	 .4byte 0x17a1
 1909 047b 12       	 .uleb128 0x12
 1910 047c 09       	 .byte 0x9
 1911 047d BE       	 .byte 0xbe
 1912 047e 0B       	 .byte 0xb
 1913 047f CC170000 	 .4byte 0x17cc
 1914 0483 12       	 .uleb128 0x12
 1915 0484 09       	 .byte 0x9
 1916 0485 BF       	 .byte 0xbf
 1917 0486 0B       	 .byte 0xb
 1918 0487 E7170000 	 .4byte 0x17e7
 1919 048b 12       	 .uleb128 0x12
 1920 048c 09       	 .byte 0x9
 1921 048d C1       	 .byte 0xc1
 1922 048e 0B       	 .byte 0xb
 1923 048f 08180000 	 .4byte 0x1808
 1924 0493 12       	 .uleb128 0x12
 1925 0494 09       	 .byte 0x9
 1926 0495 C3       	 .byte 0xc3
 1927 0496 0B       	 .byte 0xb
 1928 0497 23180000 	 .4byte 0x1823
 1929 049b 12       	 .uleb128 0x12
 1930 049c 09       	 .byte 0x9
 1931 049d C4       	 .byte 0xc4
 1932 049e 0B       	 .byte 0xb
 1933 049f 43180000 	 .4byte 0x1843
 1934 04a3 12       	 .uleb128 0x12
 1935 04a4 09       	 .byte 0x9
 1936 04a5 C5       	 .byte 0xc5
 1937 04a6 0B       	 .byte 0xb
 1938 04a7 63180000 	 .4byte 0x1863
 1939 04ab 12       	 .uleb128 0x12
 1940 04ac 09       	 .byte 0x9
 1941 04ad C6       	 .byte 0xc6
 1942 04ae 0B       	 .byte 0xb
 1943 04af 83180000 	 .4byte 0x1883
 1944 04b3 12       	 .uleb128 0x12
 1945 04b4 09       	 .byte 0x9
 1946 04b5 C7       	 .byte 0xc7
 1947 04b6 0B       	 .byte 0xb
 1948 04b7 A3180000 	 .4byte 0x18a3
ARM GAS   			page 48


 1949 04bb 12       	 .uleb128 0x12
 1950 04bc 09       	 .byte 0x9
 1951 04bd C8       	 .byte 0xc8
 1952 04be 0B       	 .byte 0xb
 1953 04bf B9180000 	 .4byte 0x18b9
 1954 04c3 12       	 .uleb128 0x12
 1955 04c4 09       	 .byte 0x9
 1956 04c5 C9       	 .byte 0xc9
 1957 04c6 0B       	 .byte 0xb
 1958 04c7 D9180000 	 .4byte 0x18d9
 1959 04cb 12       	 .uleb128 0x12
 1960 04cc 09       	 .byte 0x9
 1961 04cd CA       	 .byte 0xca
 1962 04ce 0B       	 .byte 0xb
 1963 04cf F9180000 	 .4byte 0x18f9
 1964 04d3 12       	 .uleb128 0x12
 1965 04d4 09       	 .byte 0x9
 1966 04d5 CB       	 .byte 0xcb
 1967 04d6 0B       	 .byte 0xb
 1968 04d7 19190000 	 .4byte 0x1919
 1969 04db 12       	 .uleb128 0x12
 1970 04dc 09       	 .byte 0x9
 1971 04dd CC       	 .byte 0xcc
 1972 04de 0B       	 .byte 0xb
 1973 04df 39190000 	 .4byte 0x1939
 1974 04e3 12       	 .uleb128 0x12
 1975 04e4 09       	 .byte 0x9
 1976 04e5 CD       	 .byte 0xcd
 1977 04e6 0B       	 .byte 0xb
 1978 04e7 51190000 	 .4byte 0x1951
 1979 04eb 12       	 .uleb128 0x12
 1980 04ec 09       	 .byte 0x9
 1981 04ed CE       	 .byte 0xce
 1982 04ee 0B       	 .byte 0xb
 1983 04ef 69190000 	 .4byte 0x1969
 1984 04f3 12       	 .uleb128 0x12
 1985 04f4 09       	 .byte 0x9
 1986 04f5 CF       	 .byte 0xcf
 1987 04f6 0B       	 .byte 0xb
 1988 04f7 84190000 	 .4byte 0x1984
 1989 04fb 12       	 .uleb128 0x12
 1990 04fc 09       	 .byte 0x9
 1991 04fd D0       	 .byte 0xd0
 1992 04fe 0B       	 .byte 0xb
 1993 04ff 9F190000 	 .4byte 0x199f
 1994 0503 12       	 .uleb128 0x12
 1995 0504 09       	 .byte 0x9
 1996 0505 D1       	 .byte 0xd1
 1997 0506 0B       	 .byte 0xb
 1998 0507 BA190000 	 .4byte 0x19ba
 1999 050b 12       	 .uleb128 0x12
 2000 050c 09       	 .byte 0x9
 2001 050d D2       	 .byte 0xd2
 2002 050e 0B       	 .byte 0xb
 2003 050f D5190000 	 .4byte 0x19d5
 2004 0513 1E       	 .uleb128 0x1e
 2005 0514 09       	 .byte 0x9
ARM GAS   			page 49


 2006 0515 0B01     	 .2byte 0x10b
 2007 0517 16       	 .byte 0x16
 2008 0518 F5190000 	 .4byte 0x19f5
 2009 051c 1E       	 .uleb128 0x1e
 2010 051d 09       	 .byte 0x9
 2011 051e 0C01     	 .2byte 0x10c
 2012 0520 16       	 .byte 0x16
 2013 0521 101A0000 	 .4byte 0x1a10
 2014 0525 1E       	 .uleb128 0x1e
 2015 0526 09       	 .byte 0x9
 2016 0527 0D01     	 .2byte 0x10d
 2017 0529 16       	 .byte 0x16
 2018 052a 301A0000 	 .4byte 0x1a30
 2019 052e 1E       	 .uleb128 0x1e
 2020 052f 09       	 .byte 0x9
 2021 0530 1B01     	 .2byte 0x11b
 2022 0532 0E       	 .byte 0xe
 2023 0533 08180000 	 .4byte 0x1808
 2024 0537 1E       	 .uleb128 0x1e
 2025 0538 09       	 .byte 0x9
 2026 0539 1E01     	 .2byte 0x11e
 2027 053b 0E       	 .byte 0xe
 2028 053c B0150000 	 .4byte 0x15b0
 2029 0540 1E       	 .uleb128 0x1e
 2030 0541 09       	 .byte 0x9
 2031 0542 2101     	 .2byte 0x121
 2032 0544 0E       	 .byte 0xe
 2033 0545 F7150000 	 .4byte 0x15f7
 2034 0549 1E       	 .uleb128 0x1e
 2035 054a 09       	 .byte 0x9
 2036 054b 2401     	 .2byte 0x124
 2037 054d 0E       	 .byte 0xe
 2038 054e 34160000 	 .4byte 0x1634
 2039 0552 1E       	 .uleb128 0x1e
 2040 0553 09       	 .byte 0x9
 2041 0554 2801     	 .2byte 0x128
 2042 0556 0E       	 .byte 0xe
 2043 0557 F5190000 	 .4byte 0x19f5
 2044 055b 1E       	 .uleb128 0x1e
 2045 055c 09       	 .byte 0x9
 2046 055d 2901     	 .2byte 0x129
 2047 055f 0E       	 .byte 0xe
 2048 0560 101A0000 	 .4byte 0x1a10
 2049 0564 1E       	 .uleb128 0x1e
 2050 0565 09       	 .byte 0x9
 2051 0566 2A01     	 .2byte 0x12a
 2052 0568 0E       	 .byte 0xe
 2053 0569 301A0000 	 .4byte 0x1a30
 2054 056d 12       	 .uleb128 0x12
 2055 056e 0A       	 .byte 0xa
 2056 056f 2F       	 .byte 0x2f
 2057 0570 0B       	 .byte 0xb
 2058 0571 501A0000 	 .4byte 0x1a50
 2059 0575 12       	 .uleb128 0x12
 2060 0576 0A       	 .byte 0xa
 2061 0577 30       	 .byte 0x30
 2062 0578 0B       	 .byte 0xb
ARM GAS   			page 50


 2063 0579 681A0000 	 .4byte 0x1a68
 2064 057d 12       	 .uleb128 0x12
 2065 057e 0A       	 .byte 0xa
 2066 057f 31       	 .byte 0x31
 2067 0580 0B       	 .byte 0xb
 2068 0581 801A0000 	 .4byte 0x1a80
 2069 0585 12       	 .uleb128 0x12
 2070 0586 0A       	 .byte 0xa
 2071 0587 32       	 .byte 0x32
 2072 0588 0B       	 .byte 0xb
 2073 0589 981A0000 	 .4byte 0x1a98
 2074 058d 12       	 .uleb128 0x12
 2075 058e 0A       	 .byte 0xa
 2076 058f 34       	 .byte 0x34
 2077 0590 0B       	 .byte 0xb
 2078 0591 401B0000 	 .4byte 0x1b40
 2079 0595 12       	 .uleb128 0x12
 2080 0596 0A       	 .byte 0xa
 2081 0597 35       	 .byte 0x35
 2082 0598 0B       	 .byte 0xb
 2083 0599 581B0000 	 .4byte 0x1b58
 2084 059d 12       	 .uleb128 0x12
 2085 059e 0A       	 .byte 0xa
 2086 059f 36       	 .byte 0x36
 2087 05a0 0B       	 .byte 0xb
 2088 05a1 701B0000 	 .4byte 0x1b70
 2089 05a5 12       	 .uleb128 0x12
 2090 05a6 0A       	 .byte 0xa
 2091 05a7 37       	 .byte 0x37
 2092 05a8 0B       	 .byte 0xb
 2093 05a9 881B0000 	 .4byte 0x1b88
 2094 05ad 12       	 .uleb128 0x12
 2095 05ae 0A       	 .byte 0xa
 2096 05af 39       	 .byte 0x39
 2097 05b0 0B       	 .byte 0xb
 2098 05b1 E01A0000 	 .4byte 0x1ae0
 2099 05b5 12       	 .uleb128 0x12
 2100 05b6 0A       	 .byte 0xa
 2101 05b7 3A       	 .byte 0x3a
 2102 05b8 0B       	 .byte 0xb
 2103 05b9 F81A0000 	 .4byte 0x1af8
 2104 05bd 12       	 .uleb128 0x12
 2105 05be 0A       	 .byte 0xa
 2106 05bf 3B       	 .byte 0x3b
 2107 05c0 0B       	 .byte 0xb
 2108 05c1 101B0000 	 .4byte 0x1b10
 2109 05c5 12       	 .uleb128 0x12
 2110 05c6 0A       	 .byte 0xa
 2111 05c7 3C       	 .byte 0x3c
 2112 05c8 0B       	 .byte 0xb
 2113 05c9 281B0000 	 .4byte 0x1b28
 2114 05cd 12       	 .uleb128 0x12
 2115 05ce 0A       	 .byte 0xa
 2116 05cf 3E       	 .byte 0x3e
 2117 05d0 0B       	 .byte 0xb
 2118 05d1 B01A0000 	 .4byte 0x1ab0
 2119 05d5 12       	 .uleb128 0x12
ARM GAS   			page 51


 2120 05d6 0A       	 .byte 0xa
 2121 05d7 3F       	 .byte 0x3f
 2122 05d8 0B       	 .byte 0xb
 2123 05d9 C81A0000 	 .4byte 0x1ac8
 2124 05dd 12       	 .uleb128 0x12
 2125 05de 0A       	 .byte 0xa
 2126 05df 41       	 .byte 0x41
 2127 05e0 0B       	 .byte 0xb
 2128 05e1 5C1A0000 	 .4byte 0x1a5c
 2129 05e5 12       	 .uleb128 0x12
 2130 05e6 0A       	 .byte 0xa
 2131 05e7 42       	 .byte 0x42
 2132 05e8 0B       	 .byte 0xb
 2133 05e9 741A0000 	 .4byte 0x1a74
 2134 05ed 12       	 .uleb128 0x12
 2135 05ee 0A       	 .byte 0xa
 2136 05ef 43       	 .byte 0x43
 2137 05f0 0B       	 .byte 0xb
 2138 05f1 8C1A0000 	 .4byte 0x1a8c
 2139 05f5 12       	 .uleb128 0x12
 2140 05f6 0A       	 .byte 0xa
 2141 05f7 44       	 .byte 0x44
 2142 05f8 0B       	 .byte 0xb
 2143 05f9 A41A0000 	 .4byte 0x1aa4
 2144 05fd 12       	 .uleb128 0x12
 2145 05fe 0A       	 .byte 0xa
 2146 05ff 46       	 .byte 0x46
 2147 0600 0B       	 .byte 0xb
 2148 0601 4C1B0000 	 .4byte 0x1b4c
 2149 0605 12       	 .uleb128 0x12
 2150 0606 0A       	 .byte 0xa
 2151 0607 47       	 .byte 0x47
 2152 0608 0B       	 .byte 0xb
 2153 0609 641B0000 	 .4byte 0x1b64
 2154 060d 12       	 .uleb128 0x12
 2155 060e 0A       	 .byte 0xa
 2156 060f 48       	 .byte 0x48
 2157 0610 0B       	 .byte 0xb
 2158 0611 7C1B0000 	 .4byte 0x1b7c
 2159 0615 12       	 .uleb128 0x12
 2160 0616 0A       	 .byte 0xa
 2161 0617 49       	 .byte 0x49
 2162 0618 0B       	 .byte 0xb
 2163 0619 941B0000 	 .4byte 0x1b94
 2164 061d 12       	 .uleb128 0x12
 2165 061e 0A       	 .byte 0xa
 2166 061f 4B       	 .byte 0x4b
 2167 0620 0B       	 .byte 0xb
 2168 0621 EC1A0000 	 .4byte 0x1aec
 2169 0625 12       	 .uleb128 0x12
 2170 0626 0A       	 .byte 0xa
 2171 0627 4C       	 .byte 0x4c
 2172 0628 0B       	 .byte 0xb
 2173 0629 041B0000 	 .4byte 0x1b04
 2174 062d 12       	 .uleb128 0x12
 2175 062e 0A       	 .byte 0xa
 2176 062f 4D       	 .byte 0x4d
ARM GAS   			page 52


 2177 0630 0B       	 .byte 0xb
 2178 0631 1C1B0000 	 .4byte 0x1b1c
 2179 0635 12       	 .uleb128 0x12
 2180 0636 0A       	 .byte 0xa
 2181 0637 4E       	 .byte 0x4e
 2182 0638 0B       	 .byte 0xb
 2183 0639 341B0000 	 .4byte 0x1b34
 2184 063d 12       	 .uleb128 0x12
 2185 063e 0A       	 .byte 0xa
 2186 063f 50       	 .byte 0x50
 2187 0640 0B       	 .byte 0xb
 2188 0641 BC1A0000 	 .4byte 0x1abc
 2189 0645 12       	 .uleb128 0x12
 2190 0646 0A       	 .byte 0xa
 2191 0647 51       	 .byte 0x51
 2192 0648 0B       	 .byte 0xb
 2193 0649 D41A0000 	 .4byte 0x1ad4
 2194 064d 12       	 .uleb128 0x12
 2195 064e 0B       	 .byte 0xb
 2196 064f 35       	 .byte 0x35
 2197 0650 0B       	 .byte 0xb
 2198 0651 A71B0000 	 .4byte 0x1ba7
 2199 0655 12       	 .uleb128 0x12
 2200 0656 0B       	 .byte 0xb
 2201 0657 36       	 .byte 0x36
 2202 0658 0B       	 .byte 0xb
 2203 0659 ED1C0000 	 .4byte 0x1ced
 2204 065d 12       	 .uleb128 0x12
 2205 065e 0B       	 .byte 0xb
 2206 065f 37       	 .byte 0x37
 2207 0660 0B       	 .byte 0xb
 2208 0661 081D0000 	 .4byte 0x1d08
 2209 0665 12       	 .uleb128 0x12
 2210 0666 0C       	 .byte 0xc
 2211 0667 7F       	 .byte 0x7f
 2212 0668 0B       	 .byte 0xb
 2213 0669 4E1D0000 	 .4byte 0x1d4e
 2214 066d 12       	 .uleb128 0x12
 2215 066e 0C       	 .byte 0xc
 2216 066f 80       	 .byte 0x80
 2217 0670 0B       	 .byte 0xb
 2218 0671 821D0000 	 .4byte 0x1d82
 2219 0675 12       	 .uleb128 0x12
 2220 0676 0C       	 .byte 0xc
 2221 0677 86       	 .byte 0x86
 2222 0678 0B       	 .byte 0xb
 2223 0679 E81D0000 	 .4byte 0x1de8
 2224 067d 12       	 .uleb128 0x12
 2225 067e 0C       	 .byte 0xc
 2226 067f 8C       	 .byte 0x8c
 2227 0680 0B       	 .byte 0xb
 2228 0681 FE1D0000 	 .4byte 0x1dfe
 2229 0685 12       	 .uleb128 0x12
 2230 0686 0C       	 .byte 0xc
 2231 0687 8D       	 .byte 0x8d
 2232 0688 0B       	 .byte 0xb
 2233 0689 141E0000 	 .4byte 0x1e14
ARM GAS   			page 53


 2234 068d 12       	 .uleb128 0x12
 2235 068e 0C       	 .byte 0xc
 2236 068f 8E       	 .byte 0x8e
 2237 0690 0B       	 .byte 0xb
 2238 0691 2A1E0000 	 .4byte 0x1e2a
 2239 0695 12       	 .uleb128 0x12
 2240 0696 0C       	 .byte 0xc
 2241 0697 8F       	 .byte 0x8f
 2242 0698 0B       	 .byte 0xb
 2243 0699 401E0000 	 .4byte 0x1e40
 2244 069d 12       	 .uleb128 0x12
 2245 069e 0C       	 .byte 0xc
 2246 069f 91       	 .byte 0x91
 2247 06a0 0B       	 .byte 0xb
 2248 06a1 6A1E0000 	 .4byte 0x1e6a
 2249 06a5 12       	 .uleb128 0x12
 2250 06a6 0C       	 .byte 0xc
 2251 06a7 94       	 .byte 0x94
 2252 06a8 0B       	 .byte 0xb
 2253 06a9 851E0000 	 .4byte 0x1e85
 2254 06ad 12       	 .uleb128 0x12
 2255 06ae 0C       	 .byte 0xc
 2256 06af 96       	 .byte 0x96
 2257 06b0 0B       	 .byte 0xb
 2258 06b1 9B1E0000 	 .4byte 0x1e9b
 2259 06b5 12       	 .uleb128 0x12
 2260 06b6 0C       	 .byte 0xc
 2261 06b7 99       	 .byte 0x99
 2262 06b8 0B       	 .byte 0xb
 2263 06b9 B61E0000 	 .4byte 0x1eb6
 2264 06bd 12       	 .uleb128 0x12
 2265 06be 0C       	 .byte 0xc
 2266 06bf 9A       	 .byte 0x9a
 2267 06c0 0B       	 .byte 0xb
 2268 06c1 D11E0000 	 .4byte 0x1ed1
 2269 06c5 12       	 .uleb128 0x12
 2270 06c6 0C       	 .byte 0xc
 2271 06c7 9B       	 .byte 0x9b
 2272 06c8 0B       	 .byte 0xb
 2273 06c9 F11E0000 	 .4byte 0x1ef1
 2274 06cd 12       	 .uleb128 0x12
 2275 06ce 0C       	 .byte 0xc
 2276 06cf 9D       	 .byte 0x9d
 2277 06d0 0B       	 .byte 0xb
 2278 06d1 111F0000 	 .4byte 0x1f11
 2279 06d5 12       	 .uleb128 0x12
 2280 06d6 0C       	 .byte 0xc
 2281 06d7 A3       	 .byte 0xa3
 2282 06d8 0B       	 .byte 0xb
 2283 06d9 321F0000 	 .4byte 0x1f32
 2284 06dd 12       	 .uleb128 0x12
 2285 06de 0C       	 .byte 0xc
 2286 06df A5       	 .byte 0xa5
 2287 06e0 0B       	 .byte 0xb
 2288 06e1 3E1F0000 	 .4byte 0x1f3e
 2289 06e5 12       	 .uleb128 0x12
 2290 06e6 0C       	 .byte 0xc
ARM GAS   			page 54


 2291 06e7 A6       	 .byte 0xa6
 2292 06e8 0B       	 .byte 0xb
 2293 06e9 501F0000 	 .4byte 0x1f50
 2294 06ed 12       	 .uleb128 0x12
 2295 06ee 0C       	 .byte 0xc
 2296 06ef A7       	 .byte 0xa7
 2297 06f0 0B       	 .byte 0xb
 2298 06f1 711F0000 	 .4byte 0x1f71
 2299 06f5 12       	 .uleb128 0x12
 2300 06f6 0C       	 .byte 0xc
 2301 06f7 A8       	 .byte 0xa8
 2302 06f8 0B       	 .byte 0xb
 2303 06f9 911F0000 	 .4byte 0x1f91
 2304 06fd 12       	 .uleb128 0x12
 2305 06fe 0C       	 .byte 0xc
 2306 06ff A9       	 .byte 0xa9
 2307 0700 0B       	 .byte 0xb
 2308 0701 B11F0000 	 .4byte 0x1fb1
 2309 0705 12       	 .uleb128 0x12
 2310 0706 0C       	 .byte 0xc
 2311 0707 AB       	 .byte 0xab
 2312 0708 0B       	 .byte 0xb
 2313 0709 C71F0000 	 .4byte 0x1fc7
 2314 070d 12       	 .uleb128 0x12
 2315 070e 0C       	 .byte 0xc
 2316 070f AC       	 .byte 0xac
 2317 0710 0B       	 .byte 0xb
 2318 0711 E71F0000 	 .4byte 0x1fe7
 2319 0715 12       	 .uleb128 0x12
 2320 0716 0C       	 .byte 0xc
 2321 0717 F0       	 .byte 0xf0
 2322 0718 16       	 .byte 0x16
 2323 0719 B61D0000 	 .4byte 0x1db6
 2324 071d 12       	 .uleb128 0x12
 2325 071e 0C       	 .byte 0xc
 2326 071f F5       	 .byte 0xf5
 2327 0720 16       	 .byte 0x16
 2328 0721 D0080000 	 .4byte 0x8d0
 2329 0725 12       	 .uleb128 0x12
 2330 0726 0C       	 .byte 0xc
 2331 0727 F6       	 .byte 0xf6
 2332 0728 16       	 .byte 0x16
 2333 0729 02200000 	 .4byte 0x2002
 2334 072d 12       	 .uleb128 0x12
 2335 072e 0C       	 .byte 0xc
 2336 072f F8       	 .byte 0xf8
 2337 0730 16       	 .byte 0x16
 2338 0731 1E200000 	 .4byte 0x201e
 2339 0735 12       	 .uleb128 0x12
 2340 0736 0C       	 .byte 0xc
 2341 0737 F9       	 .byte 0xf9
 2342 0738 16       	 .byte 0x16
 2343 0739 77200000 	 .4byte 0x2077
 2344 073d 12       	 .uleb128 0x12
 2345 073e 0C       	 .byte 0xc
 2346 073f FA       	 .byte 0xfa
 2347 0740 16       	 .byte 0x16
ARM GAS   			page 55


 2348 0741 35200000 	 .4byte 0x2035
 2349 0745 12       	 .uleb128 0x12
 2350 0746 0C       	 .byte 0xc
 2351 0747 FB       	 .byte 0xfb
 2352 0748 16       	 .byte 0x16
 2353 0749 56200000 	 .4byte 0x2056
 2354 074d 12       	 .uleb128 0x12
 2355 074e 0C       	 .byte 0xc
 2356 074f FC       	 .byte 0xfc
 2357 0750 16       	 .byte 0x16
 2358 0751 92200000 	 .4byte 0x2092
 2359 0755 12       	 .uleb128 0x12
 2360 0756 0D       	 .byte 0xd
 2361 0757 62       	 .byte 0x62
 2362 0758 0B       	 .byte 0xb
 2363 0759 AE200000 	 .4byte 0x20ae
 2364 075d 12       	 .uleb128 0x12
 2365 075e 0D       	 .byte 0xd
 2366 075f 63       	 .byte 0x63
 2367 0760 0B       	 .byte 0xb
 2368 0761 BA200000 	 .4byte 0x20ba
 2369 0765 12       	 .uleb128 0x12
 2370 0766 0D       	 .byte 0xd
 2371 0767 65       	 .byte 0x65
 2372 0768 0B       	 .byte 0xb
 2373 0769 CB200000 	 .4byte 0x20cb
 2374 076d 12       	 .uleb128 0x12
 2375 076e 0D       	 .byte 0xd
 2376 076f 66       	 .byte 0x66
 2377 0770 0B       	 .byte 0xb
 2378 0771 E3200000 	 .4byte 0x20e3
 2379 0775 12       	 .uleb128 0x12
 2380 0776 0D       	 .byte 0xd
 2381 0777 67       	 .byte 0x67
 2382 0778 0B       	 .byte 0xb
 2383 0779 F9200000 	 .4byte 0x20f9
 2384 077d 12       	 .uleb128 0x12
 2385 077e 0D       	 .byte 0xd
 2386 077f 68       	 .byte 0x68
 2387 0780 0B       	 .byte 0xb
 2388 0781 0F210000 	 .4byte 0x210f
 2389 0785 12       	 .uleb128 0x12
 2390 0786 0D       	 .byte 0xd
 2391 0787 69       	 .byte 0x69
 2392 0788 0B       	 .byte 0xb
 2393 0789 25210000 	 .4byte 0x2125
 2394 078d 12       	 .uleb128 0x12
 2395 078e 0D       	 .byte 0xd
 2396 078f 6A       	 .byte 0x6a
 2397 0790 0B       	 .byte 0xb
 2398 0791 3B210000 	 .4byte 0x213b
 2399 0795 12       	 .uleb128 0x12
 2400 0796 0D       	 .byte 0xd
 2401 0797 6B       	 .byte 0x6b
 2402 0798 0B       	 .byte 0xb
 2403 0799 51210000 	 .4byte 0x2151
 2404 079d 12       	 .uleb128 0x12
ARM GAS   			page 56


 2405 079e 0D       	 .byte 0xd
 2406 079f 6C       	 .byte 0x6c
 2407 07a0 0B       	 .byte 0xb
 2408 07a1 72210000 	 .4byte 0x2172
 2409 07a5 12       	 .uleb128 0x12
 2410 07a6 0D       	 .byte 0xd
 2411 07a7 6D       	 .byte 0x6d
 2412 07a8 0B       	 .byte 0xb
 2413 07a9 92210000 	 .4byte 0x2192
 2414 07ad 12       	 .uleb128 0x12
 2415 07ae 0D       	 .byte 0xd
 2416 07af 71       	 .byte 0x71
 2417 07b0 0B       	 .byte 0xb
 2418 07b1 AD210000 	 .4byte 0x21ad
 2419 07b5 12       	 .uleb128 0x12
 2420 07b6 0D       	 .byte 0xd
 2421 07b7 72       	 .byte 0x72
 2422 07b8 0B       	 .byte 0xb
 2423 07b9 D2210000 	 .4byte 0x21d2
 2424 07bd 12       	 .uleb128 0x12
 2425 07be 0D       	 .byte 0xd
 2426 07bf 74       	 .byte 0x74
 2427 07c0 0B       	 .byte 0xb
 2428 07c1 F2210000 	 .4byte 0x21f2
 2429 07c5 12       	 .uleb128 0x12
 2430 07c6 0D       	 .byte 0xd
 2431 07c7 75       	 .byte 0x75
 2432 07c8 0B       	 .byte 0xb
 2433 07c9 12220000 	 .4byte 0x2212
 2434 07cd 12       	 .uleb128 0x12
 2435 07ce 0D       	 .byte 0xd
 2436 07cf 76       	 .byte 0x76
 2437 07d0 0B       	 .byte 0xb
 2438 07d1 33220000 	 .4byte 0x2233
 2439 07d5 12       	 .uleb128 0x12
 2440 07d6 0D       	 .byte 0xd
 2441 07d7 78       	 .byte 0x78
 2442 07d8 0B       	 .byte 0xb
 2443 07d9 49220000 	 .4byte 0x2249
 2444 07dd 12       	 .uleb128 0x12
 2445 07de 0D       	 .byte 0xd
 2446 07df 79       	 .byte 0x79
 2447 07e0 0B       	 .byte 0xb
 2448 07e1 5F220000 	 .4byte 0x225f
 2449 07e5 12       	 .uleb128 0x12
 2450 07e6 0D       	 .byte 0xd
 2451 07e7 7E       	 .byte 0x7e
 2452 07e8 0B       	 .byte 0xb
 2453 07e9 6B220000 	 .4byte 0x226b
 2454 07ed 12       	 .uleb128 0x12
 2455 07ee 0D       	 .byte 0xd
 2456 07ef 83       	 .byte 0x83
 2457 07f0 0B       	 .byte 0xb
 2458 07f1 7D220000 	 .4byte 0x227d
 2459 07f5 12       	 .uleb128 0x12
 2460 07f6 0D       	 .byte 0xd
 2461 07f7 84       	 .byte 0x84
ARM GAS   			page 57


 2462 07f8 0B       	 .byte 0xb
 2463 07f9 93220000 	 .4byte 0x2293
 2464 07fd 12       	 .uleb128 0x12
 2465 07fe 0D       	 .byte 0xd
 2466 07ff 85       	 .byte 0x85
 2467 0800 0B       	 .byte 0xb
 2468 0801 AE220000 	 .4byte 0x22ae
 2469 0805 12       	 .uleb128 0x12
 2470 0806 0D       	 .byte 0xd
 2471 0807 87       	 .byte 0x87
 2472 0808 0B       	 .byte 0xb
 2473 0809 C0220000 	 .4byte 0x22c0
 2474 080d 12       	 .uleb128 0x12
 2475 080e 0D       	 .byte 0xd
 2476 080f 88       	 .byte 0x88
 2477 0810 0B       	 .byte 0xb
 2478 0811 D7220000 	 .4byte 0x22d7
 2479 0815 12       	 .uleb128 0x12
 2480 0816 0D       	 .byte 0xd
 2481 0817 8B       	 .byte 0x8b
 2482 0818 0B       	 .byte 0xb
 2483 0819 FC220000 	 .4byte 0x22fc
 2484 081d 12       	 .uleb128 0x12
 2485 081e 0D       	 .byte 0xd
 2486 081f 8D       	 .byte 0x8d
 2487 0820 0B       	 .byte 0xb
 2488 0821 08230000 	 .4byte 0x2308
 2489 0825 12       	 .uleb128 0x12
 2490 0826 0D       	 .byte 0xd
 2491 0827 8F       	 .byte 0x8f
 2492 0828 0B       	 .byte 0xb
 2493 0829 1E230000 	 .4byte 0x231e
 2494 082d 1F       	 .uleb128 0x1f
 2495 082e D1110000 	 .4byte .LASF437
 2496 0832 0F       	 .byte 0xf
 2497 0833 F51A     	 .2byte 0x1af5
 2498 0835 14       	 .byte 0x14
 2499 0836 4D080000 	 .4byte 0x84d
 2500 083a 03       	 .uleb128 0x3
 2501 083b 9F070000 	 .4byte .LASF32
 2502 083f 0F       	 .byte 0xf
 2503 0840 F71A     	 .2byte 0x1af7
 2504 0842 14       	 .byte 0x14
 2505 0843 04       	 .uleb128 0x4
 2506 0844 0F       	 .byte 0xf
 2507 0845 F71A     	 .2byte 0x1af7
 2508 0847 14       	 .byte 0x14
 2509 0848 3A080000 	 .4byte 0x83a
 2510 084c 00       	 .byte 0
 2511 084d 04       	 .uleb128 0x4
 2512 084e 0F       	 .byte 0xf
 2513 084f F51A     	 .2byte 0x1af5
 2514 0851 14       	 .byte 0x14
 2515 0852 2D080000 	 .4byte 0x82d
 2516 0856 00       	 .byte 0
 2517 0857 20       	 .uleb128 0x20
 2518 0858 DE010000 	 .4byte .LASF34
ARM GAS   			page 58


 2519 085c 0E       	 .byte 0xe
 2520 085d 2001     	 .2byte 0x120
 2521 085f 0B       	 .byte 0xb
 2522 0860 EC080000 	 .4byte 0x8ec
 2523 0864 03       	 .uleb128 0x3
 2524 0865 B60D0000 	 .4byte .LASF31
 2525 0869 0E       	 .byte 0xe
 2526 086a 2201     	 .2byte 0x122
 2527 086c 41       	 .byte 0x41
 2528 086d 04       	 .uleb128 0x4
 2529 086e 0E       	 .byte 0xe
 2530 086f 2201     	 .2byte 0x122
 2531 0871 41       	 .byte 0x41
 2532 0872 64080000 	 .4byte 0x864
 2533 0876 1D       	 .uleb128 0x1d
 2534 0877 94030000 	 .4byte .LASF35
 2535 087b 10       	 .byte 0x10
 2536 087c 23       	 .byte 0x23
 2537 087d 0B       	 .byte 0xb
 2538 087e 12       	 .uleb128 0x12
 2539 087f 09       	 .byte 0x9
 2540 0880 FB       	 .byte 0xfb
 2541 0881 0B       	 .byte 0xb
 2542 0882 F5190000 	 .4byte 0x19f5
 2543 0886 1E       	 .uleb128 0x1e
 2544 0887 09       	 .byte 0x9
 2545 0888 0401     	 .2byte 0x104
 2546 088a 0B       	 .byte 0xb
 2547 088b 101A0000 	 .4byte 0x1a10
 2548 088f 1E       	 .uleb128 0x1e
 2549 0890 09       	 .byte 0x9
 2550 0891 0501     	 .2byte 0x105
 2551 0893 0B       	 .byte 0xb
 2552 0894 301A0000 	 .4byte 0x1a30
 2553 0898 12       	 .uleb128 0x12
 2554 0899 0C       	 .byte 0xc
 2555 089a C8       	 .byte 0xc8
 2556 089b 0B       	 .byte 0xb
 2557 089c B61D0000 	 .4byte 0x1db6
 2558 08a0 12       	 .uleb128 0x12
 2559 08a1 0C       	 .byte 0xc
 2560 08a2 D8       	 .byte 0xd8
 2561 08a3 0B       	 .byte 0xb
 2562 08a4 02200000 	 .4byte 0x2002
 2563 08a8 12       	 .uleb128 0x12
 2564 08a9 0C       	 .byte 0xc
 2565 08aa E3       	 .byte 0xe3
 2566 08ab 0B       	 .byte 0xb
 2567 08ac 1E200000 	 .4byte 0x201e
 2568 08b0 12       	 .uleb128 0x12
 2569 08b1 0C       	 .byte 0xc
 2570 08b2 E4       	 .byte 0xe4
 2571 08b3 0B       	 .byte 0xb
 2572 08b4 35200000 	 .4byte 0x2035
 2573 08b8 12       	 .uleb128 0x12
 2574 08b9 0C       	 .byte 0xc
 2575 08ba E5       	 .byte 0xe5
ARM GAS   			page 59


 2576 08bb 0B       	 .byte 0xb
 2577 08bc 56200000 	 .4byte 0x2056
 2578 08c0 12       	 .uleb128 0x12
 2579 08c1 0C       	 .byte 0xc
 2580 08c2 E7       	 .byte 0xe7
 2581 08c3 0B       	 .byte 0xb
 2582 08c4 77200000 	 .4byte 0x2077
 2583 08c8 12       	 .uleb128 0x12
 2584 08c9 0C       	 .byte 0xc
 2585 08ca E8       	 .byte 0xe8
 2586 08cb 0B       	 .byte 0xb
 2587 08cc 92200000 	 .4byte 0x2092
 2588 08d0 21       	 .uleb128 0x21
 2589 08d1 64697600 	 .ascii "div\000"
 2590 08d5 0C       	 .byte 0xc
 2591 08d6 D5       	 .byte 0xd5
 2592 08d7 03       	 .byte 0x3
 2593 08d8 CB060000 	 .4byte .LASF438
 2594 08dc B61D0000 	 .4byte 0x1db6
 2595 08e0 0A       	 .uleb128 0xa
 2596 08e1 0B090000 	 .4byte 0x90b
 2597 08e5 0A       	 .uleb128 0xa
 2598 08e6 0B090000 	 .4byte 0x90b
 2599 08ea 00       	 .byte 0
 2600 08eb 00       	 .byte 0
 2601 08ec 22       	 .uleb128 0x22
 2602 08ed 04       	 .byte 0x4
 2603 08ee 05       	 .byte 0x5
 2604 08ef 696E7400 	 .ascii "int\000"
 2605 08f3 11       	 .uleb128 0x11
 2606 08f4 EC080000 	 .4byte 0x8ec
 2607 08f8 23       	 .uleb128 0x23
 2608 08f9 D6080000 	 .4byte .LASF37
 2609 08fd 11       	 .byte 0x11
 2610 08fe D1       	 .byte 0xd1
 2611 08ff 17       	 .byte 0x17
 2612 0900 04090000 	 .4byte 0x904
 2613 0904 24       	 .uleb128 0x24
 2614 0905 04       	 .byte 0x4
 2615 0906 07       	 .byte 0x7
 2616 0907 D1010000 	 .4byte .LASF38
 2617 090b 24       	 .uleb128 0x24
 2618 090c 08       	 .byte 0x8
 2619 090d 05       	 .byte 0x5
 2620 090e AC0B0000 	 .4byte .LASF39
 2621 0912 24       	 .uleb128 0x24
 2622 0913 08       	 .byte 0x8
 2623 0914 04       	 .byte 0x4
 2624 0915 8D0E0000 	 .4byte .LASF40
 2625 0919 25       	 .uleb128 0x25
 2626 091a EB150000 	 .4byte .LASF439
 2627 091e 26       	 .uleb128 0x26
 2628 091f 04       	 .byte 0x4
 2629 0920 27       	 .uleb128 0x27
 2630 0921 04       	 .byte 0x4
 2631 0922 4E000000 	 .4byte 0x4e
 2632 0926 27       	 .uleb128 0x27
ARM GAS   			page 60


 2633 0927 04       	 .byte 0x4
 2634 0928 2F020000 	 .4byte 0x22f
 2635 092c 28       	 .uleb128 0x28
 2636 092d 04       	 .byte 0x4
 2637 092e 2F020000 	 .4byte 0x22f
 2638 0932 29       	 .uleb128 0x29
 2639 0933 04       	 .byte 0x4
 2640 0934 4E000000 	 .4byte 0x4e
 2641 0938 28       	 .uleb128 0x28
 2642 0939 04       	 .byte 0x4
 2643 093a 4E000000 	 .4byte 0x4e
 2644 093e 24       	 .uleb128 0x24
 2645 093f 01       	 .byte 0x1
 2646 0940 02       	 .byte 0x2
 2647 0941 B10D0000 	 .4byte .LASF41
 2648 0945 27       	 .uleb128 0x27
 2649 0946 04       	 .byte 0x4
 2650 0947 6D020000 	 .4byte 0x26d
 2651 094b 24       	 .uleb128 0x24
 2652 094c 01       	 .byte 0x1
 2653 094d 08       	 .byte 0x8
 2654 094e 1D150000 	 .4byte .LASF42
 2655 0952 24       	 .uleb128 0x24
 2656 0953 02       	 .byte 0x2
 2657 0954 07       	 .byte 0x7
 2658 0955 6A170000 	 .4byte .LASF43
 2659 0959 24       	 .uleb128 0x24
 2660 095a 04       	 .byte 0x4
 2661 095b 07       	 .byte 0x7
 2662 095c 0E0F0000 	 .4byte .LASF44
 2663 0960 24       	 .uleb128 0x24
 2664 0961 08       	 .byte 0x8
 2665 0962 07       	 .byte 0x7
 2666 0963 12070000 	 .4byte .LASF45
 2667 0967 24       	 .uleb128 0x24
 2668 0968 01       	 .byte 0x1
 2669 0969 06       	 .byte 0x6
 2670 096a 57170000 	 .4byte .LASF46
 2671 096e 24       	 .uleb128 0x24
 2672 096f 02       	 .byte 0x2
 2673 0970 05       	 .byte 0x5
 2674 0971 E9020000 	 .4byte .LASF47
 2675 0975 24       	 .uleb128 0x24
 2676 0976 04       	 .byte 0x4
 2677 0977 05       	 .byte 0x5
 2678 0978 E4080000 	 .4byte .LASF48
 2679 097c 24       	 .uleb128 0x24
 2680 097d 04       	 .byte 0x4
 2681 097e 07       	 .byte 0x7
 2682 097f 3D020000 	 .4byte .LASF49
 2683 0983 11       	 .uleb128 0x11
 2684 0984 7C090000 	 .4byte 0x97c
 2685 0988 24       	 .uleb128 0x24
 2686 0989 02       	 .byte 0x2
 2687 098a 10       	 .byte 0x10
 2688 098b 8F180000 	 .4byte .LASF50
 2689 098f 24       	 .uleb128 0x24
ARM GAS   			page 61


 2690 0990 04       	 .byte 0x4
 2691 0991 10       	 .byte 0x10
 2692 0992 7D000000 	 .4byte .LASF51
 2693 0996 24       	 .uleb128 0x24
 2694 0997 08       	 .byte 0x8
 2695 0998 04       	 .byte 0x4
 2696 0999 4E180000 	 .4byte .LASF52
 2697 099d 24       	 .uleb128 0x24
 2698 099e 04       	 .byte 0x4
 2699 099f 04       	 .byte 0x4
 2700 09a0 8E060000 	 .4byte .LASF53
 2701 09a4 27       	 .uleb128 0x27
 2702 09a5 04       	 .byte 0x4
 2703 09a6 FF020000 	 .4byte 0x2ff
 2704 09aa 2A       	 .uleb128 0x2a
 2705 09ab 2D030000 	 .4byte 0x32d
 2706 09af 05       	 .uleb128 0x5
 2707 09b0 04060000 	 .4byte .LASF54
 2708 09b4 08       	 .byte 0x8
 2709 09b5 38       	 .byte 0x38
 2710 09b6 0B       	 .byte 0xb
 2711 09b7 C4090000 	 .4byte 0x9c4
 2712 09bb 2B       	 .uleb128 0x2b
 2713 09bc 08       	 .byte 0x8
 2714 09bd 3A       	 .byte 0x3a
 2715 09be 18       	 .byte 0x18
 2716 09bf 3B030000 	 .4byte 0x33b
 2717 09c3 00       	 .byte 0
 2718 09c4 14       	 .uleb128 0x14
 2719 09c5 CA130000 	 .4byte .LASF55
 2720 09c9 11       	 .byte 0x11
 2721 09ca 5E01     	 .2byte 0x15e
 2722 09cc 17       	 .byte 0x17
 2723 09cd 04090000 	 .4byte 0x904
 2724 09d1 23       	 .uleb128 0x23
 2725 09d2 7B0F0000 	 .4byte .LASF56
 2726 09d6 12       	 .byte 0x12
 2727 09d7 29       	 .byte 0x29
 2728 09d8 17       	 .byte 0x17
 2729 09d9 67090000 	 .4byte 0x967
 2730 09dd 23       	 .uleb128 0x23
 2731 09de AC120000 	 .4byte .LASF57
 2732 09e2 12       	 .byte 0x12
 2733 09e3 2B       	 .byte 0x2b
 2734 09e4 18       	 .byte 0x18
 2735 09e5 4B090000 	 .4byte 0x94b
 2736 09e9 23       	 .uleb128 0x23
 2737 09ea BE0D0000 	 .4byte .LASF58
 2738 09ee 12       	 .byte 0x12
 2739 09ef 37       	 .byte 0x37
 2740 09f0 18       	 .byte 0x18
 2741 09f1 6E090000 	 .4byte 0x96e
 2742 09f5 23       	 .uleb128 0x23
 2743 09f6 F6090000 	 .4byte .LASF59
 2744 09fa 12       	 .byte 0x12
 2745 09fb 39       	 .byte 0x39
 2746 09fc 19       	 .byte 0x19
ARM GAS   			page 62


 2747 09fd 52090000 	 .4byte 0x952
 2748 0a01 23       	 .uleb128 0x23
 2749 0a02 2C020000 	 .4byte .LASF60
 2750 0a06 12       	 .byte 0x12
 2751 0a07 4D       	 .byte 0x4d
 2752 0a08 18       	 .byte 0x18
 2753 0a09 75090000 	 .4byte 0x975
 2754 0a0d 23       	 .uleb128 0x23
 2755 0a0e 01100000 	 .4byte .LASF61
 2756 0a12 12       	 .byte 0x12
 2757 0a13 4F       	 .byte 0x4f
 2758 0a14 19       	 .byte 0x19
 2759 0a15 59090000 	 .4byte 0x959
 2760 0a19 23       	 .uleb128 0x23
 2761 0a1a 9A0F0000 	 .4byte .LASF62
 2762 0a1e 12       	 .byte 0x12
 2763 0a1f 67       	 .byte 0x67
 2764 0a20 18       	 .byte 0x18
 2765 0a21 0B090000 	 .4byte 0x90b
 2766 0a25 23       	 .uleb128 0x23
 2767 0a26 BA0B0000 	 .4byte .LASF63
 2768 0a2a 12       	 .byte 0x12
 2769 0a2b 69       	 .byte 0x69
 2770 0a2c 19       	 .byte 0x19
 2771 0a2d 60090000 	 .4byte 0x960
 2772 0a31 23       	 .uleb128 0x23
 2773 0a32 63130000 	 .4byte .LASF64
 2774 0a36 12       	 .byte 0x12
 2775 0a37 86       	 .byte 0x86
 2776 0a38 1D       	 .byte 0x1d
 2777 0a39 67090000 	 .4byte 0x967
 2778 0a3d 23       	 .uleb128 0x23
 2779 0a3e 66100000 	 .4byte .LASF65
 2780 0a42 12       	 .byte 0x12
 2781 0a43 88       	 .byte 0x88
 2782 0a44 1E       	 .byte 0x1e
 2783 0a45 4B090000 	 .4byte 0x94b
 2784 0a49 23       	 .uleb128 0x23
 2785 0a4a 770E0000 	 .4byte .LASF66
 2786 0a4e 12       	 .byte 0x12
 2787 0a4f A0       	 .byte 0xa0
 2788 0a50 1E       	 .byte 0x1e
 2789 0a51 6E090000 	 .4byte 0x96e
 2790 0a55 23       	 .uleb128 0x23
 2791 0a56 7E180000 	 .4byte .LASF67
 2792 0a5a 12       	 .byte 0x12
 2793 0a5b A2       	 .byte 0xa2
 2794 0a5c 1F       	 .byte 0x1f
 2795 0a5d 52090000 	 .4byte 0x952
 2796 0a61 23       	 .uleb128 0x23
 2797 0a62 FF020000 	 .4byte .LASF68
 2798 0a66 12       	 .byte 0x12
 2799 0a67 B6       	 .byte 0xb6
 2800 0a68 1E       	 .byte 0x1e
 2801 0a69 75090000 	 .4byte 0x975
 2802 0a6d 23       	 .uleb128 0x23
 2803 0a6e 62090000 	 .4byte .LASF69
ARM GAS   			page 63


 2804 0a72 12       	 .byte 0x12
 2805 0a73 B8       	 .byte 0xb8
 2806 0a74 1F       	 .byte 0x1f
 2807 0a75 59090000 	 .4byte 0x959
 2808 0a79 23       	 .uleb128 0x23
 2809 0a7a 41100000 	 .4byte .LASF70
 2810 0a7e 12       	 .byte 0x12
 2811 0a7f C8       	 .byte 0xc8
 2812 0a80 1E       	 .byte 0x1e
 2813 0a81 0B090000 	 .4byte 0x90b
 2814 0a85 23       	 .uleb128 0x23
 2815 0a86 7A160000 	 .4byte .LASF71
 2816 0a8a 12       	 .byte 0x12
 2817 0a8b CA       	 .byte 0xca
 2818 0a8c 1F       	 .byte 0x1f
 2819 0a8d 60090000 	 .4byte 0x960
 2820 0a91 23       	 .uleb128 0x23
 2821 0a92 AB0F0000 	 .4byte .LASF72
 2822 0a96 12       	 .byte 0x12
 2823 0a97 D6       	 .byte 0xd6
 2824 0a98 19       	 .byte 0x19
 2825 0a99 0B090000 	 .4byte 0x90b
 2826 0a9d 23       	 .uleb128 0x23
 2827 0a9e 91020000 	 .4byte .LASF73
 2828 0aa2 12       	 .byte 0x12
 2829 0aa3 DE       	 .byte 0xde
 2830 0aa4 1A       	 .byte 0x1a
 2831 0aa5 60090000 	 .4byte 0x960
 2832 0aa9 23       	 .uleb128 0x23
 2833 0aaa C7030000 	 .4byte .LASF74
 2834 0aae 12       	 .byte 0x12
 2835 0aaf E6       	 .byte 0xe6
 2836 0ab0 19       	 .byte 0x19
 2837 0ab1 EC080000 	 .4byte 0x8ec
 2838 0ab5 23       	 .uleb128 0x23
 2839 0ab6 E8070000 	 .4byte .LASF75
 2840 0aba 12       	 .byte 0x12
 2841 0abb E8       	 .byte 0xe8
 2842 0abc 1A       	 .byte 0x1a
 2843 0abd 04090000 	 .4byte 0x904
 2844 0ac1 23       	 .uleb128 0x23
 2845 0ac2 64180000 	 .4byte .LASF76
 2846 0ac6 13       	 .byte 0x13
 2847 0ac7 2E       	 .byte 0x2e
 2848 0ac8 0E       	 .byte 0xe
 2849 0ac9 75090000 	 .4byte 0x975
 2850 0acd 23       	 .uleb128 0x23
 2851 0ace D2030000 	 .4byte .LASF77
 2852 0ad2 13       	 .byte 0x13
 2853 0ad3 74       	 .byte 0x74
 2854 0ad4 0E       	 .byte 0xe
 2855 0ad5 75090000 	 .4byte 0x975
 2856 0ad9 2C       	 .uleb128 0x2c
 2857 0ada 08       	 .byte 0x8
 2858 0adb 13       	 .byte 0x13
 2859 0adc A3       	 .byte 0xa3
 2860 0add 01       	 .byte 0x1
ARM GAS   			page 64


 2861 0ade 2F0A0000 	 .4byte .LASF301
 2862 0ae2 230B0000 	 .4byte 0xb23
 2863 0ae6 2D       	 .uleb128 0x2d
 2864 0ae7 04       	 .byte 0x4
 2865 0ae8 13       	 .byte 0x13
 2866 0ae9 A6       	 .byte 0xa6
 2867 0aea 03       	 .byte 0x3
 2868 0aeb 080B0000 	 .4byte 0xb08
 2869 0aef 2E       	 .uleb128 0x2e
 2870 0af0 FD0B0000 	 .4byte .LASF78
 2871 0af4 13       	 .byte 0x13
 2872 0af5 A7       	 .byte 0xa7
 2873 0af6 0C       	 .byte 0xc
 2874 0af7 C4090000 	 .4byte 0x9c4
 2875 0afb 2E       	 .uleb128 0x2e
 2876 0afc C1110000 	 .4byte .LASF79
 2877 0b00 13       	 .byte 0x13
 2878 0b01 A8       	 .byte 0xa8
 2879 0b02 13       	 .byte 0x13
 2880 0b03 230B0000 	 .4byte 0xb23
 2881 0b07 00       	 .byte 0
 2882 0b08 07       	 .uleb128 0x7
 2883 0b09 86060000 	 .4byte .LASF81
 2884 0b0d 13       	 .byte 0x13
 2885 0b0e A4       	 .byte 0xa4
 2886 0b0f 07       	 .byte 0x7
 2887 0b10 EC080000 	 .4byte 0x8ec
 2888 0b14 00       	 .byte 0
 2889 0b15 07       	 .uleb128 0x7
 2890 0b16 EE090000 	 .4byte .LASF25
 2891 0b1a 13       	 .byte 0x13
 2892 0b1b A9       	 .byte 0xa9
 2893 0b1c 05       	 .byte 0x5
 2894 0b1d E60A0000 	 .4byte 0xae6
 2895 0b21 04       	 .byte 0x4
 2896 0b22 00       	 .byte 0
 2897 0b23 2F       	 .uleb128 0x2f
 2898 0b24 4B090000 	 .4byte 0x94b
 2899 0b28 330B0000 	 .4byte 0xb33
 2900 0b2c 30       	 .uleb128 0x30
 2901 0b2d 04090000 	 .4byte 0x904
 2902 0b31 03       	 .byte 0x3
 2903 0b32 00       	 .byte 0
 2904 0b33 23       	 .uleb128 0x23
 2905 0b34 470E0000 	 .4byte .LASF82
 2906 0b38 13       	 .byte 0x13
 2907 0b39 AA       	 .byte 0xaa
 2908 0b3a 03       	 .byte 0x3
 2909 0b3b D90A0000 	 .4byte 0xad9
 2910 0b3f 31       	 .uleb128 0x31
 2911 0b40 9A000000 	 .4byte .LASF440
 2912 0b44 04       	 .byte 0x4
 2913 0b45 1F       	 .byte 0x1f
 2914 0b46 00       	 .byte 0
 2915 0b47 560B0000 	 .4byte 0xb56
 2916 0b4b 32       	 .uleb128 0x32
 2917 0b4c D60D0000 	 .4byte .LASF441
ARM GAS   			page 65


 2918 0b50 1E090000 	 .4byte 0x91e
 2919 0b54 00       	 .byte 0
 2920 0b55 00       	 .byte 0
 2921 0b56 23       	 .uleb128 0x23
 2922 0b57 8C030000 	 .4byte .LASF83
 2923 0b5b 14       	 .byte 0x14
 2924 0b5c 16       	 .byte 0x16
 2925 0b5d 19       	 .byte 0x19
 2926 0b5e 59090000 	 .4byte 0x959
 2927 0b62 23       	 .uleb128 0x23
 2928 0b63 C60F0000 	 .4byte .LASF84
 2929 0b67 15       	 .byte 0x15
 2930 0b68 22       	 .byte 0x22
 2931 0b69 19       	 .byte 0x19
 2932 0b6a 6E0B0000 	 .4byte 0xb6e
 2933 0b6e 27       	 .uleb128 0x27
 2934 0b6f 04       	 .byte 0x4
 2935 0b70 740B0000 	 .4byte 0xb74
 2936 0b74 33       	 .uleb128 0x33
 2937 0b75 63140000 	 .4byte .LASF182
 2938 0b79 23       	 .uleb128 0x23
 2939 0b7a A10E0000 	 .4byte .LASF85
 2940 0b7e 14       	 .byte 0x14
 2941 0b7f 23       	 .byte 0x23
 2942 0b80 1B       	 .byte 0x1b
 2943 0b81 620B0000 	 .4byte 0xb62
 2944 0b85 17       	 .uleb128 0x17
 2945 0b86 30110000 	 .4byte .LASF86
 2946 0b8a 18       	 .byte 0x18
 2947 0b8b 14       	 .byte 0x14
 2948 0b8c 34       	 .byte 0x34
 2949 0b8d 08       	 .byte 0x8
 2950 0b8e DF0B0000 	 .4byte 0xbdf
 2951 0b92 07       	 .uleb128 0x7
 2952 0b93 7B090000 	 .4byte .LASF87
 2953 0b97 14       	 .byte 0x14
 2954 0b98 36       	 .byte 0x36
 2955 0b99 13       	 .byte 0x13
 2956 0b9a DF0B0000 	 .4byte 0xbdf
 2957 0b9e 00       	 .byte 0
 2958 0b9f 34       	 .uleb128 0x34
 2959 0ba0 5F6B00   	 .ascii "_k\000"
 2960 0ba3 14       	 .byte 0x14
 2961 0ba4 37       	 .byte 0x37
 2962 0ba5 07       	 .byte 0x7
 2963 0ba6 EC080000 	 .4byte 0x8ec
 2964 0baa 04       	 .byte 0x4
 2965 0bab 07       	 .uleb128 0x7
 2966 0bac DF120000 	 .4byte .LASF88
 2967 0bb0 14       	 .byte 0x14
 2968 0bb1 37       	 .byte 0x37
 2969 0bb2 0B       	 .byte 0xb
 2970 0bb3 EC080000 	 .4byte 0x8ec
 2971 0bb7 08       	 .byte 0x8
 2972 0bb8 07       	 .uleb128 0x7
 2973 0bb9 020B0000 	 .4byte .LASF89
 2974 0bbd 14       	 .byte 0x14
ARM GAS   			page 66


 2975 0bbe 37       	 .byte 0x37
 2976 0bbf 14       	 .byte 0x14
 2977 0bc0 EC080000 	 .4byte 0x8ec
 2978 0bc4 0C       	 .byte 0xc
 2979 0bc5 07       	 .uleb128 0x7
 2980 0bc6 9A070000 	 .4byte .LASF90
 2981 0bca 14       	 .byte 0x14
 2982 0bcb 37       	 .byte 0x37
 2983 0bcc 1B       	 .byte 0x1b
 2984 0bcd EC080000 	 .4byte 0x8ec
 2985 0bd1 10       	 .byte 0x10
 2986 0bd2 34       	 .uleb128 0x34
 2987 0bd3 5F7800   	 .ascii "_x\000"
 2988 0bd6 14       	 .byte 0x14
 2989 0bd7 38       	 .byte 0x38
 2990 0bd8 0B       	 .byte 0xb
 2991 0bd9 E50B0000 	 .4byte 0xbe5
 2992 0bdd 14       	 .byte 0x14
 2993 0bde 00       	 .byte 0
 2994 0bdf 27       	 .uleb128 0x27
 2995 0be0 04       	 .byte 0x4
 2996 0be1 850B0000 	 .4byte 0xb85
 2997 0be5 2F       	 .uleb128 0x2f
 2998 0be6 560B0000 	 .4byte 0xb56
 2999 0bea F50B0000 	 .4byte 0xbf5
 3000 0bee 30       	 .uleb128 0x30
 3001 0bef 04090000 	 .4byte 0x904
 3002 0bf3 00       	 .byte 0
 3003 0bf4 00       	 .byte 0
 3004 0bf5 17       	 .uleb128 0x17
 3005 0bf6 7C130000 	 .4byte .LASF91
 3006 0bfa 24       	 .byte 0x24
 3007 0bfb 14       	 .byte 0x14
 3008 0bfc 3C       	 .byte 0x3c
 3009 0bfd 08       	 .byte 0x8
 3010 0bfe 780C0000 	 .4byte 0xc78
 3011 0c02 07       	 .uleb128 0x7
 3012 0c03 86010000 	 .4byte .LASF92
 3013 0c07 14       	 .byte 0x14
 3014 0c08 3E       	 .byte 0x3e
 3015 0c09 09       	 .byte 0x9
 3016 0c0a EC080000 	 .4byte 0x8ec
 3017 0c0e 00       	 .byte 0
 3018 0c0f 07       	 .uleb128 0x7
 3019 0c10 A2060000 	 .4byte .LASF93
 3020 0c14 14       	 .byte 0x14
 3021 0c15 3F       	 .byte 0x3f
 3022 0c16 09       	 .byte 0x9
 3023 0c17 EC080000 	 .4byte 0x8ec
 3024 0c1b 04       	 .byte 0x4
 3025 0c1c 07       	 .uleb128 0x7
 3026 0c1d 47060000 	 .4byte .LASF94
 3027 0c21 14       	 .byte 0x14
 3028 0c22 40       	 .byte 0x40
 3029 0c23 09       	 .byte 0x9
 3030 0c24 EC080000 	 .4byte 0x8ec
 3031 0c28 08       	 .byte 0x8
ARM GAS   			page 67


 3032 0c29 07       	 .uleb128 0x7
 3033 0c2a 140B0000 	 .4byte .LASF95
 3034 0c2e 14       	 .byte 0x14
 3035 0c2f 41       	 .byte 0x41
 3036 0c30 09       	 .byte 0x9
 3037 0c31 EC080000 	 .4byte 0x8ec
 3038 0c35 0C       	 .byte 0xc
 3039 0c36 07       	 .uleb128 0x7
 3040 0c37 8A0F0000 	 .4byte .LASF96
 3041 0c3b 14       	 .byte 0x14
 3042 0c3c 42       	 .byte 0x42
 3043 0c3d 09       	 .byte 0x9
 3044 0c3e EC080000 	 .4byte 0x8ec
 3045 0c42 10       	 .byte 0x10
 3046 0c43 07       	 .uleb128 0x7
 3047 0c44 FD110000 	 .4byte .LASF97
 3048 0c48 14       	 .byte 0x14
 3049 0c49 43       	 .byte 0x43
 3050 0c4a 09       	 .byte 0x9
 3051 0c4b EC080000 	 .4byte 0x8ec
 3052 0c4f 14       	 .byte 0x14
 3053 0c50 07       	 .uleb128 0x7
 3054 0c51 060A0000 	 .4byte .LASF98
 3055 0c55 14       	 .byte 0x14
 3056 0c56 44       	 .byte 0x44
 3057 0c57 09       	 .byte 0x9
 3058 0c58 EC080000 	 .4byte 0x8ec
 3059 0c5c 18       	 .byte 0x18
 3060 0c5d 07       	 .uleb128 0x7
 3061 0c5e 40090000 	 .4byte .LASF99
 3062 0c62 14       	 .byte 0x14
 3063 0c63 45       	 .byte 0x45
 3064 0c64 09       	 .byte 0x9
 3065 0c65 EC080000 	 .4byte 0x8ec
 3066 0c69 1C       	 .byte 0x1c
 3067 0c6a 07       	 .uleb128 0x7
 3068 0c6b B20E0000 	 .4byte .LASF100
 3069 0c6f 14       	 .byte 0x14
 3070 0c70 46       	 .byte 0x46
 3071 0c71 09       	 .byte 0x9
 3072 0c72 EC080000 	 .4byte 0x8ec
 3073 0c76 20       	 .byte 0x20
 3074 0c77 00       	 .byte 0
 3075 0c78 35       	 .uleb128 0x35
 3076 0c79 BB000000 	 .4byte .LASF101
 3077 0c7d 0801     	 .2byte 0x108
 3078 0c7f 14       	 .byte 0x14
 3079 0c80 4F       	 .byte 0x4f
 3080 0c81 08       	 .byte 0x8
 3081 0c82 BD0C0000 	 .4byte 0xcbd
 3082 0c86 07       	 .uleb128 0x7
 3083 0c87 4F170000 	 .4byte .LASF102
 3084 0c8b 14       	 .byte 0x14
 3085 0c8c 50       	 .byte 0x50
 3086 0c8d 0A       	 .byte 0xa
 3087 0c8e BD0C0000 	 .4byte 0xcbd
 3088 0c92 00       	 .byte 0
ARM GAS   			page 68


 3089 0c93 07       	 .uleb128 0x7
 3090 0c94 22140000 	 .4byte .LASF103
 3091 0c98 14       	 .byte 0x14
 3092 0c99 51       	 .byte 0x51
 3093 0c9a 09       	 .byte 0x9
 3094 0c9b BD0C0000 	 .4byte 0xcbd
 3095 0c9f 80       	 .byte 0x80
 3096 0ca0 36       	 .uleb128 0x36
 3097 0ca1 30180000 	 .4byte .LASF104
 3098 0ca5 14       	 .byte 0x14
 3099 0ca6 53       	 .byte 0x53
 3100 0ca7 0A       	 .byte 0xa
 3101 0ca8 560B0000 	 .4byte 0xb56
 3102 0cac 0001     	 .2byte 0x100
 3103 0cae 36       	 .uleb128 0x36
 3104 0caf E1180000 	 .4byte .LASF105
 3105 0cb3 14       	 .byte 0x14
 3106 0cb4 56       	 .byte 0x56
 3107 0cb5 0A       	 .byte 0xa
 3108 0cb6 560B0000 	 .4byte 0xb56
 3109 0cba 0401     	 .2byte 0x104
 3110 0cbc 00       	 .byte 0
 3111 0cbd 2F       	 .uleb128 0x2f
 3112 0cbe 1E090000 	 .4byte 0x91e
 3113 0cc2 CD0C0000 	 .4byte 0xccd
 3114 0cc6 30       	 .uleb128 0x30
 3115 0cc7 04090000 	 .4byte 0x904
 3116 0ccb 1F       	 .byte 0x1f
 3117 0ccc 00       	 .byte 0
 3118 0ccd 35       	 .uleb128 0x35
 3119 0cce 57100000 	 .4byte .LASF106
 3120 0cd2 9001     	 .2byte 0x190
 3121 0cd4 14       	 .byte 0x14
 3122 0cd5 62       	 .byte 0x62
 3123 0cd6 08       	 .byte 0x8
 3124 0cd7 100D0000 	 .4byte 0xd10
 3125 0cdb 07       	 .uleb128 0x7
 3126 0cdc 7B090000 	 .4byte .LASF87
 3127 0ce0 14       	 .byte 0x14
 3128 0ce1 63       	 .byte 0x63
 3129 0ce2 12       	 .byte 0x12
 3130 0ce3 100D0000 	 .4byte 0xd10
 3131 0ce7 00       	 .byte 0
 3132 0ce8 07       	 .uleb128 0x7
 3133 0ce9 5D090000 	 .4byte .LASF107
 3134 0ced 14       	 .byte 0x14
 3135 0cee 64       	 .byte 0x64
 3136 0cef 06       	 .byte 0x6
 3137 0cf0 EC080000 	 .4byte 0x8ec
 3138 0cf4 04       	 .byte 0x4
 3139 0cf5 07       	 .uleb128 0x7
 3140 0cf6 EF030000 	 .4byte .LASF108
 3141 0cfa 14       	 .byte 0x14
 3142 0cfb 66       	 .byte 0x66
 3143 0cfc 09       	 .byte 0x9
 3144 0cfd 160D0000 	 .4byte 0xd16
 3145 0d01 08       	 .byte 0x8
ARM GAS   			page 69


 3146 0d02 07       	 .uleb128 0x7
 3147 0d03 BB000000 	 .4byte .LASF101
 3148 0d07 14       	 .byte 0x14
 3149 0d08 67       	 .byte 0x67
 3150 0d09 1E       	 .byte 0x1e
 3151 0d0a 780C0000 	 .4byte 0xc78
 3152 0d0e 88       	 .byte 0x88
 3153 0d0f 00       	 .byte 0
 3154 0d10 27       	 .uleb128 0x27
 3155 0d11 04       	 .byte 0x4
 3156 0d12 CD0C0000 	 .4byte 0xccd
 3157 0d16 2F       	 .uleb128 0x2f
 3158 0d17 260D0000 	 .4byte 0xd26
 3159 0d1b 260D0000 	 .4byte 0xd26
 3160 0d1f 30       	 .uleb128 0x30
 3161 0d20 04090000 	 .4byte 0x904
 3162 0d24 1F       	 .byte 0x1f
 3163 0d25 00       	 .byte 0
 3164 0d26 27       	 .uleb128 0x27
 3165 0d27 04       	 .byte 0x4
 3166 0d28 2C0D0000 	 .4byte 0xd2c
 3167 0d2c 37       	 .uleb128 0x37
 3168 0d2d 17       	 .uleb128 0x17
 3169 0d2e 93160000 	 .4byte .LASF109
 3170 0d32 08       	 .byte 0x8
 3171 0d33 14       	 .byte 0x14
 3172 0d34 7A       	 .byte 0x7a
 3173 0d35 08       	 .byte 0x8
 3174 0d36 550D0000 	 .4byte 0xd55
 3175 0d3a 07       	 .uleb128 0x7
 3176 0d3b 330D0000 	 .4byte .LASF110
 3177 0d3f 14       	 .byte 0x14
 3178 0d40 7B       	 .byte 0x7b
 3179 0d41 11       	 .byte 0x11
 3180 0d42 550D0000 	 .4byte 0xd55
 3181 0d46 00       	 .byte 0
 3182 0d47 07       	 .uleb128 0x7
 3183 0d48 48180000 	 .4byte .LASF111
 3184 0d4c 14       	 .byte 0x14
 3185 0d4d 7C       	 .byte 0x7c
 3186 0d4e 06       	 .byte 0x6
 3187 0d4f EC080000 	 .4byte 0x8ec
 3188 0d53 04       	 .byte 0x4
 3189 0d54 00       	 .byte 0
 3190 0d55 27       	 .uleb128 0x27
 3191 0d56 04       	 .byte 0x4
 3192 0d57 4B090000 	 .4byte 0x94b
 3193 0d5b 17       	 .uleb128 0x17
 3194 0d5c 39180000 	 .4byte .LASF112
 3195 0d60 68       	 .byte 0x68
 3196 0d61 14       	 .byte 0x14
 3197 0d62 BA       	 .byte 0xba
 3198 0d63 08       	 .byte 0x8
 3199 0d64 9E0E0000 	 .4byte 0xe9e
 3200 0d68 34       	 .uleb128 0x34
 3201 0d69 5F7000   	 .ascii "_p\000"
 3202 0d6c 14       	 .byte 0x14
ARM GAS   			page 70


 3203 0d6d BB       	 .byte 0xbb
 3204 0d6e 12       	 .byte 0x12
 3205 0d6f 550D0000 	 .4byte 0xd55
 3206 0d73 00       	 .byte 0
 3207 0d74 34       	 .uleb128 0x34
 3208 0d75 5F7200   	 .ascii "_r\000"
 3209 0d78 14       	 .byte 0x14
 3210 0d79 BC       	 .byte 0xbc
 3211 0d7a 07       	 .byte 0x7
 3212 0d7b EC080000 	 .4byte 0x8ec
 3213 0d7f 04       	 .byte 0x4
 3214 0d80 34       	 .uleb128 0x34
 3215 0d81 5F7700   	 .ascii "_w\000"
 3216 0d84 14       	 .byte 0x14
 3217 0d85 BD       	 .byte 0xbd
 3218 0d86 07       	 .byte 0x7
 3219 0d87 EC080000 	 .4byte 0x8ec
 3220 0d8b 08       	 .byte 0x8
 3221 0d8c 07       	 .uleb128 0x7
 3222 0d8d 01020000 	 .4byte .LASF113
 3223 0d91 14       	 .byte 0x14
 3224 0d92 BE       	 .byte 0xbe
 3225 0d93 09       	 .byte 0x9
 3226 0d94 6E090000 	 .4byte 0x96e
 3227 0d98 0C       	 .byte 0xc
 3228 0d99 07       	 .uleb128 0x7
 3229 0d9a 2B120000 	 .4byte .LASF114
 3230 0d9e 14       	 .byte 0x14
 3231 0d9f BF       	 .byte 0xbf
 3232 0da0 09       	 .byte 0x9
 3233 0da1 6E090000 	 .4byte 0x96e
 3234 0da5 0E       	 .byte 0xe
 3235 0da6 34       	 .uleb128 0x34
 3236 0da7 5F626600 	 .ascii "_bf\000"
 3237 0dab 14       	 .byte 0x14
 3238 0dac C0       	 .byte 0xc0
 3239 0dad 11       	 .byte 0x11
 3240 0dae 2D0D0000 	 .4byte 0xd2d
 3241 0db2 10       	 .byte 0x10
 3242 0db3 07       	 .uleb128 0x7
 3243 0db4 F8010000 	 .4byte .LASF115
 3244 0db8 14       	 .byte 0x14
 3245 0db9 C1       	 .byte 0xc1
 3246 0dba 07       	 .byte 0x7
 3247 0dbb EC080000 	 .4byte 0x8ec
 3248 0dbf 18       	 .byte 0x18
 3249 0dc0 07       	 .uleb128 0x7
 3250 0dc1 F4030000 	 .4byte .LASF116
 3251 0dc5 14       	 .byte 0x14
 3252 0dc6 C8       	 .byte 0xc8
 3253 0dc7 0A       	 .byte 0xa
 3254 0dc8 1E090000 	 .4byte 0x91e
 3255 0dcc 1C       	 .byte 0x1c
 3256 0dcd 07       	 .uleb128 0x7
 3257 0dce 61030000 	 .4byte .LASF117
 3258 0dd2 14       	 .byte 0x14
 3259 0dd3 CA       	 .byte 0xca
ARM GAS   			page 71


 3260 0dd4 1D       	 .byte 0x1d
 3261 0dd5 7E110000 	 .4byte 0x117e
 3262 0dd9 20       	 .byte 0x20
 3263 0dda 07       	 .uleb128 0x7
 3264 0ddb DF0F0000 	 .4byte .LASF118
 3265 0ddf 14       	 .byte 0x14
 3266 0de0 CC       	 .byte 0xcc
 3267 0de1 1D       	 .byte 0x1d
 3268 0de2 A8110000 	 .4byte 0x11a8
 3269 0de6 24       	 .byte 0x24
 3270 0de7 07       	 .uleb128 0x7
 3271 0de8 2B190000 	 .4byte .LASF119
 3272 0dec 14       	 .byte 0x14
 3273 0ded CF       	 .byte 0xcf
 3274 0dee 0D       	 .byte 0xd
 3275 0def CC110000 	 .4byte 0x11cc
 3276 0df3 28       	 .byte 0x28
 3277 0df4 07       	 .uleb128 0x7
 3278 0df5 3A0C0000 	 .4byte .LASF120
 3279 0df9 14       	 .byte 0x14
 3280 0dfa D0       	 .byte 0xd0
 3281 0dfb 09       	 .byte 0x9
 3282 0dfc E6110000 	 .4byte 0x11e6
 3283 0e00 2C       	 .byte 0x2c
 3284 0e01 34       	 .uleb128 0x34
 3285 0e02 5F756200 	 .ascii "_ub\000"
 3286 0e06 14       	 .byte 0x14
 3287 0e07 D3       	 .byte 0xd3
 3288 0e08 11       	 .byte 0x11
 3289 0e09 2D0D0000 	 .4byte 0xd2d
 3290 0e0d 30       	 .byte 0x30
 3291 0e0e 34       	 .uleb128 0x34
 3292 0e0f 5F757000 	 .ascii "_up\000"
 3293 0e13 14       	 .byte 0x14
 3294 0e14 D4       	 .byte 0xd4
 3295 0e15 12       	 .byte 0x12
 3296 0e16 550D0000 	 .4byte 0xd55
 3297 0e1a 38       	 .byte 0x38
 3298 0e1b 34       	 .uleb128 0x34
 3299 0e1c 5F757200 	 .ascii "_ur\000"
 3300 0e20 14       	 .byte 0x14
 3301 0e21 D5       	 .byte 0xd5
 3302 0e22 07       	 .byte 0x7
 3303 0e23 EC080000 	 .4byte 0x8ec
 3304 0e27 3C       	 .byte 0x3c
 3305 0e28 07       	 .uleb128 0x7
 3306 0e29 03080000 	 .4byte .LASF121
 3307 0e2d 14       	 .byte 0x14
 3308 0e2e D8       	 .byte 0xd8
 3309 0e2f 11       	 .byte 0x11
 3310 0e30 EC110000 	 .4byte 0x11ec
 3311 0e34 40       	 .byte 0x40
 3312 0e35 07       	 .uleb128 0x7
 3313 0e36 6B180000 	 .4byte .LASF122
 3314 0e3a 14       	 .byte 0x14
 3315 0e3b D9       	 .byte 0xd9
 3316 0e3c 11       	 .byte 0x11
ARM GAS   			page 72


 3317 0e3d FC110000 	 .4byte 0x11fc
 3318 0e41 43       	 .byte 0x43
 3319 0e42 34       	 .uleb128 0x34
 3320 0e43 5F6C6200 	 .ascii "_lb\000"
 3321 0e47 14       	 .byte 0x14
 3322 0e48 DC       	 .byte 0xdc
 3323 0e49 11       	 .byte 0x11
 3324 0e4a 2D0D0000 	 .4byte 0xd2d
 3325 0e4e 44       	 .byte 0x44
 3326 0e4f 07       	 .uleb128 0x7
 3327 0e50 990B0000 	 .4byte .LASF123
 3328 0e54 14       	 .byte 0x14
 3329 0e55 DF       	 .byte 0xdf
 3330 0e56 07       	 .byte 0x7
 3331 0e57 EC080000 	 .4byte 0x8ec
 3332 0e5b 4C       	 .byte 0x4c
 3333 0e5c 07       	 .uleb128 0x7
 3334 0e5d FB070000 	 .4byte .LASF124
 3335 0e61 14       	 .byte 0x14
 3336 0e62 E0       	 .byte 0xe0
 3337 0e63 0A       	 .byte 0xa
 3338 0e64 C10A0000 	 .4byte 0xac1
 3339 0e68 50       	 .byte 0x50
 3340 0e69 07       	 .uleb128 0x7
 3341 0e6a AD110000 	 .4byte .LASF125
 3342 0e6e 14       	 .byte 0x14
 3343 0e6f E3       	 .byte 0xe3
 3344 0e70 12       	 .byte 0x12
 3345 0e71 BC0E0000 	 .4byte 0xebc
 3346 0e75 54       	 .byte 0x54
 3347 0e76 07       	 .uleb128 0x7
 3348 0e77 8B130000 	 .4byte .LASF126
 3349 0e7b 14       	 .byte 0x14
 3350 0e7c E7       	 .byte 0xe7
 3351 0e7d 0C       	 .byte 0xc
 3352 0e7e 790B0000 	 .4byte 0xb79
 3353 0e82 58       	 .byte 0x58
 3354 0e83 07       	 .uleb128 0x7
 3355 0e84 21030000 	 .4byte .LASF127
 3356 0e88 14       	 .byte 0x14
 3357 0e89 E9       	 .byte 0xe9
 3358 0e8a 0E       	 .byte 0xe
 3359 0e8b 330B0000 	 .4byte 0xb33
 3360 0e8f 5C       	 .byte 0x5c
 3361 0e90 07       	 .uleb128 0x7
 3362 0e91 D9180000 	 .4byte .LASF128
 3363 0e95 14       	 .byte 0x14
 3364 0e96 EA       	 .byte 0xea
 3365 0e97 09       	 .byte 0x9
 3366 0e98 EC080000 	 .4byte 0x8ec
 3367 0e9c 64       	 .byte 0x64
 3368 0e9d 00       	 .byte 0
 3369 0e9e 38       	 .uleb128 0x38
 3370 0e9f EC080000 	 .4byte 0x8ec
 3371 0ea3 BC0E0000 	 .4byte 0xebc
 3372 0ea7 0A       	 .uleb128 0xa
 3373 0ea8 BC0E0000 	 .4byte 0xebc
ARM GAS   			page 73


 3374 0eac 0A       	 .uleb128 0xa
 3375 0ead 1E090000 	 .4byte 0x91e
 3376 0eb1 0A       	 .uleb128 0xa
 3377 0eb2 6C110000 	 .4byte 0x116c
 3378 0eb6 0A       	 .uleb128 0xa
 3379 0eb7 EC080000 	 .4byte 0x8ec
 3380 0ebb 00       	 .byte 0
 3381 0ebc 27       	 .uleb128 0x27
 3382 0ebd 04       	 .byte 0x4
 3383 0ebe C20E0000 	 .4byte 0xec2
 3384 0ec2 39       	 .uleb128 0x39
 3385 0ec3 63170000 	 .4byte .LASF129
 3386 0ec7 2804     	 .2byte 0x428
 3387 0ec9 14       	 .byte 0x14
 3388 0eca 6502     	 .2byte 0x265
 3389 0ecc 08       	 .byte 0x8
 3390 0ecd 6C110000 	 .4byte 0x116c
 3391 0ed1 3A       	 .uleb128 0x3a
 3392 0ed2 F0       	 .byte 0xf0
 3393 0ed3 14       	 .byte 0x14
 3394 0ed4 8402     	 .2byte 0x284
 3395 0ed6 05       	 .byte 0x5
 3396 0ed7 32100000 	 .4byte 0x1032
 3397 0edb 3B       	 .uleb128 0x3b
 3398 0edc D0       	 .byte 0xd0
 3399 0edd 14       	 .byte 0x14
 3400 0ede 8602     	 .2byte 0x286
 3401 0ee0 09       	 .byte 0x9
 3402 0ee1 F00F0000 	 .4byte 0xff0
 3403 0ee5 3C       	 .uleb128 0x3c
 3404 0ee6 71180000 	 .4byte .LASF130
 3405 0eea 14       	 .byte 0x14
 3406 0eeb 8702     	 .2byte 0x287
 3407 0eed 18       	 .byte 0x18
 3408 0eee 04090000 	 .4byte 0x904
 3409 0ef2 00       	 .byte 0
 3410 0ef3 3C       	 .uleb128 0x3c
 3411 0ef4 2A170000 	 .4byte .LASF131
 3412 0ef8 14       	 .byte 0x14
 3413 0ef9 8802     	 .2byte 0x288
 3414 0efb 12       	 .byte 0x12
 3415 0efc 6C110000 	 .4byte 0x116c
 3416 0f00 04       	 .byte 0x4
 3417 0f01 3C       	 .uleb128 0x3c
 3418 0f02 10090000 	 .4byte .LASF132
 3419 0f06 14       	 .byte 0x14
 3420 0f07 8902     	 .2byte 0x289
 3421 0f09 10       	 .byte 0x10
 3422 0f0a A7120000 	 .4byte 0x12a7
 3423 0f0e 08       	 .byte 0x8
 3424 0f0f 3C       	 .uleb128 0x3c
 3425 0f10 40120000 	 .4byte .LASF133
 3426 0f14 14       	 .byte 0x14
 3427 0f15 8A02     	 .2byte 0x28a
 3428 0f17 17       	 .byte 0x17
 3429 0f18 F50B0000 	 .4byte 0xbf5
 3430 0f1c 24       	 .byte 0x24
ARM GAS   			page 74


 3431 0f1d 3C       	 .uleb128 0x3c
 3432 0f1e EB0F0000 	 .4byte .LASF134
 3433 0f22 14       	 .byte 0x14
 3434 0f23 8B02     	 .2byte 0x28b
 3435 0f25 0F       	 .byte 0xf
 3436 0f26 EC080000 	 .4byte 0x8ec
 3437 0f2a 48       	 .byte 0x48
 3438 0f2b 3C       	 .uleb128 0x3c
 3439 0f2c 36100000 	 .4byte .LASF135
 3440 0f30 14       	 .byte 0x14
 3441 0f31 8C02     	 .2byte 0x28c
 3442 0f33 2C       	 .byte 0x2c
 3443 0f34 60090000 	 .4byte 0x960
 3444 0f38 50       	 .byte 0x50
 3445 0f39 3C       	 .uleb128 0x3c
 3446 0f3a 87030000 	 .4byte .LASF136
 3447 0f3e 14       	 .byte 0x14
 3448 0f3f 8D02     	 .2byte 0x28d
 3449 0f41 1A       	 .byte 0x1a
 3450 0f42 5E120000 	 .4byte 0x125e
 3451 0f46 58       	 .byte 0x58
 3452 0f47 3C       	 .uleb128 0x3c
 3453 0f48 5E0A0000 	 .4byte .LASF137
 3454 0f4c 14       	 .byte 0x14
 3455 0f4d 8E02     	 .2byte 0x28e
 3456 0f4f 16       	 .byte 0x16
 3457 0f50 330B0000 	 .4byte 0xb33
 3458 0f54 68       	 .byte 0x68
 3459 0f55 3C       	 .uleb128 0x3c
 3460 0f56 BC050000 	 .4byte .LASF138
 3461 0f5a 14       	 .byte 0x14
 3462 0f5b 8F02     	 .2byte 0x28f
 3463 0f5d 16       	 .byte 0x16
 3464 0f5e 330B0000 	 .4byte 0xb33
 3465 0f62 70       	 .byte 0x70
 3466 0f63 3C       	 .uleb128 0x3c
 3467 0f64 F1000000 	 .4byte .LASF139
 3468 0f68 14       	 .byte 0x14
 3469 0f69 9002     	 .2byte 0x290
 3470 0f6b 16       	 .byte 0x16
 3471 0f6c 330B0000 	 .4byte 0xb33
 3472 0f70 78       	 .byte 0x78
 3473 0f71 3C       	 .uleb128 0x3c
 3474 0f72 C6160000 	 .4byte .LASF140
 3475 0f76 14       	 .byte 0x14
 3476 0f77 9102     	 .2byte 0x291
 3477 0f79 10       	 .byte 0x10
 3478 0f7a B7120000 	 .4byte 0x12b7
 3479 0f7e 80       	 .byte 0x80
 3480 0f7f 3C       	 .uleb128 0x3c
 3481 0f80 BF010000 	 .4byte .LASF141
 3482 0f84 14       	 .byte 0x14
 3483 0f85 9202     	 .2byte 0x292
 3484 0f87 10       	 .byte 0x10
 3485 0f88 C7120000 	 .4byte 0x12c7
 3486 0f8c 88       	 .byte 0x88
 3487 0f8d 3C       	 .uleb128 0x3c
ARM GAS   			page 75


 3488 0f8e 9B150000 	 .4byte .LASF142
 3489 0f92 14       	 .byte 0x14
 3490 0f93 9302     	 .2byte 0x293
 3491 0f95 0F       	 .byte 0xf
 3492 0f96 EC080000 	 .4byte 0x8ec
 3493 0f9a A0       	 .byte 0xa0
 3494 0f9b 3C       	 .uleb128 0x3c
 3495 0f9c 16160000 	 .4byte .LASF143
 3496 0fa0 14       	 .byte 0x14
 3497 0fa1 9402     	 .2byte 0x294
 3498 0fa3 16       	 .byte 0x16
 3499 0fa4 330B0000 	 .4byte 0xb33
 3500 0fa8 A4       	 .byte 0xa4
 3501 0fa9 3C       	 .uleb128 0x3c
 3502 0faa 280B0000 	 .4byte .LASF144
 3503 0fae 14       	 .byte 0x14
 3504 0faf 9502     	 .2byte 0x295
 3505 0fb1 16       	 .byte 0x16
 3506 0fb2 330B0000 	 .4byte 0xb33
 3507 0fb6 AC       	 .byte 0xac
 3508 0fb7 3C       	 .uleb128 0x3c
 3509 0fb8 BA060000 	 .4byte .LASF145
 3510 0fbc 14       	 .byte 0x14
 3511 0fbd 9602     	 .2byte 0x296
 3512 0fbf 16       	 .byte 0x16
 3513 0fc0 330B0000 	 .4byte 0xb33
 3514 0fc4 B4       	 .byte 0xb4
 3515 0fc5 3C       	 .uleb128 0x3c
 3516 0fc6 970D0000 	 .4byte .LASF146
 3517 0fca 14       	 .byte 0x14
 3518 0fcb 9702     	 .2byte 0x297
 3519 0fcd 16       	 .byte 0x16
 3520 0fce 330B0000 	 .4byte 0xb33
 3521 0fd2 BC       	 .byte 0xbc
 3522 0fd3 3C       	 .uleb128 0x3c
 3523 0fd4 CB0E0000 	 .4byte .LASF147
 3524 0fd8 14       	 .byte 0x14
 3525 0fd9 9802     	 .2byte 0x298
 3526 0fdb 16       	 .byte 0x16
 3527 0fdc 330B0000 	 .4byte 0xb33
 3528 0fe0 C4       	 .byte 0xc4
 3529 0fe1 3C       	 .uleb128 0x3c
 3530 0fe2 3C0F0000 	 .4byte .LASF148
 3531 0fe6 14       	 .byte 0x14
 3532 0fe7 9902     	 .2byte 0x299
 3533 0fe9 08       	 .byte 0x8
 3534 0fea EC080000 	 .4byte 0x8ec
 3535 0fee CC       	 .byte 0xcc
 3536 0fef 00       	 .byte 0
 3537 0ff0 3B       	 .uleb128 0x3b
 3538 0ff1 F0       	 .byte 0xf0
 3539 0ff2 14       	 .byte 0x14
 3540 0ff3 9F02     	 .2byte 0x29f
 3541 0ff5 09       	 .byte 0x9
 3542 0ff6 17100000 	 .4byte 0x1017
 3543 0ffa 3C       	 .uleb128 0x3c
 3544 0ffb AB060000 	 .4byte .LASF149
ARM GAS   			page 76


 3545 0fff 14       	 .byte 0x14
 3546 1000 A102     	 .2byte 0x2a1
 3547 1002 1B       	 .byte 0x1b
 3548 1003 D7120000 	 .4byte 0x12d7
 3549 1007 00       	 .byte 0
 3550 1008 3C       	 .uleb128 0x3c
 3551 1009 40190000 	 .4byte .LASF150
 3552 100d 14       	 .byte 0x14
 3553 100e A202     	 .2byte 0x2a2
 3554 1010 18       	 .byte 0x18
 3555 1011 E7120000 	 .4byte 0x12e7
 3556 1015 78       	 .byte 0x78
 3557 1016 00       	 .byte 0
 3558 1017 3D       	 .uleb128 0x3d
 3559 1018 63170000 	 .4byte .LASF129
 3560 101c 14       	 .byte 0x14
 3561 101d 9A02     	 .2byte 0x29a
 3562 101f 0B       	 .byte 0xb
 3563 1020 DB0E0000 	 .4byte 0xedb
 3564 1024 3D       	 .uleb128 0x3d
 3565 1025 A4120000 	 .4byte .LASF151
 3566 1029 14       	 .byte 0x14
 3567 102a A302     	 .2byte 0x2a3
 3568 102c 0B       	 .byte 0xb
 3569 102d F00F0000 	 .4byte 0xff0
 3570 1031 00       	 .byte 0
 3571 1032 3C       	 .uleb128 0x3c
 3572 1033 36020000 	 .4byte .LASF152
 3573 1037 14       	 .byte 0x14
 3574 1038 6702     	 .2byte 0x267
 3575 103a 07       	 .byte 0x7
 3576 103b EC080000 	 .4byte 0x8ec
 3577 103f 00       	 .byte 0
 3578 1040 3C       	 .uleb128 0x3c
 3579 1041 C70C0000 	 .4byte .LASF153
 3580 1045 14       	 .byte 0x14
 3581 1046 6C02     	 .2byte 0x26c
 3582 1048 0B       	 .byte 0xb
 3583 1049 58120000 	 .4byte 0x1258
 3584 104d 04       	 .byte 0x4
 3585 104e 3C       	 .uleb128 0x3c
 3586 104f B1030000 	 .4byte .LASF154
 3587 1053 14       	 .byte 0x14
 3588 1054 6C02     	 .2byte 0x26c
 3589 1056 14       	 .byte 0x14
 3590 1057 58120000 	 .4byte 0x1258
 3591 105b 08       	 .byte 0x8
 3592 105c 3C       	 .uleb128 0x3c
 3593 105d 38190000 	 .4byte .LASF155
 3594 1061 14       	 .byte 0x14
 3595 1062 6C02     	 .2byte 0x26c
 3596 1064 1E       	 .byte 0x1e
 3597 1065 58120000 	 .4byte 0x1258
 3598 1069 0C       	 .byte 0xc
 3599 106a 3C       	 .uleb128 0x3c
 3600 106b 58090000 	 .4byte .LASF156
 3601 106f 14       	 .byte 0x14
ARM GAS   			page 77


 3602 1070 6E02     	 .2byte 0x26e
 3603 1072 08       	 .byte 0x8
 3604 1073 EC080000 	 .4byte 0x8ec
 3605 1077 10       	 .byte 0x10
 3606 1078 3C       	 .uleb128 0x3c
 3607 1079 6D060000 	 .4byte .LASF157
 3608 107d 14       	 .byte 0x14
 3609 107e 6F02     	 .2byte 0x26f
 3610 1080 08       	 .byte 0x8
 3611 1081 F7120000 	 .4byte 0x12f7
 3612 1085 14       	 .byte 0x14
 3613 1086 3C       	 .uleb128 0x3c
 3614 1087 8D0C0000 	 .4byte .LASF158
 3615 108b 14       	 .byte 0x14
 3616 108c 7202     	 .2byte 0x272
 3617 108e 07       	 .byte 0x7
 3618 108f EC080000 	 .4byte 0x8ec
 3619 1093 30       	 .byte 0x30
 3620 1094 3C       	 .uleb128 0x3c
 3621 1095 28180000 	 .4byte .LASF159
 3622 1099 14       	 .byte 0x14
 3623 109a 7302     	 .2byte 0x273
 3624 109c 16       	 .byte 0x16
 3625 109d 0C130000 	 .4byte 0x130c
 3626 10a1 34       	 .byte 0x34
 3627 10a2 3C       	 .uleb128 0x3c
 3628 10a3 720C0000 	 .4byte .LASF160
 3629 10a7 14       	 .byte 0x14
 3630 10a8 7502     	 .2byte 0x275
 3631 10aa 07       	 .byte 0x7
 3632 10ab EC080000 	 .4byte 0x8ec
 3633 10af 38       	 .byte 0x38
 3634 10b0 3C       	 .uleb128 0x3c
 3635 10b1 130E0000 	 .4byte .LASF161
 3636 10b5 14       	 .byte 0x14
 3637 10b6 7702     	 .2byte 0x277
 3638 10b8 0A       	 .byte 0xa
 3639 10b9 1D130000 	 .4byte 0x131d
 3640 10bd 3C       	 .byte 0x3c
 3641 10be 3C       	 .uleb128 0x3c
 3642 10bf 10060000 	 .4byte .LASF162
 3643 10c3 14       	 .byte 0x14
 3644 10c4 7A02     	 .2byte 0x27a
 3645 10c6 13       	 .byte 0x13
 3646 10c7 DF0B0000 	 .4byte 0xbdf
 3647 10cb 40       	 .byte 0x40
 3648 10cc 3C       	 .uleb128 0x3c
 3649 10cd A20B0000 	 .4byte .LASF163
 3650 10d1 14       	 .byte 0x14
 3651 10d2 7B02     	 .2byte 0x27b
 3652 10d4 07       	 .byte 0x7
 3653 10d5 EC080000 	 .4byte 0x8ec
 3654 10d9 44       	 .byte 0x44
 3655 10da 3C       	 .uleb128 0x3c
 3656 10db 010A0000 	 .4byte .LASF164
 3657 10df 14       	 .byte 0x14
 3658 10e0 7C02     	 .2byte 0x27c
ARM GAS   			page 78


 3659 10e2 13       	 .byte 0x13
 3660 10e3 DF0B0000 	 .4byte 0xbdf
 3661 10e7 48       	 .byte 0x48
 3662 10e8 3C       	 .uleb128 0x3c
 3663 10e9 390D0000 	 .4byte .LASF165
 3664 10ed 14       	 .byte 0x14
 3665 10ee 7D02     	 .2byte 0x27d
 3666 10f0 14       	 .byte 0x14
 3667 10f1 23130000 	 .4byte 0x1323
 3668 10f5 4C       	 .byte 0x4c
 3669 10f6 3C       	 .uleb128 0x3c
 3670 10f7 D7120000 	 .4byte .LASF166
 3671 10fb 14       	 .byte 0x14
 3672 10fc 8002     	 .2byte 0x280
 3673 10fe 07       	 .byte 0x7
 3674 10ff EC080000 	 .4byte 0x8ec
 3675 1103 50       	 .byte 0x50
 3676 1104 3C       	 .uleb128 0x3c
 3677 1105 EC140000 	 .4byte .LASF167
 3678 1109 14       	 .byte 0x14
 3679 110a 8102     	 .2byte 0x281
 3680 110c 09       	 .byte 0x9
 3681 110d 6C110000 	 .4byte 0x116c
 3682 1111 54       	 .byte 0x54
 3683 1112 3C       	 .uleb128 0x3c
 3684 1113 BF120000 	 .4byte .LASF168
 3685 1117 14       	 .byte 0x14
 3686 1118 A402     	 .2byte 0x2a4
 3687 111a 07       	 .byte 0x7
 3688 111b D10E0000 	 .4byte 0xed1
 3689 111f 58       	 .byte 0x58
 3690 1120 3E       	 .uleb128 0x3e
 3691 1121 57100000 	 .4byte .LASF106
 3692 1125 14       	 .byte 0x14
 3693 1126 A802     	 .2byte 0x2a8
 3694 1128 13       	 .byte 0x13
 3695 1129 100D0000 	 .4byte 0xd10
 3696 112d 4801     	 .2byte 0x148
 3697 112f 3E       	 .uleb128 0x3e
 3698 1130 370B0000 	 .4byte .LASF169
 3699 1134 14       	 .byte 0x14
 3700 1135 A902     	 .2byte 0x2a9
 3701 1137 12       	 .byte 0x12
 3702 1138 CD0C0000 	 .4byte 0xccd
 3703 113c 4C01     	 .2byte 0x14c
 3704 113e 3E       	 .uleb128 0x3e
 3705 113f 1E0B0000 	 .4byte .LASF170
 3706 1143 14       	 .byte 0x14
 3707 1144 AD02     	 .2byte 0x2ad
 3708 1146 0C       	 .byte 0xc
 3709 1147 34130000 	 .4byte 0x1334
 3710 114b DC02     	 .2byte 0x2dc
 3711 114d 3E       	 .uleb128 0x3e
 3712 114e 22170000 	 .4byte .LASF171
 3713 1152 14       	 .byte 0x14
 3714 1153 B202     	 .2byte 0x2b2
 3715 1155 10       	 .byte 0x10
ARM GAS   			page 79


 3716 1156 19120000 	 .4byte 0x1219
 3717 115a E002     	 .2byte 0x2e0
 3718 115c 3E       	 .uleb128 0x3e
 3719 115d 71110000 	 .4byte .LASF172
 3720 1161 14       	 .byte 0x14
 3721 1162 B402     	 .2byte 0x2b4
 3722 1164 0A       	 .byte 0xa
 3723 1165 40130000 	 .4byte 0x1340
 3724 1169 EC02     	 .2byte 0x2ec
 3725 116b 00       	 .byte 0
 3726 116c 27       	 .uleb128 0x27
 3727 116d 04       	 .byte 0x4
 3728 116e 72110000 	 .4byte 0x1172
 3729 1172 24       	 .uleb128 0x24
 3730 1173 01       	 .byte 0x1
 3731 1174 08       	 .byte 0x8
 3732 1175 080B0000 	 .4byte .LASF173
 3733 1179 11       	 .uleb128 0x11
 3734 117a 72110000 	 .4byte 0x1172
 3735 117e 27       	 .uleb128 0x27
 3736 117f 04       	 .byte 0x4
 3737 1180 9E0E0000 	 .4byte 0xe9e
 3738 1184 38       	 .uleb128 0x38
 3739 1185 EC080000 	 .4byte 0x8ec
 3740 1189 A2110000 	 .4byte 0x11a2
 3741 118d 0A       	 .uleb128 0xa
 3742 118e BC0E0000 	 .4byte 0xebc
 3743 1192 0A       	 .uleb128 0xa
 3744 1193 1E090000 	 .4byte 0x91e
 3745 1197 0A       	 .uleb128 0xa
 3746 1198 A2110000 	 .4byte 0x11a2
 3747 119c 0A       	 .uleb128 0xa
 3748 119d EC080000 	 .4byte 0x8ec
 3749 11a1 00       	 .byte 0
 3750 11a2 27       	 .uleb128 0x27
 3751 11a3 04       	 .byte 0x4
 3752 11a4 79110000 	 .4byte 0x1179
 3753 11a8 27       	 .uleb128 0x27
 3754 11a9 04       	 .byte 0x4
 3755 11aa 84110000 	 .4byte 0x1184
 3756 11ae 38       	 .uleb128 0x38
 3757 11af CD0A0000 	 .4byte 0xacd
 3758 11b3 CC110000 	 .4byte 0x11cc
 3759 11b7 0A       	 .uleb128 0xa
 3760 11b8 BC0E0000 	 .4byte 0xebc
 3761 11bc 0A       	 .uleb128 0xa
 3762 11bd 1E090000 	 .4byte 0x91e
 3763 11c1 0A       	 .uleb128 0xa
 3764 11c2 CD0A0000 	 .4byte 0xacd
 3765 11c6 0A       	 .uleb128 0xa
 3766 11c7 EC080000 	 .4byte 0x8ec
 3767 11cb 00       	 .byte 0
 3768 11cc 27       	 .uleb128 0x27
 3769 11cd 04       	 .byte 0x4
 3770 11ce AE110000 	 .4byte 0x11ae
 3771 11d2 38       	 .uleb128 0x38
 3772 11d3 EC080000 	 .4byte 0x8ec
ARM GAS   			page 80


 3773 11d7 E6110000 	 .4byte 0x11e6
 3774 11db 0A       	 .uleb128 0xa
 3775 11dc BC0E0000 	 .4byte 0xebc
 3776 11e0 0A       	 .uleb128 0xa
 3777 11e1 1E090000 	 .4byte 0x91e
 3778 11e5 00       	 .byte 0
 3779 11e6 27       	 .uleb128 0x27
 3780 11e7 04       	 .byte 0x4
 3781 11e8 D2110000 	 .4byte 0x11d2
 3782 11ec 2F       	 .uleb128 0x2f
 3783 11ed 4B090000 	 .4byte 0x94b
 3784 11f1 FC110000 	 .4byte 0x11fc
 3785 11f5 30       	 .uleb128 0x30
 3786 11f6 04090000 	 .4byte 0x904
 3787 11fa 02       	 .byte 0x2
 3788 11fb 00       	 .byte 0
 3789 11fc 2F       	 .uleb128 0x2f
 3790 11fd 4B090000 	 .4byte 0x94b
 3791 1201 0C120000 	 .4byte 0x120c
 3792 1205 30       	 .uleb128 0x30
 3793 1206 04090000 	 .4byte 0x904
 3794 120a 00       	 .byte 0
 3795 120b 00       	 .byte 0
 3796 120c 14       	 .uleb128 0x14
 3797 120d F4070000 	 .4byte .LASF174
 3798 1211 14       	 .byte 0x14
 3799 1212 2401     	 .2byte 0x124
 3800 1214 1A       	 .byte 0x1a
 3801 1215 5B0D0000 	 .4byte 0xd5b
 3802 1219 3F       	 .uleb128 0x3f
 3803 121a 9C060000 	 .4byte .LASF175
 3804 121e 0C       	 .byte 0xc
 3805 121f 14       	 .byte 0x14
 3806 1220 2801     	 .2byte 0x128
 3807 1222 08       	 .byte 0x8
 3808 1223 52120000 	 .4byte 0x1252
 3809 1227 3C       	 .uleb128 0x3c
 3810 1228 7B090000 	 .4byte .LASF87
 3811 122c 14       	 .byte 0x14
 3812 122d 2A01     	 .2byte 0x12a
 3813 122f 11       	 .byte 0x11
 3814 1230 52120000 	 .4byte 0x1252
 3815 1234 00       	 .byte 0
 3816 1235 3C       	 .uleb128 0x3c
 3817 1236 C3130000 	 .4byte .LASF176
 3818 123a 14       	 .byte 0x14
 3819 123b 2B01     	 .2byte 0x12b
 3820 123d 07       	 .byte 0x7
 3821 123e EC080000 	 .4byte 0x8ec
 3822 1242 04       	 .byte 0x4
 3823 1243 3C       	 .uleb128 0x3c
 3824 1244 49190000 	 .4byte .LASF177
 3825 1248 14       	 .byte 0x14
 3826 1249 2C01     	 .2byte 0x12c
 3827 124b 0B       	 .byte 0xb
 3828 124c 58120000 	 .4byte 0x1258
 3829 1250 08       	 .byte 0x8
ARM GAS   			page 81


 3830 1251 00       	 .byte 0
 3831 1252 27       	 .uleb128 0x27
 3832 1253 04       	 .byte 0x4
 3833 1254 19120000 	 .4byte 0x1219
 3834 1258 27       	 .uleb128 0x27
 3835 1259 04       	 .byte 0x4
 3836 125a 0C120000 	 .4byte 0x120c
 3837 125e 3F       	 .uleb128 0x3f
 3838 125f 65070000 	 .4byte .LASF178
 3839 1263 0E       	 .byte 0xe
 3840 1264 14       	 .byte 0x14
 3841 1265 4401     	 .2byte 0x144
 3842 1267 08       	 .byte 0x8
 3843 1268 97120000 	 .4byte 0x1297
 3844 126c 3C       	 .uleb128 0x3c
 3845 126d 0A190000 	 .4byte .LASF179
 3846 1271 14       	 .byte 0x14
 3847 1272 4501     	 .2byte 0x145
 3848 1274 12       	 .byte 0x12
 3849 1275 97120000 	 .4byte 0x1297
 3850 1279 00       	 .byte 0
 3851 127a 3C       	 .uleb128 0x3c
 3852 127b 430D0000 	 .4byte .LASF180
 3853 127f 14       	 .byte 0x14
 3854 1280 4601     	 .2byte 0x146
 3855 1282 12       	 .byte 0x12
 3856 1283 97120000 	 .4byte 0x1297
 3857 1287 06       	 .byte 0x6
 3858 1288 3C       	 .uleb128 0x3c
 3859 1289 490D0000 	 .4byte .LASF181
 3860 128d 14       	 .byte 0x14
 3861 128e 4701     	 .2byte 0x147
 3862 1290 12       	 .byte 0x12
 3863 1291 52090000 	 .4byte 0x952
 3864 1295 0C       	 .byte 0xc
 3865 1296 00       	 .byte 0
 3866 1297 2F       	 .uleb128 0x2f
 3867 1298 52090000 	 .4byte 0x952
 3868 129c A7120000 	 .4byte 0x12a7
 3869 12a0 30       	 .uleb128 0x30
 3870 12a1 04090000 	 .4byte 0x904
 3871 12a5 02       	 .byte 0x2
 3872 12a6 00       	 .byte 0
 3873 12a7 2F       	 .uleb128 0x2f
 3874 12a8 72110000 	 .4byte 0x1172
 3875 12ac B7120000 	 .4byte 0x12b7
 3876 12b0 30       	 .uleb128 0x30
 3877 12b1 04090000 	 .4byte 0x904
 3878 12b5 19       	 .byte 0x19
 3879 12b6 00       	 .byte 0
 3880 12b7 2F       	 .uleb128 0x2f
 3881 12b8 72110000 	 .4byte 0x1172
 3882 12bc C7120000 	 .4byte 0x12c7
 3883 12c0 30       	 .uleb128 0x30
 3884 12c1 04090000 	 .4byte 0x904
 3885 12c5 07       	 .byte 0x7
 3886 12c6 00       	 .byte 0
ARM GAS   			page 82


 3887 12c7 2F       	 .uleb128 0x2f
 3888 12c8 72110000 	 .4byte 0x1172
 3889 12cc D7120000 	 .4byte 0x12d7
 3890 12d0 30       	 .uleb128 0x30
 3891 12d1 04090000 	 .4byte 0x904
 3892 12d5 17       	 .byte 0x17
 3893 12d6 00       	 .byte 0
 3894 12d7 2F       	 .uleb128 0x2f
 3895 12d8 550D0000 	 .4byte 0xd55
 3896 12dc E7120000 	 .4byte 0x12e7
 3897 12e0 30       	 .uleb128 0x30
 3898 12e1 04090000 	 .4byte 0x904
 3899 12e5 1D       	 .byte 0x1d
 3900 12e6 00       	 .byte 0
 3901 12e7 2F       	 .uleb128 0x2f
 3902 12e8 04090000 	 .4byte 0x904
 3903 12ec F7120000 	 .4byte 0x12f7
 3904 12f0 30       	 .uleb128 0x30
 3905 12f1 04090000 	 .4byte 0x904
 3906 12f5 1D       	 .byte 0x1d
 3907 12f6 00       	 .byte 0
 3908 12f7 2F       	 .uleb128 0x2f
 3909 12f8 72110000 	 .4byte 0x1172
 3910 12fc 07130000 	 .4byte 0x1307
 3911 1300 30       	 .uleb128 0x30
 3912 1301 04090000 	 .4byte 0x904
 3913 1305 18       	 .byte 0x18
 3914 1306 00       	 .byte 0
 3915 1307 33       	 .uleb128 0x33
 3916 1308 10190000 	 .4byte .LASF183
 3917 130c 27       	 .uleb128 0x27
 3918 130d 04       	 .byte 0x4
 3919 130e 07130000 	 .4byte 0x1307
 3920 1312 40       	 .uleb128 0x40
 3921 1313 1D130000 	 .4byte 0x131d
 3922 1317 0A       	 .uleb128 0xa
 3923 1318 BC0E0000 	 .4byte 0xebc
 3924 131c 00       	 .byte 0
 3925 131d 27       	 .uleb128 0x27
 3926 131e 04       	 .byte 0x4
 3927 131f 12130000 	 .4byte 0x1312
 3928 1323 27       	 .uleb128 0x27
 3929 1324 04       	 .byte 0x4
 3930 1325 DF0B0000 	 .4byte 0xbdf
 3931 1329 40       	 .uleb128 0x40
 3932 132a 34130000 	 .4byte 0x1334
 3933 132e 0A       	 .uleb128 0xa
 3934 132f EC080000 	 .4byte 0x8ec
 3935 1333 00       	 .byte 0
 3936 1334 27       	 .uleb128 0x27
 3937 1335 04       	 .byte 0x4
 3938 1336 3A130000 	 .4byte 0x133a
 3939 133a 27       	 .uleb128 0x27
 3940 133b 04       	 .byte 0x4
 3941 133c 29130000 	 .4byte 0x1329
 3942 1340 2F       	 .uleb128 0x2f
 3943 1341 0C120000 	 .4byte 0x120c
ARM GAS   			page 83


 3944 1345 50130000 	 .4byte 0x1350
 3945 1349 30       	 .uleb128 0x30
 3946 134a 04090000 	 .4byte 0x904
 3947 134e 02       	 .byte 0x2
 3948 134f 00       	 .byte 0
 3949 1350 23       	 .uleb128 0x23
 3950 1351 BB080000 	 .4byte .LASF184
 3951 1355 16       	 .byte 0x16
 3952 1356 28       	 .byte 0x28
 3953 1357 1B       	 .byte 0x1b
 3954 1358 3F0B0000 	 .4byte 0xb3f
 3955 135c 23       	 .uleb128 0x23
 3956 135d 59140000 	 .4byte .LASF185
 3957 1361 17       	 .byte 0x17
 3958 1362 56       	 .byte 0x56
 3959 1363 14       	 .byte 0x14
 3960 1364 330B0000 	 .4byte 0xb33
 3961 1368 11       	 .uleb128 0x11
 3962 1369 5C130000 	 .4byte 0x135c
 3963 136d 41       	 .uleb128 0x41
 3964 136e 51100000 	 .4byte .LASF186
 3965 1372 17       	 .byte 0x17
 3966 1373 59       	 .byte 0x59
 3967 1374 08       	 .byte 0x8
 3968 1375 C4090000 	 .4byte 0x9c4
 3969 1379 83130000 	 .4byte 0x1383
 3970 137d 0A       	 .uleb128 0xa
 3971 137e EC080000 	 .4byte 0x8ec
 3972 1382 00       	 .byte 0
 3973 1383 41       	 .uleb128 0x41
 3974 1384 DB0D0000 	 .4byte .LASF187
 3975 1388 17       	 .byte 0x17
 3976 1389 E3       	 .byte 0xe3
 3977 138a 08       	 .byte 0x8
 3978 138b C4090000 	 .4byte 0x9c4
 3979 138f 99130000 	 .4byte 0x1399
 3980 1393 0A       	 .uleb128 0xa
 3981 1394 58120000 	 .4byte 0x1258
 3982 1398 00       	 .byte 0
 3983 1399 41       	 .uleb128 0x41
 3984 139a 400E0000 	 .4byte .LASF188
 3985 139e 17       	 .byte 0x17
 3986 139f E4       	 .byte 0xe4
 3987 13a0 0A       	 .byte 0xa
 3988 13a1 B9130000 	 .4byte 0x13b9
 3989 13a5 B9130000 	 .4byte 0x13b9
 3990 13a9 0A       	 .uleb128 0xa
 3991 13aa B9130000 	 .4byte 0x13b9
 3992 13ae 0A       	 .uleb128 0xa
 3993 13af EC080000 	 .4byte 0x8ec
 3994 13b3 0A       	 .uleb128 0xa
 3995 13b4 58120000 	 .4byte 0x1258
 3996 13b8 00       	 .byte 0
 3997 13b9 27       	 .uleb128 0x27
 3998 13ba 04       	 .byte 0x4
 3999 13bb 7C090000 	 .4byte 0x97c
 4000 13bf 41       	 .uleb128 0x41
ARM GAS   			page 84


 4001 13c0 B60F0000 	 .4byte .LASF189
 4002 13c4 17       	 .byte 0x17
 4003 13c5 E5       	 .byte 0xe5
 4004 13c6 08       	 .byte 0x8
 4005 13c7 C4090000 	 .4byte 0x9c4
 4006 13cb DA130000 	 .4byte 0x13da
 4007 13cf 0A       	 .uleb128 0xa
 4008 13d0 7C090000 	 .4byte 0x97c
 4009 13d4 0A       	 .uleb128 0xa
 4010 13d5 58120000 	 .4byte 0x1258
 4011 13d9 00       	 .byte 0
 4012 13da 41       	 .uleb128 0x41
 4013 13db FA0F0000 	 .4byte .LASF190
 4014 13df 17       	 .byte 0x17
 4015 13e0 E6       	 .byte 0xe6
 4016 13e1 05       	 .byte 0x5
 4017 13e2 EC080000 	 .4byte 0x8ec
 4018 13e6 F5130000 	 .4byte 0x13f5
 4019 13ea 0A       	 .uleb128 0xa
 4020 13eb F5130000 	 .4byte 0x13f5
 4021 13ef 0A       	 .uleb128 0xa
 4022 13f0 58120000 	 .4byte 0x1258
 4023 13f4 00       	 .byte 0
 4024 13f5 27       	 .uleb128 0x27
 4025 13f6 04       	 .byte 0x4
 4026 13f7 83090000 	 .4byte 0x983
 4027 13fb 41       	 .uleb128 0x41
 4028 13fc 580A0000 	 .4byte .LASF191
 4029 1400 17       	 .byte 0x17
 4030 1401 E8       	 .byte 0xe8
 4031 1402 05       	 .byte 0x5
 4032 1403 EC080000 	 .4byte 0x8ec
 4033 1407 16140000 	 .4byte 0x1416
 4034 140b 0A       	 .uleb128 0xa
 4035 140c 58120000 	 .4byte 0x1258
 4036 1410 0A       	 .uleb128 0xa
 4037 1411 EC080000 	 .4byte 0x8ec
 4038 1415 00       	 .byte 0
 4039 1416 42       	 .uleb128 0x42
 4040 1417 68160000 	 .4byte .LASF192
 4041 141b 17       	 .byte 0x17
 4042 141c 1C01     	 .2byte 0x11c
 4043 141e 05       	 .byte 0x5
 4044 141f EC080000 	 .4byte 0x8ec
 4045 1423 33140000 	 .4byte 0x1433
 4046 1427 0A       	 .uleb128 0xa
 4047 1428 58120000 	 .4byte 0x1258
 4048 142c 0A       	 .uleb128 0xa
 4049 142d F5130000 	 .4byte 0x13f5
 4050 1431 43       	 .uleb128 0x43
 4051 1432 00       	 .byte 0
 4052 1433 42       	 .uleb128 0x42
 4053 1434 18060000 	 .4byte .LASF193
 4054 1438 17       	 .byte 0x17
 4055 1439 2F01     	 .2byte 0x12f
 4056 143b 05       	 .byte 0x5
 4057 143c EC080000 	 .4byte 0x8ec
ARM GAS   			page 85


 4058 1440 50140000 	 .4byte 0x1450
 4059 1444 0A       	 .uleb128 0xa
 4060 1445 58120000 	 .4byte 0x1258
 4061 1449 0A       	 .uleb128 0xa
 4062 144a F5130000 	 .4byte 0x13f5
 4063 144e 43       	 .uleb128 0x43
 4064 144f 00       	 .byte 0
 4065 1450 41       	 .uleb128 0x41
 4066 1451 0C070000 	 .4byte .LASF194
 4067 1455 17       	 .byte 0x17
 4068 1456 EA       	 .byte 0xea
 4069 1457 08       	 .byte 0x8
 4070 1458 C4090000 	 .4byte 0x9c4
 4071 145c 66140000 	 .4byte 0x1466
 4072 1460 0A       	 .uleb128 0xa
 4073 1461 58120000 	 .4byte 0x1258
 4074 1465 00       	 .byte 0
 4075 1466 44       	 .uleb128 0x44
 4076 1467 8E110000 	 .4byte .LASF298
 4077 146b 17       	 .byte 0x17
 4078 146c EB       	 .byte 0xeb
 4079 146d 08       	 .byte 0x8
 4080 146e C4090000 	 .4byte 0x9c4
 4081 1472 41       	 .uleb128 0x41
 4082 1473 1B110000 	 .4byte .LASF195
 4083 1477 17       	 .byte 0x17
 4084 1478 5B       	 .byte 0x5b
 4085 1479 08       	 .byte 0x8
 4086 147a F8080000 	 .4byte 0x8f8
 4087 147e 92140000 	 .4byte 0x1492
 4088 1482 0A       	 .uleb128 0xa
 4089 1483 A2110000 	 .4byte 0x11a2
 4090 1487 0A       	 .uleb128 0xa
 4091 1488 F8080000 	 .4byte 0x8f8
 4092 148c 0A       	 .uleb128 0xa
 4093 148d 92140000 	 .4byte 0x1492
 4094 1491 00       	 .byte 0
 4095 1492 27       	 .uleb128 0x27
 4096 1493 04       	 .byte 0x4
 4097 1494 5C130000 	 .4byte 0x135c
 4098 1498 41       	 .uleb128 0x41
 4099 1499 11080000 	 .4byte .LASF196
 4100 149d 17       	 .byte 0x17
 4101 149e 5C       	 .byte 0x5c
 4102 149f 08       	 .byte 0x8
 4103 14a0 F8080000 	 .4byte 0x8f8
 4104 14a4 BD140000 	 .4byte 0x14bd
 4105 14a8 0A       	 .uleb128 0xa
 4106 14a9 B9130000 	 .4byte 0x13b9
 4107 14ad 0A       	 .uleb128 0xa
 4108 14ae A2110000 	 .4byte 0x11a2
 4109 14b2 0A       	 .uleb128 0xa
 4110 14b3 F8080000 	 .4byte 0x8f8
 4111 14b7 0A       	 .uleb128 0xa
 4112 14b8 92140000 	 .4byte 0x1492
 4113 14bc 00       	 .byte 0
 4114 14bd 41       	 .uleb128 0x41
ARM GAS   			page 86


 4115 14be 95100000 	 .4byte .LASF197
 4116 14c2 17       	 .byte 0x17
 4117 14c3 60       	 .byte 0x60
 4118 14c4 05       	 .byte 0x5
 4119 14c5 EC080000 	 .4byte 0x8ec
 4120 14c9 D3140000 	 .4byte 0x14d3
 4121 14cd 0A       	 .uleb128 0xa
 4122 14ce D3140000 	 .4byte 0x14d3
 4123 14d2 00       	 .byte 0
 4124 14d3 27       	 .uleb128 0x27
 4125 14d4 04       	 .byte 0x4
 4126 14d5 68130000 	 .4byte 0x1368
 4127 14d9 41       	 .uleb128 0x41
 4128 14da 410C0000 	 .4byte .LASF198
 4129 14de 17       	 .byte 0x17
 4130 14df 67       	 .byte 0x67
 4131 14e0 08       	 .byte 0x8
 4132 14e1 F8080000 	 .4byte 0x8f8
 4133 14e5 FE140000 	 .4byte 0x14fe
 4134 14e9 0A       	 .uleb128 0xa
 4135 14ea B9130000 	 .4byte 0x13b9
 4136 14ee 0A       	 .uleb128 0xa
 4137 14ef FE140000 	 .4byte 0x14fe
 4138 14f3 0A       	 .uleb128 0xa
 4139 14f4 F8080000 	 .4byte 0x8f8
 4140 14f8 0A       	 .uleb128 0xa
 4141 14f9 92140000 	 .4byte 0x1492
 4142 14fd 00       	 .byte 0
 4143 14fe 27       	 .uleb128 0x27
 4144 14ff 04       	 .byte 0x4
 4145 1500 A2110000 	 .4byte 0x11a2
 4146 1504 41       	 .uleb128 0x41
 4147 1505 1D090000 	 .4byte .LASF199
 4148 1509 17       	 .byte 0x17
 4149 150a EC       	 .byte 0xec
 4150 150b 08       	 .byte 0x8
 4151 150c C4090000 	 .4byte 0x9c4
 4152 1510 1F150000 	 .4byte 0x151f
 4153 1514 0A       	 .uleb128 0xa
 4154 1515 7C090000 	 .4byte 0x97c
 4155 1519 0A       	 .uleb128 0xa
 4156 151a 58120000 	 .4byte 0x1258
 4157 151e 00       	 .byte 0
 4158 151f 41       	 .uleb128 0x41
 4159 1520 7D110000 	 .4byte .LASF200
 4160 1524 17       	 .byte 0x17
 4161 1525 ED       	 .byte 0xed
 4162 1526 08       	 .byte 0x8
 4163 1527 C4090000 	 .4byte 0x9c4
 4164 152b 35150000 	 .4byte 0x1535
 4165 152f 0A       	 .uleb128 0xa
 4166 1530 7C090000 	 .4byte 0x97c
 4167 1534 00       	 .byte 0
 4168 1535 42       	 .uleb128 0x42
 4169 1536 E6160000 	 .4byte .LASF201
 4170 153a 17       	 .byte 0x17
 4171 153b 1D01     	 .2byte 0x11d
ARM GAS   			page 87


 4172 153d 05       	 .byte 0x5
 4173 153e EC080000 	 .4byte 0x8ec
 4174 1542 57150000 	 .4byte 0x1557
 4175 1546 0A       	 .uleb128 0xa
 4176 1547 B9130000 	 .4byte 0x13b9
 4177 154b 0A       	 .uleb128 0xa
 4178 154c F8080000 	 .4byte 0x8f8
 4179 1550 0A       	 .uleb128 0xa
 4180 1551 F5130000 	 .4byte 0x13f5
 4181 1555 43       	 .uleb128 0x43
 4182 1556 00       	 .byte 0
 4183 1557 42       	 .uleb128 0x42
 4184 1558 400B0000 	 .4byte .LASF202
 4185 155c 17       	 .byte 0x17
 4186 155d 3001     	 .2byte 0x130
 4187 155f 05       	 .byte 0x5
 4188 1560 EC080000 	 .4byte 0x8ec
 4189 1564 74150000 	 .4byte 0x1574
 4190 1568 0A       	 .uleb128 0xa
 4191 1569 F5130000 	 .4byte 0x13f5
 4192 156d 0A       	 .uleb128 0xa
 4193 156e F5130000 	 .4byte 0x13f5
 4194 1572 43       	 .uleb128 0x43
 4195 1573 00       	 .byte 0
 4196 1574 41       	 .uleb128 0x41
 4197 1575 FF0E0000 	 .4byte .LASF203
 4198 1579 17       	 .byte 0x17
 4199 157a EE       	 .byte 0xee
 4200 157b 08       	 .byte 0x8
 4201 157c C4090000 	 .4byte 0x9c4
 4202 1580 8F150000 	 .4byte 0x158f
 4203 1584 0A       	 .uleb128 0xa
 4204 1585 C4090000 	 .4byte 0x9c4
 4205 1589 0A       	 .uleb128 0xa
 4206 158a 58120000 	 .4byte 0x1258
 4207 158e 00       	 .byte 0
 4208 158f 42       	 .uleb128 0x42
 4209 1590 88080000 	 .4byte .LASF204
 4210 1594 17       	 .byte 0x17
 4211 1595 1F01     	 .2byte 0x11f
 4212 1597 05       	 .byte 0x5
 4213 1598 EC080000 	 .4byte 0x8ec
 4214 159c B0150000 	 .4byte 0x15b0
 4215 15a0 0A       	 .uleb128 0xa
 4216 15a1 58120000 	 .4byte 0x1258
 4217 15a5 0A       	 .uleb128 0xa
 4218 15a6 F5130000 	 .4byte 0x13f5
 4219 15aa 0A       	 .uleb128 0xa
 4220 15ab 50130000 	 .4byte 0x1350
 4221 15af 00       	 .byte 0
 4222 15b0 42       	 .uleb128 0x42
 4223 15b1 7D010000 	 .4byte .LASF205
 4224 15b5 17       	 .byte 0x17
 4225 15b6 3201     	 .2byte 0x132
 4226 15b8 05       	 .byte 0x5
 4227 15b9 EC080000 	 .4byte 0x8ec
 4228 15bd D1150000 	 .4byte 0x15d1
ARM GAS   			page 88


 4229 15c1 0A       	 .uleb128 0xa
 4230 15c2 58120000 	 .4byte 0x1258
 4231 15c6 0A       	 .uleb128 0xa
 4232 15c7 F5130000 	 .4byte 0x13f5
 4233 15cb 0A       	 .uleb128 0xa
 4234 15cc 50130000 	 .4byte 0x1350
 4235 15d0 00       	 .byte 0
 4236 15d1 42       	 .uleb128 0x42
 4237 15d2 CF180000 	 .4byte .LASF206
 4238 15d6 17       	 .byte 0x17
 4239 15d7 2101     	 .2byte 0x121
 4240 15d9 05       	 .byte 0x5
 4241 15da EC080000 	 .4byte 0x8ec
 4242 15de F7150000 	 .4byte 0x15f7
 4243 15e2 0A       	 .uleb128 0xa
 4244 15e3 B9130000 	 .4byte 0x13b9
 4245 15e7 0A       	 .uleb128 0xa
 4246 15e8 F8080000 	 .4byte 0x8f8
 4247 15ec 0A       	 .uleb128 0xa
 4248 15ed F5130000 	 .4byte 0x13f5
 4249 15f1 0A       	 .uleb128 0xa
 4250 15f2 50130000 	 .4byte 0x1350
 4251 15f6 00       	 .byte 0
 4252 15f7 42       	 .uleb128 0x42
 4253 15f8 6F080000 	 .4byte .LASF207
 4254 15fc 17       	 .byte 0x17
 4255 15fd 3401     	 .2byte 0x134
 4256 15ff 05       	 .byte 0x5
 4257 1600 EC080000 	 .4byte 0x8ec
 4258 1604 18160000 	 .4byte 0x1618
 4259 1608 0A       	 .uleb128 0xa
 4260 1609 F5130000 	 .4byte 0x13f5
 4261 160d 0A       	 .uleb128 0xa
 4262 160e F5130000 	 .4byte 0x13f5
 4263 1612 0A       	 .uleb128 0xa
 4264 1613 50130000 	 .4byte 0x1350
 4265 1617 00       	 .byte 0
 4266 1618 42       	 .uleb128 0x42
 4267 1619 91050000 	 .4byte .LASF208
 4268 161d 17       	 .byte 0x17
 4269 161e 2301     	 .2byte 0x123
 4270 1620 05       	 .byte 0x5
 4271 1621 EC080000 	 .4byte 0x8ec
 4272 1625 34160000 	 .4byte 0x1634
 4273 1629 0A       	 .uleb128 0xa
 4274 162a F5130000 	 .4byte 0x13f5
 4275 162e 0A       	 .uleb128 0xa
 4276 162f 50130000 	 .4byte 0x1350
 4277 1633 00       	 .byte 0
 4278 1634 42       	 .uleb128 0x42
 4279 1635 9D020000 	 .4byte .LASF209
 4280 1639 17       	 .byte 0x17
 4281 163a 3601     	 .2byte 0x136
 4282 163c 05       	 .byte 0x5
 4283 163d EC080000 	 .4byte 0x8ec
 4284 1641 50160000 	 .4byte 0x1650
 4285 1645 0A       	 .uleb128 0xa
ARM GAS   			page 89


 4286 1646 F5130000 	 .4byte 0x13f5
 4287 164a 0A       	 .uleb128 0xa
 4288 164b 50130000 	 .4byte 0x1350
 4289 164f 00       	 .byte 0
 4290 1650 41       	 .uleb128 0x41
 4291 1651 19080000 	 .4byte .LASF210
 4292 1655 17       	 .byte 0x17
 4293 1656 6A       	 .byte 0x6a
 4294 1657 08       	 .byte 0x8
 4295 1658 F8080000 	 .4byte 0x8f8
 4296 165c 70160000 	 .4byte 0x1670
 4297 1660 0A       	 .uleb128 0xa
 4298 1661 6C110000 	 .4byte 0x116c
 4299 1665 0A       	 .uleb128 0xa
 4300 1666 7C090000 	 .4byte 0x97c
 4301 166a 0A       	 .uleb128 0xa
 4302 166b 92140000 	 .4byte 0x1492
 4303 166f 00       	 .byte 0
 4304 1670 41       	 .uleb128 0x41
 4305 1671 DA030000 	 .4byte .LASF211
 4306 1675 17       	 .byte 0x17
 4307 1676 79       	 .byte 0x79
 4308 1677 0A       	 .byte 0xa
 4309 1678 B9130000 	 .4byte 0x13b9
 4310 167c 8B160000 	 .4byte 0x168b
 4311 1680 0A       	 .uleb128 0xa
 4312 1681 B9130000 	 .4byte 0x13b9
 4313 1685 0A       	 .uleb128 0xa
 4314 1686 F5130000 	 .4byte 0x13f5
 4315 168a 00       	 .byte 0
 4316 168b 41       	 .uleb128 0x41
 4317 168c 55180000 	 .4byte .LASF212
 4318 1690 17       	 .byte 0x17
 4319 1691 7B       	 .byte 0x7b
 4320 1692 05       	 .byte 0x5
 4321 1693 EC080000 	 .4byte 0x8ec
 4322 1697 A6160000 	 .4byte 0x16a6
 4323 169b 0A       	 .uleb128 0xa
 4324 169c F5130000 	 .4byte 0x13f5
 4325 16a0 0A       	 .uleb128 0xa
 4326 16a1 F5130000 	 .4byte 0x13f5
 4327 16a5 00       	 .byte 0
 4328 16a6 41       	 .uleb128 0x41
 4329 16a7 D70F0000 	 .4byte .LASF213
 4330 16ab 17       	 .byte 0x17
 4331 16ac 7C       	 .byte 0x7c
 4332 16ad 05       	 .byte 0x5
 4333 16ae EC080000 	 .4byte 0x8ec
 4334 16b2 C1160000 	 .4byte 0x16c1
 4335 16b6 0A       	 .uleb128 0xa
 4336 16b7 F5130000 	 .4byte 0x13f5
 4337 16bb 0A       	 .uleb128 0xa
 4338 16bc F5130000 	 .4byte 0x13f5
 4339 16c0 00       	 .byte 0
 4340 16c1 41       	 .uleb128 0x41
 4341 16c2 AA030000 	 .4byte .LASF214
 4342 16c6 17       	 .byte 0x17
ARM GAS   			page 90


 4343 16c7 7D       	 .byte 0x7d
 4344 16c8 0A       	 .byte 0xa
 4345 16c9 B9130000 	 .4byte 0x13b9
 4346 16cd DC160000 	 .4byte 0x16dc
 4347 16d1 0A       	 .uleb128 0xa
 4348 16d2 B9130000 	 .4byte 0x13b9
 4349 16d6 0A       	 .uleb128 0xa
 4350 16d7 F5130000 	 .4byte 0x13f5
 4351 16db 00       	 .byte 0
 4352 16dc 41       	 .uleb128 0x41
 4353 16dd B6170000 	 .4byte .LASF215
 4354 16e1 17       	 .byte 0x17
 4355 16e2 84       	 .byte 0x84
 4356 16e3 08       	 .byte 0x8
 4357 16e4 F8080000 	 .4byte 0x8f8
 4358 16e8 F7160000 	 .4byte 0x16f7
 4359 16ec 0A       	 .uleb128 0xa
 4360 16ed F5130000 	 .4byte 0x13f5
 4361 16f1 0A       	 .uleb128 0xa
 4362 16f2 F5130000 	 .4byte 0x13f5
 4363 16f6 00       	 .byte 0
 4364 16f7 41       	 .uleb128 0x41
 4365 16f8 B6120000 	 .4byte .LASF216
 4366 16fc 17       	 .byte 0x17
 4367 16fd 85       	 .byte 0x85
 4368 16fe 09       	 .byte 0x9
 4369 16ff F8080000 	 .4byte 0x8f8
 4370 1703 1C170000 	 .4byte 0x171c
 4371 1707 0A       	 .uleb128 0xa
 4372 1708 B9130000 	 .4byte 0x13b9
 4373 170c 0A       	 .uleb128 0xa
 4374 170d F8080000 	 .4byte 0x8f8
 4375 1711 0A       	 .uleb128 0xa
 4376 1712 F5130000 	 .4byte 0x13f5
 4377 1716 0A       	 .uleb128 0xa
 4378 1717 1C170000 	 .4byte 0x171c
 4379 171b 00       	 .byte 0
 4380 171c 27       	 .uleb128 0x27
 4381 171d 04       	 .byte 0x4
 4382 171e 26170000 	 .4byte 0x1726
 4383 1722 45       	 .uleb128 0x45
 4384 1723 746D00   	 .ascii "tm\000"
 4385 1726 11       	 .uleb128 0x11
 4386 1727 22170000 	 .4byte 0x1722
 4387 172b 41       	 .uleb128 0x41
 4388 172c 31190000 	 .4byte .LASF217
 4389 1730 17       	 .byte 0x17
 4390 1731 8D       	 .byte 0x8d
 4391 1732 08       	 .byte 0x8
 4392 1733 F8080000 	 .4byte 0x8f8
 4393 1737 41170000 	 .4byte 0x1741
 4394 173b 0A       	 .uleb128 0xa
 4395 173c F5130000 	 .4byte 0x13f5
 4396 1740 00       	 .byte 0
 4397 1741 41       	 .uleb128 0x41
 4398 1742 5C180000 	 .4byte .LASF218
 4399 1746 17       	 .byte 0x17
ARM GAS   			page 91


 4400 1747 91       	 .byte 0x91
 4401 1748 0A       	 .byte 0xa
 4402 1749 B9130000 	 .4byte 0x13b9
 4403 174d 61170000 	 .4byte 0x1761
 4404 1751 0A       	 .uleb128 0xa
 4405 1752 B9130000 	 .4byte 0x13b9
 4406 1756 0A       	 .uleb128 0xa
 4407 1757 F5130000 	 .4byte 0x13f5
 4408 175b 0A       	 .uleb128 0xa
 4409 175c F8080000 	 .4byte 0x8f8
 4410 1760 00       	 .byte 0
 4411 1761 41       	 .uleb128 0x41
 4412 1762 23120000 	 .4byte .LASF219
 4413 1766 17       	 .byte 0x17
 4414 1767 93       	 .byte 0x93
 4415 1768 05       	 .byte 0x5
 4416 1769 EC080000 	 .4byte 0x8ec
 4417 176d 81170000 	 .4byte 0x1781
 4418 1771 0A       	 .uleb128 0xa
 4419 1772 F5130000 	 .4byte 0x13f5
 4420 1776 0A       	 .uleb128 0xa
 4421 1777 F5130000 	 .4byte 0x13f5
 4422 177b 0A       	 .uleb128 0xa
 4423 177c F8080000 	 .4byte 0x8f8
 4424 1780 00       	 .byte 0
 4425 1781 41       	 .uleb128 0x41
 4426 1782 20180000 	 .4byte .LASF220
 4427 1786 17       	 .byte 0x17
 4428 1787 94       	 .byte 0x94
 4429 1788 0A       	 .byte 0xa
 4430 1789 B9130000 	 .4byte 0x13b9
 4431 178d A1170000 	 .4byte 0x17a1
 4432 1791 0A       	 .uleb128 0xa
 4433 1792 B9130000 	 .4byte 0x13b9
 4434 1796 0A       	 .uleb128 0xa
 4435 1797 F5130000 	 .4byte 0x13f5
 4436 179b 0A       	 .uleb128 0xa
 4437 179c F8080000 	 .4byte 0x8f8
 4438 17a0 00       	 .byte 0
 4439 17a1 41       	 .uleb128 0x41
 4440 17a2 B4100000 	 .4byte .LASF221
 4441 17a6 17       	 .byte 0x17
 4442 17a7 72       	 .byte 0x72
 4443 17a8 08       	 .byte 0x8
 4444 17a9 F8080000 	 .4byte 0x8f8
 4445 17ad C6170000 	 .4byte 0x17c6
 4446 17b1 0A       	 .uleb128 0xa
 4447 17b2 6C110000 	 .4byte 0x116c
 4448 17b6 0A       	 .uleb128 0xa
 4449 17b7 C6170000 	 .4byte 0x17c6
 4450 17bb 0A       	 .uleb128 0xa
 4451 17bc F8080000 	 .4byte 0x8f8
 4452 17c0 0A       	 .uleb128 0xa
 4453 17c1 92140000 	 .4byte 0x1492
 4454 17c5 00       	 .byte 0
 4455 17c6 27       	 .uleb128 0x27
 4456 17c7 04       	 .byte 0x4
ARM GAS   			page 92


 4457 17c8 F5130000 	 .4byte 0x13f5
 4458 17cc 41       	 .uleb128 0x41
 4459 17cd C00C0000 	 .4byte .LASF222
 4460 17d1 17       	 .byte 0x17
 4461 17d2 9D       	 .byte 0x9d
 4462 17d3 08       	 .byte 0x8
 4463 17d4 F8080000 	 .4byte 0x8f8
 4464 17d8 E7170000 	 .4byte 0x17e7
 4465 17dc 0A       	 .uleb128 0xa
 4466 17dd F5130000 	 .4byte 0x13f5
 4467 17e1 0A       	 .uleb128 0xa
 4468 17e2 F5130000 	 .4byte 0x13f5
 4469 17e6 00       	 .byte 0
 4470 17e7 41       	 .uleb128 0x41
 4471 17e8 13140000 	 .4byte .LASF223
 4472 17ec 17       	 .byte 0x17
 4473 17ed A2       	 .byte 0xa2
 4474 17ee 08       	 .byte 0x8
 4475 17ef 96090000 	 .4byte 0x996
 4476 17f3 02180000 	 .4byte 0x1802
 4477 17f7 0A       	 .uleb128 0xa
 4478 17f8 F5130000 	 .4byte 0x13f5
 4479 17fc 0A       	 .uleb128 0xa
 4480 17fd 02180000 	 .4byte 0x1802
 4481 1801 00       	 .byte 0
 4482 1802 27       	 .uleb128 0x27
 4483 1803 04       	 .byte 0x4
 4484 1804 B9130000 	 .4byte 0x13b9
 4485 1808 41       	 .uleb128 0x41
 4486 1809 B90C0000 	 .4byte .LASF224
 4487 180d 17       	 .byte 0x17
 4488 180e A5       	 .byte 0xa5
 4489 180f 07       	 .byte 0x7
 4490 1810 9D090000 	 .4byte 0x99d
 4491 1814 23180000 	 .4byte 0x1823
 4492 1818 0A       	 .uleb128 0xa
 4493 1819 F5130000 	 .4byte 0x13f5
 4494 181d 0A       	 .uleb128 0xa
 4495 181e 02180000 	 .4byte 0x1802
 4496 1822 00       	 .byte 0
 4497 1823 41       	 .uleb128 0x41
 4498 1824 1E0D0000 	 .4byte .LASF225
 4499 1828 17       	 .byte 0x17
 4500 1829 A0       	 .byte 0xa0
 4501 182a 0A       	 .byte 0xa
 4502 182b B9130000 	 .4byte 0x13b9
 4503 182f 43180000 	 .4byte 0x1843
 4504 1833 0A       	 .uleb128 0xa
 4505 1834 B9130000 	 .4byte 0x13b9
 4506 1838 0A       	 .uleb128 0xa
 4507 1839 F5130000 	 .4byte 0x13f5
 4508 183d 0A       	 .uleb128 0xa
 4509 183e 02180000 	 .4byte 0x1802
 4510 1842 00       	 .byte 0
 4511 1843 41       	 .uleb128 0x41
 4512 1844 6A140000 	 .4byte .LASF226
 4513 1848 17       	 .byte 0x17
ARM GAS   			page 93


 4514 1849 C3       	 .byte 0xc3
 4515 184a 09       	 .byte 0x9
 4516 184b 75090000 	 .4byte 0x975
 4517 184f 63180000 	 .4byte 0x1863
 4518 1853 0A       	 .uleb128 0xa
 4519 1854 F5130000 	 .4byte 0x13f5
 4520 1858 0A       	 .uleb128 0xa
 4521 1859 02180000 	 .4byte 0x1802
 4522 185d 0A       	 .uleb128 0xa
 4523 185e EC080000 	 .4byte 0x8ec
 4524 1862 00       	 .byte 0
 4525 1863 41       	 .uleb128 0x41
 4526 1864 AF070000 	 .4byte .LASF227
 4527 1868 17       	 .byte 0x17
 4528 1869 C8       	 .byte 0xc8
 4529 186a 0F       	 .byte 0xf
 4530 186b 59090000 	 .4byte 0x959
 4531 186f 83180000 	 .4byte 0x1883
 4532 1873 0A       	 .uleb128 0xa
 4533 1874 F5130000 	 .4byte 0x13f5
 4534 1878 0A       	 .uleb128 0xa
 4535 1879 02180000 	 .4byte 0x1802
 4536 187d 0A       	 .uleb128 0xa
 4537 187e EC080000 	 .4byte 0x8ec
 4538 1882 00       	 .byte 0
 4539 1883 41       	 .uleb128 0x41
 4540 1884 75000000 	 .4byte .LASF228
 4541 1888 17       	 .byte 0x17
 4542 1889 AB       	 .byte 0xab
 4543 188a 08       	 .byte 0x8
 4544 188b F8080000 	 .4byte 0x8f8
 4545 188f A3180000 	 .4byte 0x18a3
 4546 1893 0A       	 .uleb128 0xa
 4547 1894 B9130000 	 .4byte 0x13b9
 4548 1898 0A       	 .uleb128 0xa
 4549 1899 F5130000 	 .4byte 0x13f5
 4550 189d 0A       	 .uleb128 0xa
 4551 189e F8080000 	 .4byte 0x8f8
 4552 18a2 00       	 .byte 0
 4553 18a3 41       	 .uleb128 0x41
 4554 18a4 D0160000 	 .4byte .LASF229
 4555 18a8 17       	 .byte 0x17
 4556 18a9 5A       	 .byte 0x5a
 4557 18aa 05       	 .byte 0x5
 4558 18ab EC080000 	 .4byte 0x8ec
 4559 18af B9180000 	 .4byte 0x18b9
 4560 18b3 0A       	 .uleb128 0xa
 4561 18b4 C4090000 	 .4byte 0x9c4
 4562 18b8 00       	 .byte 0
 4563 18b9 41       	 .uleb128 0x41
 4564 18ba 09080000 	 .4byte .LASF230
 4565 18be 17       	 .byte 0x17
 4566 18bf B9       	 .byte 0xb9
 4567 18c0 05       	 .byte 0x5
 4568 18c1 EC080000 	 .4byte 0x8ec
 4569 18c5 D9180000 	 .4byte 0x18d9
 4570 18c9 0A       	 .uleb128 0xa
ARM GAS   			page 94


 4571 18ca F5130000 	 .4byte 0x13f5
 4572 18ce 0A       	 .uleb128 0xa
 4573 18cf F5130000 	 .4byte 0x13f5
 4574 18d3 0A       	 .uleb128 0xa
 4575 18d4 F8080000 	 .4byte 0x8f8
 4576 18d8 00       	 .byte 0
 4577 18d9 41       	 .uleb128 0x41
 4578 18da 22110000 	 .4byte .LASF231
 4579 18de 17       	 .byte 0x17
 4580 18df BA       	 .byte 0xba
 4581 18e0 0A       	 .byte 0xa
 4582 18e1 B9130000 	 .4byte 0x13b9
 4583 18e5 F9180000 	 .4byte 0x18f9
 4584 18e9 0A       	 .uleb128 0xa
 4585 18ea B9130000 	 .4byte 0x13b9
 4586 18ee 0A       	 .uleb128 0xa
 4587 18ef F5130000 	 .4byte 0x13f5
 4588 18f3 0A       	 .uleb128 0xa
 4589 18f4 F8080000 	 .4byte 0x8f8
 4590 18f8 00       	 .byte 0
 4591 18f9 41       	 .uleb128 0x41
 4592 18fa A1090000 	 .4byte .LASF232
 4593 18fe 17       	 .byte 0x17
 4594 18ff BC       	 .byte 0xbc
 4595 1900 0A       	 .byte 0xa
 4596 1901 B9130000 	 .4byte 0x13b9
 4597 1905 19190000 	 .4byte 0x1919
 4598 1909 0A       	 .uleb128 0xa
 4599 190a B9130000 	 .4byte 0x13b9
 4600 190e 0A       	 .uleb128 0xa
 4601 190f F5130000 	 .4byte 0x13f5
 4602 1913 0A       	 .uleb128 0xa
 4603 1914 F8080000 	 .4byte 0x8f8
 4604 1918 00       	 .byte 0
 4605 1919 41       	 .uleb128 0x41
 4606 191a A6140000 	 .4byte .LASF233
 4607 191e 17       	 .byte 0x17
 4608 191f C1       	 .byte 0xc1
 4609 1920 0A       	 .byte 0xa
 4610 1921 B9130000 	 .4byte 0x13b9
 4611 1925 39190000 	 .4byte 0x1939
 4612 1929 0A       	 .uleb128 0xa
 4613 192a B9130000 	 .4byte 0x13b9
 4614 192e 0A       	 .uleb128 0xa
 4615 192f 7C090000 	 .4byte 0x97c
 4616 1933 0A       	 .uleb128 0xa
 4617 1934 F8080000 	 .4byte 0x8f8
 4618 1938 00       	 .byte 0
 4619 1939 42       	 .uleb128 0x42
 4620 193a A4000000 	 .4byte .LASF234
 4621 193e 17       	 .byte 0x17
 4622 193f 2401     	 .2byte 0x124
 4623 1941 05       	 .byte 0x5
 4624 1942 EC080000 	 .4byte 0x8ec
 4625 1946 51190000 	 .4byte 0x1951
 4626 194a 0A       	 .uleb128 0xa
 4627 194b F5130000 	 .4byte 0x13f5
ARM GAS   			page 95


 4628 194f 43       	 .uleb128 0x43
 4629 1950 00       	 .byte 0
 4630 1951 42       	 .uleb128 0x42
 4631 1952 3C0A0000 	 .4byte .LASF235
 4632 1956 17       	 .byte 0x17
 4633 1957 3701     	 .2byte 0x137
 4634 1959 05       	 .byte 0x5
 4635 195a EC080000 	 .4byte 0x8ec
 4636 195e 69190000 	 .4byte 0x1969
 4637 1962 0A       	 .uleb128 0xa
 4638 1963 F5130000 	 .4byte 0x13f5
 4639 1967 43       	 .uleb128 0x43
 4640 1968 00       	 .byte 0
 4641 1969 41       	 .uleb128 0x41
 4642 196a 930F0000 	 .4byte .LASF236
 4643 196e 17       	 .byte 0x17
 4644 196f 7A       	 .byte 0x7a
 4645 1970 0A       	 .byte 0xa
 4646 1971 B9130000 	 .4byte 0x13b9
 4647 1975 84190000 	 .4byte 0x1984
 4648 1979 0A       	 .uleb128 0xa
 4649 197a F5130000 	 .4byte 0x13f5
 4650 197e 0A       	 .uleb128 0xa
 4651 197f 7C090000 	 .4byte 0x97c
 4652 1983 00       	 .byte 0
 4653 1984 41       	 .uleb128 0x41
 4654 1985 1A140000 	 .4byte .LASF237
 4655 1989 17       	 .byte 0x17
 4656 198a 9B       	 .byte 0x9b
 4657 198b 0A       	 .byte 0xa
 4658 198c B9130000 	 .4byte 0x13b9
 4659 1990 9F190000 	 .4byte 0x199f
 4660 1994 0A       	 .uleb128 0xa
 4661 1995 F5130000 	 .4byte 0x13f5
 4662 1999 0A       	 .uleb128 0xa
 4663 199a F5130000 	 .4byte 0x13f5
 4664 199e 00       	 .byte 0
 4665 199f 41       	 .uleb128 0x41
 4666 19a0 86110000 	 .4byte .LASF238
 4667 19a4 17       	 .byte 0x17
 4668 19a5 9C       	 .byte 0x9c
 4669 19a6 0A       	 .byte 0xa
 4670 19a7 B9130000 	 .4byte 0x13b9
 4671 19ab BA190000 	 .4byte 0x19ba
 4672 19af 0A       	 .uleb128 0xa
 4673 19b0 F5130000 	 .4byte 0x13f5
 4674 19b4 0A       	 .uleb128 0xa
 4675 19b5 7C090000 	 .4byte 0x97c
 4676 19b9 00       	 .byte 0
 4677 19ba 41       	 .uleb128 0x41
 4678 19bb 9A090000 	 .4byte .LASF239
 4679 19bf 17       	 .byte 0x17
 4680 19c0 9E       	 .byte 0x9e
 4681 19c1 0A       	 .byte 0xa
 4682 19c2 B9130000 	 .4byte 0x13b9
 4683 19c6 D5190000 	 .4byte 0x19d5
 4684 19ca 0A       	 .uleb128 0xa
ARM GAS   			page 96


 4685 19cb F5130000 	 .4byte 0x13f5
 4686 19cf 0A       	 .uleb128 0xa
 4687 19d0 F5130000 	 .4byte 0x13f5
 4688 19d4 00       	 .byte 0
 4689 19d5 41       	 .uleb128 0x41
 4690 19d6 9D100000 	 .4byte .LASF240
 4691 19da 17       	 .byte 0x17
 4692 19db B8       	 .byte 0xb8
 4693 19dc 0A       	 .byte 0xa
 4694 19dd B9130000 	 .4byte 0x13b9
 4695 19e1 F5190000 	 .4byte 0x19f5
 4696 19e5 0A       	 .uleb128 0xa
 4697 19e6 F5130000 	 .4byte 0x13f5
 4698 19ea 0A       	 .uleb128 0xa
 4699 19eb 7C090000 	 .4byte 0x97c
 4700 19ef 0A       	 .uleb128 0xa
 4701 19f0 F8080000 	 .4byte 0x8f8
 4702 19f4 00       	 .byte 0
 4703 19f5 41       	 .uleb128 0x41
 4704 19f6 9A160000 	 .4byte .LASF241
 4705 19fa 17       	 .byte 0x17
 4706 19fb D3       	 .byte 0xd3
 4707 19fc 0D       	 .byte 0xd
 4708 19fd 12090000 	 .4byte 0x912
 4709 1a01 101A0000 	 .4byte 0x1a10
 4710 1a05 0A       	 .uleb128 0xa
 4711 1a06 F5130000 	 .4byte 0x13f5
 4712 1a0a 0A       	 .uleb128 0xa
 4713 1a0b 02180000 	 .4byte 0x1802
 4714 1a0f 00       	 .byte 0
 4715 1a10 41       	 .uleb128 0x41
 4716 1a11 DE160000 	 .4byte .LASF242
 4717 1a15 17       	 .byte 0x17
 4718 1a16 C5       	 .byte 0xc5
 4719 1a17 0B       	 .byte 0xb
 4720 1a18 0B090000 	 .4byte 0x90b
 4721 1a1c 301A0000 	 .4byte 0x1a30
 4722 1a20 0A       	 .uleb128 0xa
 4723 1a21 F5130000 	 .4byte 0x13f5
 4724 1a25 0A       	 .uleb128 0xa
 4725 1a26 02180000 	 .4byte 0x1802
 4726 1a2a 0A       	 .uleb128 0xa
 4727 1a2b EC080000 	 .4byte 0x8ec
 4728 1a2f 00       	 .byte 0
 4729 1a30 41       	 .uleb128 0x41
 4730 1a31 CE100000 	 .4byte .LASF243
 4731 1a35 17       	 .byte 0x17
 4732 1a36 CB       	 .byte 0xcb
 4733 1a37 14       	 .byte 0x14
 4734 1a38 60090000 	 .4byte 0x960
 4735 1a3c 501A0000 	 .4byte 0x1a50
 4736 1a40 0A       	 .uleb128 0xa
 4737 1a41 F5130000 	 .4byte 0x13f5
 4738 1a45 0A       	 .uleb128 0xa
 4739 1a46 02180000 	 .4byte 0x1802
 4740 1a4a 0A       	 .uleb128 0xa
 4741 1a4b EC080000 	 .4byte 0x8ec
ARM GAS   			page 97


 4742 1a4f 00       	 .byte 0
 4743 1a50 23       	 .uleb128 0x23
 4744 1a51 40060000 	 .4byte .LASF244
 4745 1a55 18       	 .byte 0x18
 4746 1a56 14       	 .byte 0x14
 4747 1a57 12       	 .byte 0x12
 4748 1a58 D1090000 	 .4byte 0x9d1
 4749 1a5c 23       	 .uleb128 0x23
 4750 1a5d 030C0000 	 .4byte .LASF245
 4751 1a61 18       	 .byte 0x18
 4752 1a62 18       	 .byte 0x18
 4753 1a63 13       	 .byte 0x13
 4754 1a64 DD090000 	 .4byte 0x9dd
 4755 1a68 23       	 .uleb128 0x23
 4756 1a69 B2060000 	 .4byte .LASF246
 4757 1a6d 18       	 .byte 0x18
 4758 1a6e 20       	 .byte 0x20
 4759 1a6f 13       	 .byte 0x13
 4760 1a70 E9090000 	 .4byte 0x9e9
 4761 1a74 23       	 .uleb128 0x23
 4762 1a75 CE0F0000 	 .4byte .LASF247
 4763 1a79 18       	 .byte 0x18
 4764 1a7a 24       	 .byte 0x24
 4765 1a7b 14       	 .byte 0x14
 4766 1a7c F5090000 	 .4byte 0x9f5
 4767 1a80 23       	 .uleb128 0x23
 4768 1a81 FD130000 	 .4byte .LASF248
 4769 1a85 18       	 .byte 0x18
 4770 1a86 2C       	 .byte 0x2c
 4771 1a87 13       	 .byte 0x13
 4772 1a88 010A0000 	 .4byte 0xa01
 4773 1a8c 23       	 .uleb128 0x23
 4774 1a8d 37060000 	 .4byte .LASF249
 4775 1a91 18       	 .byte 0x18
 4776 1a92 30       	 .byte 0x30
 4777 1a93 14       	 .byte 0x14
 4778 1a94 0D0A0000 	 .4byte 0xa0d
 4779 1a98 23       	 .uleb128 0x23
 4780 1a99 FA080000 	 .4byte .LASF250
 4781 1a9d 18       	 .byte 0x18
 4782 1a9e 38       	 .byte 0x38
 4783 1a9f 13       	 .byte 0x13
 4784 1aa0 190A0000 	 .4byte 0xa19
 4785 1aa4 23       	 .uleb128 0x23
 4786 1aa5 C8110000 	 .4byte .LASF251
 4787 1aa9 18       	 .byte 0x18
 4788 1aaa 3C       	 .byte 0x3c
 4789 1aab 14       	 .byte 0x14
 4790 1aac 250A0000 	 .4byte 0xa25
 4791 1ab0 23       	 .uleb128 0x23
 4792 1ab1 08020000 	 .4byte .LASF252
 4793 1ab5 18       	 .byte 0x18
 4794 1ab6 43       	 .byte 0x43
 4795 1ab7 14       	 .byte 0x14
 4796 1ab8 910A0000 	 .4byte 0xa91
 4797 1abc 23       	 .uleb128 0x23
 4798 1abd 02070000 	 .4byte .LASF253
ARM GAS   			page 98


 4799 1ac1 18       	 .byte 0x18
 4800 1ac2 48       	 .byte 0x48
 4801 1ac3 15       	 .byte 0x15
 4802 1ac4 9D0A0000 	 .4byte 0xa9d
 4803 1ac8 23       	 .uleb128 0x23
 4804 1ac9 BD0F0000 	 .4byte .LASF254
 4805 1acd 18       	 .byte 0x18
 4806 1ace 4D       	 .byte 0x4d
 4807 1acf 14       	 .byte 0x14
 4808 1ad0 A90A0000 	 .4byte 0xaa9
 4809 1ad4 23       	 .uleb128 0x23
 4810 1ad5 72130000 	 .4byte .LASF255
 4811 1ad9 18       	 .byte 0x18
 4812 1ada 52       	 .byte 0x52
 4813 1adb 15       	 .byte 0x15
 4814 1adc B50A0000 	 .4byte 0xab5
 4815 1ae0 23       	 .uleb128 0x23
 4816 1ae1 ED080000 	 .4byte .LASF256
 4817 1ae5 19       	 .byte 0x19
 4818 1ae6 15       	 .byte 0x15
 4819 1ae7 18       	 .byte 0x18
 4820 1ae8 310A0000 	 .4byte 0xa31
 4821 1aec 23       	 .uleb128 0x23
 4822 1aed 4A090000 	 .4byte .LASF257
 4823 1af1 19       	 .byte 0x19
 4824 1af2 16       	 .byte 0x16
 4825 1af3 19       	 .byte 0x19
 4826 1af4 3D0A0000 	 .4byte 0xa3d
 4827 1af8 23       	 .uleb128 0x23
 4828 1af9 F4060000 	 .4byte .LASF258
 4829 1afd 19       	 .byte 0x19
 4830 1afe 1B       	 .byte 0x1b
 4831 1aff 19       	 .byte 0x19
 4832 1b00 490A0000 	 .4byte 0xa49
 4833 1b04 23       	 .uleb128 0x23
 4834 1b05 28060000 	 .4byte .LASF259
 4835 1b09 19       	 .byte 0x19
 4836 1b0a 1C       	 .byte 0x1c
 4837 1b0b 1A       	 .byte 0x1a
 4838 1b0c 550A0000 	 .4byte 0xa55
 4839 1b10 23       	 .uleb128 0x23
 4840 1b11 05140000 	 .4byte .LASF260
 4841 1b15 19       	 .byte 0x19
 4842 1b16 21       	 .byte 0x21
 4843 1b17 19       	 .byte 0x19
 4844 1b18 610A0000 	 .4byte 0xa61
 4845 1b1c 23       	 .uleb128 0x23
 4846 1b1d F4120000 	 .4byte .LASF261
 4847 1b21 19       	 .byte 0x19
 4848 1b22 22       	 .byte 0x22
 4849 1b23 1A       	 .byte 0x1a
 4850 1b24 6D0A0000 	 .4byte 0xa6d
 4851 1b28 23       	 .uleb128 0x23
 4852 1b29 02090000 	 .4byte .LASF262
 4853 1b2d 19       	 .byte 0x19
 4854 1b2e 27       	 .byte 0x27
 4855 1b2f 19       	 .byte 0x19
ARM GAS   			page 99


 4856 1b30 790A0000 	 .4byte 0xa79
 4857 1b34 23       	 .uleb128 0x23
 4858 1b35 21080000 	 .4byte .LASF263
 4859 1b39 19       	 .byte 0x19
 4860 1b3a 28       	 .byte 0x28
 4861 1b3b 1A       	 .byte 0x1a
 4862 1b3c 850A0000 	 .4byte 0xa85
 4863 1b40 23       	 .uleb128 0x23
 4864 1b41 FC0D0000 	 .4byte .LASF264
 4865 1b45 19       	 .byte 0x19
 4866 1b46 33       	 .byte 0x33
 4867 1b47 1E       	 .byte 0x1e
 4868 1b48 EC080000 	 .4byte 0x8ec
 4869 1b4c 23       	 .uleb128 0x23
 4870 1b4d 04160000 	 .4byte .LASF265
 4871 1b51 19       	 .byte 0x19
 4872 1b52 34       	 .byte 0x34
 4873 1b53 1F       	 .byte 0x1f
 4874 1b54 04090000 	 .4byte 0x904
 4875 1b58 23       	 .uleb128 0x23
 4876 1b59 1F020000 	 .4byte .LASF266
 4877 1b5d 19       	 .byte 0x19
 4878 1b5e 3D       	 .byte 0x3d
 4879 1b5f 1F       	 .byte 0x1f
 4880 1b60 EC080000 	 .4byte 0x8ec
 4881 1b64 23       	 .uleb128 0x23
 4882 1b65 07000000 	 .4byte .LASF267
 4883 1b69 19       	 .byte 0x19
 4884 1b6a 3E       	 .byte 0x3e
 4885 1b6b 20       	 .byte 0x20
 4886 1b6c 04090000 	 .4byte 0x904
 4887 1b70 23       	 .uleb128 0x23
 4888 1b71 76100000 	 .4byte .LASF268
 4889 1b75 19       	 .byte 0x19
 4890 1b76 47       	 .byte 0x47
 4891 1b77 1F       	 .byte 0x1f
 4892 1b78 EC080000 	 .4byte 0x8ec
 4893 1b7c 23       	 .uleb128 0x23
 4894 1b7d BD0E0000 	 .4byte .LASF269
 4895 1b81 19       	 .byte 0x19
 4896 1b82 48       	 .byte 0x48
 4897 1b83 20       	 .byte 0x20
 4898 1b84 04090000 	 .4byte 0x904
 4899 1b88 23       	 .uleb128 0x23
 4900 1b89 F7050000 	 .4byte .LASF270
 4901 1b8d 19       	 .byte 0x19
 4902 1b8e 51       	 .byte 0x51
 4903 1b8f 1F       	 .byte 0x1f
 4904 1b90 0B090000 	 .4byte 0x90b
 4905 1b94 23       	 .uleb128 0x23
 4906 1b95 11020000 	 .4byte .LASF271
 4907 1b99 19       	 .byte 0x19
 4908 1b9a 52       	 .byte 0x52
 4909 1b9b 20       	 .byte 0x20
 4910 1b9c 60090000 	 .4byte 0x960
 4911 1ba0 27       	 .uleb128 0x27
 4912 1ba1 04       	 .byte 0x4
ARM GAS   			page 100


 4913 1ba2 A61B0000 	 .4byte 0x1ba6
 4914 1ba6 46       	 .uleb128 0x46
 4915 1ba7 17       	 .uleb128 0x17
 4916 1ba8 99130000 	 .4byte .LASF272
 4917 1bac 38       	 .byte 0x38
 4918 1bad 1A       	 .byte 0x1a
 4919 1bae 2A       	 .byte 0x2a
 4920 1baf 08       	 .byte 0x8
 4921 1bb0 ED1C0000 	 .4byte 0x1ced
 4922 1bb4 07       	 .uleb128 0x7
 4923 1bb5 E1030000 	 .4byte .LASF273
 4924 1bb9 1A       	 .byte 0x1a
 4925 1bba 2C       	 .byte 0x2c
 4926 1bbb 09       	 .byte 0x9
 4927 1bbc 6C110000 	 .4byte 0x116c
 4928 1bc0 00       	 .byte 0
 4929 1bc1 07       	 .uleb128 0x7
 4930 1bc2 A8150000 	 .4byte .LASF274
 4931 1bc6 1A       	 .byte 0x1a
 4932 1bc7 2D       	 .byte 0x2d
 4933 1bc8 09       	 .byte 0x9
 4934 1bc9 6C110000 	 .4byte 0x116c
 4935 1bcd 04       	 .byte 0x4
 4936 1bce 07       	 .uleb128 0x7
 4937 1bcf 260A0000 	 .4byte .LASF275
 4938 1bd3 1A       	 .byte 0x1a
 4939 1bd4 2E       	 .byte 0x2e
 4940 1bd5 09       	 .byte 0x9
 4941 1bd6 6C110000 	 .4byte 0x116c
 4942 1bda 08       	 .byte 0x8
 4943 1bdb 07       	 .uleb128 0x7
 4944 1bdc BE100000 	 .4byte .LASF276
 4945 1be0 1A       	 .byte 0x1a
 4946 1be1 2F       	 .byte 0x2f
 4947 1be2 09       	 .byte 0x9
 4948 1be3 6C110000 	 .4byte 0x116c
 4949 1be7 0C       	 .byte 0xc
 4950 1be8 07       	 .uleb128 0x7
 4951 1be9 A5020000 	 .4byte .LASF277
 4952 1bed 1A       	 .byte 0x1a
 4953 1bee 30       	 .byte 0x30
 4954 1bef 09       	 .byte 0x9
 4955 1bf0 6C110000 	 .4byte 0x116c
 4956 1bf4 10       	 .byte 0x10
 4957 1bf5 07       	 .uleb128 0x7
 4958 1bf6 0F030000 	 .4byte .LASF278
 4959 1bfa 1A       	 .byte 0x1a
 4960 1bfb 31       	 .byte 0x31
 4961 1bfc 09       	 .byte 0x9
 4962 1bfd 6C110000 	 .4byte 0x116c
 4963 1c01 14       	 .byte 0x14
 4964 1c02 07       	 .uleb128 0x7
 4965 1c03 71140000 	 .4byte .LASF279
 4966 1c07 1A       	 .byte 0x1a
 4967 1c08 32       	 .byte 0x32
 4968 1c09 09       	 .byte 0x9
 4969 1c0a 6C110000 	 .4byte 0x116c
ARM GAS   			page 101


 4970 1c0e 18       	 .byte 0x18
 4971 1c0f 07       	 .uleb128 0x7
 4972 1c10 60060000 	 .4byte .LASF280
 4973 1c14 1A       	 .byte 0x1a
 4974 1c15 33       	 .byte 0x33
 4975 1c16 09       	 .byte 0x9
 4976 1c17 6C110000 	 .4byte 0x116c
 4977 1c1b 1C       	 .byte 0x1c
 4978 1c1c 07       	 .uleb128 0x7
 4979 1c1d B3110000 	 .4byte .LASF281
 4980 1c21 1A       	 .byte 0x1a
 4981 1c22 34       	 .byte 0x34
 4982 1c23 09       	 .byte 0x9
 4983 1c24 6C110000 	 .4byte 0x116c
 4984 1c28 20       	 .byte 0x20
 4985 1c29 07       	 .uleb128 0x7
 4986 1c2a D8090000 	 .4byte .LASF282
 4987 1c2e 1A       	 .byte 0x1a
 4988 1c2f 35       	 .byte 0x35
 4989 1c30 09       	 .byte 0x9
 4990 1c31 6C110000 	 .4byte 0x116c
 4991 1c35 24       	 .byte 0x24
 4992 1c36 07       	 .uleb128 0x7
 4993 1c37 81090000 	 .4byte .LASF283
 4994 1c3b 1A       	 .byte 0x1a
 4995 1c3c 36       	 .byte 0x36
 4996 1c3d 08       	 .byte 0x8
 4997 1c3e 72110000 	 .4byte 0x1172
 4998 1c42 28       	 .byte 0x28
 4999 1c43 07       	 .uleb128 0x7
 5000 1c44 EC100000 	 .4byte .LASF284
 5001 1c48 1A       	 .byte 0x1a
 5002 1c49 37       	 .byte 0x37
 5003 1c4a 08       	 .byte 0x8
 5004 1c4b 72110000 	 .4byte 0x1172
 5005 1c4f 29       	 .byte 0x29
 5006 1c50 07       	 .uleb128 0x7
 5007 1c51 C80D0000 	 .4byte .LASF285
 5008 1c55 1A       	 .byte 0x1a
 5009 1c56 38       	 .byte 0x38
 5010 1c57 08       	 .byte 0x8
 5011 1c58 72110000 	 .4byte 0x1172
 5012 1c5c 2A       	 .byte 0x2a
 5013 1c5d 07       	 .uleb128 0x7
 5014 1c5e 51060000 	 .4byte .LASF286
 5015 1c62 1A       	 .byte 0x1a
 5016 1c63 39       	 .byte 0x39
 5017 1c64 08       	 .byte 0x8
 5018 1c65 72110000 	 .4byte 0x1172
 5019 1c69 2B       	 .byte 0x2b
 5020 1c6a 07       	 .uleb128 0x7
 5021 1c6b C3170000 	 .4byte .LASF287
 5022 1c6f 1A       	 .byte 0x1a
 5023 1c70 3A       	 .byte 0x3a
 5024 1c71 08       	 .byte 0x8
 5025 1c72 72110000 	 .4byte 0x1172
 5026 1c76 2C       	 .byte 0x2c
ARM GAS   			page 102


 5027 1c77 07       	 .uleb128 0x7
 5028 1c78 FC030000 	 .4byte .LASF288
 5029 1c7c 1A       	 .byte 0x1a
 5030 1c7d 3B       	 .byte 0x3b
 5031 1c7e 08       	 .byte 0x8
 5032 1c7f 72110000 	 .4byte 0x1172
 5033 1c83 2D       	 .byte 0x2d
 5034 1c84 07       	 .uleb128 0x7
 5035 1c85 CA080000 	 .4byte .LASF289
 5036 1c89 1A       	 .byte 0x1a
 5037 1c8a 3C       	 .byte 0x3c
 5038 1c8b 08       	 .byte 0x8
 5039 1c8c 72110000 	 .4byte 0x1172
 5040 1c90 2E       	 .byte 0x2e
 5041 1c91 07       	 .uleb128 0x7
 5042 1c92 38110000 	 .4byte .LASF290
 5043 1c96 1A       	 .byte 0x1a
 5044 1c97 3D       	 .byte 0x3d
 5045 1c98 08       	 .byte 0x8
 5046 1c99 72110000 	 .4byte 0x1172
 5047 1c9d 2F       	 .byte 0x2f
 5048 1c9e 07       	 .uleb128 0x7
 5049 1c9f AA090000 	 .4byte .LASF291
 5050 1ca3 1A       	 .byte 0x1a
 5051 1ca4 3E       	 .byte 0x3e
 5052 1ca5 08       	 .byte 0x8
 5053 1ca6 72110000 	 .4byte 0x1172
 5054 1caa 30       	 .byte 0x30
 5055 1cab 07       	 .uleb128 0x7
 5056 1cac D6020000 	 .4byte .LASF292
 5057 1cb0 1A       	 .byte 0x1a
 5058 1cb1 3F       	 .byte 0x3f
 5059 1cb2 08       	 .byte 0x8
 5060 1cb3 72110000 	 .4byte 0x1172
 5061 1cb7 31       	 .byte 0x31
 5062 1cb8 07       	 .uleb128 0x7
 5063 1cb9 C6070000 	 .4byte .LASF293
 5064 1cbd 1A       	 .byte 0x1a
 5065 1cbe 40       	 .byte 0x40
 5066 1cbf 08       	 .byte 0x8
 5067 1cc0 72110000 	 .4byte 0x1172
 5068 1cc4 32       	 .byte 0x32
 5069 1cc5 07       	 .uleb128 0x7
 5070 1cc6 24000000 	 .4byte .LASF294
 5071 1cca 1A       	 .byte 0x1a
 5072 1ccb 41       	 .byte 0x41
 5073 1ccc 08       	 .byte 0x8
 5074 1ccd 72110000 	 .4byte 0x1172
 5075 1cd1 33       	 .byte 0x33
 5076 1cd2 07       	 .uleb128 0x7
 5077 1cd3 C4120000 	 .4byte .LASF295
 5078 1cd7 1A       	 .byte 0x1a
 5079 1cd8 42       	 .byte 0x42
 5080 1cd9 08       	 .byte 0x8
 5081 1cda 72110000 	 .4byte 0x1172
 5082 1cde 34       	 .byte 0x34
 5083 1cdf 07       	 .uleb128 0x7
ARM GAS   			page 103


 5084 1ce0 1B190000 	 .4byte .LASF296
 5085 1ce4 1A       	 .byte 0x1a
 5086 1ce5 43       	 .byte 0x43
 5087 1ce6 08       	 .byte 0x8
 5088 1ce7 72110000 	 .4byte 0x1172
 5089 1ceb 35       	 .byte 0x35
 5090 1cec 00       	 .byte 0
 5091 1ced 41       	 .uleb128 0x41
 5092 1cee AE140000 	 .4byte .LASF297
 5093 1cf2 1A       	 .byte 0x1a
 5094 1cf3 52       	 .byte 0x52
 5095 1cf4 07       	 .byte 0x7
 5096 1cf5 6C110000 	 .4byte 0x116c
 5097 1cf9 081D0000 	 .4byte 0x1d08
 5098 1cfd 0A       	 .uleb128 0xa
 5099 1cfe EC080000 	 .4byte 0x8ec
 5100 1d02 0A       	 .uleb128 0xa
 5101 1d03 A2110000 	 .4byte 0x11a2
 5102 1d07 00       	 .byte 0
 5103 1d08 44       	 .uleb128 0x44
 5104 1d09 DD070000 	 .4byte .LASF299
 5105 1d0d 1A       	 .byte 0x1a
 5106 1d0e 53       	 .byte 0x53
 5107 1d0f 0F       	 .byte 0xf
 5108 1d10 141D0000 	 .4byte 0x1d14
 5109 1d14 27       	 .uleb128 0x27
 5110 1d15 04       	 .byte 0x4
 5111 1d16 A71B0000 	 .4byte 0x1ba7
 5112 1d1a 23       	 .uleb128 0x23
 5113 1d1b 78080000 	 .4byte .LASF300
 5114 1d1f 01       	 .byte 0x1
 5115 1d20 1F       	 .byte 0x1f
 5116 1d21 0D       	 .byte 0xd
 5117 1d22 EC080000 	 .4byte 0x8ec
 5118 1d26 2C       	 .uleb128 0x2c
 5119 1d27 08       	 .byte 0x8
 5120 1d28 1B       	 .byte 0x1b
 5121 1d29 24       	 .byte 0x24
 5122 1d2a 01       	 .byte 0x1
 5123 1d2b 15010000 	 .4byte .LASF302
 5124 1d2f 4E1D0000 	 .4byte 0x1d4e
 5125 1d33 07       	 .uleb128 0x7
 5126 1d34 350C0000 	 .4byte .LASF303
 5127 1d38 1B       	 .byte 0x1b
 5128 1d39 25       	 .byte 0x25
 5129 1d3a 07       	 .byte 0x7
 5130 1d3b EC080000 	 .4byte 0x8ec
 5131 1d3f 00       	 .byte 0
 5132 1d40 34       	 .uleb128 0x34
 5133 1d41 72656D00 	 .ascii "rem\000"
 5134 1d45 1B       	 .byte 0x1b
 5135 1d46 26       	 .byte 0x26
 5136 1d47 07       	 .byte 0x7
 5137 1d48 EC080000 	 .4byte 0x8ec
 5138 1d4c 04       	 .byte 0x4
 5139 1d4d 00       	 .byte 0
 5140 1d4e 23       	 .uleb128 0x23
ARM GAS   			page 104


 5141 1d4f 66000000 	 .4byte .LASF304
 5142 1d53 1B       	 .byte 0x1b
 5143 1d54 27       	 .byte 0x27
 5144 1d55 03       	 .byte 0x3
 5145 1d56 261D0000 	 .4byte 0x1d26
 5146 1d5a 2C       	 .uleb128 0x2c
 5147 1d5b 08       	 .byte 0x8
 5148 1d5c 1B       	 .byte 0x1b
 5149 1d5d 2A       	 .byte 0x2a
 5150 1d5e 01       	 .byte 0x1
 5151 1d5f D6160000 	 .4byte .LASF305
 5152 1d63 821D0000 	 .4byte 0x1d82
 5153 1d67 07       	 .uleb128 0x7
 5154 1d68 350C0000 	 .4byte .LASF303
 5155 1d6c 1B       	 .byte 0x1b
 5156 1d6d 2B       	 .byte 0x2b
 5157 1d6e 08       	 .byte 0x8
 5158 1d6f 75090000 	 .4byte 0x975
 5159 1d73 00       	 .byte 0
 5160 1d74 34       	 .uleb128 0x34
 5161 1d75 72656D00 	 .ascii "rem\000"
 5162 1d79 1B       	 .byte 0x1b
 5163 1d7a 2C       	 .byte 0x2c
 5164 1d7b 08       	 .byte 0x8
 5165 1d7c 75090000 	 .4byte 0x975
 5166 1d80 04       	 .byte 0x4
 5167 1d81 00       	 .byte 0
 5168 1d82 23       	 .uleb128 0x23
 5169 1d83 39120000 	 .4byte .LASF306
 5170 1d87 1B       	 .byte 0x1b
 5171 1d88 2D       	 .byte 0x2d
 5172 1d89 03       	 .byte 0x3
 5173 1d8a 5A1D0000 	 .4byte 0x1d5a
 5174 1d8e 2C       	 .uleb128 0x2c
 5175 1d8f 10       	 .byte 0x10
 5176 1d90 1B       	 .byte 0x1b
 5177 1d91 31       	 .byte 0x31
 5178 1d92 01       	 .byte 0x1
 5179 1d93 46170000 	 .4byte .LASF307
 5180 1d97 B61D0000 	 .4byte 0x1db6
 5181 1d9b 07       	 .uleb128 0x7
 5182 1d9c 350C0000 	 .4byte .LASF303
 5183 1da0 1B       	 .byte 0x1b
 5184 1da1 32       	 .byte 0x32
 5185 1da2 11       	 .byte 0x11
 5186 1da3 0B090000 	 .4byte 0x90b
 5187 1da7 00       	 .byte 0
 5188 1da8 34       	 .uleb128 0x34
 5189 1da9 72656D00 	 .ascii "rem\000"
 5190 1dad 1B       	 .byte 0x1b
 5191 1dae 33       	 .byte 0x33
 5192 1daf 11       	 .byte 0x11
 5193 1db0 0B090000 	 .4byte 0x90b
 5194 1db4 08       	 .byte 0x8
 5195 1db5 00       	 .byte 0
 5196 1db6 23       	 .uleb128 0x23
 5197 1db7 A1170000 	 .4byte .LASF308
ARM GAS   			page 105


 5198 1dbb 1B       	 .byte 0x1b
 5199 1dbc 34       	 .byte 0x34
 5200 1dbd 03       	 .byte 0x3
 5201 1dbe 8E1D0000 	 .4byte 0x1d8e
 5202 1dc2 23       	 .uleb128 0x23
 5203 1dc3 250D0000 	 .4byte .LASF309
 5204 1dc7 1B       	 .byte 0x1b
 5205 1dc8 39       	 .byte 0x39
 5206 1dc9 0F       	 .byte 0xf
 5207 1dca CE1D0000 	 .4byte 0x1dce
 5208 1dce 27       	 .uleb128 0x27
 5209 1dcf 04       	 .byte 0x4
 5210 1dd0 D41D0000 	 .4byte 0x1dd4
 5211 1dd4 38       	 .uleb128 0x38
 5212 1dd5 EC080000 	 .4byte 0x8ec
 5213 1dd9 E81D0000 	 .4byte 0x1de8
 5214 1ddd 0A       	 .uleb128 0xa
 5215 1dde A01B0000 	 .4byte 0x1ba0
 5216 1de2 0A       	 .uleb128 0xa
 5217 1de3 A01B0000 	 .4byte 0x1ba0
 5218 1de7 00       	 .byte 0
 5219 1de8 41       	 .uleb128 0x41
 5220 1de9 76110000 	 .4byte .LASF310
 5221 1ded 1B       	 .byte 0x1b
 5222 1dee 4C       	 .byte 0x4c
 5223 1def 05       	 .byte 0x5
 5224 1df0 EC080000 	 .4byte 0x8ec
 5225 1df4 FE1D0000 	 .4byte 0x1dfe
 5226 1df8 0A       	 .uleb128 0xa
 5227 1df9 260D0000 	 .4byte 0xd26
 5228 1dfd 00       	 .byte 0
 5229 1dfe 41       	 .uleb128 0x41
 5230 1dff 61000000 	 .4byte .LASF311
 5231 1e03 1B       	 .byte 0x1b
 5232 1e04 4D       	 .byte 0x4d
 5233 1e05 08       	 .byte 0x8
 5234 1e06 96090000 	 .4byte 0x996
 5235 1e0a 141E0000 	 .4byte 0x1e14
 5236 1e0e 0A       	 .uleb128 0xa
 5237 1e0f A2110000 	 .4byte 0x11a2
 5238 1e13 00       	 .byte 0
 5239 1e14 41       	 .uleb128 0x41
 5240 1e15 BE170000 	 .4byte .LASF312
 5241 1e19 1B       	 .byte 0x1b
 5242 1e1a 51       	 .byte 0x51
 5243 1e1b 05       	 .byte 0x5
 5244 1e1c EC080000 	 .4byte 0x8ec
 5245 1e20 2A1E0000 	 .4byte 0x1e2a
 5246 1e24 0A       	 .uleb128 0xa
 5247 1e25 A2110000 	 .4byte 0x11a2
 5248 1e29 00       	 .byte 0
 5249 1e2a 41       	 .uleb128 0x41
 5250 1e2b D1170000 	 .4byte .LASF313
 5251 1e2f 1B       	 .byte 0x1b
 5252 1e30 53       	 .byte 0x53
 5253 1e31 06       	 .byte 0x6
 5254 1e32 75090000 	 .4byte 0x975
ARM GAS   			page 106


 5255 1e36 401E0000 	 .4byte 0x1e40
 5256 1e3a 0A       	 .uleb128 0xa
 5257 1e3b A2110000 	 .4byte 0x11a2
 5258 1e3f 00       	 .byte 0
 5259 1e40 41       	 .uleb128 0x41
 5260 1e41 73090000 	 .4byte .LASF314
 5261 1e45 1B       	 .byte 0x1b
 5262 1e46 55       	 .byte 0x55
 5263 1e47 08       	 .byte 0x8
 5264 1e48 1E090000 	 .4byte 0x91e
 5265 1e4c 6A1E0000 	 .4byte 0x1e6a
 5266 1e50 0A       	 .uleb128 0xa
 5267 1e51 A01B0000 	 .4byte 0x1ba0
 5268 1e55 0A       	 .uleb128 0xa
 5269 1e56 A01B0000 	 .4byte 0x1ba0
 5270 1e5a 0A       	 .uleb128 0xa
 5271 1e5b F8080000 	 .4byte 0x8f8
 5272 1e5f 0A       	 .uleb128 0xa
 5273 1e60 F8080000 	 .4byte 0x8f8
 5274 1e64 0A       	 .uleb128 0xa
 5275 1e65 C21D0000 	 .4byte 0x1dc2
 5276 1e69 00       	 .byte 0
 5277 1e6a 47       	 .uleb128 0x47
 5278 1e6b 64697600 	 .ascii "div\000"
 5279 1e6f 1B       	 .byte 0x1b
 5280 1e70 5C       	 .byte 0x5c
 5281 1e71 07       	 .byte 0x7
 5282 1e72 4E1D0000 	 .4byte 0x1d4e
 5283 1e76 851E0000 	 .4byte 0x1e85
 5284 1e7a 0A       	 .uleb128 0xa
 5285 1e7b EC080000 	 .4byte 0x8ec
 5286 1e7f 0A       	 .uleb128 0xa
 5287 1e80 EC080000 	 .4byte 0x8ec
 5288 1e84 00       	 .byte 0
 5289 1e85 41       	 .uleb128 0x41
 5290 1e86 00000000 	 .4byte .LASF315
 5291 1e8a 1B       	 .byte 0x1b
 5292 1e8b 5F       	 .byte 0x5f
 5293 1e8c 09       	 .byte 0x9
 5294 1e8d 6C110000 	 .4byte 0x116c
 5295 1e91 9B1E0000 	 .4byte 0x1e9b
 5296 1e95 0A       	 .uleb128 0xa
 5297 1e96 A2110000 	 .4byte 0x11a2
 5298 1e9a 00       	 .byte 0
 5299 1e9b 41       	 .uleb128 0x41
 5300 1e9c 0E0E0000 	 .4byte .LASF316
 5301 1ea0 1B       	 .byte 0x1b
 5302 1ea1 6B       	 .byte 0x6b
 5303 1ea2 08       	 .byte 0x8
 5304 1ea3 821D0000 	 .4byte 0x1d82
 5305 1ea7 B61E0000 	 .4byte 0x1eb6
 5306 1eab 0A       	 .uleb128 0xa
 5307 1eac 75090000 	 .4byte 0x975
 5308 1eb0 0A       	 .uleb128 0xa
 5309 1eb1 75090000 	 .4byte 0x975
 5310 1eb5 00       	 .byte 0
 5311 1eb6 41       	 .uleb128 0x41
ARM GAS   			page 107


 5312 1eb7 CB010000 	 .4byte .LASF317
 5313 1ebb 1B       	 .byte 0x1b
 5314 1ebc 6D       	 .byte 0x6d
 5315 1ebd 05       	 .byte 0x5
 5316 1ebe EC080000 	 .4byte 0x8ec
 5317 1ec2 D11E0000 	 .4byte 0x1ed1
 5318 1ec6 0A       	 .uleb128 0xa
 5319 1ec7 A2110000 	 .4byte 0x11a2
 5320 1ecb 0A       	 .uleb128 0xa
 5321 1ecc F8080000 	 .4byte 0x8f8
 5322 1ed0 00       	 .byte 0
 5323 1ed1 41       	 .uleb128 0x41
 5324 1ed2 840C0000 	 .4byte .LASF318
 5325 1ed6 1B       	 .byte 0x1b
 5326 1ed7 73       	 .byte 0x73
 5327 1ed8 08       	 .byte 0x8
 5328 1ed9 F8080000 	 .4byte 0x8f8
 5329 1edd F11E0000 	 .4byte 0x1ef1
 5330 1ee1 0A       	 .uleb128 0xa
 5331 1ee2 B9130000 	 .4byte 0x13b9
 5332 1ee6 0A       	 .uleb128 0xa
 5333 1ee7 A2110000 	 .4byte 0x11a2
 5334 1eeb 0A       	 .uleb128 0xa
 5335 1eec F8080000 	 .4byte 0x8f8
 5336 1ef0 00       	 .byte 0
 5337 1ef1 41       	 .uleb128 0x41
 5338 1ef2 78060000 	 .4byte .LASF319
 5339 1ef6 1B       	 .byte 0x1b
 5340 1ef7 6F       	 .byte 0x6f
 5341 1ef8 05       	 .byte 0x5
 5342 1ef9 EC080000 	 .4byte 0x8ec
 5343 1efd 111F0000 	 .4byte 0x1f11
 5344 1f01 0A       	 .uleb128 0xa
 5345 1f02 B9130000 	 .4byte 0x13b9
 5346 1f06 0A       	 .uleb128 0xa
 5347 1f07 A2110000 	 .4byte 0x11a2
 5348 1f0b 0A       	 .uleb128 0xa
 5349 1f0c F8080000 	 .4byte 0x8f8
 5350 1f10 00       	 .byte 0
 5351 1f11 48       	 .uleb128 0x48
 5352 1f12 6F190000 	 .4byte .LASF321
 5353 1f16 1B       	 .byte 0x1b
 5354 1f17 8F       	 .byte 0x8f
 5355 1f18 06       	 .byte 0x6
 5356 1f19 321F0000 	 .4byte 0x1f32
 5357 1f1d 0A       	 .uleb128 0xa
 5358 1f1e 1E090000 	 .4byte 0x91e
 5359 1f22 0A       	 .uleb128 0xa
 5360 1f23 F8080000 	 .4byte 0x8f8
 5361 1f27 0A       	 .uleb128 0xa
 5362 1f28 F8080000 	 .4byte 0x8f8
 5363 1f2c 0A       	 .uleb128 0xa
 5364 1f2d C21D0000 	 .4byte 0x1dc2
 5365 1f31 00       	 .byte 0
 5366 1f32 44       	 .uleb128 0x44
 5367 1f33 95000000 	 .4byte .LASF320
 5368 1f37 1B       	 .byte 0x1b
ARM GAS   			page 108


 5369 1f38 90       	 .byte 0x90
 5370 1f39 05       	 .byte 0x5
 5371 1f3a EC080000 	 .4byte 0x8ec
 5372 1f3e 48       	 .uleb128 0x48
 5373 1f3f 870E0000 	 .4byte .LASF322
 5374 1f43 1B       	 .byte 0x1b
 5375 1f44 9F       	 .byte 0x9f
 5376 1f45 06       	 .byte 0x6
 5377 1f46 501F0000 	 .4byte 0x1f50
 5378 1f4a 0A       	 .uleb128 0xa
 5379 1f4b 04090000 	 .4byte 0x904
 5380 1f4f 00       	 .byte 0
 5381 1f50 41       	 .uleb128 0x41
 5382 1f51 DD080000 	 .4byte .LASF323
 5383 1f55 1B       	 .byte 0x1b
 5384 1f56 A0       	 .byte 0xa0
 5385 1f57 08       	 .byte 0x8
 5386 1f58 96090000 	 .4byte 0x996
 5387 1f5c 6B1F0000 	 .4byte 0x1f6b
 5388 1f60 0A       	 .uleb128 0xa
 5389 1f61 A2110000 	 .4byte 0x11a2
 5390 1f65 0A       	 .uleb128 0xa
 5391 1f66 6B1F0000 	 .4byte 0x1f6b
 5392 1f6a 00       	 .byte 0
 5393 1f6b 27       	 .uleb128 0x27
 5394 1f6c 04       	 .byte 0x4
 5395 1f6d 6C110000 	 .4byte 0x116c
 5396 1f71 41       	 .uleb128 0x41
 5397 1f72 2D160000 	 .4byte .LASF324
 5398 1f76 1B       	 .byte 0x1b
 5399 1f77 AB       	 .byte 0xab
 5400 1f78 06       	 .byte 0x6
 5401 1f79 75090000 	 .4byte 0x975
 5402 1f7d 911F0000 	 .4byte 0x1f91
 5403 1f81 0A       	 .uleb128 0xa
 5404 1f82 A2110000 	 .4byte 0x11a2
 5405 1f86 0A       	 .uleb128 0xa
 5406 1f87 6B1F0000 	 .4byte 0x1f6b
 5407 1f8b 0A       	 .uleb128 0xa
 5408 1f8c EC080000 	 .4byte 0x8ec
 5409 1f90 00       	 .byte 0
 5410 1f91 41       	 .uleb128 0x41
 5411 1f92 91130000 	 .4byte .LASF325
 5412 1f96 1B       	 .byte 0x1b
 5413 1f97 AD       	 .byte 0xad
 5414 1f98 0F       	 .byte 0xf
 5415 1f99 59090000 	 .4byte 0x959
 5416 1f9d B11F0000 	 .4byte 0x1fb1
 5417 1fa1 0A       	 .uleb128 0xa
 5418 1fa2 A2110000 	 .4byte 0x11a2
 5419 1fa6 0A       	 .uleb128 0xa
 5420 1fa7 6B1F0000 	 .4byte 0x1f6b
 5421 1fab 0A       	 .uleb128 0xa
 5422 1fac EC080000 	 .4byte 0x8ec
 5423 1fb0 00       	 .byte 0
 5424 1fb1 41       	 .uleb128 0x41
 5425 1fb2 C9000000 	 .4byte .LASF326
ARM GAS   			page 109


 5426 1fb6 1B       	 .byte 0x1b
 5427 1fb7 BF       	 .byte 0xbf
 5428 1fb8 05       	 .byte 0x5
 5429 1fb9 EC080000 	 .4byte 0x8ec
 5430 1fbd C71F0000 	 .4byte 0x1fc7
 5431 1fc1 0A       	 .uleb128 0xa
 5432 1fc2 A2110000 	 .4byte 0x11a2
 5433 1fc6 00       	 .byte 0
 5434 1fc7 41       	 .uleb128 0x41
 5435 1fc8 24160000 	 .4byte .LASF327
 5436 1fcc 1B       	 .byte 0x1b
 5437 1fcd 75       	 .byte 0x75
 5438 1fce 08       	 .byte 0x8
 5439 1fcf F8080000 	 .4byte 0x8f8
 5440 1fd3 E71F0000 	 .4byte 0x1fe7
 5441 1fd7 0A       	 .uleb128 0xa
 5442 1fd8 6C110000 	 .4byte 0x116c
 5443 1fdc 0A       	 .uleb128 0xa
 5444 1fdd F5130000 	 .4byte 0x13f5
 5445 1fe1 0A       	 .uleb128 0xa
 5446 1fe2 F8080000 	 .4byte 0x8f8
 5447 1fe6 00       	 .byte 0
 5448 1fe7 41       	 .uleb128 0x41
 5449 1fe8 D6070000 	 .4byte .LASF328
 5450 1fec 1B       	 .byte 0x1b
 5451 1fed 71       	 .byte 0x71
 5452 1fee 05       	 .byte 0x5
 5453 1fef EC080000 	 .4byte 0x8ec
 5454 1ff3 02200000 	 .4byte 0x2002
 5455 1ff7 0A       	 .uleb128 0xa
 5456 1ff8 6C110000 	 .4byte 0x116c
 5457 1ffc 0A       	 .uleb128 0xa
 5458 1ffd 7C090000 	 .4byte 0x97c
 5459 2001 00       	 .byte 0
 5460 2002 42       	 .uleb128 0x42
 5461 2003 44080000 	 .4byte .LASF329
 5462 2007 1B       	 .byte 0x1b
 5463 2008 0C01     	 .2byte 0x10c
 5464 200a 09       	 .byte 0x9
 5465 200b B61D0000 	 .4byte 0x1db6
 5466 200f 1E200000 	 .4byte 0x201e
 5467 2013 0A       	 .uleb128 0xa
 5468 2014 0B090000 	 .4byte 0x90b
 5469 2018 0A       	 .uleb128 0xa
 5470 2019 0B090000 	 .4byte 0x90b
 5471 201d 00       	 .byte 0
 5472 201e 42       	 .uleb128 0x42
 5473 201f 4A080000 	 .4byte .LASF330
 5474 2023 1B       	 .byte 0x1b
 5475 2024 0701     	 .2byte 0x107
 5476 2026 0B       	 .byte 0xb
 5477 2027 0B090000 	 .4byte 0x90b
 5478 202b 35200000 	 .4byte 0x2035
 5479 202f 0A       	 .uleb128 0xa
 5480 2030 A2110000 	 .4byte 0x11a2
 5481 2034 00       	 .byte 0
 5482 2035 42       	 .uleb128 0x42
ARM GAS   			page 110


 5483 2036 20060000 	 .4byte .LASF331
 5484 203a 1B       	 .byte 0x1b
 5485 203b 0D01     	 .2byte 0x10d
 5486 203d 0B       	 .byte 0xb
 5487 203e 0B090000 	 .4byte 0x90b
 5488 2042 56200000 	 .4byte 0x2056
 5489 2046 0A       	 .uleb128 0xa
 5490 2047 A2110000 	 .4byte 0x11a2
 5491 204b 0A       	 .uleb128 0xa
 5492 204c 6B1F0000 	 .4byte 0x1f6b
 5493 2050 0A       	 .uleb128 0xa
 5494 2051 EC080000 	 .4byte 0x8ec
 5495 2055 00       	 .byte 0
 5496 2056 42       	 .uleb128 0x42
 5497 2057 6C000000 	 .4byte .LASF332
 5498 205b 1B       	 .byte 0x1b
 5499 205c 1101     	 .2byte 0x111
 5500 205e 14       	 .byte 0x14
 5501 205f 60090000 	 .4byte 0x960
 5502 2063 77200000 	 .4byte 0x2077
 5503 2067 0A       	 .uleb128 0xa
 5504 2068 A2110000 	 .4byte 0x11a2
 5505 206c 0A       	 .uleb128 0xa
 5506 206d 6B1F0000 	 .4byte 0x1f6b
 5507 2071 0A       	 .uleb128 0xa
 5508 2072 EC080000 	 .4byte 0x8ec
 5509 2076 00       	 .byte 0
 5510 2077 41       	 .uleb128 0x41
 5511 2078 FD150000 	 .4byte .LASF333
 5512 207c 1B       	 .byte 0x1b
 5513 207d A3       	 .byte 0xa3
 5514 207e 07       	 .byte 0x7
 5515 207f 9D090000 	 .4byte 0x99d
 5516 2083 92200000 	 .4byte 0x2092
 5517 2087 0A       	 .uleb128 0xa
 5518 2088 A2110000 	 .4byte 0x11a2
 5519 208c 0A       	 .uleb128 0xa
 5520 208d 6B1F0000 	 .4byte 0x1f6b
 5521 2091 00       	 .byte 0
 5522 2092 42       	 .uleb128 0x42
 5523 2093 37170000 	 .4byte .LASF334
 5524 2097 1B       	 .byte 0x1b
 5525 2098 4401     	 .2byte 0x144
 5526 209a 14       	 .byte 0x14
 5527 209b 12090000 	 .4byte 0x912
 5528 209f AE200000 	 .4byte 0x20ae
 5529 20a3 0A       	 .uleb128 0xa
 5530 20a4 A2110000 	 .4byte 0x11a2
 5531 20a8 0A       	 .uleb128 0xa
 5532 20a9 6B1F0000 	 .4byte 0x1f6b
 5533 20ad 00       	 .byte 0
 5534 20ae 23       	 .uleb128 0x23
 5535 20af CA180000 	 .4byte .LASF335
 5536 20b3 1C       	 .byte 0x1c
 5537 20b4 42       	 .byte 0x42
 5538 20b5 10       	 .byte 0x10
 5539 20b6 0C120000 	 .4byte 0x120c
ARM GAS   			page 111


 5540 20ba 23       	 .uleb128 0x23
 5541 20bb 7F060000 	 .4byte .LASF336
 5542 20bf 1C       	 .byte 0x1c
 5543 20c0 49       	 .byte 0x49
 5544 20c1 11       	 .byte 0x11
 5545 20c2 CD0A0000 	 .4byte 0xacd
 5546 20c6 11       	 .uleb128 0x11
 5547 20c7 BA200000 	 .4byte 0x20ba
 5548 20cb 48       	 .uleb128 0x48
 5549 20cc 91090000 	 .4byte .LASF337
 5550 20d0 1C       	 .byte 0x1c
 5551 20d1 EE       	 .byte 0xee
 5552 20d2 06       	 .byte 0x6
 5553 20d3 DD200000 	 .4byte 0x20dd
 5554 20d7 0A       	 .uleb128 0xa
 5555 20d8 DD200000 	 .4byte 0x20dd
 5556 20dc 00       	 .byte 0
 5557 20dd 27       	 .uleb128 0x27
 5558 20de 04       	 .byte 0x4
 5559 20df AE200000 	 .4byte 0x20ae
 5560 20e3 41       	 .uleb128 0x41
 5561 20e4 5F100000 	 .4byte .LASF338
 5562 20e8 1C       	 .byte 0x1c
 5563 20e9 BF       	 .byte 0xbf
 5564 20ea 05       	 .byte 0x5
 5565 20eb EC080000 	 .4byte 0x8ec
 5566 20ef F9200000 	 .4byte 0x20f9
 5567 20f3 0A       	 .uleb128 0xa
 5568 20f4 DD200000 	 .4byte 0x20dd
 5569 20f8 00       	 .byte 0
 5570 20f9 41       	 .uleb128 0x41
 5571 20fa 11160000 	 .4byte .LASF339
 5572 20fe 1C       	 .byte 0x1c
 5573 20ff EF       	 .byte 0xef
 5574 2100 05       	 .byte 0x5
 5575 2101 EC080000 	 .4byte 0x8ec
 5576 2105 0F210000 	 .4byte 0x210f
 5577 2109 0A       	 .uleb128 0xa
 5578 210a DD200000 	 .4byte 0x20dd
 5579 210e 00       	 .byte 0
 5580 210f 41       	 .uleb128 0x41
 5581 2110 920B0000 	 .4byte .LASF340
 5582 2114 1C       	 .byte 0x1c
 5583 2115 F0       	 .byte 0xf0
 5584 2116 05       	 .byte 0x5
 5585 2117 EC080000 	 .4byte 0x8ec
 5586 211b 25210000 	 .4byte 0x2125
 5587 211f 0A       	 .uleb128 0xa
 5588 2120 DD200000 	 .4byte 0x20dd
 5589 2124 00       	 .byte 0
 5590 2125 41       	 .uleb128 0x41
 5591 2126 28010000 	 .4byte .LASF341
 5592 212a 1C       	 .byte 0x1c
 5593 212b C0       	 .byte 0xc0
 5594 212c 05       	 .byte 0x5
 5595 212d EC080000 	 .4byte 0x8ec
 5596 2131 3B210000 	 .4byte 0x213b
ARM GAS   			page 112


 5597 2135 0A       	 .uleb128 0xa
 5598 2136 DD200000 	 .4byte 0x20dd
 5599 213a 00       	 .byte 0
 5600 213b 41       	 .uleb128 0x41
 5601 213c 450F0000 	 .4byte .LASF342
 5602 2140 1C       	 .byte 0x1c
 5603 2141 D4       	 .byte 0xd4
 5604 2142 05       	 .byte 0x5
 5605 2143 EC080000 	 .4byte 0x8ec
 5606 2147 51210000 	 .4byte 0x2151
 5607 214b 0A       	 .uleb128 0xa
 5608 214c DD200000 	 .4byte 0x20dd
 5609 2150 00       	 .byte 0
 5610 2151 41       	 .uleb128 0x41
 5611 2152 94060000 	 .4byte .LASF343
 5612 2156 1C       	 .byte 0x1c
 5613 2157 E4       	 .byte 0xe4
 5614 2158 05       	 .byte 0x5
 5615 2159 EC080000 	 .4byte 0x8ec
 5616 215d 6C210000 	 .4byte 0x216c
 5617 2161 0A       	 .uleb128 0xa
 5618 2162 DD200000 	 .4byte 0x20dd
 5619 2166 0A       	 .uleb128 0xa
 5620 2167 6C210000 	 .4byte 0x216c
 5621 216b 00       	 .byte 0
 5622 216c 27       	 .uleb128 0x27
 5623 216d 04       	 .byte 0x4
 5624 216e BA200000 	 .4byte 0x20ba
 5625 2172 41       	 .uleb128 0x41
 5626 2173 840F0000 	 .4byte .LASF344
 5627 2177 1C       	 .byte 0x1c
 5628 2178 D5       	 .byte 0xd5
 5629 2179 09       	 .byte 0x9
 5630 217a 6C110000 	 .4byte 0x116c
 5631 217e 92210000 	 .4byte 0x2192
 5632 2182 0A       	 .uleb128 0xa
 5633 2183 6C110000 	 .4byte 0x116c
 5634 2187 0A       	 .uleb128 0xa
 5635 2188 EC080000 	 .4byte 0x8ec
 5636 218c 0A       	 .uleb128 0xa
 5637 218d DD200000 	 .4byte 0x20dd
 5638 2191 00       	 .byte 0
 5639 2192 41       	 .uleb128 0x41
 5640 2193 B5080000 	 .4byte .LASF345
 5641 2197 1C       	 .byte 0x1c
 5642 2198 F3       	 .byte 0xf3
 5643 2199 08       	 .byte 0x8
 5644 219a DD200000 	 .4byte 0x20dd
 5645 219e AD210000 	 .4byte 0x21ad
 5646 21a2 0A       	 .uleb128 0xa
 5647 21a3 A2110000 	 .4byte 0x11a2
 5648 21a7 0A       	 .uleb128 0xa
 5649 21a8 A2110000 	 .4byte 0x11a2
 5650 21ac 00       	 .byte 0
 5651 21ad 41       	 .uleb128 0x41
 5652 21ae 2A110000 	 .4byte .LASF346
 5653 21b2 1C       	 .byte 0x1c
ARM GAS   			page 113


 5654 21b3 DF       	 .byte 0xdf
 5655 21b4 08       	 .byte 0x8
 5656 21b5 F8080000 	 .4byte 0x8f8
 5657 21b9 D2210000 	 .4byte 0x21d2
 5658 21bd 0A       	 .uleb128 0xa
 5659 21be 1E090000 	 .4byte 0x91e
 5660 21c2 0A       	 .uleb128 0xa
 5661 21c3 F8080000 	 .4byte 0x8f8
 5662 21c7 0A       	 .uleb128 0xa
 5663 21c8 F8080000 	 .4byte 0x8f8
 5664 21cc 0A       	 .uleb128 0xa
 5665 21cd DD200000 	 .4byte 0x20dd
 5666 21d1 00       	 .byte 0
 5667 21d2 41       	 .uleb128 0x41
 5668 21d3 E6090000 	 .4byte .LASF347
 5669 21d7 1C       	 .byte 0x1c
 5670 21d8 C1       	 .byte 0xc1
 5671 21d9 08       	 .byte 0x8
 5672 21da DD200000 	 .4byte 0x20dd
 5673 21de F2210000 	 .4byte 0x21f2
 5674 21e2 0A       	 .uleb128 0xa
 5675 21e3 A2110000 	 .4byte 0x11a2
 5676 21e7 0A       	 .uleb128 0xa
 5677 21e8 A2110000 	 .4byte 0x11a2
 5678 21ec 0A       	 .uleb128 0xa
 5679 21ed DD200000 	 .4byte 0x20dd
 5680 21f1 00       	 .byte 0
 5681 21f2 41       	 .uleb128 0x41
 5682 21f3 080E0000 	 .4byte .LASF348
 5683 21f7 1C       	 .byte 0x1c
 5684 21f8 E6       	 .byte 0xe6
 5685 21f9 05       	 .byte 0x5
 5686 21fa EC080000 	 .4byte 0x8ec
 5687 21fe 12220000 	 .4byte 0x2212
 5688 2202 0A       	 .uleb128 0xa
 5689 2203 DD200000 	 .4byte 0x20dd
 5690 2207 0A       	 .uleb128 0xa
 5691 2208 75090000 	 .4byte 0x975
 5692 220c 0A       	 .uleb128 0xa
 5693 220d EC080000 	 .4byte 0x8ec
 5694 2211 00       	 .byte 0
 5695 2212 41       	 .uleb128 0x41
 5696 2213 AA0E0000 	 .4byte .LASF349
 5697 2217 1C       	 .byte 0x1c
 5698 2218 EA       	 .byte 0xea
 5699 2219 05       	 .byte 0x5
 5700 221a EC080000 	 .4byte 0x8ec
 5701 221e 2D220000 	 .4byte 0x222d
 5702 2222 0A       	 .uleb128 0xa
 5703 2223 DD200000 	 .4byte 0x20dd
 5704 2227 0A       	 .uleb128 0xa
 5705 2228 2D220000 	 .4byte 0x222d
 5706 222c 00       	 .byte 0
 5707 222d 27       	 .uleb128 0x27
 5708 222e 04       	 .byte 0x4
 5709 222f C6200000 	 .4byte 0x20c6
 5710 2233 41       	 .uleb128 0x41
ARM GAS   			page 114


 5711 2234 F90E0000 	 .4byte .LASF350
 5712 2238 1C       	 .byte 0x1c
 5713 2239 EC       	 .byte 0xec
 5714 223a 06       	 .byte 0x6
 5715 223b 75090000 	 .4byte 0x975
 5716 223f 49220000 	 .4byte 0x2249
 5717 2243 0A       	 .uleb128 0xa
 5718 2244 DD200000 	 .4byte 0x20dd
 5719 2248 00       	 .byte 0
 5720 2249 41       	 .uleb128 0x41
 5721 224a EF120000 	 .4byte .LASF351
 5722 224e 1C       	 .byte 0x1c
 5723 224f D8       	 .byte 0xd8
 5724 2250 05       	 .byte 0x5
 5725 2251 EC080000 	 .4byte 0x8ec
 5726 2255 5F220000 	 .4byte 0x225f
 5727 2259 0A       	 .uleb128 0xa
 5728 225a DD200000 	 .4byte 0x20dd
 5729 225e 00       	 .byte 0
 5730 225f 44       	 .uleb128 0x44
 5731 2260 93150000 	 .4byte .LASF352
 5732 2264 1C       	 .byte 0x1c
 5733 2265 D9       	 .byte 0xd9
 5734 2266 05       	 .byte 0x5
 5735 2267 EC080000 	 .4byte 0x8ec
 5736 226b 48       	 .uleb128 0x48
 5737 226c A6110000 	 .4byte .LASF353
 5738 2270 1C       	 .byte 0x1c
 5739 2271 F1       	 .byte 0xf1
 5740 2272 09       	 .byte 0x9
 5741 2273 7D220000 	 .4byte 0x227d
 5742 2277 0A       	 .uleb128 0xa
 5743 2278 A2110000 	 .4byte 0x11a2
 5744 227c 00       	 .byte 0
 5745 227d 41       	 .uleb128 0x41
 5746 227e B4000000 	 .4byte .LASF354
 5747 2282 1C       	 .byte 0x1c
 5748 2283 F6       	 .byte 0xf6
 5749 2284 05       	 .byte 0x5
 5750 2285 EC080000 	 .4byte 0x8ec
 5751 2289 93220000 	 .4byte 0x2293
 5752 228d 0A       	 .uleb128 0xa
 5753 228e A2110000 	 .4byte 0x11a2
 5754 2292 00       	 .byte 0
 5755 2293 41       	 .uleb128 0x41
 5756 2294 7D0C0000 	 .4byte .LASF355
 5757 2298 1C       	 .byte 0x1c
 5758 2299 F7       	 .byte 0xf7
 5759 229a 05       	 .byte 0x5
 5760 229b EC080000 	 .4byte 0x8ec
 5761 229f AE220000 	 .4byte 0x22ae
 5762 22a3 0A       	 .uleb128 0xa
 5763 22a4 A2110000 	 .4byte 0x11a2
 5764 22a8 0A       	 .uleb128 0xa
 5765 22a9 A2110000 	 .4byte 0x11a2
 5766 22ad 00       	 .byte 0
 5767 22ae 48       	 .uleb128 0x48
ARM GAS   			page 115


 5768 22af 3F170000 	 .4byte .LASF356
 5769 22b3 1C       	 .byte 0x1c
 5770 22b4 ED       	 .byte 0xed
 5771 22b5 06       	 .byte 0x6
 5772 22b6 C0220000 	 .4byte 0x22c0
 5773 22ba 0A       	 .uleb128 0xa
 5774 22bb DD200000 	 .4byte 0x20dd
 5775 22bf 00       	 .byte 0
 5776 22c0 48       	 .uleb128 0x48
 5777 22c1 170D0000 	 .4byte .LASF357
 5778 22c5 1C       	 .byte 0x1c
 5779 22c6 C2       	 .byte 0xc2
 5780 22c7 06       	 .byte 0x6
 5781 22c8 D7220000 	 .4byte 0x22d7
 5782 22cc 0A       	 .uleb128 0xa
 5783 22cd DD200000 	 .4byte 0x20dd
 5784 22d1 0A       	 .uleb128 0xa
 5785 22d2 6C110000 	 .4byte 0x116c
 5786 22d6 00       	 .byte 0
 5787 22d7 41       	 .uleb128 0x41
 5788 22d8 AC000000 	 .4byte .LASF358
 5789 22dc 1C       	 .byte 0x1c
 5790 22dd C3       	 .byte 0xc3
 5791 22de 05       	 .byte 0x5
 5792 22df EC080000 	 .4byte 0x8ec
 5793 22e3 FC220000 	 .4byte 0x22fc
 5794 22e7 0A       	 .uleb128 0xa
 5795 22e8 DD200000 	 .4byte 0x20dd
 5796 22ec 0A       	 .uleb128 0xa
 5797 22ed 6C110000 	 .4byte 0x116c
 5798 22f1 0A       	 .uleb128 0xa
 5799 22f2 EC080000 	 .4byte 0x8ec
 5800 22f6 0A       	 .uleb128 0xa
 5801 22f7 F8080000 	 .4byte 0x8f8
 5802 22fb 00       	 .byte 0
 5803 22fc 44       	 .uleb128 0x44
 5804 22fd 8B150000 	 .4byte .LASF359
 5805 2301 1C       	 .byte 0x1c
 5806 2302 BA       	 .byte 0xba
 5807 2303 08       	 .byte 0x8
 5808 2304 DD200000 	 .4byte 0x20dd
 5809 2308 41       	 .uleb128 0x41
 5810 2309 A40F0000 	 .4byte .LASF360
 5811 230d 1C       	 .byte 0x1c
 5812 230e BB       	 .byte 0xbb
 5813 230f 08       	 .byte 0x8
 5814 2310 6C110000 	 .4byte 0x116c
 5815 2314 1E230000 	 .4byte 0x231e
 5816 2318 0A       	 .uleb128 0xa
 5817 2319 6C110000 	 .4byte 0x116c
 5818 231d 00       	 .byte 0
 5819 231e 41       	 .uleb128 0x41
 5820 231f 0D0B0000 	 .4byte .LASF361
 5821 2323 1C       	 .byte 0x1c
 5822 2324 DE       	 .byte 0xde
 5823 2325 05       	 .byte 0x5
 5824 2326 EC080000 	 .4byte 0x8ec
ARM GAS   			page 116


 5825 232a 39230000 	 .4byte 0x2339
 5826 232e 0A       	 .uleb128 0xa
 5827 232f EC080000 	 .4byte 0x8ec
 5828 2333 0A       	 .uleb128 0xa
 5829 2334 DD200000 	 .4byte 0x20dd
 5830 2338 00       	 .byte 0
 5831 2339 23       	 .uleb128 0x23
 5832 233a A60D0000 	 .4byte .LASF362
 5833 233e 1D       	 .byte 0x1d
 5834 233f 62       	 .byte 0x62
 5835 2340 0E       	 .byte 0xe
 5836 2341 75090000 	 .4byte 0x975
 5837 2345 23       	 .uleb128 0x23
 5838 2346 480B0000 	 .4byte .LASF363
 5839 234a 1D       	 .byte 0x1d
 5840 234b 63       	 .byte 0x63
 5841 234c 17       	 .byte 0x17
 5842 234d 59090000 	 .4byte 0x959
 5843 2351 23       	 .uleb128 0x23
 5844 2352 700F0000 	 .4byte .LASF364
 5845 2356 1D       	 .byte 0x1d
 5846 2357 69       	 .byte 0x69
 5847 2358 13       	 .byte 0x13
 5848 2359 8C1A0000 	 .4byte 0x1a8c
 5849 235d 23       	 .uleb128 0x23
 5850 235e C50B0000 	 .4byte .LASF365
 5851 2362 1E       	 .byte 0x1e
 5852 2363 58       	 .byte 0x58
 5853 2364 10       	 .byte 0x10
 5854 2365 1E090000 	 .4byte 0x91e
 5855 2369 05       	 .uleb128 0x5
 5856 236a 08010000 	 .4byte .LASF366
 5857 236e 03       	 .byte 0x3
 5858 236f 22       	 .byte 0x22
 5859 2370 0B       	 .byte 0xb
 5860 2371 DE270000 	 .4byte 0x27de
 5861 2375 49       	 .uleb128 0x49
 5862 2376 1C010000 	 .4byte .LASF367
 5863 237a 08       	 .byte 0x8
 5864 237b 03       	 .byte 0x3
 5865 237c 1B01     	 .2byte 0x11b
 5866 237e 07       	 .byte 0x7
 5867 237f 79240000 	 .4byte 0x2479
 5868 2383 74240000 	 .4byte 0x2474
 5869 2387 4A       	 .uleb128 0x4a
 5870 2388 79240000 	 .4byte 0x2479
 5871 238c 00       	 .byte 0
 5872 238d 01       	 .byte 0x1
 5873 238e 4B       	 .uleb128 0x4b
 5874 238f 1C010000 	 .4byte .LASF367
 5875 2393 11130000 	 .4byte .LASF368
 5876 2397 E6270000 	 .4byte 0x27e6
 5877 239b 01       	 .byte 0x1
 5878 239c A4230000 	 .4byte 0x23a4
 5879 23a0 AF230000 	 .4byte 0x23af
 5880 23a4 09       	 .uleb128 0x9
 5881 23a5 E6270000 	 .4byte 0x27e6
ARM GAS   			page 117


 5882 23a9 0A       	 .uleb128 0xa
 5883 23aa F1270000 	 .4byte 0x27f1
 5884 23ae 00       	 .byte 0
 5885 23af 4B       	 .uleb128 0x4b
 5886 23b0 1C010000 	 .4byte .LASF367
 5887 23b4 4B0C0000 	 .4byte .LASF369
 5888 23b8 E6270000 	 .4byte 0x27e6
 5889 23bc 01       	 .byte 0x1
 5890 23bd C5230000 	 .4byte 0x23c5
 5891 23c1 D0230000 	 .4byte 0x23d0
 5892 23c5 09       	 .uleb128 0x9
 5893 23c6 E6270000 	 .4byte 0x27e6
 5894 23ca 0A       	 .uleb128 0xa
 5895 23cb F7270000 	 .4byte 0x27f7
 5896 23cf 00       	 .byte 0
 5897 23d0 0F       	 .uleb128 0xf
 5898 23d1 1C010000 	 .4byte .LASF367
 5899 23d5 02       	 .byte 0x2
 5900 23d6 AD       	 .byte 0xad
 5901 23d7 01       	 .byte 0x1
 5902 23d8 F8100000 	 .4byte .LASF372
 5903 23dc E6270000 	 .4byte 0x27e6
 5904 23e0 01       	 .byte 0x1
 5905 23e1 E9230000 	 .4byte 0x23e9
 5906 23e5 F4230000 	 .4byte 0x23f4
 5907 23e9 09       	 .uleb128 0x9
 5908 23ea E6270000 	 .4byte 0x27e6
 5909 23ee 0A       	 .uleb128 0xa
 5910 23ef 45230000 	 .4byte 0x2345
 5911 23f3 00       	 .byte 0
 5912 23f4 4C       	 .uleb128 0x4c
 5913 23f5 BB130000 	 .4byte .LASF373
 5914 23f9 02       	 .byte 0x2
 5915 23fa B3       	 .byte 0xb3
 5916 23fb 06       	 .byte 0x6
 5917 23fc C1150000 	 .4byte .LASF375
 5918 2400 3E090000 	 .4byte 0x93e
 5919 2404 01       	 .byte 0x1
 5920 2405 02       	 .uleb128 0x2
 5921 2406 10       	 .byte 0x10
 5922 2407 02       	 .uleb128 0x2
 5923 2408 75230000 	 .4byte 0x2375
 5924 240c 01       	 .byte 0x1
 5925 240d 15240000 	 .4byte 0x2415
 5926 2411 20240000 	 .4byte 0x2420
 5927 2415 09       	 .uleb128 0x9
 5928 2416 E6270000 	 .4byte 0x27e6
 5929 241a 0A       	 .uleb128 0xa
 5930 241b 1E090000 	 .4byte 0x91e
 5931 241f 00       	 .byte 0
 5932 2420 4C       	 .uleb128 0x4c
 5933 2421 A5100000 	 .4byte .LASF374
 5934 2425 02       	 .byte 0x2
 5935 2426 BA       	 .byte 0xba
 5936 2427 06       	 .byte 0x6
 5937 2428 34160000 	 .4byte .LASF376
 5938 242c 3E090000 	 .4byte 0x93e
ARM GAS   			page 118


 5939 2430 01       	 .byte 0x1
 5940 2431 02       	 .uleb128 0x2
 5941 2432 10       	 .byte 0x10
 5942 2433 04       	 .uleb128 0x4
 5943 2434 75230000 	 .4byte 0x2375
 5944 2438 01       	 .byte 0x1
 5945 2439 41240000 	 .4byte 0x2441
 5946 243d 51240000 	 .4byte 0x2451
 5947 2441 09       	 .uleb128 0x9
 5948 2442 E6270000 	 .4byte 0x27e6
 5949 2446 0A       	 .uleb128 0xa
 5950 2447 1E090000 	 .4byte 0x91e
 5951 244b 0A       	 .uleb128 0xa
 5952 244c FD270000 	 .4byte 0x27fd
 5953 2450 00       	 .byte 0
 5954 2451 4D       	 .uleb128 0x4d
 5955 2452 C9020000 	 .4byte .LASF377
 5956 2456 45020000 	 .4byte .LASF412
 5957 245a 1E090000 	 .4byte 0x91e
 5958 245e 01       	 .byte 0x1
 5959 245f 75230000 	 .4byte 0x2375
 5960 2463 01       	 .byte 0x1
 5961 2464 68240000 	 .4byte 0x2468
 5962 2468 09       	 .uleb128 0x9
 5963 2469 E6270000 	 .4byte 0x27e6
 5964 246d 09       	 .uleb128 0x9
 5965 246e EC080000 	 .4byte 0x8ec
 5966 2472 00       	 .byte 0
 5967 2473 00       	 .byte 0
 5968 2474 11       	 .uleb128 0x11
 5969 2475 75230000 	 .4byte 0x2375
 5970 2479 4E       	 .uleb128 0x4e
 5971 247a F9020000 	 .4byte .LASF378
 5972 247e 08       	 .byte 0x8
 5973 247f 03       	 .byte 0x3
 5974 2480 55       	 .byte 0x55
 5975 2481 07       	 .byte 0x7
 5976 2482 79240000 	 .4byte 0x2479
 5977 2486 DB260000 	 .4byte 0x26db
 5978 248a 4B       	 .uleb128 0x4b
 5979 248b F9020000 	 .4byte .LASF378
 5980 248f 4F190000 	 .4byte .LASF379
 5981 2493 1A280000 	 .4byte 0x281a
 5982 2497 01       	 .byte 0x1
 5983 2498 A0240000 	 .4byte 0x24a0
 5984 249c AB240000 	 .4byte 0x24ab
 5985 24a0 09       	 .uleb128 0x9
 5986 24a1 1A280000 	 .4byte 0x281a
 5987 24a5 0A       	 .uleb128 0xa
 5988 24a6 25280000 	 .4byte 0x2825
 5989 24aa 00       	 .byte 0
 5990 24ab 4F       	 .uleb128 0x4f
 5991 24ac 68020000 	 .4byte .LASF380
 5992 24b0 36280000 	 .4byte 0x2836
 5993 24b4 00       	 .byte 0
 5994 24b5 01       	 .byte 0x1
 5995 24b6 0D       	 .uleb128 0xd
ARM GAS   			page 119


 5996 24b7 F9020000 	 .4byte .LASF378
 5997 24bb 02       	 .byte 0x2
 5998 24bc 1D       	 .byte 0x1d
 5999 24bd 01       	 .byte 0x1
 6000 24be DC0E0000 	 .4byte .LASF381
 6001 24c2 1A280000 	 .4byte 0x281a
 6002 24c6 01       	 .byte 0x1
 6003 24c7 CF240000 	 .4byte 0x24cf
 6004 24cb DF240000 	 .4byte 0x24df
 6005 24cf 09       	 .uleb128 0x9
 6006 24d0 1A280000 	 .4byte 0x281a
 6007 24d4 0A       	 .uleb128 0xa
 6008 24d5 45230000 	 .4byte 0x2345
 6009 24d9 0A       	 .uleb128 0xa
 6010 24da 45230000 	 .4byte 0x2345
 6011 24de 00       	 .byte 0
 6012 24df 50       	 .uleb128 0x50
 6013 24e0 41180000 	 .4byte .LASF442
 6014 24e4 02       	 .byte 0x2
 6015 24e5 25       	 .byte 0x25
 6016 24e6 01       	 .byte 0x1
 6017 24e7 BC090000 	 .4byte .LASF443
 6018 24eb 1E090000 	 .4byte 0x91e
 6019 24ef 01       	 .byte 0x1
 6020 24f0 79240000 	 .4byte 0x2479
 6021 24f4 01       	 .byte 0x1
 6022 24f5 FD240000 	 .4byte 0x24fd
 6023 24f9 08250000 	 .4byte 0x2508
 6024 24fd 09       	 .uleb128 0x9
 6025 24fe 1A280000 	 .4byte 0x281a
 6026 2502 09       	 .uleb128 0x9
 6027 2503 EC080000 	 .4byte 0x8ec
 6028 2507 00       	 .byte 0
 6029 2508 4C       	 .uleb128 0x4c
 6030 2509 BB130000 	 .4byte .LASF373
 6031 250d 02       	 .byte 0x2
 6032 250e 2B       	 .byte 0x2b
 6033 250f 06       	 .byte 0x6
 6034 2510 83140000 	 .4byte .LASF382
 6035 2514 3E090000 	 .4byte 0x93e
 6036 2518 01       	 .byte 0x1
 6037 2519 02       	 .uleb128 0x2
 6038 251a 10       	 .byte 0x10
 6039 251b 02       	 .uleb128 0x2
 6040 251c 79240000 	 .4byte 0x2479
 6041 2520 01       	 .byte 0x1
 6042 2521 29250000 	 .4byte 0x2529
 6043 2525 34250000 	 .4byte 0x2534
 6044 2529 09       	 .uleb128 0x9
 6045 252a 1A280000 	 .4byte 0x281a
 6046 252e 0A       	 .uleb128 0xa
 6047 252f 1E090000 	 .4byte 0x91e
 6048 2533 00       	 .byte 0
 6049 2534 4C       	 .uleb128 0x4c
 6050 2535 BB130000 	 .4byte .LASF373
 6051 2539 02       	 .byte 0x2
 6052 253a 35       	 .byte 0x35
ARM GAS   			page 120


 6053 253b 06       	 .byte 0x6
 6054 253c A2160000 	 .4byte .LASF383
 6055 2540 3E090000 	 .4byte 0x93e
 6056 2544 01       	 .byte 0x1
 6057 2545 02       	 .uleb128 0x2
 6058 2546 10       	 .byte 0x10
 6059 2547 03       	 .uleb128 0x3
 6060 2548 79240000 	 .4byte 0x2479
 6061 254c 01       	 .byte 0x1
 6062 254d 55250000 	 .4byte 0x2555
 6063 2551 65250000 	 .4byte 0x2565
 6064 2555 09       	 .uleb128 0x9
 6065 2556 1A280000 	 .4byte 0x281a
 6066 255a 0A       	 .uleb128 0xa
 6067 255b 1E090000 	 .4byte 0x91e
 6068 255f 0A       	 .uleb128 0xa
 6069 2560 51230000 	 .4byte 0x2351
 6070 2564 00       	 .byte 0
 6071 2565 0D       	 .uleb128 0xd
 6072 2566 31120000 	 .4byte .LASF384
 6073 256a 02       	 .byte 0x2
 6074 256b 3F       	 .byte 0x3f
 6075 256c 06       	 .byte 0x6
 6076 256d 7D170000 	 .4byte .LASF385
 6077 2571 3E090000 	 .4byte 0x93e
 6078 2575 01       	 .byte 0x1
 6079 2576 7E250000 	 .4byte 0x257e
 6080 257a 8E250000 	 .4byte 0x258e
 6081 257e 09       	 .uleb128 0x9
 6082 257f 1A280000 	 .4byte 0x281a
 6083 2583 0A       	 .uleb128 0xa
 6084 2584 1E090000 	 .4byte 0x91e
 6085 2588 0A       	 .uleb128 0xa
 6086 2589 51230000 	 .4byte 0x2351
 6087 258d 00       	 .byte 0
 6088 258e 0D       	 .uleb128 0xd
 6089 258f 7D0D0000 	 .4byte .LASF386
 6090 2593 02       	 .byte 0x2
 6091 2594 49       	 .byte 0x49
 6092 2595 06       	 .byte 0x6
 6093 2596 710B0000 	 .4byte .LASF387
 6094 259a 3E090000 	 .4byte 0x93e
 6095 259e 01       	 .byte 0x1
 6096 259f A7250000 	 .4byte 0x25a7
 6097 25a3 B7250000 	 .4byte 0x25b7
 6098 25a7 09       	 .uleb128 0x9
 6099 25a8 1A280000 	 .4byte 0x281a
 6100 25ac 0A       	 .uleb128 0xa
 6101 25ad 1E090000 	 .4byte 0x91e
 6102 25b1 0A       	 .uleb128 0xa
 6103 25b2 51230000 	 .4byte 0x2351
 6104 25b6 00       	 .byte 0
 6105 25b7 4C       	 .uleb128 0x4c
 6106 25b8 A5100000 	 .4byte .LASF374
 6107 25bc 02       	 .byte 0x2
 6108 25bd 53       	 .byte 0x53
 6109 25be 06       	 .byte 0x6
ARM GAS   			page 121


 6110 25bf CA050000 	 .4byte .LASF388
 6111 25c3 3E090000 	 .4byte 0x93e
 6112 25c7 01       	 .byte 0x1
 6113 25c8 02       	 .uleb128 0x2
 6114 25c9 10       	 .byte 0x10
 6115 25ca 04       	 .uleb128 0x4
 6116 25cb 79240000 	 .4byte 0x2479
 6117 25cf 01       	 .byte 0x1
 6118 25d0 D8250000 	 .4byte 0x25d8
 6119 25d4 E8250000 	 .4byte 0x25e8
 6120 25d8 09       	 .uleb128 0x9
 6121 25d9 1A280000 	 .4byte 0x281a
 6122 25dd 0A       	 .uleb128 0xa
 6123 25de 1E090000 	 .4byte 0x91e
 6124 25e2 0A       	 .uleb128 0xa
 6125 25e3 FD270000 	 .4byte 0x27fd
 6126 25e7 00       	 .byte 0
 6127 25e8 0D       	 .uleb128 0xd
 6128 25e9 B7070000 	 .4byte .LASF389
 6129 25ed 02       	 .byte 0x2
 6130 25ee 5D       	 .byte 0x5d
 6131 25ef 06       	 .byte 0x6
 6132 25f0 2A030000 	 .4byte .LASF390
 6133 25f4 3E090000 	 .4byte 0x93e
 6134 25f8 01       	 .byte 0x1
 6135 25f9 01260000 	 .4byte 0x2601
 6136 25fd 11260000 	 .4byte 0x2611
 6137 2601 09       	 .uleb128 0x9
 6138 2602 1A280000 	 .4byte 0x281a
 6139 2606 0A       	 .uleb128 0xa
 6140 2607 1E090000 	 .4byte 0x91e
 6141 260b 0A       	 .uleb128 0xa
 6142 260c FD270000 	 .4byte 0x27fd
 6143 2610 00       	 .byte 0
 6144 2611 0D       	 .uleb128 0xd
 6145 2612 4E0D0000 	 .4byte .LASF391
 6146 2616 02       	 .byte 0x2
 6147 2617 67       	 .byte 0x67
 6148 2618 06       	 .byte 0x6
 6149 2619 69050000 	 .4byte .LASF392
 6150 261d 3E090000 	 .4byte 0x93e
 6151 2621 01       	 .byte 0x1
 6152 2622 2A260000 	 .4byte 0x262a
 6153 2626 35260000 	 .4byte 0x2635
 6154 262a 09       	 .uleb128 0x9
 6155 262b 1A280000 	 .4byte 0x281a
 6156 262f 0A       	 .uleb128 0xa
 6157 2630 1E090000 	 .4byte 0x91e
 6158 2634 00       	 .byte 0
 6159 2635 0D       	 .uleb128 0xd
 6160 2636 8B160000 	 .4byte .LASF393
 6161 263a 02       	 .byte 0x2
 6162 263b 71       	 .byte 0x71
 6163 263c 06       	 .byte 0x6
 6164 263d 9A050000 	 .4byte .LASF394
 6165 2641 3E090000 	 .4byte 0x93e
 6166 2645 01       	 .byte 0x1
ARM GAS   			page 122


 6167 2646 4E260000 	 .4byte 0x264e
 6168 264a 54260000 	 .4byte 0x2654
 6169 264e 09       	 .uleb128 0x9
 6170 264f 1A280000 	 .4byte 0x281a
 6171 2653 00       	 .byte 0
 6172 2654 0D       	 .uleb128 0xd
 6173 2655 070F0000 	 .4byte .LASF395
 6174 2659 02       	 .byte 0x2
 6175 265a 79       	 .byte 0x79
 6176 265b 06       	 .byte 0x6
 6177 265c E9180000 	 .4byte .LASF396
 6178 2660 3E090000 	 .4byte 0x93e
 6179 2664 01       	 .byte 0x1
 6180 2665 6D260000 	 .4byte 0x266d
 6181 2669 73260000 	 .4byte 0x2673
 6182 266d 09       	 .uleb128 0x9
 6183 266e 1A280000 	 .4byte 0x281a
 6184 2672 00       	 .byte 0
 6185 2673 0E       	 .uleb128 0xe
 6186 2674 B0170000 	 .4byte .LASF397
 6187 2678 02       	 .byte 0x2
 6188 2679 81       	 .byte 0x81
 6189 267a 06       	 .byte 0x6
 6190 267b 67030000 	 .4byte .LASF398
 6191 267f 01       	 .byte 0x1
 6192 2680 88260000 	 .4byte 0x2688
 6193 2684 8E260000 	 .4byte 0x268e
 6194 2688 09       	 .uleb128 0x9
 6195 2689 1A280000 	 .4byte 0x281a
 6196 268d 00       	 .byte 0
 6197 268e 0D       	 .uleb128 0xd
 6198 268f 71160000 	 .4byte .LASF399
 6199 2693 02       	 .byte 0x2
 6200 2694 87       	 .byte 0x87
 6201 2695 0D       	 .byte 0xd
 6202 2696 1D0E0000 	 .4byte .LASF400
 6203 269a 45230000 	 .4byte 0x2345
 6204 269e 01       	 .byte 0x1
 6205 269f A7260000 	 .4byte 0x26a7
 6206 26a3 AD260000 	 .4byte 0x26ad
 6207 26a7 09       	 .uleb128 0x9
 6208 26a8 1A280000 	 .4byte 0x281a
 6209 26ac 00       	 .byte 0
 6210 26ad 0D       	 .uleb128 0xd
 6211 26ae B9030000 	 .4byte .LASF401
 6212 26b2 02       	 .byte 0x2
 6213 26b3 8D       	 .byte 0x8d
 6214 26b4 0D       	 .byte 0xd
 6215 26b5 F4140000 	 .4byte .LASF402
 6216 26b9 45230000 	 .4byte 0x2345
 6217 26bd 01       	 .byte 0x1
 6218 26be C6260000 	 .4byte 0x26c6
 6219 26c2 CC260000 	 .4byte 0x26cc
 6220 26c6 09       	 .uleb128 0x9
 6221 26c7 1A280000 	 .4byte 0x281a
 6222 26cb 00       	 .byte 0
 6223 26cc 51       	 .uleb128 0x51
ARM GAS   			page 123


 6224 26cd A9170000 	 .4byte .LASF444
 6225 26d1 03       	 .byte 0x3
 6226 26d2 D9       	 .byte 0xd9
 6227 26d3 17       	 .byte 0x17
 6228 26d4 5D230000 	 .4byte 0x235d
 6229 26d8 04       	 .byte 0x4
 6230 26d9 02       	 .byte 0x2
 6231 26da 00       	 .byte 0
 6232 26db 11       	 .uleb128 0x11
 6233 26dc 79240000 	 .4byte 0x2479
 6234 26e0 4E       	 .uleb128 0x4e
 6235 26e1 F3020000 	 .4byte .LASF403
 6236 26e5 08       	 .byte 0x8
 6237 26e6 03       	 .byte 0x3
 6238 26e7 E6       	 .byte 0xe6
 6239 26e8 07       	 .byte 0x7
 6240 26e9 79240000 	 .4byte 0x2479
 6241 26ed D8270000 	 .4byte 0x27d8
 6242 26f1 4A       	 .uleb128 0x4a
 6243 26f2 79240000 	 .4byte 0x2479
 6244 26f6 00       	 .byte 0
 6245 26f7 01       	 .byte 0x1
 6246 26f8 4B       	 .uleb128 0x4b
 6247 26f9 F3020000 	 .4byte .LASF403
 6248 26fd 50080000 	 .4byte .LASF404
 6249 2701 03280000 	 .4byte 0x2803
 6250 2705 01       	 .byte 0x1
 6251 2706 0E270000 	 .4byte 0x270e
 6252 270a 19270000 	 .4byte 0x2719
 6253 270e 09       	 .uleb128 0x9
 6254 270f 03280000 	 .4byte 0x2803
 6255 2713 0A       	 .uleb128 0xa
 6256 2714 0E280000 	 .4byte 0x280e
 6257 2718 00       	 .byte 0
 6258 2719 4B       	 .uleb128 0x4b
 6259 271a F3020000 	 .4byte .LASF403
 6260 271e 2B150000 	 .4byte .LASF405
 6261 2722 03280000 	 .4byte 0x2803
 6262 2726 01       	 .byte 0x1
 6263 2727 2F270000 	 .4byte 0x272f
 6264 272b 3A270000 	 .4byte 0x273a
 6265 272f 09       	 .uleb128 0x9
 6266 2730 03280000 	 .4byte 0x2803
 6267 2734 0A       	 .uleb128 0xa
 6268 2735 14280000 	 .4byte 0x2814
 6269 2739 00       	 .byte 0
 6270 273a 0D       	 .uleb128 0xd
 6271 273b F3020000 	 .4byte .LASF403
 6272 273f 02       	 .byte 0x2
 6273 2740 93       	 .byte 0x93
 6274 2741 01       	 .byte 0x1
 6275 2742 74020000 	 .4byte .LASF406
 6276 2746 03280000 	 .4byte 0x2803
 6277 274a 01       	 .byte 0x1
 6278 274b 53270000 	 .4byte 0x2753
 6279 274f 63270000 	 .4byte 0x2763
 6280 2753 09       	 .uleb128 0x9
ARM GAS   			page 124


 6281 2754 03280000 	 .4byte 0x2803
 6282 2758 0A       	 .uleb128 0xa
 6283 2759 45230000 	 .4byte 0x2345
 6284 275d 0A       	 .uleb128 0xa
 6285 275e 45230000 	 .4byte 0x2345
 6286 2762 00       	 .byte 0
 6287 2763 0D       	 .uleb128 0xd
 6288 2764 97110000 	 .4byte .LASF407
 6289 2768 02       	 .byte 0x2
 6290 2769 99       	 .byte 0x99
 6291 276a 06       	 .byte 0x6
 6292 276b D1130000 	 .4byte .LASF408
 6293 276f 3E090000 	 .4byte 0x93e
 6294 2773 01       	 .byte 0x1
 6295 2774 7C270000 	 .4byte 0x277c
 6296 2778 8C270000 	 .4byte 0x278c
 6297 277c 09       	 .uleb128 0x9
 6298 277d 03280000 	 .4byte 0x2803
 6299 2781 0A       	 .uleb128 0xa
 6300 2782 1E090000 	 .4byte 0x91e
 6301 2786 0A       	 .uleb128 0xa
 6302 2787 51230000 	 .4byte 0x2351
 6303 278b 00       	 .byte 0
 6304 278c 0D       	 .uleb128 0xd
 6305 278d D30B0000 	 .4byte .LASF409
 6306 2791 02       	 .byte 0x2
 6307 2792 A3       	 .byte 0xa3
 6308 2793 06       	 .byte 0x6
 6309 2794 2F010000 	 .4byte .LASF410
 6310 2798 3E090000 	 .4byte 0x93e
 6311 279c 01       	 .byte 0x1
 6312 279d A5270000 	 .4byte 0x27a5
 6313 27a1 B5270000 	 .4byte 0x27b5
 6314 27a5 09       	 .uleb128 0x9
 6315 27a6 03280000 	 .4byte 0x2803
 6316 27aa 0A       	 .uleb128 0xa
 6317 27ab 1E090000 	 .4byte 0x91e
 6318 27af 0A       	 .uleb128 0xa
 6319 27b0 FD270000 	 .4byte 0x27fd
 6320 27b4 00       	 .byte 0
 6321 27b5 4D       	 .uleb128 0x4d
 6322 27b6 15000000 	 .4byte .LASF411
 6323 27ba 540F0000 	 .4byte .LASF413
 6324 27be 1E090000 	 .4byte 0x91e
 6325 27c2 01       	 .byte 0x1
 6326 27c3 E0260000 	 .4byte 0x26e0
 6327 27c7 01       	 .byte 0x1
 6328 27c8 CC270000 	 .4byte 0x27cc
 6329 27cc 09       	 .uleb128 0x9
 6330 27cd 03280000 	 .4byte 0x2803
 6331 27d1 09       	 .uleb128 0x9
 6332 27d2 EC080000 	 .4byte 0x8ec
 6333 27d6 00       	 .byte 0
 6334 27d7 00       	 .byte 0
 6335 27d8 11       	 .uleb128 0x11
 6336 27d9 E0260000 	 .4byte 0x26e0
 6337 27dd 00       	 .byte 0
ARM GAS   			page 125


 6338 27de 2B       	 .uleb128 0x2b
 6339 27df 02       	 .byte 0x2
 6340 27e0 1A       	 .byte 0x1a
 6341 27e1 11       	 .byte 0x11
 6342 27e2 69230000 	 .4byte 0x2369
 6343 27e6 27       	 .uleb128 0x27
 6344 27e7 04       	 .byte 0x4
 6345 27e8 75230000 	 .4byte 0x2375
 6346 27ec 11       	 .uleb128 0x11
 6347 27ed E6270000 	 .4byte 0x27e6
 6348 27f1 29       	 .uleb128 0x29
 6349 27f2 04       	 .byte 0x4
 6350 27f3 75230000 	 .4byte 0x2375
 6351 27f7 28       	 .uleb128 0x28
 6352 27f8 04       	 .byte 0x4
 6353 27f9 74240000 	 .4byte 0x2474
 6354 27fd 27       	 .uleb128 0x27
 6355 27fe 04       	 .byte 0x4
 6356 27ff 39230000 	 .4byte 0x2339
 6357 2803 27       	 .uleb128 0x27
 6358 2804 04       	 .byte 0x4
 6359 2805 E0260000 	 .4byte 0x26e0
 6360 2809 11       	 .uleb128 0x11
 6361 280a 03280000 	 .4byte 0x2803
 6362 280e 29       	 .uleb128 0x29
 6363 280f 04       	 .byte 0x4
 6364 2810 E0260000 	 .4byte 0x26e0
 6365 2814 28       	 .uleb128 0x28
 6366 2815 04       	 .byte 0x4
 6367 2816 D8270000 	 .4byte 0x27d8
 6368 281a 27       	 .uleb128 0x27
 6369 281b 04       	 .byte 0x4
 6370 281c 79240000 	 .4byte 0x2479
 6371 2820 11       	 .uleb128 0x11
 6372 2821 1A280000 	 .4byte 0x281a
 6373 2825 28       	 .uleb128 0x28
 6374 2826 04       	 .byte 0x4
 6375 2827 DB260000 	 .4byte 0x26db
 6376 282b 38       	 .uleb128 0x38
 6377 282c EC080000 	 .4byte 0x8ec
 6378 2830 36280000 	 .4byte 0x2836
 6379 2834 43       	 .uleb128 0x43
 6380 2835 00       	 .byte 0
 6381 2836 27       	 .uleb128 0x27
 6382 2837 04       	 .byte 0x4
 6383 2838 3C280000 	 .4byte 0x283c
 6384 283c 52       	 .uleb128 0x52
 6385 283d 04       	 .byte 0x4
 6386 283e 9A030000 	 .4byte .LASF445
 6387 2842 2B280000 	 .4byte 0x282b
 6388 2846 53       	 .uleb128 0x53
 6389 2847 B5270000 	 .4byte 0x27b5
 6390 284b 03       	 .byte 0x3
 6391 284c E6       	 .byte 0xe6
 6392 284d 07       	 .byte 0x7
 6393 284e 1E090000 	 .4byte 0x91e
 6394 2852 5B280000 	 .4byte 0x285b
ARM GAS   			page 126


 6395 2856 02       	 .byte 0x2
 6396 2857 6E280000 	 .4byte 0x286e
 6397 285b 54       	 .uleb128 0x54
 6398 285c E60F0000 	 .4byte .LASF414
 6399 2860 09280000 	 .4byte 0x2809
 6400 2864 54       	 .uleb128 0x54
 6401 2865 0D0D0000 	 .4byte .LASF415
 6402 2869 F3080000 	 .4byte 0x8f3
 6403 286d 00       	 .byte 0
 6404 286e 55       	 .uleb128 0x55
 6405 286f 46280000 	 .4byte 0x2846
 6406 2873 04180000 	 .4byte .LASF416
 6407 2877 89280000 	 .4byte 0x2889
 6408 287b 00000000 	 .4byte .LFB1535
 6409 287f 20000000 	 .4byte .LFE1535-.LFB1535
 6410 2883 01       	 .uleb128 0x1
 6411 2884 9C       	 .byte 0x9c
 6412 2885 92280000 	 .4byte 0x2892
 6413 2889 56       	 .uleb128 0x56
 6414 288a 5B280000 	 .4byte 0x285b
 6415 288e 02       	 .uleb128 0x2
 6416 288f 91       	 .byte 0x91
 6417 2890 74       	 .sleb128 -12
 6418 2891 00       	 .byte 0
 6419 2892 55       	 .uleb128 0x55
 6420 2893 46280000 	 .4byte 0x2846
 6421 2897 07120000 	 .4byte .LASF417
 6422 289b AD280000 	 .4byte 0x28ad
 6423 289f 00000000 	 .4byte .LFB1533
 6424 28a3 24000000 	 .4byte .LFE1533-.LFB1533
 6425 28a7 01       	 .uleb128 0x1
 6426 28a8 9C       	 .byte 0x9c
 6427 28a9 B6280000 	 .4byte 0x28b6
 6428 28ad 56       	 .uleb128 0x56
 6429 28ae 5B280000 	 .4byte 0x285b
 6430 28b2 02       	 .uleb128 0x2
 6431 28b3 91       	 .byte 0x91
 6432 28b4 74       	 .sleb128 -12
 6433 28b5 00       	 .byte 0
 6434 28b6 57       	 .uleb128 0x57
 6435 28b7 51240000 	 .4byte 0x2451
 6436 28bb 03       	 .byte 0x3
 6437 28bc 1B01     	 .2byte 0x11b
 6438 28be 07       	 .byte 0x7
 6439 28bf 1E090000 	 .4byte 0x91e
 6440 28c3 CC280000 	 .4byte 0x28cc
 6441 28c7 02       	 .byte 0x2
 6442 28c8 DF280000 	 .4byte 0x28df
 6443 28cc 54       	 .uleb128 0x54
 6444 28cd E60F0000 	 .4byte .LASF414
 6445 28d1 EC270000 	 .4byte 0x27ec
 6446 28d5 54       	 .uleb128 0x54
 6447 28d6 0D0D0000 	 .4byte .LASF415
 6448 28da F3080000 	 .4byte 0x8f3
 6449 28de 00       	 .byte 0
 6450 28df 55       	 .uleb128 0x55
 6451 28e0 B6280000 	 .4byte 0x28b6
ARM GAS   			page 127


 6452 28e4 5A0D0000 	 .4byte .LASF418
 6453 28e8 FA280000 	 .4byte 0x28fa
 6454 28ec 00000000 	 .4byte .LFB1531
 6455 28f0 20000000 	 .4byte .LFE1531-.LFB1531
 6456 28f4 01       	 .uleb128 0x1
 6457 28f5 9C       	 .byte 0x9c
 6458 28f6 03290000 	 .4byte 0x2903
 6459 28fa 56       	 .uleb128 0x56
 6460 28fb CC280000 	 .4byte 0x28cc
 6461 28ff 02       	 .uleb128 0x2
 6462 2900 91       	 .byte 0x91
 6463 2901 74       	 .sleb128 -12
 6464 2902 00       	 .byte 0
 6465 2903 55       	 .uleb128 0x55
 6466 2904 B6280000 	 .4byte 0x28b6
 6467 2908 92080000 	 .4byte .LASF419
 6468 290c 1E290000 	 .4byte 0x291e
 6469 2910 00000000 	 .4byte .LFB1529
 6470 2914 24000000 	 .4byte .LFE1529-.LFB1529
 6471 2918 01       	 .uleb128 0x1
 6472 2919 9C       	 .byte 0x9c
 6473 291a 27290000 	 .4byte 0x2927
 6474 291e 56       	 .uleb128 0x56
 6475 291f CC280000 	 .4byte 0x28cc
 6476 2923 02       	 .uleb128 0x2
 6477 2924 91       	 .byte 0x91
 6478 2925 74       	 .sleb128 -12
 6479 2926 00       	 .byte 0
 6480 2927 58       	 .uleb128 0x58
 6481 2928 20240000 	 .4byte 0x2420
 6482 292c 3E290000 	 .4byte 0x293e
 6483 2930 00000000 	 .4byte .LFB1060
 6484 2934 24000000 	 .4byte .LFE1060-.LFB1060
 6485 2938 01       	 .uleb128 0x1
 6486 2939 9C       	 .byte 0x9c
 6487 293a 69290000 	 .4byte 0x2969
 6488 293e 59       	 .uleb128 0x59
 6489 293f E60F0000 	 .4byte .LASF414
 6490 2943 EC270000 	 .4byte 0x27ec
 6491 2947 02       	 .uleb128 0x2
 6492 2948 91       	 .byte 0x91
 6493 2949 74       	 .sleb128 -12
 6494 294a 5A       	 .uleb128 0x5a
 6495 294b EF160000 	 .4byte .LASF420
 6496 294f 02       	 .byte 0x2
 6497 2950 BA       	 .byte 0xba
 6498 2951 28       	 .byte 0x28
 6499 2952 1E090000 	 .4byte 0x91e
 6500 2956 02       	 .uleb128 0x2
 6501 2957 91       	 .byte 0x91
 6502 2958 70       	 .sleb128 -16
 6503 2959 5A       	 .uleb128 0x5a
 6504 295a 63010000 	 .4byte .LASF421
 6505 295e 02       	 .byte 0x2
 6506 295f BA       	 .byte 0xba
 6507 2960 3A       	 .byte 0x3a
 6508 2961 FD270000 	 .4byte 0x27fd
ARM GAS   			page 128


 6509 2965 02       	 .uleb128 0x2
 6510 2966 91       	 .byte 0x91
 6511 2967 6C       	 .sleb128 -20
 6512 2968 00       	 .byte 0
 6513 2969 58       	 .uleb128 0x58
 6514 296a F4230000 	 .4byte 0x23f4
 6515 296e 80290000 	 .4byte 0x2980
 6516 2972 00000000 	 .4byte .LFB1059
 6517 2976 22000000 	 .4byte .LFE1059-.LFB1059
 6518 297a 01       	 .uleb128 0x1
 6519 297b 9C       	 .byte 0x9c
 6520 297c 9C290000 	 .4byte 0x299c
 6521 2980 59       	 .uleb128 0x59
 6522 2981 E60F0000 	 .4byte .LASF414
 6523 2985 EC270000 	 .4byte 0x27ec
 6524 2989 02       	 .uleb128 0x2
 6525 298a 91       	 .byte 0x91
 6526 298b 74       	 .sleb128 -12
 6527 298c 5A       	 .uleb128 0x5a
 6528 298d EF160000 	 .4byte .LASF420
 6529 2991 02       	 .byte 0x2
 6530 2992 B3       	 .byte 0xb3
 6531 2993 21       	 .byte 0x21
 6532 2994 1E090000 	 .4byte 0x91e
 6533 2998 02       	 .uleb128 0x2
 6534 2999 91       	 .byte 0x91
 6535 299a 70       	 .sleb128 -16
 6536 299b 00       	 .byte 0
 6537 299c 5B       	 .uleb128 0x5b
 6538 299d D0230000 	 .4byte 0x23d0
 6539 29a1 AA290000 	 .4byte 0x29aa
 6540 29a5 00       	 .byte 0
 6541 29a6 C0290000 	 .4byte 0x29c0
 6542 29aa 54       	 .uleb128 0x54
 6543 29ab E60F0000 	 .4byte .LASF414
 6544 29af EC270000 	 .4byte 0x27ec
 6545 29b3 5C       	 .uleb128 0x5c
 6546 29b4 FF000000 	 .4byte .LASF425
 6547 29b8 02       	 .byte 0x2
 6548 29b9 AD       	 .byte 0xad
 6549 29ba 26       	 .byte 0x26
 6550 29bb 45230000 	 .4byte 0x2345
 6551 29bf 00       	 .byte 0
 6552 29c0 55       	 .uleb128 0x55
 6553 29c1 9C290000 	 .4byte 0x299c
 6554 29c5 DA110000 	 .4byte .LASF422
 6555 29c9 DB290000 	 .4byte 0x29db
 6556 29cd 00000000 	 .4byte .LFB1057
 6557 29d1 2C000000 	 .4byte .LFE1057-.LFB1057
 6558 29d5 01       	 .uleb128 0x1
 6559 29d6 9C       	 .byte 0x9c
 6560 29d7 EC290000 	 .4byte 0x29ec
 6561 29db 56       	 .uleb128 0x56
 6562 29dc AA290000 	 .4byte 0x29aa
 6563 29e0 02       	 .uleb128 0x2
 6564 29e1 91       	 .byte 0x91
 6565 29e2 74       	 .sleb128 -12
ARM GAS   			page 129


 6566 29e3 56       	 .uleb128 0x56
 6567 29e4 B3290000 	 .4byte 0x29b3
 6568 29e8 02       	 .uleb128 0x2
 6569 29e9 91       	 .byte 0x91
 6570 29ea 70       	 .sleb128 -16
 6571 29eb 00       	 .byte 0
 6572 29ec 58       	 .uleb128 0x58
 6573 29ed 8C270000 	 .4byte 0x278c
 6574 29f1 032A0000 	 .4byte 0x2a03
 6575 29f5 00000000 	 .4byte .LFB1055
 6576 29f9 30000000 	 .4byte .LFE1055-.LFB1055
 6577 29fd 01       	 .uleb128 0x1
 6578 29fe 9C       	 .byte 0x9c
 6579 29ff 3D2A0000 	 .4byte 0x2a3d
 6580 2a03 59       	 .uleb128 0x59
 6581 2a04 E60F0000 	 .4byte .LASF414
 6582 2a08 09280000 	 .4byte 0x2809
 6583 2a0c 02       	 .uleb128 0x2
 6584 2a0d 91       	 .byte 0x91
 6585 2a0e 6C       	 .sleb128 -20
 6586 2a0f 5A       	 .uleb128 0x5a
 6587 2a10 EF160000 	 .4byte .LASF420
 6588 2a14 02       	 .byte 0x2
 6589 2a15 A3       	 .byte 0xa3
 6590 2a16 29       	 .byte 0x29
 6591 2a17 1E090000 	 .4byte 0x91e
 6592 2a1b 02       	 .uleb128 0x2
 6593 2a1c 91       	 .byte 0x91
 6594 2a1d 68       	 .sleb128 -24
 6595 2a1e 5A       	 .uleb128 0x5a
 6596 2a1f 63010000 	 .4byte .LASF421
 6597 2a23 02       	 .byte 0x2
 6598 2a24 A3       	 .byte 0xa3
 6599 2a25 3B       	 .byte 0x3b
 6600 2a26 FD270000 	 .4byte 0x27fd
 6601 2a2a 02       	 .uleb128 0x2
 6602 2a2b 91       	 .byte 0x91
 6603 2a2c 64       	 .sleb128 -28
 6604 2a2d 5D       	 .uleb128 0x5d
 6605 2a2e E7120000 	 .4byte .LASF424
 6606 2a32 02       	 .byte 0x2
 6607 2a33 A5       	 .byte 0xa5
 6608 2a34 10       	 .byte 0x10
 6609 2a35 39230000 	 .4byte 0x2339
 6610 2a39 02       	 .uleb128 0x2
 6611 2a3a 91       	 .byte 0x91
 6612 2a3b 74       	 .sleb128 -12
 6613 2a3c 00       	 .byte 0
 6614 2a3d 58       	 .uleb128 0x58
 6615 2a3e 63270000 	 .4byte 0x2763
 6616 2a42 542A0000 	 .4byte 0x2a54
 6617 2a46 00000000 	 .4byte .LFB1054
 6618 2a4a 30000000 	 .4byte .LFE1054-.LFB1054
 6619 2a4e 01       	 .uleb128 0x1
 6620 2a4f 9C       	 .byte 0x9c
 6621 2a50 8E2A0000 	 .4byte 0x2a8e
 6622 2a54 59       	 .uleb128 0x59
ARM GAS   			page 130


 6623 2a55 E60F0000 	 .4byte .LASF414
 6624 2a59 09280000 	 .4byte 0x2809
 6625 2a5d 02       	 .uleb128 0x2
 6626 2a5e 91       	 .byte 0x91
 6627 2a5f 6C       	 .sleb128 -20
 6628 2a60 5A       	 .uleb128 0x5a
 6629 2a61 EF160000 	 .4byte .LASF420
 6630 2a65 02       	 .byte 0x2
 6631 2a66 99       	 .byte 0x99
 6632 2a67 22       	 .byte 0x22
 6633 2a68 1E090000 	 .4byte 0x91e
 6634 2a6c 02       	 .uleb128 0x2
 6635 2a6d 91       	 .byte 0x91
 6636 2a6e 68       	 .sleb128 -24
 6637 2a6f 5A       	 .uleb128 0x5a
 6638 2a70 990E0000 	 .4byte .LASF423
 6639 2a74 02       	 .byte 0x2
 6640 2a75 99       	 .byte 0x99
 6641 2a76 33       	 .byte 0x33
 6642 2a77 51230000 	 .4byte 0x2351
 6643 2a7b 02       	 .uleb128 0x2
 6644 2a7c 91       	 .byte 0x91
 6645 2a7d 64       	 .sleb128 -28
 6646 2a7e 5D       	 .uleb128 0x5d
 6647 2a7f E7120000 	 .4byte .LASF424
 6648 2a83 02       	 .byte 0x2
 6649 2a84 9B       	 .byte 0x9b
 6650 2a85 10       	 .byte 0x10
 6651 2a86 39230000 	 .4byte 0x2339
 6652 2a8a 02       	 .uleb128 0x2
 6653 2a8b 91       	 .byte 0x91
 6654 2a8c 74       	 .sleb128 -12
 6655 2a8d 00       	 .byte 0
 6656 2a8e 5B       	 .uleb128 0x5b
 6657 2a8f 3A270000 	 .4byte 0x273a
 6658 2a93 9C2A0000 	 .4byte 0x2a9c
 6659 2a97 00       	 .byte 0
 6660 2a98 BE2A0000 	 .4byte 0x2abe
 6661 2a9c 54       	 .uleb128 0x54
 6662 2a9d E60F0000 	 .4byte .LASF414
 6663 2aa1 09280000 	 .4byte 0x2809
 6664 2aa5 5C       	 .uleb128 0x5c
 6665 2aa6 4B0F0000 	 .4byte .LASF426
 6666 2aaa 02       	 .byte 0x2
 6667 2aab 93       	 .byte 0x93
 6668 2aac 1A       	 .byte 0x1a
 6669 2aad 45230000 	 .4byte 0x2345
 6670 2ab1 5C       	 .uleb128 0x5c
 6671 2ab2 FF000000 	 .4byte .LASF425
 6672 2ab6 02       	 .byte 0x2
 6673 2ab7 93       	 .byte 0x93
 6674 2ab8 30       	 .byte 0x30
 6675 2ab9 45230000 	 .4byte 0x2345
 6676 2abd 00       	 .byte 0
 6677 2abe 55       	 .uleb128 0x55
 6678 2abf 8E2A0000 	 .4byte 0x2a8e
 6679 2ac3 23090000 	 .4byte .LASF427
ARM GAS   			page 131


 6680 2ac7 D92A0000 	 .4byte 0x2ad9
 6681 2acb 00000000 	 .4byte .LFB1052
 6682 2acf 2C000000 	 .4byte .LFE1052-.LFB1052
 6683 2ad3 01       	 .uleb128 0x1
 6684 2ad4 9C       	 .byte 0x9c
 6685 2ad5 F22A0000 	 .4byte 0x2af2
 6686 2ad9 56       	 .uleb128 0x56
 6687 2ada 9C2A0000 	 .4byte 0x2a9c
 6688 2ade 02       	 .uleb128 0x2
 6689 2adf 91       	 .byte 0x91
 6690 2ae0 74       	 .sleb128 -12
 6691 2ae1 56       	 .uleb128 0x56
 6692 2ae2 A52A0000 	 .4byte 0x2aa5
 6693 2ae6 02       	 .uleb128 0x2
 6694 2ae7 91       	 .byte 0x91
 6695 2ae8 70       	 .sleb128 -16
 6696 2ae9 56       	 .uleb128 0x56
 6697 2aea B12A0000 	 .4byte 0x2ab1
 6698 2aee 02       	 .uleb128 0x2
 6699 2aef 91       	 .byte 0x91
 6700 2af0 6C       	 .sleb128 -20
 6701 2af1 00       	 .byte 0
 6702 2af2 58       	 .uleb128 0x58
 6703 2af3 AD260000 	 .4byte 0x26ad
 6704 2af7 092B0000 	 .4byte 0x2b09
 6705 2afb 00000000 	 .4byte .LFB1050
 6706 2aff 1C000000 	 .4byte .LFE1050-.LFB1050
 6707 2b03 01       	 .uleb128 0x1
 6708 2b04 9C       	 .byte 0x9c
 6709 2b05 162B0000 	 .4byte 0x2b16
 6710 2b09 59       	 .uleb128 0x59
 6711 2b0a E60F0000 	 .4byte .LASF414
 6712 2b0e 20280000 	 .4byte 0x2820
 6713 2b12 02       	 .uleb128 0x2
 6714 2b13 91       	 .byte 0x91
 6715 2b14 74       	 .sleb128 -12
 6716 2b15 00       	 .byte 0
 6717 2b16 58       	 .uleb128 0x58
 6718 2b17 8E260000 	 .4byte 0x268e
 6719 2b1b 2D2B0000 	 .4byte 0x2b2d
 6720 2b1f 00000000 	 .4byte .LFB1049
 6721 2b23 1C000000 	 .4byte .LFE1049-.LFB1049
 6722 2b27 01       	 .uleb128 0x1
 6723 2b28 9C       	 .byte 0x9c
 6724 2b29 3A2B0000 	 .4byte 0x2b3a
 6725 2b2d 59       	 .uleb128 0x59
 6726 2b2e E60F0000 	 .4byte .LASF414
 6727 2b32 20280000 	 .4byte 0x2820
 6728 2b36 02       	 .uleb128 0x2
 6729 2b37 91       	 .byte 0x91
 6730 2b38 74       	 .sleb128 -12
 6731 2b39 00       	 .byte 0
 6732 2b3a 58       	 .uleb128 0x58
 6733 2b3b 73260000 	 .4byte 0x2673
 6734 2b3f 512B0000 	 .4byte 0x2b51
 6735 2b43 00000000 	 .4byte .LFB1048
 6736 2b47 1C000000 	 .4byte .LFE1048-.LFB1048
ARM GAS   			page 132


 6737 2b4b 01       	 .uleb128 0x1
 6738 2b4c 9C       	 .byte 0x9c
 6739 2b4d 5E2B0000 	 .4byte 0x2b5e
 6740 2b51 59       	 .uleb128 0x59
 6741 2b52 E60F0000 	 .4byte .LASF414
 6742 2b56 20280000 	 .4byte 0x2820
 6743 2b5a 02       	 .uleb128 0x2
 6744 2b5b 91       	 .byte 0x91
 6745 2b5c 74       	 .sleb128 -12
 6746 2b5d 00       	 .byte 0
 6747 2b5e 58       	 .uleb128 0x58
 6748 2b5f 54260000 	 .4byte 0x2654
 6749 2b63 752B0000 	 .4byte 0x2b75
 6750 2b67 00000000 	 .4byte .LFB1047
 6751 2b6b 28000000 	 .4byte .LFE1047-.LFB1047
 6752 2b6f 01       	 .uleb128 0x1
 6753 2b70 9C       	 .byte 0x9c
 6754 2b71 912B0000 	 .4byte 0x2b91
 6755 2b75 59       	 .uleb128 0x59
 6756 2b76 E60F0000 	 .4byte .LASF414
 6757 2b7a 20280000 	 .4byte 0x2820
 6758 2b7e 02       	 .uleb128 0x2
 6759 2b7f 91       	 .byte 0x91
 6760 2b80 6C       	 .sleb128 -20
 6761 2b81 5E       	 .uleb128 0x5e
 6762 2b82 636E7400 	 .ascii "cnt\000"
 6763 2b86 02       	 .byte 0x2
 6764 2b87 7B       	 .byte 0x7b
 6765 2b88 11       	 .byte 0x11
 6766 2b89 45230000 	 .4byte 0x2345
 6767 2b8d 02       	 .uleb128 0x2
 6768 2b8e 91       	 .byte 0x91
 6769 2b8f 74       	 .sleb128 -12
 6770 2b90 00       	 .byte 0
 6771 2b91 58       	 .uleb128 0x58
 6772 2b92 35260000 	 .4byte 0x2635
 6773 2b96 A82B0000 	 .4byte 0x2ba8
 6774 2b9a 00000000 	 .4byte .LFB1046
 6775 2b9e 28000000 	 .4byte .LFE1046-.LFB1046
 6776 2ba2 01       	 .uleb128 0x1
 6777 2ba3 9C       	 .byte 0x9c
 6778 2ba4 C42B0000 	 .4byte 0x2bc4
 6779 2ba8 59       	 .uleb128 0x59
 6780 2ba9 E60F0000 	 .4byte .LASF414
 6781 2bad 20280000 	 .4byte 0x2820
 6782 2bb1 02       	 .uleb128 0x2
 6783 2bb2 91       	 .byte 0x91
 6784 2bb3 6C       	 .sleb128 -20
 6785 2bb4 5E       	 .uleb128 0x5e
 6786 2bb5 636E7400 	 .ascii "cnt\000"
 6787 2bb9 02       	 .byte 0x2
 6788 2bba 73       	 .byte 0x73
 6789 2bbb 11       	 .byte 0x11
 6790 2bbc 45230000 	 .4byte 0x2345
 6791 2bc0 02       	 .uleb128 0x2
 6792 2bc1 91       	 .byte 0x91
 6793 2bc2 74       	 .sleb128 -12
ARM GAS   			page 133


 6794 2bc3 00       	 .byte 0
 6795 2bc4 58       	 .uleb128 0x58
 6796 2bc5 11260000 	 .4byte 0x2611
 6797 2bc9 DB2B0000 	 .4byte 0x2bdb
 6798 2bcd 00000000 	 .4byte .LFB1045
 6799 2bd1 2C000000 	 .4byte .LFE1045-.LFB1045
 6800 2bd5 01       	 .uleb128 0x1
 6801 2bd6 9C       	 .byte 0x9c
 6802 2bd7 062C0000 	 .4byte 0x2c06
 6803 2bdb 59       	 .uleb128 0x59
 6804 2bdc E60F0000 	 .4byte .LASF414
 6805 2be0 20280000 	 .4byte 0x2820
 6806 2be4 02       	 .uleb128 0x2
 6807 2be5 91       	 .byte 0x91
 6808 2be6 6C       	 .sleb128 -20
 6809 2be7 5A       	 .uleb128 0x5a
 6810 2be8 EF160000 	 .4byte .LASF420
 6811 2bec 02       	 .byte 0x2
 6812 2bed 67       	 .byte 0x67
 6813 2bee 1F       	 .byte 0x1f
 6814 2bef 1E090000 	 .4byte 0x91e
 6815 2bf3 02       	 .uleb128 0x2
 6816 2bf4 91       	 .byte 0x91
 6817 2bf5 68       	 .sleb128 -24
 6818 2bf6 5D       	 .uleb128 0x5d
 6819 2bf7 E7120000 	 .4byte .LASF424
 6820 2bfb 02       	 .byte 0x2
 6821 2bfc 69       	 .byte 0x69
 6822 2bfd 10       	 .byte 0x10
 6823 2bfe 39230000 	 .4byte 0x2339
 6824 2c02 02       	 .uleb128 0x2
 6825 2c03 91       	 .byte 0x91
 6826 2c04 74       	 .sleb128 -12
 6827 2c05 00       	 .byte 0
 6828 2c06 58       	 .uleb128 0x58
 6829 2c07 E8250000 	 .4byte 0x25e8
 6830 2c0b 1D2C0000 	 .4byte 0x2c1d
 6831 2c0f 00000000 	 .4byte .LFB1044
 6832 2c13 30000000 	 .4byte .LFE1044-.LFB1044
 6833 2c17 01       	 .uleb128 0x1
 6834 2c18 9C       	 .byte 0x9c
 6835 2c19 572C0000 	 .4byte 0x2c57
 6836 2c1d 59       	 .uleb128 0x59
 6837 2c1e E60F0000 	 .4byte .LASF414
 6838 2c22 20280000 	 .4byte 0x2820
 6839 2c26 02       	 .uleb128 0x2
 6840 2c27 91       	 .byte 0x91
 6841 2c28 6C       	 .sleb128 -20
 6842 2c29 5A       	 .uleb128 0x5a
 6843 2c2a EF160000 	 .4byte .LASF420
 6844 2c2e 02       	 .byte 0x2
 6845 2c2f 5D       	 .byte 0x5d
 6846 2c30 22       	 .byte 0x22
 6847 2c31 1E090000 	 .4byte 0x91e
 6848 2c35 02       	 .uleb128 0x2
 6849 2c36 91       	 .byte 0x91
 6850 2c37 68       	 .sleb128 -24
ARM GAS   			page 134


 6851 2c38 5A       	 .uleb128 0x5a
 6852 2c39 63010000 	 .4byte .LASF421
 6853 2c3d 02       	 .byte 0x2
 6854 2c3e 5D       	 .byte 0x5d
 6855 2c3f 34       	 .byte 0x34
 6856 2c40 FD270000 	 .4byte 0x27fd
 6857 2c44 02       	 .uleb128 0x2
 6858 2c45 91       	 .byte 0x91
 6859 2c46 64       	 .sleb128 -28
 6860 2c47 5D       	 .uleb128 0x5d
 6861 2c48 E7120000 	 .4byte .LASF424
 6862 2c4c 02       	 .byte 0x2
 6863 2c4d 5F       	 .byte 0x5f
 6864 2c4e 10       	 .byte 0x10
 6865 2c4f 39230000 	 .4byte 0x2339
 6866 2c53 02       	 .uleb128 0x2
 6867 2c54 91       	 .byte 0x91
 6868 2c55 74       	 .sleb128 -12
 6869 2c56 00       	 .byte 0
 6870 2c57 58       	 .uleb128 0x58
 6871 2c58 B7250000 	 .4byte 0x25b7
 6872 2c5c 6E2C0000 	 .4byte 0x2c6e
 6873 2c60 00000000 	 .4byte .LFB1043
 6874 2c64 30000000 	 .4byte .LFE1043-.LFB1043
 6875 2c68 01       	 .uleb128 0x1
 6876 2c69 9C       	 .byte 0x9c
 6877 2c6a A82C0000 	 .4byte 0x2ca8
 6878 2c6e 59       	 .uleb128 0x59
 6879 2c6f E60F0000 	 .4byte .LASF414
 6880 2c73 20280000 	 .4byte 0x2820
 6881 2c77 02       	 .uleb128 0x2
 6882 2c78 91       	 .byte 0x91
 6883 2c79 6C       	 .sleb128 -20
 6884 2c7a 5A       	 .uleb128 0x5a
 6885 2c7b EF160000 	 .4byte .LASF420
 6886 2c7f 02       	 .byte 0x2
 6887 2c80 53       	 .byte 0x53
 6888 2c81 22       	 .byte 0x22
 6889 2c82 1E090000 	 .4byte 0x91e
 6890 2c86 02       	 .uleb128 0x2
 6891 2c87 91       	 .byte 0x91
 6892 2c88 68       	 .sleb128 -24
 6893 2c89 5A       	 .uleb128 0x5a
 6894 2c8a 63010000 	 .4byte .LASF421
 6895 2c8e 02       	 .byte 0x2
 6896 2c8f 53       	 .byte 0x53
 6897 2c90 34       	 .byte 0x34
 6898 2c91 FD270000 	 .4byte 0x27fd
 6899 2c95 02       	 .uleb128 0x2
 6900 2c96 91       	 .byte 0x91
 6901 2c97 64       	 .sleb128 -28
 6902 2c98 5D       	 .uleb128 0x5d
 6903 2c99 E7120000 	 .4byte .LASF424
 6904 2c9d 02       	 .byte 0x2
 6905 2c9e 55       	 .byte 0x55
 6906 2c9f 10       	 .byte 0x10
 6907 2ca0 39230000 	 .4byte 0x2339
ARM GAS   			page 135


 6908 2ca4 02       	 .uleb128 0x2
 6909 2ca5 91       	 .byte 0x91
 6910 2ca6 74       	 .sleb128 -12
 6911 2ca7 00       	 .byte 0
 6912 2ca8 58       	 .uleb128 0x58
 6913 2ca9 8E250000 	 .4byte 0x258e
 6914 2cad BF2C0000 	 .4byte 0x2cbf
 6915 2cb1 00000000 	 .4byte .LFB1042
 6916 2cb5 30000000 	 .4byte .LFE1042-.LFB1042
 6917 2cb9 01       	 .uleb128 0x1
 6918 2cba 9C       	 .byte 0x9c
 6919 2cbb F92C0000 	 .4byte 0x2cf9
 6920 2cbf 59       	 .uleb128 0x59
 6921 2cc0 E60F0000 	 .4byte .LASF414
 6922 2cc4 20280000 	 .4byte 0x2820
 6923 2cc8 02       	 .uleb128 0x2
 6924 2cc9 91       	 .byte 0x91
 6925 2cca 6C       	 .sleb128 -20
 6926 2ccb 5A       	 .uleb128 0x5a
 6927 2ccc EF160000 	 .4byte .LASF420
 6928 2cd0 02       	 .byte 0x2
 6929 2cd1 49       	 .byte 0x49
 6930 2cd2 18       	 .byte 0x18
 6931 2cd3 1E090000 	 .4byte 0x91e
 6932 2cd7 02       	 .uleb128 0x2
 6933 2cd8 91       	 .byte 0x91
 6934 2cd9 68       	 .sleb128 -24
 6935 2cda 5A       	 .uleb128 0x5a
 6936 2cdb 990E0000 	 .4byte .LASF423
 6937 2cdf 02       	 .byte 0x2
 6938 2ce0 49       	 .byte 0x49
 6939 2ce1 29       	 .byte 0x29
 6940 2ce2 51230000 	 .4byte 0x2351
 6941 2ce6 02       	 .uleb128 0x2
 6942 2ce7 91       	 .byte 0x91
 6943 2ce8 64       	 .sleb128 -28
 6944 2ce9 5D       	 .uleb128 0x5d
 6945 2cea E7120000 	 .4byte .LASF424
 6946 2cee 02       	 .byte 0x2
 6947 2cef 4B       	 .byte 0x4b
 6948 2cf0 10       	 .byte 0x10
 6949 2cf1 39230000 	 .4byte 0x2339
 6950 2cf5 02       	 .uleb128 0x2
 6951 2cf6 91       	 .byte 0x91
 6952 2cf7 74       	 .sleb128 -12
 6953 2cf8 00       	 .byte 0
 6954 2cf9 58       	 .uleb128 0x58
 6955 2cfa 65250000 	 .4byte 0x2565
 6956 2cfe 102D0000 	 .4byte 0x2d10
 6957 2d02 00000000 	 .4byte .LFB1041
 6958 2d06 30000000 	 .4byte .LFE1041-.LFB1041
 6959 2d0a 01       	 .uleb128 0x1
 6960 2d0b 9C       	 .byte 0x9c
 6961 2d0c 4A2D0000 	 .4byte 0x2d4a
 6962 2d10 59       	 .uleb128 0x59
 6963 2d11 E60F0000 	 .4byte .LASF414
 6964 2d15 20280000 	 .4byte 0x2820
ARM GAS   			page 136


 6965 2d19 02       	 .uleb128 0x2
 6966 2d1a 91       	 .byte 0x91
 6967 2d1b 6C       	 .sleb128 -20
 6968 2d1c 5A       	 .uleb128 0x5a
 6969 2d1d EF160000 	 .4byte .LASF420
 6970 2d21 02       	 .byte 0x2
 6971 2d22 3F       	 .byte 0x3f
 6972 2d23 1B       	 .byte 0x1b
 6973 2d24 1E090000 	 .4byte 0x91e
 6974 2d28 02       	 .uleb128 0x2
 6975 2d29 91       	 .byte 0x91
 6976 2d2a 68       	 .sleb128 -24
 6977 2d2b 5A       	 .uleb128 0x5a
 6978 2d2c 990E0000 	 .4byte .LASF423
 6979 2d30 02       	 .byte 0x2
 6980 2d31 3F       	 .byte 0x3f
 6981 2d32 2C       	 .byte 0x2c
 6982 2d33 51230000 	 .4byte 0x2351
 6983 2d37 02       	 .uleb128 0x2
 6984 2d38 91       	 .byte 0x91
 6985 2d39 64       	 .sleb128 -28
 6986 2d3a 5D       	 .uleb128 0x5d
 6987 2d3b E7120000 	 .4byte .LASF424
 6988 2d3f 02       	 .byte 0x2
 6989 2d40 41       	 .byte 0x41
 6990 2d41 10       	 .byte 0x10
 6991 2d42 39230000 	 .4byte 0x2339
 6992 2d46 02       	 .uleb128 0x2
 6993 2d47 91       	 .byte 0x91
 6994 2d48 74       	 .sleb128 -12
 6995 2d49 00       	 .byte 0
 6996 2d4a 58       	 .uleb128 0x58
 6997 2d4b 34250000 	 .4byte 0x2534
 6998 2d4f 612D0000 	 .4byte 0x2d61
 6999 2d53 00000000 	 .4byte .LFB1040
 7000 2d57 30000000 	 .4byte .LFE1040-.LFB1040
 7001 2d5b 01       	 .uleb128 0x1
 7002 2d5c 9C       	 .byte 0x9c
 7003 2d5d 9B2D0000 	 .4byte 0x2d9b
 7004 2d61 59       	 .uleb128 0x59
 7005 2d62 E60F0000 	 .4byte .LASF414
 7006 2d66 20280000 	 .4byte 0x2820
 7007 2d6a 02       	 .uleb128 0x2
 7008 2d6b 91       	 .byte 0x91
 7009 2d6c 6C       	 .sleb128 -20
 7010 2d6d 5A       	 .uleb128 0x5a
 7011 2d6e EF160000 	 .4byte .LASF420
 7012 2d72 02       	 .byte 0x2
 7013 2d73 35       	 .byte 0x35
 7014 2d74 1B       	 .byte 0x1b
 7015 2d75 1E090000 	 .4byte 0x91e
 7016 2d79 02       	 .uleb128 0x2
 7017 2d7a 91       	 .byte 0x91
 7018 2d7b 68       	 .sleb128 -24
 7019 2d7c 5A       	 .uleb128 0x5a
 7020 2d7d 990E0000 	 .4byte .LASF423
 7021 2d81 02       	 .byte 0x2
ARM GAS   			page 137


 7022 2d82 35       	 .byte 0x35
 7023 2d83 2C       	 .byte 0x2c
 7024 2d84 51230000 	 .4byte 0x2351
 7025 2d88 02       	 .uleb128 0x2
 7026 2d89 91       	 .byte 0x91
 7027 2d8a 64       	 .sleb128 -28
 7028 2d8b 5D       	 .uleb128 0x5d
 7029 2d8c E7120000 	 .4byte .LASF424
 7030 2d90 02       	 .byte 0x2
 7031 2d91 37       	 .byte 0x37
 7032 2d92 10       	 .byte 0x10
 7033 2d93 39230000 	 .4byte 0x2339
 7034 2d97 02       	 .uleb128 0x2
 7035 2d98 91       	 .byte 0x91
 7036 2d99 74       	 .sleb128 -12
 7037 2d9a 00       	 .byte 0
 7038 2d9b 58       	 .uleb128 0x58
 7039 2d9c 08250000 	 .4byte 0x2508
 7040 2da0 B22D0000 	 .4byte 0x2db2
 7041 2da4 00000000 	 .4byte .LFB1039
 7042 2da8 30000000 	 .4byte .LFE1039-.LFB1039
 7043 2dac 01       	 .uleb128 0x1
 7044 2dad 9C       	 .byte 0x9c
 7045 2dae DD2D0000 	 .4byte 0x2ddd
 7046 2db2 59       	 .uleb128 0x59
 7047 2db3 E60F0000 	 .4byte .LASF414
 7048 2db7 20280000 	 .4byte 0x2820
 7049 2dbb 02       	 .uleb128 0x2
 7050 2dbc 91       	 .byte 0x91
 7051 2dbd 6C       	 .sleb128 -20
 7052 2dbe 5A       	 .uleb128 0x5a
 7053 2dbf EF160000 	 .4byte .LASF420
 7054 2dc3 02       	 .byte 0x2
 7055 2dc4 2B       	 .byte 0x2b
 7056 2dc5 1B       	 .byte 0x1b
 7057 2dc6 1E090000 	 .4byte 0x91e
 7058 2dca 02       	 .uleb128 0x2
 7059 2dcb 91       	 .byte 0x91
 7060 2dcc 68       	 .sleb128 -24
 7061 2dcd 5D       	 .uleb128 0x5d
 7062 2dce E7120000 	 .4byte .LASF424
 7063 2dd2 02       	 .byte 0x2
 7064 2dd3 2D       	 .byte 0x2d
 7065 2dd4 10       	 .byte 0x10
 7066 2dd5 39230000 	 .4byte 0x2339
 7067 2dd9 02       	 .uleb128 0x2
 7068 2dda 91       	 .byte 0x91
 7069 2ddb 74       	 .sleb128 -12
 7070 2ddc 00       	 .byte 0
 7071 2ddd 5F       	 .uleb128 0x5f
 7072 2dde DF240000 	 .4byte 0x24df
 7073 2de2 1E090000 	 .4byte 0x91e
 7074 2de6 EF2D0000 	 .4byte 0x2def
 7075 2dea 00       	 .byte 0
 7076 2deb 022E0000 	 .4byte 0x2e02
 7077 2def 54       	 .uleb128 0x54
 7078 2df0 E60F0000 	 .4byte .LASF414
ARM GAS   			page 138


 7079 2df4 20280000 	 .4byte 0x2820
 7080 2df8 54       	 .uleb128 0x54
 7081 2df9 0D0D0000 	 .4byte .LASF415
 7082 2dfd F3080000 	 .4byte 0x8f3
 7083 2e01 00       	 .byte 0
 7084 2e02 55       	 .uleb128 0x55
 7085 2e03 DD2D0000 	 .4byte 0x2ddd
 7086 2e07 9F130000 	 .4byte .LASF428
 7087 2e0b 1D2E0000 	 .4byte 0x2e1d
 7088 2e0f 00000000 	 .4byte .LFB1038
 7089 2e13 20000000 	 .4byte .LFE1038-.LFB1038
 7090 2e17 01       	 .uleb128 0x1
 7091 2e18 9C       	 .byte 0x9c
 7092 2e19 262E0000 	 .4byte 0x2e26
 7093 2e1d 56       	 .uleb128 0x56
 7094 2e1e EF2D0000 	 .4byte 0x2def
 7095 2e22 02       	 .uleb128 0x2
 7096 2e23 91       	 .byte 0x91
 7097 2e24 74       	 .sleb128 -12
 7098 2e25 00       	 .byte 0
 7099 2e26 55       	 .uleb128 0x55
 7100 2e27 DD2D0000 	 .4byte 0x2ddd
 7101 2e2b 200F0000 	 .4byte .LASF429
 7102 2e2f 412E0000 	 .4byte 0x2e41
 7103 2e33 00000000 	 .4byte .LFB1036
 7104 2e37 28000000 	 .4byte .LFE1036-.LFB1036
 7105 2e3b 01       	 .uleb128 0x1
 7106 2e3c 9C       	 .byte 0x9c
 7107 2e3d 4A2E0000 	 .4byte 0x2e4a
 7108 2e41 56       	 .uleb128 0x56
 7109 2e42 EF2D0000 	 .4byte 0x2def
 7110 2e46 02       	 .uleb128 0x2
 7111 2e47 91       	 .byte 0x91
 7112 2e48 74       	 .sleb128 -12
 7113 2e49 00       	 .byte 0
 7114 2e4a 5B       	 .uleb128 0x5b
 7115 2e4b B6240000 	 .4byte 0x24b6
 7116 2e4f 582E0000 	 .4byte 0x2e58
 7117 2e53 00       	 .byte 0
 7118 2e54 832E0000 	 .4byte 0x2e83
 7119 2e58 54       	 .uleb128 0x54
 7120 2e59 E60F0000 	 .4byte .LASF414
 7121 2e5d 20280000 	 .4byte 0x2820
 7122 2e61 5C       	 .uleb128 0x5c
 7123 2e62 4B0F0000 	 .4byte .LASF426
 7124 2e66 02       	 .byte 0x2
 7125 2e67 1D       	 .byte 0x1d
 7126 2e68 1A       	 .byte 0x1a
 7127 2e69 45230000 	 .4byte 0x2345
 7128 2e6d 5C       	 .uleb128 0x5c
 7129 2e6e FF000000 	 .4byte .LASF425
 7130 2e72 02       	 .byte 0x2
 7131 2e73 1D       	 .byte 0x1d
 7132 2e74 30       	 .byte 0x30
 7133 2e75 45230000 	 .4byte 0x2345
 7134 2e79 60       	 .uleb128 0x60
 7135 2e7a E90B0000 	 .4byte .LASF446
ARM GAS   			page 139


 7136 2e7e 932E0000 	 .4byte 0x2e93
 7137 2e82 00       	 .byte 0
 7138 2e83 2F       	 .uleb128 0x2f
 7139 2e84 79110000 	 .4byte 0x1179
 7140 2e88 932E0000 	 .4byte 0x2e93
 7141 2e8c 30       	 .uleb128 0x30
 7142 2e8d 04090000 	 .4byte 0x904
 7143 2e91 34       	 .byte 0x34
 7144 2e92 00       	 .byte 0
 7145 2e93 11       	 .uleb128 0x11
 7146 2e94 832E0000 	 .4byte 0x2e83
 7147 2e98 55       	 .uleb128 0x55
 7148 2e99 4A2E0000 	 .4byte 0x2e4a
 7149 2e9d 540B0000 	 .4byte .LASF430
 7150 2ea1 B32E0000 	 .4byte 0x2eb3
 7151 2ea5 00000000 	 .4byte .LFB1033
 7152 2ea9 50000000 	 .4byte .LFE1033-.LFB1033
 7153 2ead 01       	 .uleb128 0x1
 7154 2eae 9C       	 .byte 0x9c
 7155 2eaf D62E0000 	 .4byte 0x2ed6
 7156 2eb3 56       	 .uleb128 0x56
 7157 2eb4 582E0000 	 .4byte 0x2e58
 7158 2eb8 02       	 .uleb128 0x2
 7159 2eb9 91       	 .byte 0x91
 7160 2eba 74       	 .sleb128 -12
 7161 2ebb 56       	 .uleb128 0x56
 7162 2ebc 612E0000 	 .4byte 0x2e61
 7163 2ec0 02       	 .uleb128 0x2
 7164 2ec1 91       	 .byte 0x91
 7165 2ec2 70       	 .sleb128 -16
 7166 2ec3 56       	 .uleb128 0x56
 7167 2ec4 6D2E0000 	 .4byte 0x2e6d
 7168 2ec8 02       	 .uleb128 0x2
 7169 2ec9 91       	 .byte 0x91
 7170 2eca 6C       	 .sleb128 -20
 7171 2ecb 61       	 .uleb128 0x61
 7172 2ecc 62       	 .uleb128 0x62
 7173 2ecd 0C000000 	 .4byte .LBB2
 7174 2ed1 2A000000 	 .4byte .LBE2-.LBB2
 7175 2ed5 00       	 .byte 0
 7176 2ed6 63       	 .uleb128 0x63
 7177 2ed7 820D0000 	 .4byte .LASF447
 7178 2edb 01       	 .byte 0x1
 7179 2edc E5       	 .byte 0xe5
 7180 2edd 01       	 .byte 0x1
 7181 2ede EC080000 	 .4byte 0x8ec
 7182 2ee2 00000000 	 .4byte .LFB652
 7183 2ee6 16000000 	 .4byte .LFE652-.LFB652
 7184 2eea 01       	 .uleb128 0x1
 7185 2eeb 9C       	 .byte 0x9c
 7186 2eec 5A       	 .uleb128 0x5a
 7187 2eed 85150000 	 .4byte .LASF431
 7188 2ef1 01       	 .byte 0x1
 7189 2ef2 E5       	 .byte 0xe5
 7190 2ef3 27       	 .byte 0x27
 7191 2ef4 1A1D0000 	 .4byte 0x1d1a
 7192 2ef8 02       	 .uleb128 0x2
ARM GAS   			page 140


 7193 2ef9 91       	 .byte 0x91
 7194 2efa 74       	 .sleb128 -12
 7195 2efb 00       	 .byte 0
 7196 2efc 00       	 .byte 0
 7197              	 .section .debug_abbrev,"",%progbits
 7198              	.Ldebug_abbrev0:
 7199 0000 01       	 .uleb128 0x1
 7200 0001 11       	 .uleb128 0x11
 7201 0002 01       	 .byte 0x1
 7202 0003 25       	 .uleb128 0x25
 7203 0004 0E       	 .uleb128 0xe
 7204 0005 13       	 .uleb128 0x13
 7205 0006 0B       	 .uleb128 0xb
 7206 0007 03       	 .uleb128 0x3
 7207 0008 0E       	 .uleb128 0xe
 7208 0009 1B       	 .uleb128 0x1b
 7209 000a 0E       	 .uleb128 0xe
 7210 000b 55       	 .uleb128 0x55
 7211 000c 17       	 .uleb128 0x17
 7212 000d 11       	 .uleb128 0x11
 7213 000e 01       	 .uleb128 0x1
 7214 000f 10       	 .uleb128 0x10
 7215 0010 17       	 .uleb128 0x17
 7216 0011 00       	 .byte 0
 7217 0012 00       	 .byte 0
 7218 0013 02       	 .uleb128 0x2
 7219 0014 39       	 .uleb128 0x39
 7220 0015 01       	 .byte 0x1
 7221 0016 03       	 .uleb128 0x3
 7222 0017 08       	 .uleb128 0x8
 7223 0018 3A       	 .uleb128 0x3a
 7224 0019 0B       	 .uleb128 0xb
 7225 001a 3B       	 .uleb128 0x3b
 7226 001b 0B       	 .uleb128 0xb
 7227 001c 01       	 .uleb128 0x1
 7228 001d 13       	 .uleb128 0x13
 7229 001e 00       	 .byte 0
 7230 001f 00       	 .byte 0
 7231 0020 03       	 .uleb128 0x3
 7232 0021 39       	 .uleb128 0x39
 7233 0022 00       	 .byte 0
 7234 0023 03       	 .uleb128 0x3
 7235 0024 0E       	 .uleb128 0xe
 7236 0025 3A       	 .uleb128 0x3a
 7237 0026 0B       	 .uleb128 0xb
 7238 0027 3B       	 .uleb128 0x3b
 7239 0028 05       	 .uleb128 0x5
 7240 0029 39       	 .uleb128 0x39
 7241 002a 0B       	 .uleb128 0xb
 7242 002b 8901     	 .uleb128 0x89
 7243 002d 19       	 .uleb128 0x19
 7244 002e 00       	 .byte 0
 7245 002f 00       	 .byte 0
 7246 0030 04       	 .uleb128 0x4
 7247 0031 3A       	 .uleb128 0x3a
 7248 0032 00       	 .byte 0
 7249 0033 3A       	 .uleb128 0x3a
ARM GAS   			page 141


 7250 0034 0B       	 .uleb128 0xb
 7251 0035 3B       	 .uleb128 0x3b
 7252 0036 05       	 .uleb128 0x5
 7253 0037 39       	 .uleb128 0x39
 7254 0038 0B       	 .uleb128 0xb
 7255 0039 18       	 .uleb128 0x18
 7256 003a 13       	 .uleb128 0x13
 7257 003b 00       	 .byte 0
 7258 003c 00       	 .byte 0
 7259 003d 05       	 .uleb128 0x5
 7260 003e 39       	 .uleb128 0x39
 7261 003f 01       	 .byte 0x1
 7262 0040 03       	 .uleb128 0x3
 7263 0041 0E       	 .uleb128 0xe
 7264 0042 3A       	 .uleb128 0x3a
 7265 0043 0B       	 .uleb128 0xb
 7266 0044 3B       	 .uleb128 0x3b
 7267 0045 0B       	 .uleb128 0xb
 7268 0046 39       	 .uleb128 0x39
 7269 0047 0B       	 .uleb128 0xb
 7270 0048 01       	 .uleb128 0x1
 7271 0049 13       	 .uleb128 0x13
 7272 004a 00       	 .byte 0
 7273 004b 00       	 .byte 0
 7274 004c 06       	 .uleb128 0x6
 7275 004d 02       	 .uleb128 0x2
 7276 004e 01       	 .byte 0x1
 7277 004f 03       	 .uleb128 0x3
 7278 0050 0E       	 .uleb128 0xe
 7279 0051 0B       	 .uleb128 0xb
 7280 0052 0B       	 .uleb128 0xb
 7281 0053 3A       	 .uleb128 0x3a
 7282 0054 0B       	 .uleb128 0xb
 7283 0055 3B       	 .uleb128 0x3b
 7284 0056 0B       	 .uleb128 0xb
 7285 0057 39       	 .uleb128 0x39
 7286 0058 0B       	 .uleb128 0xb
 7287 0059 01       	 .uleb128 0x1
 7288 005a 13       	 .uleb128 0x13
 7289 005b 00       	 .byte 0
 7290 005c 00       	 .byte 0
 7291 005d 07       	 .uleb128 0x7
 7292 005e 0D       	 .uleb128 0xd
 7293 005f 00       	 .byte 0
 7294 0060 03       	 .uleb128 0x3
 7295 0061 0E       	 .uleb128 0xe
 7296 0062 3A       	 .uleb128 0x3a
 7297 0063 0B       	 .uleb128 0xb
 7298 0064 3B       	 .uleb128 0x3b
 7299 0065 0B       	 .uleb128 0xb
 7300 0066 39       	 .uleb128 0x39
 7301 0067 0B       	 .uleb128 0xb
 7302 0068 49       	 .uleb128 0x49
 7303 0069 13       	 .uleb128 0x13
 7304 006a 38       	 .uleb128 0x38
 7305 006b 0B       	 .uleb128 0xb
 7306 006c 00       	 .byte 0
ARM GAS   			page 142


 7307 006d 00       	 .byte 0
 7308 006e 08       	 .uleb128 0x8
 7309 006f 2E       	 .uleb128 0x2e
 7310 0070 01       	 .byte 0x1
 7311 0071 3F       	 .uleb128 0x3f
 7312 0072 19       	 .uleb128 0x19
 7313 0073 03       	 .uleb128 0x3
 7314 0074 0E       	 .uleb128 0xe
 7315 0075 3A       	 .uleb128 0x3a
 7316 0076 0B       	 .uleb128 0xb
 7317 0077 3B       	 .uleb128 0x3b
 7318 0078 0B       	 .uleb128 0xb
 7319 0079 39       	 .uleb128 0x39
 7320 007a 0B       	 .uleb128 0xb
 7321 007b 6E       	 .uleb128 0x6e
 7322 007c 0E       	 .uleb128 0xe
 7323 007d 49       	 .uleb128 0x49
 7324 007e 13       	 .uleb128 0x13
 7325 007f 3C       	 .uleb128 0x3c
 7326 0080 19       	 .uleb128 0x19
 7327 0081 63       	 .uleb128 0x63
 7328 0082 19       	 .uleb128 0x19
 7329 0083 64       	 .uleb128 0x64
 7330 0084 13       	 .uleb128 0x13
 7331 0085 01       	 .uleb128 0x1
 7332 0086 13       	 .uleb128 0x13
 7333 0087 00       	 .byte 0
 7334 0088 00       	 .byte 0
 7335 0089 09       	 .uleb128 0x9
 7336 008a 05       	 .uleb128 0x5
 7337 008b 00       	 .byte 0
 7338 008c 49       	 .uleb128 0x49
 7339 008d 13       	 .uleb128 0x13
 7340 008e 34       	 .uleb128 0x34
 7341 008f 19       	 .uleb128 0x19
 7342 0090 00       	 .byte 0
 7343 0091 00       	 .byte 0
 7344 0092 0A       	 .uleb128 0xa
 7345 0093 05       	 .uleb128 0x5
 7346 0094 00       	 .byte 0
 7347 0095 49       	 .uleb128 0x49
 7348 0096 13       	 .uleb128 0x13
 7349 0097 00       	 .byte 0
 7350 0098 00       	 .byte 0
 7351 0099 0B       	 .uleb128 0xb
 7352 009a 2E       	 .uleb128 0x2e
 7353 009b 01       	 .byte 0x1
 7354 009c 3F       	 .uleb128 0x3f
 7355 009d 19       	 .uleb128 0x19
 7356 009e 03       	 .uleb128 0x3
 7357 009f 0E       	 .uleb128 0xe
 7358 00a0 3A       	 .uleb128 0x3a
 7359 00a1 0B       	 .uleb128 0xb
 7360 00a2 3B       	 .uleb128 0x3b
 7361 00a3 0B       	 .uleb128 0xb
 7362 00a4 39       	 .uleb128 0x39
 7363 00a5 0B       	 .uleb128 0xb
ARM GAS   			page 143


 7364 00a6 6E       	 .uleb128 0x6e
 7365 00a7 0E       	 .uleb128 0xe
 7366 00a8 3C       	 .uleb128 0x3c
 7367 00a9 19       	 .uleb128 0x19
 7368 00aa 64       	 .uleb128 0x64
 7369 00ab 13       	 .uleb128 0x13
 7370 00ac 01       	 .uleb128 0x1
 7371 00ad 13       	 .uleb128 0x13
 7372 00ae 00       	 .byte 0
 7373 00af 00       	 .byte 0
 7374 00b0 0C       	 .uleb128 0xc
 7375 00b1 2E       	 .uleb128 0x2e
 7376 00b2 01       	 .byte 0x1
 7377 00b3 3F       	 .uleb128 0x3f
 7378 00b4 19       	 .uleb128 0x19
 7379 00b5 03       	 .uleb128 0x3
 7380 00b6 0E       	 .uleb128 0xe
 7381 00b7 3A       	 .uleb128 0x3a
 7382 00b8 0B       	 .uleb128 0xb
 7383 00b9 3B       	 .uleb128 0x3b
 7384 00ba 0B       	 .uleb128 0xb
 7385 00bb 39       	 .uleb128 0x39
 7386 00bc 0B       	 .uleb128 0xb
 7387 00bd 6E       	 .uleb128 0x6e
 7388 00be 0E       	 .uleb128 0xe
 7389 00bf 49       	 .uleb128 0x49
 7390 00c0 13       	 .uleb128 0x13
 7391 00c1 3C       	 .uleb128 0x3c
 7392 00c2 19       	 .uleb128 0x19
 7393 00c3 64       	 .uleb128 0x64
 7394 00c4 13       	 .uleb128 0x13
 7395 00c5 01       	 .uleb128 0x1
 7396 00c6 13       	 .uleb128 0x13
 7397 00c7 00       	 .byte 0
 7398 00c8 00       	 .byte 0
 7399 00c9 0D       	 .uleb128 0xd
 7400 00ca 2E       	 .uleb128 0x2e
 7401 00cb 01       	 .byte 0x1
 7402 00cc 3F       	 .uleb128 0x3f
 7403 00cd 19       	 .uleb128 0x19
 7404 00ce 03       	 .uleb128 0x3
 7405 00cf 0E       	 .uleb128 0xe
 7406 00d0 3A       	 .uleb128 0x3a
 7407 00d1 0B       	 .uleb128 0xb
 7408 00d2 3B       	 .uleb128 0x3b
 7409 00d3 0B       	 .uleb128 0xb
 7410 00d4 39       	 .uleb128 0x39
 7411 00d5 0B       	 .uleb128 0xb
 7412 00d6 6E       	 .uleb128 0x6e
 7413 00d7 0E       	 .uleb128 0xe
 7414 00d8 49       	 .uleb128 0x49
 7415 00d9 13       	 .uleb128 0x13
 7416 00da 32       	 .uleb128 0x32
 7417 00db 0B       	 .uleb128 0xb
 7418 00dc 3C       	 .uleb128 0x3c
 7419 00dd 19       	 .uleb128 0x19
 7420 00de 64       	 .uleb128 0x64
ARM GAS   			page 144


 7421 00df 13       	 .uleb128 0x13
 7422 00e0 01       	 .uleb128 0x1
 7423 00e1 13       	 .uleb128 0x13
 7424 00e2 00       	 .byte 0
 7425 00e3 00       	 .byte 0
 7426 00e4 0E       	 .uleb128 0xe
 7427 00e5 2E       	 .uleb128 0x2e
 7428 00e6 01       	 .byte 0x1
 7429 00e7 3F       	 .uleb128 0x3f
 7430 00e8 19       	 .uleb128 0x19
 7431 00e9 03       	 .uleb128 0x3
 7432 00ea 0E       	 .uleb128 0xe
 7433 00eb 3A       	 .uleb128 0x3a
 7434 00ec 0B       	 .uleb128 0xb
 7435 00ed 3B       	 .uleb128 0x3b
 7436 00ee 0B       	 .uleb128 0xb
 7437 00ef 39       	 .uleb128 0x39
 7438 00f0 0B       	 .uleb128 0xb
 7439 00f1 6E       	 .uleb128 0x6e
 7440 00f2 0E       	 .uleb128 0xe
 7441 00f3 32       	 .uleb128 0x32
 7442 00f4 0B       	 .uleb128 0xb
 7443 00f5 3C       	 .uleb128 0x3c
 7444 00f6 19       	 .uleb128 0x19
 7445 00f7 64       	 .uleb128 0x64
 7446 00f8 13       	 .uleb128 0x13
 7447 00f9 01       	 .uleb128 0x1
 7448 00fa 13       	 .uleb128 0x13
 7449 00fb 00       	 .byte 0
 7450 00fc 00       	 .byte 0
 7451 00fd 0F       	 .uleb128 0xf
 7452 00fe 2E       	 .uleb128 0x2e
 7453 00ff 01       	 .byte 0x1
 7454 0100 3F       	 .uleb128 0x3f
 7455 0101 19       	 .uleb128 0x19
 7456 0102 03       	 .uleb128 0x3
 7457 0103 0E       	 .uleb128 0xe
 7458 0104 3A       	 .uleb128 0x3a
 7459 0105 0B       	 .uleb128 0xb
 7460 0106 3B       	 .uleb128 0x3b
 7461 0107 0B       	 .uleb128 0xb
 7462 0108 39       	 .uleb128 0x39
 7463 0109 0B       	 .uleb128 0xb
 7464 010a 6E       	 .uleb128 0x6e
 7465 010b 0E       	 .uleb128 0xe
 7466 010c 49       	 .uleb128 0x49
 7467 010d 13       	 .uleb128 0x13
 7468 010e 32       	 .uleb128 0x32
 7469 010f 0B       	 .uleb128 0xb
 7470 0110 3C       	 .uleb128 0x3c
 7471 0111 19       	 .uleb128 0x19
 7472 0112 63       	 .uleb128 0x63
 7473 0113 19       	 .uleb128 0x19
 7474 0114 64       	 .uleb128 0x64
 7475 0115 13       	 .uleb128 0x13
 7476 0116 01       	 .uleb128 0x1
 7477 0117 13       	 .uleb128 0x13
ARM GAS   			page 145


 7478 0118 00       	 .byte 0
 7479 0119 00       	 .byte 0
 7480 011a 10       	 .uleb128 0x10
 7481 011b 2E       	 .uleb128 0x2e
 7482 011c 01       	 .byte 0x1
 7483 011d 3F       	 .uleb128 0x3f
 7484 011e 19       	 .uleb128 0x19
 7485 011f 03       	 .uleb128 0x3
 7486 0120 0E       	 .uleb128 0xe
 7487 0121 3A       	 .uleb128 0x3a
 7488 0122 0B       	 .uleb128 0xb
 7489 0123 3B       	 .uleb128 0x3b
 7490 0124 0B       	 .uleb128 0xb
 7491 0125 39       	 .uleb128 0x39
 7492 0126 0B       	 .uleb128 0xb
 7493 0127 6E       	 .uleb128 0x6e
 7494 0128 0E       	 .uleb128 0xe
 7495 0129 49       	 .uleb128 0x49
 7496 012a 13       	 .uleb128 0x13
 7497 012b 32       	 .uleb128 0x32
 7498 012c 0B       	 .uleb128 0xb
 7499 012d 3C       	 .uleb128 0x3c
 7500 012e 19       	 .uleb128 0x19
 7501 012f 64       	 .uleb128 0x64
 7502 0130 13       	 .uleb128 0x13
 7503 0131 00       	 .byte 0
 7504 0132 00       	 .byte 0
 7505 0133 11       	 .uleb128 0x11
 7506 0134 26       	 .uleb128 0x26
 7507 0135 00       	 .byte 0
 7508 0136 49       	 .uleb128 0x49
 7509 0137 13       	 .uleb128 0x13
 7510 0138 00       	 .byte 0
 7511 0139 00       	 .byte 0
 7512 013a 12       	 .uleb128 0x12
 7513 013b 08       	 .uleb128 0x8
 7514 013c 00       	 .byte 0
 7515 013d 3A       	 .uleb128 0x3a
 7516 013e 0B       	 .uleb128 0xb
 7517 013f 3B       	 .uleb128 0x3b
 7518 0140 0B       	 .uleb128 0xb
 7519 0141 39       	 .uleb128 0x39
 7520 0142 0B       	 .uleb128 0xb
 7521 0143 18       	 .uleb128 0x18
 7522 0144 13       	 .uleb128 0x13
 7523 0145 00       	 .byte 0
 7524 0146 00       	 .byte 0
 7525 0147 13       	 .uleb128 0x13
 7526 0148 2E       	 .uleb128 0x2e
 7527 0149 01       	 .byte 0x1
 7528 014a 3F       	 .uleb128 0x3f
 7529 014b 19       	 .uleb128 0x19
 7530 014c 03       	 .uleb128 0x3
 7531 014d 0E       	 .uleb128 0xe
 7532 014e 3A       	 .uleb128 0x3a
 7533 014f 0B       	 .uleb128 0xb
 7534 0150 3B       	 .uleb128 0x3b
ARM GAS   			page 146


 7535 0151 0B       	 .uleb128 0xb
 7536 0152 39       	 .uleb128 0x39
 7537 0153 0B       	 .uleb128 0xb
 7538 0154 6E       	 .uleb128 0x6e
 7539 0155 0E       	 .uleb128 0xe
 7540 0156 8701     	 .uleb128 0x87
 7541 0158 19       	 .uleb128 0x19
 7542 0159 3C       	 .uleb128 0x3c
 7543 015a 19       	 .uleb128 0x19
 7544 015b 01       	 .uleb128 0x1
 7545 015c 13       	 .uleb128 0x13
 7546 015d 00       	 .byte 0
 7547 015e 00       	 .byte 0
 7548 015f 14       	 .uleb128 0x14
 7549 0160 16       	 .uleb128 0x16
 7550 0161 00       	 .byte 0
 7551 0162 03       	 .uleb128 0x3
 7552 0163 0E       	 .uleb128 0xe
 7553 0164 3A       	 .uleb128 0x3a
 7554 0165 0B       	 .uleb128 0xb
 7555 0166 3B       	 .uleb128 0x3b
 7556 0167 05       	 .uleb128 0x5
 7557 0168 39       	 .uleb128 0x39
 7558 0169 0B       	 .uleb128 0xb
 7559 016a 49       	 .uleb128 0x49
 7560 016b 13       	 .uleb128 0x13
 7561 016c 00       	 .byte 0
 7562 016d 00       	 .byte 0
 7563 016e 15       	 .uleb128 0x15
 7564 016f 02       	 .uleb128 0x2
 7565 0170 00       	 .byte 0
 7566 0171 03       	 .uleb128 0x3
 7567 0172 0E       	 .uleb128 0xe
 7568 0173 3C       	 .uleb128 0x3c
 7569 0174 19       	 .uleb128 0x19
 7570 0175 00       	 .byte 0
 7571 0176 00       	 .byte 0
 7572 0177 16       	 .uleb128 0x16
 7573 0178 39       	 .uleb128 0x39
 7574 0179 00       	 .byte 0
 7575 017a 03       	 .uleb128 0x3
 7576 017b 0E       	 .uleb128 0xe
 7577 017c 3A       	 .uleb128 0x3a
 7578 017d 0B       	 .uleb128 0xb
 7579 017e 3B       	 .uleb128 0x3b
 7580 017f 05       	 .uleb128 0x5
 7581 0180 39       	 .uleb128 0x39
 7582 0181 0B       	 .uleb128 0xb
 7583 0182 00       	 .byte 0
 7584 0183 00       	 .byte 0
 7585 0184 17       	 .uleb128 0x17
 7586 0185 13       	 .uleb128 0x13
 7587 0186 01       	 .byte 0x1
 7588 0187 03       	 .uleb128 0x3
 7589 0188 0E       	 .uleb128 0xe
 7590 0189 0B       	 .uleb128 0xb
 7591 018a 0B       	 .uleb128 0xb
ARM GAS   			page 147


 7592 018b 3A       	 .uleb128 0x3a
 7593 018c 0B       	 .uleb128 0xb
 7594 018d 3B       	 .uleb128 0x3b
 7595 018e 0B       	 .uleb128 0xb
 7596 018f 39       	 .uleb128 0x39
 7597 0190 0B       	 .uleb128 0xb
 7598 0191 01       	 .uleb128 0x1
 7599 0192 13       	 .uleb128 0x13
 7600 0193 00       	 .byte 0
 7601 0194 00       	 .byte 0
 7602 0195 18       	 .uleb128 0x18
 7603 0196 04       	 .uleb128 0x4
 7604 0197 01       	 .byte 0x1
 7605 0198 3E       	 .uleb128 0x3e
 7606 0199 0B       	 .uleb128 0xb
 7607 019a 0B       	 .uleb128 0xb
 7608 019b 0B       	 .uleb128 0xb
 7609 019c 49       	 .uleb128 0x49
 7610 019d 13       	 .uleb128 0x13
 7611 019e 3A       	 .uleb128 0x3a
 7612 019f 0B       	 .uleb128 0xb
 7613 01a0 3B       	 .uleb128 0x3b
 7614 01a1 0B       	 .uleb128 0xb
 7615 01a2 39       	 .uleb128 0x39
 7616 01a3 0B       	 .uleb128 0xb
 7617 01a4 01       	 .uleb128 0x1
 7618 01a5 13       	 .uleb128 0x13
 7619 01a6 00       	 .byte 0
 7620 01a7 00       	 .byte 0
 7621 01a8 19       	 .uleb128 0x19
 7622 01a9 28       	 .uleb128 0x28
 7623 01aa 00       	 .byte 0
 7624 01ab 03       	 .uleb128 0x3
 7625 01ac 0E       	 .uleb128 0xe
 7626 01ad 1C       	 .uleb128 0x1c
 7627 01ae 0B       	 .uleb128 0xb
 7628 01af 00       	 .byte 0
 7629 01b0 00       	 .byte 0
 7630 01b1 1A       	 .uleb128 0x1a
 7631 01b2 2F       	 .uleb128 0x2f
 7632 01b3 00       	 .byte 0
 7633 01b4 03       	 .uleb128 0x3
 7634 01b5 08       	 .uleb128 0x8
 7635 01b6 49       	 .uleb128 0x49
 7636 01b7 13       	 .uleb128 0x13
 7637 01b8 00       	 .byte 0
 7638 01b9 00       	 .byte 0
 7639 01ba 1B       	 .uleb128 0x1b
 7640 01bb 2E       	 .uleb128 0x2e
 7641 01bc 01       	 .byte 0x1
 7642 01bd 3F       	 .uleb128 0x3f
 7643 01be 19       	 .uleb128 0x19
 7644 01bf 03       	 .uleb128 0x3
 7645 01c0 0E       	 .uleb128 0xe
 7646 01c1 3A       	 .uleb128 0x3a
 7647 01c2 0B       	 .uleb128 0xb
 7648 01c3 3B       	 .uleb128 0x3b
ARM GAS   			page 148


 7649 01c4 0B       	 .uleb128 0xb
 7650 01c5 39       	 .uleb128 0x39
 7651 01c6 0B       	 .uleb128 0xb
 7652 01c7 6E       	 .uleb128 0x6e
 7653 01c8 0E       	 .uleb128 0xe
 7654 01c9 49       	 .uleb128 0x49
 7655 01ca 13       	 .uleb128 0x13
 7656 01cb 3C       	 .uleb128 0x3c
 7657 01cc 19       	 .uleb128 0x19
 7658 01cd 63       	 .uleb128 0x63
 7659 01ce 19       	 .uleb128 0x19
 7660 01cf 8B01     	 .uleb128 0x8b
 7661 01d1 0B       	 .uleb128 0xb
 7662 01d2 64       	 .uleb128 0x64
 7663 01d3 13       	 .uleb128 0x13
 7664 01d4 00       	 .byte 0
 7665 01d5 00       	 .byte 0
 7666 01d6 1C       	 .uleb128 0x1c
 7667 01d7 34       	 .uleb128 0x34
 7668 01d8 00       	 .byte 0
 7669 01d9 03       	 .uleb128 0x3
 7670 01da 0E       	 .uleb128 0xe
 7671 01db 3A       	 .uleb128 0x3a
 7672 01dc 0B       	 .uleb128 0xb
 7673 01dd 3B       	 .uleb128 0x3b
 7674 01de 0B       	 .uleb128 0xb
 7675 01df 39       	 .uleb128 0x39
 7676 01e0 0B       	 .uleb128 0xb
 7677 01e1 49       	 .uleb128 0x49
 7678 01e2 13       	 .uleb128 0x13
 7679 01e3 3C       	 .uleb128 0x3c
 7680 01e4 19       	 .uleb128 0x19
 7681 01e5 1C       	 .uleb128 0x1c
 7682 01e6 0A       	 .uleb128 0xa
 7683 01e7 6C       	 .uleb128 0x6c
 7684 01e8 19       	 .uleb128 0x19
 7685 01e9 00       	 .byte 0
 7686 01ea 00       	 .byte 0
 7687 01eb 1D       	 .uleb128 0x1d
 7688 01ec 39       	 .uleb128 0x39
 7689 01ed 00       	 .byte 0
 7690 01ee 03       	 .uleb128 0x3
 7691 01ef 0E       	 .uleb128 0xe
 7692 01f0 3A       	 .uleb128 0x3a
 7693 01f1 0B       	 .uleb128 0xb
 7694 01f2 3B       	 .uleb128 0x3b
 7695 01f3 0B       	 .uleb128 0xb
 7696 01f4 39       	 .uleb128 0x39
 7697 01f5 0B       	 .uleb128 0xb
 7698 01f6 00       	 .byte 0
 7699 01f7 00       	 .byte 0
 7700 01f8 1E       	 .uleb128 0x1e
 7701 01f9 08       	 .uleb128 0x8
 7702 01fa 00       	 .byte 0
 7703 01fb 3A       	 .uleb128 0x3a
 7704 01fc 0B       	 .uleb128 0xb
 7705 01fd 3B       	 .uleb128 0x3b
ARM GAS   			page 149


 7706 01fe 05       	 .uleb128 0x5
 7707 01ff 39       	 .uleb128 0x39
 7708 0200 0B       	 .uleb128 0xb
 7709 0201 18       	 .uleb128 0x18
 7710 0202 13       	 .uleb128 0x13
 7711 0203 00       	 .byte 0
 7712 0204 00       	 .byte 0
 7713 0205 1F       	 .uleb128 0x1f
 7714 0206 39       	 .uleb128 0x39
 7715 0207 01       	 .byte 0x1
 7716 0208 03       	 .uleb128 0x3
 7717 0209 0E       	 .uleb128 0xe
 7718 020a 3A       	 .uleb128 0x3a
 7719 020b 0B       	 .uleb128 0xb
 7720 020c 3B       	 .uleb128 0x3b
 7721 020d 05       	 .uleb128 0x5
 7722 020e 39       	 .uleb128 0x39
 7723 020f 0B       	 .uleb128 0xb
 7724 0210 8901     	 .uleb128 0x89
 7725 0212 19       	 .uleb128 0x19
 7726 0213 01       	 .uleb128 0x1
 7727 0214 13       	 .uleb128 0x13
 7728 0215 00       	 .byte 0
 7729 0216 00       	 .byte 0
 7730 0217 20       	 .uleb128 0x20
 7731 0218 39       	 .uleb128 0x39
 7732 0219 01       	 .byte 0x1
 7733 021a 03       	 .uleb128 0x3
 7734 021b 0E       	 .uleb128 0xe
 7735 021c 3A       	 .uleb128 0x3a
 7736 021d 0B       	 .uleb128 0xb
 7737 021e 3B       	 .uleb128 0x3b
 7738 021f 05       	 .uleb128 0x5
 7739 0220 39       	 .uleb128 0x39
 7740 0221 0B       	 .uleb128 0xb
 7741 0222 01       	 .uleb128 0x1
 7742 0223 13       	 .uleb128 0x13
 7743 0224 00       	 .byte 0
 7744 0225 00       	 .byte 0
 7745 0226 21       	 .uleb128 0x21
 7746 0227 2E       	 .uleb128 0x2e
 7747 0228 01       	 .byte 0x1
 7748 0229 3F       	 .uleb128 0x3f
 7749 022a 19       	 .uleb128 0x19
 7750 022b 03       	 .uleb128 0x3
 7751 022c 08       	 .uleb128 0x8
 7752 022d 3A       	 .uleb128 0x3a
 7753 022e 0B       	 .uleb128 0xb
 7754 022f 3B       	 .uleb128 0x3b
 7755 0230 0B       	 .uleb128 0xb
 7756 0231 39       	 .uleb128 0x39
 7757 0232 0B       	 .uleb128 0xb
 7758 0233 6E       	 .uleb128 0x6e
 7759 0234 0E       	 .uleb128 0xe
 7760 0235 49       	 .uleb128 0x49
 7761 0236 13       	 .uleb128 0x13
 7762 0237 3C       	 .uleb128 0x3c
ARM GAS   			page 150


 7763 0238 19       	 .uleb128 0x19
 7764 0239 00       	 .byte 0
 7765 023a 00       	 .byte 0
 7766 023b 22       	 .uleb128 0x22
 7767 023c 24       	 .uleb128 0x24
 7768 023d 00       	 .byte 0
 7769 023e 0B       	 .uleb128 0xb
 7770 023f 0B       	 .uleb128 0xb
 7771 0240 3E       	 .uleb128 0x3e
 7772 0241 0B       	 .uleb128 0xb
 7773 0242 03       	 .uleb128 0x3
 7774 0243 08       	 .uleb128 0x8
 7775 0244 00       	 .byte 0
 7776 0245 00       	 .byte 0
 7777 0246 23       	 .uleb128 0x23
 7778 0247 16       	 .uleb128 0x16
 7779 0248 00       	 .byte 0
 7780 0249 03       	 .uleb128 0x3
 7781 024a 0E       	 .uleb128 0xe
 7782 024b 3A       	 .uleb128 0x3a
 7783 024c 0B       	 .uleb128 0xb
 7784 024d 3B       	 .uleb128 0x3b
 7785 024e 0B       	 .uleb128 0xb
 7786 024f 39       	 .uleb128 0x39
 7787 0250 0B       	 .uleb128 0xb
 7788 0251 49       	 .uleb128 0x49
 7789 0252 13       	 .uleb128 0x13
 7790 0253 00       	 .byte 0
 7791 0254 00       	 .byte 0
 7792 0255 24       	 .uleb128 0x24
 7793 0256 24       	 .uleb128 0x24
 7794 0257 00       	 .byte 0
 7795 0258 0B       	 .uleb128 0xb
 7796 0259 0B       	 .uleb128 0xb
 7797 025a 3E       	 .uleb128 0x3e
 7798 025b 0B       	 .uleb128 0xb
 7799 025c 03       	 .uleb128 0x3
 7800 025d 0E       	 .uleb128 0xe
 7801 025e 00       	 .byte 0
 7802 025f 00       	 .byte 0
 7803 0260 25       	 .uleb128 0x25
 7804 0261 3B       	 .uleb128 0x3b
 7805 0262 00       	 .byte 0
 7806 0263 03       	 .uleb128 0x3
 7807 0264 0E       	 .uleb128 0xe
 7808 0265 00       	 .byte 0
 7809 0266 00       	 .byte 0
 7810 0267 26       	 .uleb128 0x26
 7811 0268 0F       	 .uleb128 0xf
 7812 0269 00       	 .byte 0
 7813 026a 0B       	 .uleb128 0xb
 7814 026b 0B       	 .uleb128 0xb
 7815 026c 00       	 .byte 0
 7816 026d 00       	 .byte 0
 7817 026e 27       	 .uleb128 0x27
 7818 026f 0F       	 .uleb128 0xf
 7819 0270 00       	 .byte 0
ARM GAS   			page 151


 7820 0271 0B       	 .uleb128 0xb
 7821 0272 0B       	 .uleb128 0xb
 7822 0273 49       	 .uleb128 0x49
 7823 0274 13       	 .uleb128 0x13
 7824 0275 00       	 .byte 0
 7825 0276 00       	 .byte 0
 7826 0277 28       	 .uleb128 0x28
 7827 0278 10       	 .uleb128 0x10
 7828 0279 00       	 .byte 0
 7829 027a 0B       	 .uleb128 0xb
 7830 027b 0B       	 .uleb128 0xb
 7831 027c 49       	 .uleb128 0x49
 7832 027d 13       	 .uleb128 0x13
 7833 027e 00       	 .byte 0
 7834 027f 00       	 .byte 0
 7835 0280 29       	 .uleb128 0x29
 7836 0281 42       	 .uleb128 0x42
 7837 0282 00       	 .byte 0
 7838 0283 0B       	 .uleb128 0xb
 7839 0284 0B       	 .uleb128 0xb
 7840 0285 49       	 .uleb128 0x49
 7841 0286 13       	 .uleb128 0x13
 7842 0287 00       	 .byte 0
 7843 0288 00       	 .byte 0
 7844 0289 2A       	 .uleb128 0x2a
 7845 028a 34       	 .uleb128 0x34
 7846 028b 00       	 .byte 0
 7847 028c 47       	 .uleb128 0x47
 7848 028d 13       	 .uleb128 0x13
 7849 028e 00       	 .byte 0
 7850 028f 00       	 .byte 0
 7851 0290 2B       	 .uleb128 0x2b
 7852 0291 3A       	 .uleb128 0x3a
 7853 0292 00       	 .byte 0
 7854 0293 3A       	 .uleb128 0x3a
 7855 0294 0B       	 .uleb128 0xb
 7856 0295 3B       	 .uleb128 0x3b
 7857 0296 0B       	 .uleb128 0xb
 7858 0297 39       	 .uleb128 0x39
 7859 0298 0B       	 .uleb128 0xb
 7860 0299 18       	 .uleb128 0x18
 7861 029a 13       	 .uleb128 0x13
 7862 029b 00       	 .byte 0
 7863 029c 00       	 .byte 0
 7864 029d 2C       	 .uleb128 0x2c
 7865 029e 13       	 .uleb128 0x13
 7866 029f 01       	 .byte 0x1
 7867 02a0 0B       	 .uleb128 0xb
 7868 02a1 0B       	 .uleb128 0xb
 7869 02a2 3A       	 .uleb128 0x3a
 7870 02a3 0B       	 .uleb128 0xb
 7871 02a4 3B       	 .uleb128 0x3b
 7872 02a5 0B       	 .uleb128 0xb
 7873 02a6 39       	 .uleb128 0x39
 7874 02a7 0B       	 .uleb128 0xb
 7875 02a8 6E       	 .uleb128 0x6e
 7876 02a9 0E       	 .uleb128 0xe
ARM GAS   			page 152


 7877 02aa 01       	 .uleb128 0x1
 7878 02ab 13       	 .uleb128 0x13
 7879 02ac 00       	 .byte 0
 7880 02ad 00       	 .byte 0
 7881 02ae 2D       	 .uleb128 0x2d
 7882 02af 17       	 .uleb128 0x17
 7883 02b0 01       	 .byte 0x1
 7884 02b1 0B       	 .uleb128 0xb
 7885 02b2 0B       	 .uleb128 0xb
 7886 02b3 3A       	 .uleb128 0x3a
 7887 02b4 0B       	 .uleb128 0xb
 7888 02b5 3B       	 .uleb128 0x3b
 7889 02b6 0B       	 .uleb128 0xb
 7890 02b7 39       	 .uleb128 0x39
 7891 02b8 0B       	 .uleb128 0xb
 7892 02b9 01       	 .uleb128 0x1
 7893 02ba 13       	 .uleb128 0x13
 7894 02bb 00       	 .byte 0
 7895 02bc 00       	 .byte 0
 7896 02bd 2E       	 .uleb128 0x2e
 7897 02be 0D       	 .uleb128 0xd
 7898 02bf 00       	 .byte 0
 7899 02c0 03       	 .uleb128 0x3
 7900 02c1 0E       	 .uleb128 0xe
 7901 02c2 3A       	 .uleb128 0x3a
 7902 02c3 0B       	 .uleb128 0xb
 7903 02c4 3B       	 .uleb128 0x3b
 7904 02c5 0B       	 .uleb128 0xb
 7905 02c6 39       	 .uleb128 0x39
 7906 02c7 0B       	 .uleb128 0xb
 7907 02c8 49       	 .uleb128 0x49
 7908 02c9 13       	 .uleb128 0x13
 7909 02ca 00       	 .byte 0
 7910 02cb 00       	 .byte 0
 7911 02cc 2F       	 .uleb128 0x2f
 7912 02cd 01       	 .uleb128 0x1
 7913 02ce 01       	 .byte 0x1
 7914 02cf 49       	 .uleb128 0x49
 7915 02d0 13       	 .uleb128 0x13
 7916 02d1 01       	 .uleb128 0x1
 7917 02d2 13       	 .uleb128 0x13
 7918 02d3 00       	 .byte 0
 7919 02d4 00       	 .byte 0
 7920 02d5 30       	 .uleb128 0x30
 7921 02d6 21       	 .uleb128 0x21
 7922 02d7 00       	 .byte 0
 7923 02d8 49       	 .uleb128 0x49
 7924 02d9 13       	 .uleb128 0x13
 7925 02da 2F       	 .uleb128 0x2f
 7926 02db 0B       	 .uleb128 0xb
 7927 02dc 00       	 .byte 0
 7928 02dd 00       	 .byte 0
 7929 02de 31       	 .uleb128 0x31
 7930 02df 13       	 .uleb128 0x13
 7931 02e0 01       	 .byte 0x1
 7932 02e1 03       	 .uleb128 0x3
 7933 02e2 0E       	 .uleb128 0xe
ARM GAS   			page 153


 7934 02e3 0B       	 .uleb128 0xb
 7935 02e4 0B       	 .uleb128 0xb
 7936 02e5 3A       	 .uleb128 0x3a
 7937 02e6 0B       	 .uleb128 0xb
 7938 02e7 3B       	 .uleb128 0x3b
 7939 02e8 0B       	 .uleb128 0xb
 7940 02e9 01       	 .uleb128 0x1
 7941 02ea 13       	 .uleb128 0x13
 7942 02eb 00       	 .byte 0
 7943 02ec 00       	 .byte 0
 7944 02ed 32       	 .uleb128 0x32
 7945 02ee 0D       	 .uleb128 0xd
 7946 02ef 00       	 .byte 0
 7947 02f0 03       	 .uleb128 0x3
 7948 02f1 0E       	 .uleb128 0xe
 7949 02f2 49       	 .uleb128 0x49
 7950 02f3 13       	 .uleb128 0x13
 7951 02f4 38       	 .uleb128 0x38
 7952 02f5 0B       	 .uleb128 0xb
 7953 02f6 34       	 .uleb128 0x34
 7954 02f7 19       	 .uleb128 0x19
 7955 02f8 00       	 .byte 0
 7956 02f9 00       	 .byte 0
 7957 02fa 33       	 .uleb128 0x33
 7958 02fb 13       	 .uleb128 0x13
 7959 02fc 00       	 .byte 0
 7960 02fd 03       	 .uleb128 0x3
 7961 02fe 0E       	 .uleb128 0xe
 7962 02ff 3C       	 .uleb128 0x3c
 7963 0300 19       	 .uleb128 0x19
 7964 0301 00       	 .byte 0
 7965 0302 00       	 .byte 0
 7966 0303 34       	 .uleb128 0x34
 7967 0304 0D       	 .uleb128 0xd
 7968 0305 00       	 .byte 0
 7969 0306 03       	 .uleb128 0x3
 7970 0307 08       	 .uleb128 0x8
 7971 0308 3A       	 .uleb128 0x3a
 7972 0309 0B       	 .uleb128 0xb
 7973 030a 3B       	 .uleb128 0x3b
 7974 030b 0B       	 .uleb128 0xb
 7975 030c 39       	 .uleb128 0x39
 7976 030d 0B       	 .uleb128 0xb
 7977 030e 49       	 .uleb128 0x49
 7978 030f 13       	 .uleb128 0x13
 7979 0310 38       	 .uleb128 0x38
 7980 0311 0B       	 .uleb128 0xb
 7981 0312 00       	 .byte 0
 7982 0313 00       	 .byte 0
 7983 0314 35       	 .uleb128 0x35
 7984 0315 13       	 .uleb128 0x13
 7985 0316 01       	 .byte 0x1
 7986 0317 03       	 .uleb128 0x3
 7987 0318 0E       	 .uleb128 0xe
 7988 0319 0B       	 .uleb128 0xb
 7989 031a 05       	 .uleb128 0x5
 7990 031b 3A       	 .uleb128 0x3a
ARM GAS   			page 154


 7991 031c 0B       	 .uleb128 0xb
 7992 031d 3B       	 .uleb128 0x3b
 7993 031e 0B       	 .uleb128 0xb
 7994 031f 39       	 .uleb128 0x39
 7995 0320 0B       	 .uleb128 0xb
 7996 0321 01       	 .uleb128 0x1
 7997 0322 13       	 .uleb128 0x13
 7998 0323 00       	 .byte 0
 7999 0324 00       	 .byte 0
 8000 0325 36       	 .uleb128 0x36
 8001 0326 0D       	 .uleb128 0xd
 8002 0327 00       	 .byte 0
 8003 0328 03       	 .uleb128 0x3
 8004 0329 0E       	 .uleb128 0xe
 8005 032a 3A       	 .uleb128 0x3a
 8006 032b 0B       	 .uleb128 0xb
 8007 032c 3B       	 .uleb128 0x3b
 8008 032d 0B       	 .uleb128 0xb
 8009 032e 39       	 .uleb128 0x39
 8010 032f 0B       	 .uleb128 0xb
 8011 0330 49       	 .uleb128 0x49
 8012 0331 13       	 .uleb128 0x13
 8013 0332 38       	 .uleb128 0x38
 8014 0333 05       	 .uleb128 0x5
 8015 0334 00       	 .byte 0
 8016 0335 00       	 .byte 0
 8017 0336 37       	 .uleb128 0x37
 8018 0337 15       	 .uleb128 0x15
 8019 0338 00       	 .byte 0
 8020 0339 00       	 .byte 0
 8021 033a 00       	 .byte 0
 8022 033b 38       	 .uleb128 0x38
 8023 033c 15       	 .uleb128 0x15
 8024 033d 01       	 .byte 0x1
 8025 033e 49       	 .uleb128 0x49
 8026 033f 13       	 .uleb128 0x13
 8027 0340 01       	 .uleb128 0x1
 8028 0341 13       	 .uleb128 0x13
 8029 0342 00       	 .byte 0
 8030 0343 00       	 .byte 0
 8031 0344 39       	 .uleb128 0x39
 8032 0345 13       	 .uleb128 0x13
 8033 0346 01       	 .byte 0x1
 8034 0347 03       	 .uleb128 0x3
 8035 0348 0E       	 .uleb128 0xe
 8036 0349 0B       	 .uleb128 0xb
 8037 034a 05       	 .uleb128 0x5
 8038 034b 3A       	 .uleb128 0x3a
 8039 034c 0B       	 .uleb128 0xb
 8040 034d 3B       	 .uleb128 0x3b
 8041 034e 05       	 .uleb128 0x5
 8042 034f 39       	 .uleb128 0x39
 8043 0350 0B       	 .uleb128 0xb
 8044 0351 01       	 .uleb128 0x1
 8045 0352 13       	 .uleb128 0x13
 8046 0353 00       	 .byte 0
 8047 0354 00       	 .byte 0
ARM GAS   			page 155


 8048 0355 3A       	 .uleb128 0x3a
 8049 0356 17       	 .uleb128 0x17
 8050 0357 01       	 .byte 0x1
 8051 0358 0B       	 .uleb128 0xb
 8052 0359 0B       	 .uleb128 0xb
 8053 035a 3A       	 .uleb128 0x3a
 8054 035b 0B       	 .uleb128 0xb
 8055 035c 3B       	 .uleb128 0x3b
 8056 035d 05       	 .uleb128 0x5
 8057 035e 39       	 .uleb128 0x39
 8058 035f 0B       	 .uleb128 0xb
 8059 0360 01       	 .uleb128 0x1
 8060 0361 13       	 .uleb128 0x13
 8061 0362 00       	 .byte 0
 8062 0363 00       	 .byte 0
 8063 0364 3B       	 .uleb128 0x3b
 8064 0365 13       	 .uleb128 0x13
 8065 0366 01       	 .byte 0x1
 8066 0367 0B       	 .uleb128 0xb
 8067 0368 0B       	 .uleb128 0xb
 8068 0369 3A       	 .uleb128 0x3a
 8069 036a 0B       	 .uleb128 0xb
 8070 036b 3B       	 .uleb128 0x3b
 8071 036c 05       	 .uleb128 0x5
 8072 036d 39       	 .uleb128 0x39
 8073 036e 0B       	 .uleb128 0xb
 8074 036f 01       	 .uleb128 0x1
 8075 0370 13       	 .uleb128 0x13
 8076 0371 00       	 .byte 0
 8077 0372 00       	 .byte 0
 8078 0373 3C       	 .uleb128 0x3c
 8079 0374 0D       	 .uleb128 0xd
 8080 0375 00       	 .byte 0
 8081 0376 03       	 .uleb128 0x3
 8082 0377 0E       	 .uleb128 0xe
 8083 0378 3A       	 .uleb128 0x3a
 8084 0379 0B       	 .uleb128 0xb
 8085 037a 3B       	 .uleb128 0x3b
 8086 037b 05       	 .uleb128 0x5
 8087 037c 39       	 .uleb128 0x39
 8088 037d 0B       	 .uleb128 0xb
 8089 037e 49       	 .uleb128 0x49
 8090 037f 13       	 .uleb128 0x13
 8091 0380 38       	 .uleb128 0x38
 8092 0381 0B       	 .uleb128 0xb
 8093 0382 00       	 .byte 0
 8094 0383 00       	 .byte 0
 8095 0384 3D       	 .uleb128 0x3d
 8096 0385 0D       	 .uleb128 0xd
 8097 0386 00       	 .byte 0
 8098 0387 03       	 .uleb128 0x3
 8099 0388 0E       	 .uleb128 0xe
 8100 0389 3A       	 .uleb128 0x3a
 8101 038a 0B       	 .uleb128 0xb
 8102 038b 3B       	 .uleb128 0x3b
 8103 038c 05       	 .uleb128 0x5
 8104 038d 39       	 .uleb128 0x39
ARM GAS   			page 156


 8105 038e 0B       	 .uleb128 0xb
 8106 038f 49       	 .uleb128 0x49
 8107 0390 13       	 .uleb128 0x13
 8108 0391 00       	 .byte 0
 8109 0392 00       	 .byte 0
 8110 0393 3E       	 .uleb128 0x3e
 8111 0394 0D       	 .uleb128 0xd
 8112 0395 00       	 .byte 0
 8113 0396 03       	 .uleb128 0x3
 8114 0397 0E       	 .uleb128 0xe
 8115 0398 3A       	 .uleb128 0x3a
 8116 0399 0B       	 .uleb128 0xb
 8117 039a 3B       	 .uleb128 0x3b
 8118 039b 05       	 .uleb128 0x5
 8119 039c 39       	 .uleb128 0x39
 8120 039d 0B       	 .uleb128 0xb
 8121 039e 49       	 .uleb128 0x49
 8122 039f 13       	 .uleb128 0x13
 8123 03a0 38       	 .uleb128 0x38
 8124 03a1 05       	 .uleb128 0x5
 8125 03a2 00       	 .byte 0
 8126 03a3 00       	 .byte 0
 8127 03a4 3F       	 .uleb128 0x3f
 8128 03a5 13       	 .uleb128 0x13
 8129 03a6 01       	 .byte 0x1
 8130 03a7 03       	 .uleb128 0x3
 8131 03a8 0E       	 .uleb128 0xe
 8132 03a9 0B       	 .uleb128 0xb
 8133 03aa 0B       	 .uleb128 0xb
 8134 03ab 3A       	 .uleb128 0x3a
 8135 03ac 0B       	 .uleb128 0xb
 8136 03ad 3B       	 .uleb128 0x3b
 8137 03ae 05       	 .uleb128 0x5
 8138 03af 39       	 .uleb128 0x39
 8139 03b0 0B       	 .uleb128 0xb
 8140 03b1 01       	 .uleb128 0x1
 8141 03b2 13       	 .uleb128 0x13
 8142 03b3 00       	 .byte 0
 8143 03b4 00       	 .byte 0
 8144 03b5 40       	 .uleb128 0x40
 8145 03b6 15       	 .uleb128 0x15
 8146 03b7 01       	 .byte 0x1
 8147 03b8 01       	 .uleb128 0x1
 8148 03b9 13       	 .uleb128 0x13
 8149 03ba 00       	 .byte 0
 8150 03bb 00       	 .byte 0
 8151 03bc 41       	 .uleb128 0x41
 8152 03bd 2E       	 .uleb128 0x2e
 8153 03be 01       	 .byte 0x1
 8154 03bf 3F       	 .uleb128 0x3f
 8155 03c0 19       	 .uleb128 0x19
 8156 03c1 03       	 .uleb128 0x3
 8157 03c2 0E       	 .uleb128 0xe
 8158 03c3 3A       	 .uleb128 0x3a
 8159 03c4 0B       	 .uleb128 0xb
 8160 03c5 3B       	 .uleb128 0x3b
 8161 03c6 0B       	 .uleb128 0xb
ARM GAS   			page 157


 8162 03c7 39       	 .uleb128 0x39
 8163 03c8 0B       	 .uleb128 0xb
 8164 03c9 49       	 .uleb128 0x49
 8165 03ca 13       	 .uleb128 0x13
 8166 03cb 3C       	 .uleb128 0x3c
 8167 03cc 19       	 .uleb128 0x19
 8168 03cd 01       	 .uleb128 0x1
 8169 03ce 13       	 .uleb128 0x13
 8170 03cf 00       	 .byte 0
 8171 03d0 00       	 .byte 0
 8172 03d1 42       	 .uleb128 0x42
 8173 03d2 2E       	 .uleb128 0x2e
 8174 03d3 01       	 .byte 0x1
 8175 03d4 3F       	 .uleb128 0x3f
 8176 03d5 19       	 .uleb128 0x19
 8177 03d6 03       	 .uleb128 0x3
 8178 03d7 0E       	 .uleb128 0xe
 8179 03d8 3A       	 .uleb128 0x3a
 8180 03d9 0B       	 .uleb128 0xb
 8181 03da 3B       	 .uleb128 0x3b
 8182 03db 05       	 .uleb128 0x5
 8183 03dc 39       	 .uleb128 0x39
 8184 03dd 0B       	 .uleb128 0xb
 8185 03de 49       	 .uleb128 0x49
 8186 03df 13       	 .uleb128 0x13
 8187 03e0 3C       	 .uleb128 0x3c
 8188 03e1 19       	 .uleb128 0x19
 8189 03e2 01       	 .uleb128 0x1
 8190 03e3 13       	 .uleb128 0x13
 8191 03e4 00       	 .byte 0
 8192 03e5 00       	 .byte 0
 8193 03e6 43       	 .uleb128 0x43
 8194 03e7 18       	 .uleb128 0x18
 8195 03e8 00       	 .byte 0
 8196 03e9 00       	 .byte 0
 8197 03ea 00       	 .byte 0
 8198 03eb 44       	 .uleb128 0x44
 8199 03ec 2E       	 .uleb128 0x2e
 8200 03ed 00       	 .byte 0
 8201 03ee 3F       	 .uleb128 0x3f
 8202 03ef 19       	 .uleb128 0x19
 8203 03f0 03       	 .uleb128 0x3
 8204 03f1 0E       	 .uleb128 0xe
 8205 03f2 3A       	 .uleb128 0x3a
 8206 03f3 0B       	 .uleb128 0xb
 8207 03f4 3B       	 .uleb128 0x3b
 8208 03f5 0B       	 .uleb128 0xb
 8209 03f6 39       	 .uleb128 0x39
 8210 03f7 0B       	 .uleb128 0xb
 8211 03f8 49       	 .uleb128 0x49
 8212 03f9 13       	 .uleb128 0x13
 8213 03fa 3C       	 .uleb128 0x3c
 8214 03fb 19       	 .uleb128 0x19
 8215 03fc 00       	 .byte 0
 8216 03fd 00       	 .byte 0
 8217 03fe 45       	 .uleb128 0x45
 8218 03ff 13       	 .uleb128 0x13
ARM GAS   			page 158


 8219 0400 00       	 .byte 0
 8220 0401 03       	 .uleb128 0x3
 8221 0402 08       	 .uleb128 0x8
 8222 0403 3C       	 .uleb128 0x3c
 8223 0404 19       	 .uleb128 0x19
 8224 0405 00       	 .byte 0
 8225 0406 00       	 .byte 0
 8226 0407 46       	 .uleb128 0x46
 8227 0408 26       	 .uleb128 0x26
 8228 0409 00       	 .byte 0
 8229 040a 00       	 .byte 0
 8230 040b 00       	 .byte 0
 8231 040c 47       	 .uleb128 0x47
 8232 040d 2E       	 .uleb128 0x2e
 8233 040e 01       	 .byte 0x1
 8234 040f 3F       	 .uleb128 0x3f
 8235 0410 19       	 .uleb128 0x19
 8236 0411 03       	 .uleb128 0x3
 8237 0412 08       	 .uleb128 0x8
 8238 0413 3A       	 .uleb128 0x3a
 8239 0414 0B       	 .uleb128 0xb
 8240 0415 3B       	 .uleb128 0x3b
 8241 0416 0B       	 .uleb128 0xb
 8242 0417 39       	 .uleb128 0x39
 8243 0418 0B       	 .uleb128 0xb
 8244 0419 49       	 .uleb128 0x49
 8245 041a 13       	 .uleb128 0x13
 8246 041b 3C       	 .uleb128 0x3c
 8247 041c 19       	 .uleb128 0x19
 8248 041d 01       	 .uleb128 0x1
 8249 041e 13       	 .uleb128 0x13
 8250 041f 00       	 .byte 0
 8251 0420 00       	 .byte 0
 8252 0421 48       	 .uleb128 0x48
 8253 0422 2E       	 .uleb128 0x2e
 8254 0423 01       	 .byte 0x1
 8255 0424 3F       	 .uleb128 0x3f
 8256 0425 19       	 .uleb128 0x19
 8257 0426 03       	 .uleb128 0x3
 8258 0427 0E       	 .uleb128 0xe
 8259 0428 3A       	 .uleb128 0x3a
 8260 0429 0B       	 .uleb128 0xb
 8261 042a 3B       	 .uleb128 0x3b
 8262 042b 0B       	 .uleb128 0xb
 8263 042c 39       	 .uleb128 0x39
 8264 042d 0B       	 .uleb128 0xb
 8265 042e 3C       	 .uleb128 0x3c
 8266 042f 19       	 .uleb128 0x19
 8267 0430 01       	 .uleb128 0x1
 8268 0431 13       	 .uleb128 0x13
 8269 0432 00       	 .byte 0
 8270 0433 00       	 .byte 0
 8271 0434 49       	 .uleb128 0x49
 8272 0435 02       	 .uleb128 0x2
 8273 0436 01       	 .byte 0x1
 8274 0437 03       	 .uleb128 0x3
 8275 0438 0E       	 .uleb128 0xe
ARM GAS   			page 159


 8276 0439 0B       	 .uleb128 0xb
 8277 043a 0B       	 .uleb128 0xb
 8278 043b 3A       	 .uleb128 0x3a
 8279 043c 0B       	 .uleb128 0xb
 8280 043d 3B       	 .uleb128 0x3b
 8281 043e 05       	 .uleb128 0x5
 8282 043f 39       	 .uleb128 0x39
 8283 0440 0B       	 .uleb128 0xb
 8284 0441 1D       	 .uleb128 0x1d
 8285 0442 13       	 .uleb128 0x13
 8286 0443 01       	 .uleb128 0x1
 8287 0444 13       	 .uleb128 0x13
 8288 0445 00       	 .byte 0
 8289 0446 00       	 .byte 0
 8290 0447 4A       	 .uleb128 0x4a
 8291 0448 1C       	 .uleb128 0x1c
 8292 0449 00       	 .byte 0
 8293 044a 49       	 .uleb128 0x49
 8294 044b 13       	 .uleb128 0x13
 8295 044c 38       	 .uleb128 0x38
 8296 044d 0B       	 .uleb128 0xb
 8297 044e 32       	 .uleb128 0x32
 8298 044f 0B       	 .uleb128 0xb
 8299 0450 00       	 .byte 0
 8300 0451 00       	 .byte 0
 8301 0452 4B       	 .uleb128 0x4b
 8302 0453 2E       	 .uleb128 0x2e
 8303 0454 01       	 .byte 0x1
 8304 0455 3F       	 .uleb128 0x3f
 8305 0456 19       	 .uleb128 0x19
 8306 0457 03       	 .uleb128 0x3
 8307 0458 0E       	 .uleb128 0xe
 8308 0459 6E       	 .uleb128 0x6e
 8309 045a 0E       	 .uleb128 0xe
 8310 045b 49       	 .uleb128 0x49
 8311 045c 13       	 .uleb128 0x13
 8312 045d 34       	 .uleb128 0x34
 8313 045e 19       	 .uleb128 0x19
 8314 045f 32       	 .uleb128 0x32
 8315 0460 0B       	 .uleb128 0xb
 8316 0461 3C       	 .uleb128 0x3c
 8317 0462 19       	 .uleb128 0x19
 8318 0463 64       	 .uleb128 0x64
 8319 0464 13       	 .uleb128 0x13
 8320 0465 01       	 .uleb128 0x1
 8321 0466 13       	 .uleb128 0x13
 8322 0467 00       	 .byte 0
 8323 0468 00       	 .byte 0
 8324 0469 4C       	 .uleb128 0x4c
 8325 046a 2E       	 .uleb128 0x2e
 8326 046b 01       	 .byte 0x1
 8327 046c 3F       	 .uleb128 0x3f
 8328 046d 19       	 .uleb128 0x19
 8329 046e 03       	 .uleb128 0x3
 8330 046f 0E       	 .uleb128 0xe
 8331 0470 3A       	 .uleb128 0x3a
 8332 0471 0B       	 .uleb128 0xb
ARM GAS   			page 160


 8333 0472 3B       	 .uleb128 0x3b
 8334 0473 0B       	 .uleb128 0xb
 8335 0474 39       	 .uleb128 0x39
 8336 0475 0B       	 .uleb128 0xb
 8337 0476 6E       	 .uleb128 0x6e
 8338 0477 0E       	 .uleb128 0xe
 8339 0478 49       	 .uleb128 0x49
 8340 0479 13       	 .uleb128 0x13
 8341 047a 4C       	 .uleb128 0x4c
 8342 047b 0B       	 .uleb128 0xb
 8343 047c 4D       	 .uleb128 0x4d
 8344 047d 18       	 .uleb128 0x18
 8345 047e 1D       	 .uleb128 0x1d
 8346 047f 13       	 .uleb128 0x13
 8347 0480 32       	 .uleb128 0x32
 8348 0481 0B       	 .uleb128 0xb
 8349 0482 3C       	 .uleb128 0x3c
 8350 0483 19       	 .uleb128 0x19
 8351 0484 64       	 .uleb128 0x64
 8352 0485 13       	 .uleb128 0x13
 8353 0486 01       	 .uleb128 0x1
 8354 0487 13       	 .uleb128 0x13
 8355 0488 00       	 .byte 0
 8356 0489 00       	 .byte 0
 8357 048a 4D       	 .uleb128 0x4d
 8358 048b 2E       	 .uleb128 0x2e
 8359 048c 01       	 .byte 0x1
 8360 048d 3F       	 .uleb128 0x3f
 8361 048e 19       	 .uleb128 0x19
 8362 048f 03       	 .uleb128 0x3
 8363 0490 0E       	 .uleb128 0xe
 8364 0491 6E       	 .uleb128 0x6e
 8365 0492 0E       	 .uleb128 0xe
 8366 0493 49       	 .uleb128 0x49
 8367 0494 13       	 .uleb128 0x13
 8368 0495 4C       	 .uleb128 0x4c
 8369 0496 0B       	 .uleb128 0xb
 8370 0497 1D       	 .uleb128 0x1d
 8371 0498 13       	 .uleb128 0x13
 8372 0499 34       	 .uleb128 0x34
 8373 049a 19       	 .uleb128 0x19
 8374 049b 32       	 .uleb128 0x32
 8375 049c 0B       	 .uleb128 0xb
 8376 049d 3C       	 .uleb128 0x3c
 8377 049e 19       	 .uleb128 0x19
 8378 049f 64       	 .uleb128 0x64
 8379 04a0 13       	 .uleb128 0x13
 8380 04a1 00       	 .byte 0
 8381 04a2 00       	 .byte 0
 8382 04a3 4E       	 .uleb128 0x4e
 8383 04a4 02       	 .uleb128 0x2
 8384 04a5 01       	 .byte 0x1
 8385 04a6 03       	 .uleb128 0x3
 8386 04a7 0E       	 .uleb128 0xe
 8387 04a8 0B       	 .uleb128 0xb
 8388 04a9 0B       	 .uleb128 0xb
 8389 04aa 3A       	 .uleb128 0x3a
ARM GAS   			page 161


 8390 04ab 0B       	 .uleb128 0xb
 8391 04ac 3B       	 .uleb128 0x3b
 8392 04ad 0B       	 .uleb128 0xb
 8393 04ae 39       	 .uleb128 0x39
 8394 04af 0B       	 .uleb128 0xb
 8395 04b0 1D       	 .uleb128 0x1d
 8396 04b1 13       	 .uleb128 0x13
 8397 04b2 01       	 .uleb128 0x1
 8398 04b3 13       	 .uleb128 0x13
 8399 04b4 00       	 .byte 0
 8400 04b5 00       	 .byte 0
 8401 04b6 4F       	 .uleb128 0x4f
 8402 04b7 0D       	 .uleb128 0xd
 8403 04b8 00       	 .byte 0
 8404 04b9 03       	 .uleb128 0x3
 8405 04ba 0E       	 .uleb128 0xe
 8406 04bb 49       	 .uleb128 0x49
 8407 04bc 13       	 .uleb128 0x13
 8408 04bd 38       	 .uleb128 0x38
 8409 04be 0B       	 .uleb128 0xb
 8410 04bf 34       	 .uleb128 0x34
 8411 04c0 19       	 .uleb128 0x19
 8412 04c1 32       	 .uleb128 0x32
 8413 04c2 0B       	 .uleb128 0xb
 8414 04c3 00       	 .byte 0
 8415 04c4 00       	 .byte 0
 8416 04c5 50       	 .uleb128 0x50
 8417 04c6 2E       	 .uleb128 0x2e
 8418 04c7 01       	 .byte 0x1
 8419 04c8 3F       	 .uleb128 0x3f
 8420 04c9 19       	 .uleb128 0x19
 8421 04ca 03       	 .uleb128 0x3
 8422 04cb 0E       	 .uleb128 0xe
 8423 04cc 3A       	 .uleb128 0x3a
 8424 04cd 0B       	 .uleb128 0xb
 8425 04ce 3B       	 .uleb128 0x3b
 8426 04cf 0B       	 .uleb128 0xb
 8427 04d0 39       	 .uleb128 0x39
 8428 04d1 0B       	 .uleb128 0xb
 8429 04d2 6E       	 .uleb128 0x6e
 8430 04d3 0E       	 .uleb128 0xe
 8431 04d4 49       	 .uleb128 0x49
 8432 04d5 13       	 .uleb128 0x13
 8433 04d6 4C       	 .uleb128 0x4c
 8434 04d7 0B       	 .uleb128 0xb
 8435 04d8 1D       	 .uleb128 0x1d
 8436 04d9 13       	 .uleb128 0x13
 8437 04da 32       	 .uleb128 0x32
 8438 04db 0B       	 .uleb128 0xb
 8439 04dc 3C       	 .uleb128 0x3c
 8440 04dd 19       	 .uleb128 0x19
 8441 04de 64       	 .uleb128 0x64
 8442 04df 13       	 .uleb128 0x13
 8443 04e0 01       	 .uleb128 0x1
 8444 04e1 13       	 .uleb128 0x13
 8445 04e2 00       	 .byte 0
 8446 04e3 00       	 .byte 0
ARM GAS   			page 162


 8447 04e4 51       	 .uleb128 0x51
 8448 04e5 0D       	 .uleb128 0xd
 8449 04e6 00       	 .byte 0
 8450 04e7 03       	 .uleb128 0x3
 8451 04e8 0E       	 .uleb128 0xe
 8452 04e9 3A       	 .uleb128 0x3a
 8453 04ea 0B       	 .uleb128 0xb
 8454 04eb 3B       	 .uleb128 0x3b
 8455 04ec 0B       	 .uleb128 0xb
 8456 04ed 39       	 .uleb128 0x39
 8457 04ee 0B       	 .uleb128 0xb
 8458 04ef 49       	 .uleb128 0x49
 8459 04f0 13       	 .uleb128 0x13
 8460 04f1 38       	 .uleb128 0x38
 8461 04f2 0B       	 .uleb128 0xb
 8462 04f3 32       	 .uleb128 0x32
 8463 04f4 0B       	 .uleb128 0xb
 8464 04f5 00       	 .byte 0
 8465 04f6 00       	 .byte 0
 8466 04f7 52       	 .uleb128 0x52
 8467 04f8 0F       	 .uleb128 0xf
 8468 04f9 00       	 .byte 0
 8469 04fa 0B       	 .uleb128 0xb
 8470 04fb 0B       	 .uleb128 0xb
 8471 04fc 03       	 .uleb128 0x3
 8472 04fd 0E       	 .uleb128 0xe
 8473 04fe 49       	 .uleb128 0x49
 8474 04ff 13       	 .uleb128 0x13
 8475 0500 00       	 .byte 0
 8476 0501 00       	 .byte 0
 8477 0502 53       	 .uleb128 0x53
 8478 0503 2E       	 .uleb128 0x2e
 8479 0504 01       	 .byte 0x1
 8480 0505 47       	 .uleb128 0x47
 8481 0506 13       	 .uleb128 0x13
 8482 0507 3A       	 .uleb128 0x3a
 8483 0508 0B       	 .uleb128 0xb
 8484 0509 3B       	 .uleb128 0x3b
 8485 050a 0B       	 .uleb128 0xb
 8486 050b 39       	 .uleb128 0x39
 8487 050c 0B       	 .uleb128 0xb
 8488 050d 49       	 .uleb128 0x49
 8489 050e 13       	 .uleb128 0x13
 8490 050f 64       	 .uleb128 0x64
 8491 0510 13       	 .uleb128 0x13
 8492 0511 20       	 .uleb128 0x20
 8493 0512 0B       	 .uleb128 0xb
 8494 0513 01       	 .uleb128 0x1
 8495 0514 13       	 .uleb128 0x13
 8496 0515 00       	 .byte 0
 8497 0516 00       	 .byte 0
 8498 0517 54       	 .uleb128 0x54
 8499 0518 05       	 .uleb128 0x5
 8500 0519 00       	 .byte 0
 8501 051a 03       	 .uleb128 0x3
 8502 051b 0E       	 .uleb128 0xe
 8503 051c 49       	 .uleb128 0x49
ARM GAS   			page 163


 8504 051d 13       	 .uleb128 0x13
 8505 051e 34       	 .uleb128 0x34
 8506 051f 19       	 .uleb128 0x19
 8507 0520 00       	 .byte 0
 8508 0521 00       	 .byte 0
 8509 0522 55       	 .uleb128 0x55
 8510 0523 2E       	 .uleb128 0x2e
 8511 0524 01       	 .byte 0x1
 8512 0525 31       	 .uleb128 0x31
 8513 0526 13       	 .uleb128 0x13
 8514 0527 6E       	 .uleb128 0x6e
 8515 0528 0E       	 .uleb128 0xe
 8516 0529 64       	 .uleb128 0x64
 8517 052a 13       	 .uleb128 0x13
 8518 052b 11       	 .uleb128 0x11
 8519 052c 01       	 .uleb128 0x1
 8520 052d 12       	 .uleb128 0x12
 8521 052e 06       	 .uleb128 0x6
 8522 052f 40       	 .uleb128 0x40
 8523 0530 18       	 .uleb128 0x18
 8524 0531 9642     	 .uleb128 0x2116
 8525 0533 19       	 .uleb128 0x19
 8526 0534 01       	 .uleb128 0x1
 8527 0535 13       	 .uleb128 0x13
 8528 0536 00       	 .byte 0
 8529 0537 00       	 .byte 0
 8530 0538 56       	 .uleb128 0x56
 8531 0539 05       	 .uleb128 0x5
 8532 053a 00       	 .byte 0
 8533 053b 31       	 .uleb128 0x31
 8534 053c 13       	 .uleb128 0x13
 8535 053d 02       	 .uleb128 0x2
 8536 053e 18       	 .uleb128 0x18
 8537 053f 00       	 .byte 0
 8538 0540 00       	 .byte 0
 8539 0541 57       	 .uleb128 0x57
 8540 0542 2E       	 .uleb128 0x2e
 8541 0543 01       	 .byte 0x1
 8542 0544 47       	 .uleb128 0x47
 8543 0545 13       	 .uleb128 0x13
 8544 0546 3A       	 .uleb128 0x3a
 8545 0547 0B       	 .uleb128 0xb
 8546 0548 3B       	 .uleb128 0x3b
 8547 0549 05       	 .uleb128 0x5
 8548 054a 39       	 .uleb128 0x39
 8549 054b 0B       	 .uleb128 0xb
 8550 054c 49       	 .uleb128 0x49
 8551 054d 13       	 .uleb128 0x13
 8552 054e 64       	 .uleb128 0x64
 8553 054f 13       	 .uleb128 0x13
 8554 0550 20       	 .uleb128 0x20
 8555 0551 0B       	 .uleb128 0xb
 8556 0552 01       	 .uleb128 0x1
 8557 0553 13       	 .uleb128 0x13
 8558 0554 00       	 .byte 0
 8559 0555 00       	 .byte 0
 8560 0556 58       	 .uleb128 0x58
ARM GAS   			page 164


 8561 0557 2E       	 .uleb128 0x2e
 8562 0558 01       	 .byte 0x1
 8563 0559 47       	 .uleb128 0x47
 8564 055a 13       	 .uleb128 0x13
 8565 055b 64       	 .uleb128 0x64
 8566 055c 13       	 .uleb128 0x13
 8567 055d 11       	 .uleb128 0x11
 8568 055e 01       	 .uleb128 0x1
 8569 055f 12       	 .uleb128 0x12
 8570 0560 06       	 .uleb128 0x6
 8571 0561 40       	 .uleb128 0x40
 8572 0562 18       	 .uleb128 0x18
 8573 0563 9642     	 .uleb128 0x2116
 8574 0565 19       	 .uleb128 0x19
 8575 0566 01       	 .uleb128 0x1
 8576 0567 13       	 .uleb128 0x13
 8577 0568 00       	 .byte 0
 8578 0569 00       	 .byte 0
 8579 056a 59       	 .uleb128 0x59
 8580 056b 05       	 .uleb128 0x5
 8581 056c 00       	 .byte 0
 8582 056d 03       	 .uleb128 0x3
 8583 056e 0E       	 .uleb128 0xe
 8584 056f 49       	 .uleb128 0x49
 8585 0570 13       	 .uleb128 0x13
 8586 0571 34       	 .uleb128 0x34
 8587 0572 19       	 .uleb128 0x19
 8588 0573 02       	 .uleb128 0x2
 8589 0574 18       	 .uleb128 0x18
 8590 0575 00       	 .byte 0
 8591 0576 00       	 .byte 0
 8592 0577 5A       	 .uleb128 0x5a
 8593 0578 05       	 .uleb128 0x5
 8594 0579 00       	 .byte 0
 8595 057a 03       	 .uleb128 0x3
 8596 057b 0E       	 .uleb128 0xe
 8597 057c 3A       	 .uleb128 0x3a
 8598 057d 0B       	 .uleb128 0xb
 8599 057e 3B       	 .uleb128 0x3b
 8600 057f 0B       	 .uleb128 0xb
 8601 0580 39       	 .uleb128 0x39
 8602 0581 0B       	 .uleb128 0xb
 8603 0582 49       	 .uleb128 0x49
 8604 0583 13       	 .uleb128 0x13
 8605 0584 02       	 .uleb128 0x2
 8606 0585 18       	 .uleb128 0x18
 8607 0586 00       	 .byte 0
 8608 0587 00       	 .byte 0
 8609 0588 5B       	 .uleb128 0x5b
 8610 0589 2E       	 .uleb128 0x2e
 8611 058a 01       	 .byte 0x1
 8612 058b 47       	 .uleb128 0x47
 8613 058c 13       	 .uleb128 0x13
 8614 058d 64       	 .uleb128 0x64
 8615 058e 13       	 .uleb128 0x13
 8616 058f 20       	 .uleb128 0x20
 8617 0590 0B       	 .uleb128 0xb
ARM GAS   			page 165


 8618 0591 01       	 .uleb128 0x1
 8619 0592 13       	 .uleb128 0x13
 8620 0593 00       	 .byte 0
 8621 0594 00       	 .byte 0
 8622 0595 5C       	 .uleb128 0x5c
 8623 0596 05       	 .uleb128 0x5
 8624 0597 00       	 .byte 0
 8625 0598 03       	 .uleb128 0x3
 8626 0599 0E       	 .uleb128 0xe
 8627 059a 3A       	 .uleb128 0x3a
 8628 059b 0B       	 .uleb128 0xb
 8629 059c 3B       	 .uleb128 0x3b
 8630 059d 0B       	 .uleb128 0xb
 8631 059e 39       	 .uleb128 0x39
 8632 059f 0B       	 .uleb128 0xb
 8633 05a0 49       	 .uleb128 0x49
 8634 05a1 13       	 .uleb128 0x13
 8635 05a2 00       	 .byte 0
 8636 05a3 00       	 .byte 0
 8637 05a4 5D       	 .uleb128 0x5d
 8638 05a5 34       	 .uleb128 0x34
 8639 05a6 00       	 .byte 0
 8640 05a7 03       	 .uleb128 0x3
 8641 05a8 0E       	 .uleb128 0xe
 8642 05a9 3A       	 .uleb128 0x3a
 8643 05aa 0B       	 .uleb128 0xb
 8644 05ab 3B       	 .uleb128 0x3b
 8645 05ac 0B       	 .uleb128 0xb
 8646 05ad 39       	 .uleb128 0x39
 8647 05ae 0B       	 .uleb128 0xb
 8648 05af 49       	 .uleb128 0x49
 8649 05b0 13       	 .uleb128 0x13
 8650 05b1 02       	 .uleb128 0x2
 8651 05b2 18       	 .uleb128 0x18
 8652 05b3 00       	 .byte 0
 8653 05b4 00       	 .byte 0
 8654 05b5 5E       	 .uleb128 0x5e
 8655 05b6 34       	 .uleb128 0x34
 8656 05b7 00       	 .byte 0
 8657 05b8 03       	 .uleb128 0x3
 8658 05b9 08       	 .uleb128 0x8
 8659 05ba 3A       	 .uleb128 0x3a
 8660 05bb 0B       	 .uleb128 0xb
 8661 05bc 3B       	 .uleb128 0x3b
 8662 05bd 0B       	 .uleb128 0xb
 8663 05be 39       	 .uleb128 0x39
 8664 05bf 0B       	 .uleb128 0xb
 8665 05c0 49       	 .uleb128 0x49
 8666 05c1 13       	 .uleb128 0x13
 8667 05c2 02       	 .uleb128 0x2
 8668 05c3 18       	 .uleb128 0x18
 8669 05c4 00       	 .byte 0
 8670 05c5 00       	 .byte 0
 8671 05c6 5F       	 .uleb128 0x5f
 8672 05c7 2E       	 .uleb128 0x2e
 8673 05c8 01       	 .byte 0x1
 8674 05c9 47       	 .uleb128 0x47
ARM GAS   			page 166


 8675 05ca 13       	 .uleb128 0x13
 8676 05cb 49       	 .uleb128 0x49
 8677 05cc 13       	 .uleb128 0x13
 8678 05cd 64       	 .uleb128 0x64
 8679 05ce 13       	 .uleb128 0x13
 8680 05cf 20       	 .uleb128 0x20
 8681 05d0 0B       	 .uleb128 0xb
 8682 05d1 01       	 .uleb128 0x1
 8683 05d2 13       	 .uleb128 0x13
 8684 05d3 00       	 .byte 0
 8685 05d4 00       	 .byte 0
 8686 05d5 60       	 .uleb128 0x60
 8687 05d6 34       	 .uleb128 0x34
 8688 05d7 00       	 .byte 0
 8689 05d8 03       	 .uleb128 0x3
 8690 05d9 0E       	 .uleb128 0xe
 8691 05da 49       	 .uleb128 0x49
 8692 05db 13       	 .uleb128 0x13
 8693 05dc 34       	 .uleb128 0x34
 8694 05dd 19       	 .uleb128 0x19
 8695 05de 6C       	 .uleb128 0x6c
 8696 05df 19       	 .uleb128 0x19
 8697 05e0 00       	 .byte 0
 8698 05e1 00       	 .byte 0
 8699 05e2 61       	 .uleb128 0x61
 8700 05e3 0B       	 .uleb128 0xb
 8701 05e4 00       	 .byte 0
 8702 05e5 00       	 .byte 0
 8703 05e6 00       	 .byte 0
 8704 05e7 62       	 .uleb128 0x62
 8705 05e8 0B       	 .uleb128 0xb
 8706 05e9 00       	 .byte 0
 8707 05ea 11       	 .uleb128 0x11
 8708 05eb 01       	 .uleb128 0x1
 8709 05ec 12       	 .uleb128 0x12
 8710 05ed 06       	 .uleb128 0x6
 8711 05ee 00       	 .byte 0
 8712 05ef 00       	 .byte 0
 8713 05f0 63       	 .uleb128 0x63
 8714 05f1 2E       	 .uleb128 0x2e
 8715 05f2 01       	 .byte 0x1
 8716 05f3 03       	 .uleb128 0x3
 8717 05f4 0E       	 .uleb128 0xe
 8718 05f5 3A       	 .uleb128 0x3a
 8719 05f6 0B       	 .uleb128 0xb
 8720 05f7 3B       	 .uleb128 0x3b
 8721 05f8 0B       	 .uleb128 0xb
 8722 05f9 39       	 .uleb128 0x39
 8723 05fa 0B       	 .uleb128 0xb
 8724 05fb 49       	 .uleb128 0x49
 8725 05fc 13       	 .uleb128 0x13
 8726 05fd 11       	 .uleb128 0x11
 8727 05fe 01       	 .uleb128 0x1
 8728 05ff 12       	 .uleb128 0x12
 8729 0600 06       	 .uleb128 0x6
 8730 0601 40       	 .uleb128 0x40
 8731 0602 18       	 .uleb128 0x18
ARM GAS   			page 167


 8732 0603 9742     	 .uleb128 0x2117
 8733 0605 19       	 .uleb128 0x19
 8734 0606 00       	 .byte 0
 8735 0607 00       	 .byte 0
 8736 0608 00       	 .byte 0
 8737              	 .section .debug_aranges,"",%progbits
 8738 0000 E4000000 	 .4byte 0xe4
 8739 0004 0200     	 .2byte 0x2
 8740 0006 00000000 	 .4byte .Ldebug_info0
 8741 000a 04       	 .byte 0x4
 8742 000b 00       	 .byte 0
 8743 000c 0000     	 .2byte 0
 8744 000e 0000     	 .2byte 0
 8745 0010 00000000 	 .4byte .LFB652
 8746 0014 16000000 	 .4byte .LFE652-.LFB652
 8747 0018 00000000 	 .4byte .LFB1033
 8748 001c 50000000 	 .4byte .LFE1033-.LFB1033
 8749 0020 00000000 	 .4byte .LFB1036
 8750 0024 28000000 	 .4byte .LFE1036-.LFB1036
 8751 0028 00000000 	 .4byte .LFB1038
 8752 002c 20000000 	 .4byte .LFE1038-.LFB1038
 8753 0030 00000000 	 .4byte .LFB1039
 8754 0034 30000000 	 .4byte .LFE1039-.LFB1039
 8755 0038 00000000 	 .4byte .LFB1040
 8756 003c 30000000 	 .4byte .LFE1040-.LFB1040
 8757 0040 00000000 	 .4byte .LFB1041
 8758 0044 30000000 	 .4byte .LFE1041-.LFB1041
 8759 0048 00000000 	 .4byte .LFB1042
 8760 004c 30000000 	 .4byte .LFE1042-.LFB1042
 8761 0050 00000000 	 .4byte .LFB1043
 8762 0054 30000000 	 .4byte .LFE1043-.LFB1043
 8763 0058 00000000 	 .4byte .LFB1044
 8764 005c 30000000 	 .4byte .LFE1044-.LFB1044
 8765 0060 00000000 	 .4byte .LFB1045
 8766 0064 2C000000 	 .4byte .LFE1045-.LFB1045
 8767 0068 00000000 	 .4byte .LFB1046
 8768 006c 28000000 	 .4byte .LFE1046-.LFB1046
 8769 0070 00000000 	 .4byte .LFB1047
 8770 0074 28000000 	 .4byte .LFE1047-.LFB1047
 8771 0078 00000000 	 .4byte .LFB1048
 8772 007c 1C000000 	 .4byte .LFE1048-.LFB1048
 8773 0080 00000000 	 .4byte .LFB1049
 8774 0084 1C000000 	 .4byte .LFE1049-.LFB1049
 8775 0088 00000000 	 .4byte .LFB1050
 8776 008c 1C000000 	 .4byte .LFE1050-.LFB1050
 8777 0090 00000000 	 .4byte .LFB1052
 8778 0094 2C000000 	 .4byte .LFE1052-.LFB1052
 8779 0098 00000000 	 .4byte .LFB1054
 8780 009c 30000000 	 .4byte .LFE1054-.LFB1054
 8781 00a0 00000000 	 .4byte .LFB1055
 8782 00a4 30000000 	 .4byte .LFE1055-.LFB1055
 8783 00a8 00000000 	 .4byte .LFB1057
 8784 00ac 2C000000 	 .4byte .LFE1057-.LFB1057
 8785 00b0 00000000 	 .4byte .LFB1059
 8786 00b4 22000000 	 .4byte .LFE1059-.LFB1059
 8787 00b8 00000000 	 .4byte .LFB1060
 8788 00bc 24000000 	 .4byte .LFE1060-.LFB1060
ARM GAS   			page 168


 8789 00c0 00000000 	 .4byte .LFB1529
 8790 00c4 24000000 	 .4byte .LFE1529-.LFB1529
 8791 00c8 00000000 	 .4byte .LFB1531
 8792 00cc 20000000 	 .4byte .LFE1531-.LFB1531
 8793 00d0 00000000 	 .4byte .LFB1533
 8794 00d4 24000000 	 .4byte .LFE1533-.LFB1533
 8795 00d8 00000000 	 .4byte .LFB1535
 8796 00dc 20000000 	 .4byte .LFE1535-.LFB1535
 8797 00e0 00000000 	 .4byte 0
 8798 00e4 00000000 	 .4byte 0
 8799              	 .section .debug_ranges,"",%progbits
 8800              	.Ldebug_ranges0:
 8801 0000 00000000 	 .4byte .LFB652
 8802 0004 16000000 	 .4byte .LFE652
 8803 0008 00000000 	 .4byte .LFB1033
 8804 000c 50000000 	 .4byte .LFE1033
 8805 0010 00000000 	 .4byte .LFB1036
 8806 0014 28000000 	 .4byte .LFE1036
 8807 0018 00000000 	 .4byte .LFB1038
 8808 001c 20000000 	 .4byte .LFE1038
 8809 0020 00000000 	 .4byte .LFB1039
 8810 0024 30000000 	 .4byte .LFE1039
 8811 0028 00000000 	 .4byte .LFB1040
 8812 002c 30000000 	 .4byte .LFE1040
 8813 0030 00000000 	 .4byte .LFB1041
 8814 0034 30000000 	 .4byte .LFE1041
 8815 0038 00000000 	 .4byte .LFB1042
 8816 003c 30000000 	 .4byte .LFE1042
 8817 0040 00000000 	 .4byte .LFB1043
 8818 0044 30000000 	 .4byte .LFE1043
 8819 0048 00000000 	 .4byte .LFB1044
 8820 004c 30000000 	 .4byte .LFE1044
 8821 0050 00000000 	 .4byte .LFB1045
 8822 0054 2C000000 	 .4byte .LFE1045
 8823 0058 00000000 	 .4byte .LFB1046
 8824 005c 28000000 	 .4byte .LFE1046
 8825 0060 00000000 	 .4byte .LFB1047
 8826 0064 28000000 	 .4byte .LFE1047
 8827 0068 00000000 	 .4byte .LFB1048
 8828 006c 1C000000 	 .4byte .LFE1048
 8829 0070 00000000 	 .4byte .LFB1049
 8830 0074 1C000000 	 .4byte .LFE1049
 8831 0078 00000000 	 .4byte .LFB1050
 8832 007c 1C000000 	 .4byte .LFE1050
 8833 0080 00000000 	 .4byte .LFB1052
 8834 0084 2C000000 	 .4byte .LFE1052
 8835 0088 00000000 	 .4byte .LFB1054
 8836 008c 30000000 	 .4byte .LFE1054
 8837 0090 00000000 	 .4byte .LFB1055
 8838 0094 30000000 	 .4byte .LFE1055
 8839 0098 00000000 	 .4byte .LFB1057
 8840 009c 2C000000 	 .4byte .LFE1057
 8841 00a0 00000000 	 .4byte .LFB1059
 8842 00a4 22000000 	 .4byte .LFE1059
 8843 00a8 00000000 	 .4byte .LFB1060
 8844 00ac 24000000 	 .4byte .LFE1060
 8845 00b0 00000000 	 .4byte .LFB1529
ARM GAS   			page 169


 8846 00b4 24000000 	 .4byte .LFE1529
 8847 00b8 00000000 	 .4byte .LFB1531
 8848 00bc 20000000 	 .4byte .LFE1531
 8849 00c0 00000000 	 .4byte .LFB1533
 8850 00c4 24000000 	 .4byte .LFE1533
 8851 00c8 00000000 	 .4byte .LFB1535
 8852 00cc 20000000 	 .4byte .LFE1535
 8853 00d0 00000000 	 .4byte 0
 8854 00d4 00000000 	 .4byte 0
 8855              	 .section .debug_line,"",%progbits
 8856              	.Ldebug_line0:
 8857 0000 96080000 	 .section .debug_str,"MS",%progbits,1
 8857      0300D305 
 8857      00000201 
 8857      FB0E0D00 
 8857      01010101 
 8858              	.LASF315:
 8859 0000 67657465 	 .ascii "getenv\000"
 8859      6E7600
 8860              	.LASF267:
 8861 0007 75696E74 	 .ascii "uint_fast16_t\000"
 8861      5F666173 
 8861      7431365F 
 8861      7400
 8862              	.LASF411:
 8863 0015 7E446571 	 .ascii "~Deque\000"
 8863      756500
 8864              	.LASF30:
 8865 001c 5F5F6465 	 .ascii "__debug\000"
 8865      62756700 
 8866              	.LASF294:
 8867 0024 696E745F 	 .ascii "int_p_cs_precedes\000"
 8867      705F6373 
 8867      5F707265 
 8867      63656465 
 8867      7300
 8868              	.LASF5:
 8869 0036 5F5A4E53 	 .ascii "_ZNSt15__exception_ptr13exception_ptrC4EPv\000"
 8869      7431355F 
 8869      5F657863 
 8869      65707469 
 8869      6F6E5F70 
 8870              	.LASF311:
 8871 0061 61746F66 	 .ascii "atof\000"
 8871      00
 8872              	.LASF304:
 8873 0066 6469765F 	 .ascii "div_t\000"
 8873      7400
 8874              	.LASF332:
 8875 006c 73747274 	 .ascii "strtoull\000"
 8875      6F756C6C 
 8875      00
 8876              	.LASF228:
 8877 0075 77637378 	 .ascii "wcsxfrm\000"
 8877      66726D00 
 8878              	.LASF51:
 8879 007d 63686172 	 .ascii "char32_t\000"
ARM GAS   			page 170


 8879      33325F74 
 8879      00
 8880              	.LASF13:
 8881 0086 7E657863 	 .ascii "~exception_ptr\000"
 8881      65707469 
 8881      6F6E5F70 
 8881      747200
 8882              	.LASF320:
 8883 0095 72616E64 	 .ascii "rand\000"
 8883      00
 8884              	.LASF440:
 8885 009a 5F5F7661 	 .ascii "__va_list\000"
 8885      5F6C6973 
 8885      7400
 8886              	.LASF234:
 8887 00a4 77707269 	 .ascii "wprintf\000"
 8887      6E746600 
 8888              	.LASF358:
 8889 00ac 73657476 	 .ascii "setvbuf\000"
 8889      62756600 
 8890              	.LASF354:
 8891 00b4 72656D6F 	 .ascii "remove\000"
 8891      766500
 8892              	.LASF101:
 8893 00bb 5F6F6E5F 	 .ascii "_on_exit_args\000"
 8893      65786974 
 8893      5F617267 
 8893      7300
 8894              	.LASF326:
 8895 00c9 73797374 	 .ascii "system\000"
 8895      656D00
 8896              	.LASF28:
 8897 00d0 5F5A4E53 	 .ascii "_ZNSt21piecewise_construct_tC4Ev\000"
 8897      74323170 
 8897      69656365 
 8897      77697365 
 8897      5F636F6E 
 8898              	.LASF139:
 8899 00f1 5F776374 	 .ascii "_wctomb_state\000"
 8899      6F6D625F 
 8899      73746174 
 8899      6500
 8900              	.LASF425:
 8901 00ff 6974656D 	 .ascii "itemSize\000"
 8901      53697A65 
 8901      00
 8902              	.LASF366:
 8903 0108 6370705F 	 .ascii "cpp_freertos\000"
 8903      66726565 
 8903      72746F73 
 8903      00
 8904              	.LASF302:
 8905 0115 35646976 	 .ascii "5div_t\000"
 8905      5F7400
 8906              	.LASF367:
 8907 011c 42696E61 	 .ascii "BinaryQueue\000"
 8907      72795175 
ARM GAS   			page 171


 8907      65756500 
 8908              	.LASF341:
 8909 0128 66666C75 	 .ascii "fflush\000"
 8909      736800
 8910              	.LASF410:
 8911 012f 5F5A4E31 	 .ascii "_ZN12cpp_freertos5Deque21EnqueueToFrontFromISREPvPl"
 8911      32637070 
 8911      5F667265 
 8911      6572746F 
 8911      73354465 
 8912 0162 00       	 .ascii "\000"
 8913              	.LASF421:
 8914 0163 70784869 	 .ascii "pxHigherPriorityTaskWoken\000"
 8914      67686572 
 8914      5072696F 
 8914      72697479 
 8914      5461736B 
 8915              	.LASF205:
 8916 017d 76667773 	 .ascii "vfwscanf\000"
 8916      63616E66 
 8916      00
 8917              	.LASF92:
 8918 0186 5F5F746D 	 .ascii "__tm_sec\000"
 8918      5F736563 
 8918      00
 8919              	.LASF18:
 8920 018f 5F5A4E53 	 .ascii "_ZNSt15__exception_ptr13exception_ptr4swapERS0_\000"
 8920      7431355F 
 8920      5F657863 
 8920      65707469 
 8920      6F6E5F70 
 8921              	.LASF141:
 8922 01bf 5F736967 	 .ascii "_signal_buf\000"
 8922      6E616C5F 
 8922      62756600 
 8923              	.LASF317:
 8924 01cb 6D626C65 	 .ascii "mblen\000"
 8924      6E00
 8925              	.LASF38:
 8926 01d1 756E7369 	 .ascii "unsigned int\000"
 8926      676E6564 
 8926      20696E74 
 8926      00
 8927              	.LASF34:
 8928 01de 5F5F676E 	 .ascii "__gnu_cxx\000"
 8928      755F6378 
 8928      7800
 8929              	.LASF33:
 8930 01e8 5F5F6578 	 .ascii "__exception_ptr\000"
 8930      63657074 
 8930      696F6E5F 
 8930      70747200 
 8931              	.LASF115:
 8932 01f8 5F6C6266 	 .ascii "_lbfsize\000"
 8932      73697A65 
 8932      00
 8933              	.LASF113:
ARM GAS   			page 172


 8934 0201 5F666C61 	 .ascii "_flags\000"
 8934      677300
 8935              	.LASF252:
 8936 0208 696E746D 	 .ascii "intmax_t\000"
 8936      61785F74 
 8936      00
 8937              	.LASF271:
 8938 0211 75696E74 	 .ascii "uint_fast64_t\000"
 8938      5F666173 
 8938      7436345F 
 8938      7400
 8939              	.LASF266:
 8940 021f 696E745F 	 .ascii "int_fast16_t\000"
 8940      66617374 
 8940      31365F74 
 8940      00
 8941              	.LASF60:
 8942 022c 5F5F696E 	 .ascii "__int32_t\000"
 8942      7433325F 
 8942      7400
 8943              	.LASF152:
 8944 0236 5F657272 	 .ascii "_errno\000"
 8944      6E6F00
 8945              	.LASF49:
 8946 023d 77636861 	 .ascii "wchar_t\000"
 8946      725F7400 
 8947              	.LASF412:
 8948 0245 5F5A4E31 	 .ascii "_ZN12cpp_freertos11BinaryQueueD4Ev\000"
 8948      32637070 
 8948      5F667265 
 8948      6572746F 
 8948      73313142 
 8949              	.LASF380:
 8950 0268 5F767074 	 .ascii "_vptr.Queue\000"
 8950      722E5175 
 8950      65756500 
 8951              	.LASF406:
 8952 0274 5F5A4E31 	 .ascii "_ZN12cpp_freertos5DequeC4Emm\000"
 8952      32637070 
 8952      5F667265 
 8952      6572746F 
 8952      73354465 
 8953              	.LASF73:
 8954 0291 5F5F7569 	 .ascii "__uintmax_t\000"
 8954      6E746D61 
 8954      785F7400 
 8955              	.LASF209:
 8956 029d 76777363 	 .ascii "vwscanf\000"
 8956      616E6600 
 8957              	.LASF277:
 8958 02a5 63757272 	 .ascii "currency_symbol\000"
 8958      656E6379 
 8958      5F73796D 
 8958      626F6C00 
 8959              	.LASF29:
 8960 02b5 5F5F7377 	 .ascii "__swappable_details\000"
 8960      61707061 
ARM GAS   			page 173


 8960      626C655F 
 8960      64657461 
 8960      696C7300 
 8961              	.LASF377:
 8962 02c9 7E42696E 	 .ascii "~BinaryQueue\000"
 8962      61727951 
 8962      75657565 
 8962      00
 8963              	.LASF292:
 8964 02d6 696E745F 	 .ascii "int_n_sep_by_space\000"
 8964      6E5F7365 
 8964      705F6279 
 8964      5F737061 
 8964      636500
 8965              	.LASF47:
 8966 02e9 73686F72 	 .ascii "short int\000"
 8966      7420696E 
 8966      7400
 8967              	.LASF403:
 8968 02f3 44657175 	 .ascii "Deque\000"
 8968      6500
 8969              	.LASF378:
 8970 02f9 51756575 	 .ascii "Queue\000"
 8970      6500
 8971              	.LASF68:
 8972 02ff 5F5F696E 	 .ascii "__int_least32_t\000"
 8972      745F6C65 
 8972      61737433 
 8972      325F7400 
 8973              	.LASF278:
 8974 030f 6D6F6E5F 	 .ascii "mon_decimal_point\000"
 8974      64656369 
 8974      6D616C5F 
 8974      706F696E 
 8974      7400
 8975              	.LASF127:
 8976 0321 5F6D6273 	 .ascii "_mbstate\000"
 8976      74617465 
 8976      00
 8977              	.LASF390:
 8978 032a 5F5A4E31 	 .ascii "_ZN12cpp_freertos5Queue14DequeueFromISREPvPl\000"
 8978      32637070 
 8978      5F667265 
 8978      6572746F 
 8978      73355175 
 8979              	.LASF36:
 8980 0357 6E756C6C 	 .ascii "nullptr_t\000"
 8980      7074725F 
 8980      7400
 8981              	.LASF117:
 8982 0361 5F726561 	 .ascii "_read\000"
 8982      6400
 8983              	.LASF398:
 8984 0367 5F5A4E31 	 .ascii "_ZN12cpp_freertos5Queue5FlushEv\000"
 8984      32637070 
 8984      5F667265 
 8984      6572746F 
ARM GAS   			page 174


 8984      73355175 
 8985              	.LASF136:
 8986 0387 5F723438 	 .ascii "_r48\000"
 8986      00
 8987              	.LASF83:
 8988 038c 5F5F554C 	 .ascii "__ULong\000"
 8988      6F6E6700 
 8989              	.LASF35:
 8990 0394 5F5F6F70 	 .ascii "__ops\000"
 8990      7300
 8991              	.LASF445:
 8992 039a 5F5F7674 	 .ascii "__vtbl_ptr_type\000"
 8992      626C5F70 
 8992      74725F74 
 8992      79706500 
 8993              	.LASF214:
 8994 03aa 77637363 	 .ascii "wcscpy\000"
 8994      707900
 8995              	.LASF154:
 8996 03b1 5F737464 	 .ascii "_stdout\000"
 8996      6F757400 
 8997              	.LASF401:
 8998 03b9 4E756D53 	 .ascii "NumSpacesLeft\000"
 8998      70616365 
 8998      734C6566 
 8998      7400
 8999              	.LASF74:
 9000 03c7 5F5F696E 	 .ascii "__intptr_t\000"
 9000      74707472 
 9000      5F7400
 9001              	.LASF77:
 9002 03d2 5F66706F 	 .ascii "_fpos_t\000"
 9002      735F7400 
 9003              	.LASF211:
 9004 03da 77637363 	 .ascii "wcscat\000"
 9004      617400
 9005              	.LASF273:
 9006 03e1 64656369 	 .ascii "decimal_point\000"
 9006      6D616C5F 
 9006      706F696E 
 9006      7400
 9007              	.LASF108:
 9008 03ef 5F666E73 	 .ascii "_fns\000"
 9008      00
 9009              	.LASF116:
 9010 03f4 5F636F6F 	 .ascii "_cookie\000"
 9010      6B696500 
 9011              	.LASF288:
 9012 03fc 6E5F7365 	 .ascii "n_sep_by_space\000"
 9012      705F6279 
 9012      5F737061 
 9012      636500
 9013              	.LASF432:
 9014 040b 474E5520 	 .ascii "GNU C++14 10.3.1 20210824 (release) -mcpu=cortex-m4"
 9014      432B2B31 
 9014      34203130 
 9014      2E332E31 
ARM GAS   			page 175


 9014      20323032 
 9015 043e 202D6D66 	 .ascii " -mfloat-abi=hard -mfpu=fpv4-sp-d16 -mfix-cortex-m3"
 9015      6C6F6174 
 9015      2D616269 
 9015      3D686172 
 9015      64202D6D 
 9016 0471 2D6C6472 	 .ascii "-ldrd -mthumb -mno-unaligned-access -mapcs-frame -m"
 9016      64202D6D 
 9016      7468756D 
 9016      62202D6D 
 9016      6E6F2D75 
 9017 04a4 61726368 	 .ascii "arch=armv7e-m+fp -g -g -O0 -std=c++14 -std=c++14 -s"
 9017      3D61726D 
 9017      7637652D 
 9017      6D2B6670 
 9017      202D6720 
 9018 04d7 74643D67 	 .ascii "td=gnu++11 -std=c++14 -fsingle-precision-constant -"
 9018      6E752B2B 
 9018      3131202D 
 9018      7374643D 
 9018      632B2B31 
 9019 050a 66756E73 	 .ascii "funsigned-char -ffunction-sections -fdata-sections "
 9019      69676E65 
 9019      642D6368 
 9019      6172202D 
 9019      6666756E 
 9020 053d 2D666E6F 	 .ascii "-fno-rtti -fno-exceptions -finline-limit=20\000"
 9020      2D727474 
 9020      69202D66 
 9020      6E6F2D65 
 9020      78636570 
 9021              	.LASF392:
 9022 0569 5F5A4E31 	 .ascii "_ZN12cpp_freertos5Queue11PeekFromISREPv\000"
 9022      32637070 
 9022      5F667265 
 9022      6572746F 
 9022      73355175 
 9023              	.LASF208:
 9024 0591 76777072 	 .ascii "vwprintf\000"
 9024      696E7466 
 9024      00
 9025              	.LASF394:
 9026 059a 5F5A4E31 	 .ascii "_ZN12cpp_freertos5Queue7IsEmptyEv\000"
 9026      32637070 
 9026      5F667265 
 9026      6572746F 
 9026      73355175 
 9027              	.LASF138:
 9028 05bc 5F6D6274 	 .ascii "_mbtowc_state\000"
 9028      6F77635F 
 9028      73746174 
 9028      6500
 9029              	.LASF388:
 9030 05ca 5F5A4E31 	 .ascii "_ZN12cpp_freertos5Queue14EnqueueFromISREPvPl\000"
 9030      32637070 
 9030      5F667265 
 9030      6572746F 
ARM GAS   			page 176


 9030      73355175 
 9031              	.LASF270:
 9032 05f7 696E745F 	 .ascii "int_fast64_t\000"
 9032      66617374 
 9032      36345F74 
 9032      00
 9033              	.LASF54:
 9034 0604 5F5F676E 	 .ascii "__gnu_debug\000"
 9034      755F6465 
 9034      62756700 
 9035              	.LASF162:
 9036 0610 5F726573 	 .ascii "_result\000"
 9036      756C7400 
 9037              	.LASF193:
 9038 0618 66777363 	 .ascii "fwscanf\000"
 9038      616E6600 
 9039              	.LASF331:
 9040 0620 73747274 	 .ascii "strtoll\000"
 9040      6F6C6C00 
 9041              	.LASF259:
 9042 0628 75696E74 	 .ascii "uint_least16_t\000"
 9042      5F6C6561 
 9042      73743136 
 9042      5F7400
 9043              	.LASF249:
 9044 0637 75696E74 	 .ascii "uint32_t\000"
 9044      33325F74 
 9044      00
 9045              	.LASF244:
 9046 0640 696E7438 	 .ascii "int8_t\000"
 9046      5F7400
 9047              	.LASF94:
 9048 0647 5F5F746D 	 .ascii "__tm_hour\000"
 9048      5F686F75 
 9048      7200
 9049              	.LASF286:
 9050 0651 705F7365 	 .ascii "p_sep_by_space\000"
 9050      705F6279 
 9050      5F737061 
 9050      636500
 9051              	.LASF280:
 9052 0660 6D6F6E5F 	 .ascii "mon_grouping\000"
 9052      67726F75 
 9052      70696E67 
 9052      00
 9053              	.LASF157:
 9054 066d 5F656D65 	 .ascii "_emergency\000"
 9054      7267656E 
 9054      637900
 9055              	.LASF319:
 9056 0678 6D62746F 	 .ascii "mbtowc\000"
 9056      776300
 9057              	.LASF336:
 9058 067f 66706F73 	 .ascii "fpos_t\000"
 9058      5F7400
 9059              	.LASF81:
 9060 0686 5F5F636F 	 .ascii "__count\000"
ARM GAS   			page 177


 9060      756E7400 
 9061              	.LASF53:
 9062 068e 666C6F61 	 .ascii "float\000"
 9062      7400
 9063              	.LASF343:
 9064 0694 66676574 	 .ascii "fgetpos\000"
 9064      706F7300 
 9065              	.LASF175:
 9066 069c 5F676C75 	 .ascii "_glue\000"
 9066      6500
 9067              	.LASF93:
 9068 06a2 5F5F746D 	 .ascii "__tm_min\000"
 9068      5F6D696E 
 9068      00
 9069              	.LASF149:
 9070 06ab 5F6E6578 	 .ascii "_nextf\000"
 9070      746600
 9071              	.LASF246:
 9072 06b2 696E7431 	 .ascii "int16_t\000"
 9072      365F7400 
 9073              	.LASF145:
 9074 06ba 5F6D6273 	 .ascii "_mbsrtowcs_state\000"
 9074      72746F77 
 9074      63735F73 
 9074      74617465 
 9074      00
 9075              	.LASF438:
 9076 06cb 5F5A4E39 	 .ascii "_ZN9__gnu_cxx3divExx\000"
 9076      5F5F676E 
 9076      755F6378 
 9076      78336469 
 9076      76457878 
 9077              	.LASF26:
 9078 06e0 5F5F6973 	 .ascii "__is_integer<float>\000"
 9078      5F696E74 
 9078      65676572 
 9078      3C666C6F 
 9078      61743E00 
 9079              	.LASF258:
 9080 06f4 696E745F 	 .ascii "int_least16_t\000"
 9080      6C656173 
 9080      7431365F 
 9080      7400
 9081              	.LASF253:
 9082 0702 75696E74 	 .ascii "uintmax_t\000"
 9082      6D61785F 
 9082      7400
 9083              	.LASF194:
 9084 070c 67657477 	 .ascii "getwc\000"
 9084      6300
 9085              	.LASF45:
 9086 0712 6C6F6E67 	 .ascii "long long unsigned int\000"
 9086      206C6F6E 
 9086      6720756E 
 9086      7369676E 
 9086      65642069 
 9087              	.LASF22:
ARM GAS   			page 178


 9088 0729 5F5A5374 	 .ascii "_ZSt17rethrow_exceptionNSt15__exception_ptr13except"
 9088      31377265 
 9088      7468726F 
 9088      775F6578 
 9088      63657074 
 9089 075c 696F6E5F 	 .ascii "ion_ptrE\000"
 9089      70747245 
 9089      00
 9090              	.LASF178:
 9091 0765 5F72616E 	 .ascii "_rand48\000"
 9091      64343800 
 9092              	.LASF9:
 9093 076d 5F5A4E53 	 .ascii "_ZNSt15__exception_ptr13exception_ptrC4EOS0_\000"
 9093      7431355F 
 9093      5F657863 
 9093      65707469 
 9093      6F6E5F70 
 9094              	.LASF90:
 9095 079a 5F776473 	 .ascii "_wds\000"
 9095      00
 9096              	.LASF32:
 9097 079f 73747269 	 .ascii "string_literals\000"
 9097      6E675F6C 
 9097      69746572 
 9097      616C7300 
 9098              	.LASF227:
 9099 07af 77637374 	 .ascii "wcstoul\000"
 9099      6F756C00 
 9100              	.LASF389:
 9101 07b7 44657175 	 .ascii "DequeueFromISR\000"
 9101      65756546 
 9101      726F6D49 
 9101      535200
 9102              	.LASF293:
 9103 07c6 696E745F 	 .ascii "int_n_sign_posn\000"
 9103      6E5F7369 
 9103      676E5F70 
 9103      6F736E00 
 9104              	.LASF328:
 9105 07d6 7763746F 	 .ascii "wctomb\000"
 9105      6D6200
 9106              	.LASF299:
 9107 07dd 6C6F6361 	 .ascii "localeconv\000"
 9107      6C65636F 
 9107      6E7600
 9108              	.LASF75:
 9109 07e8 5F5F7569 	 .ascii "__uintptr_t\000"
 9109      6E747074 
 9109      725F7400 
 9110              	.LASF174:
 9111 07f4 5F5F4649 	 .ascii "__FILE\000"
 9111      4C4500
 9112              	.LASF124:
 9113 07fb 5F6F6666 	 .ascii "_offset\000"
 9113      73657400 
 9114              	.LASF121:
 9115 0803 5F756275 	 .ascii "_ubuf\000"
ARM GAS   			page 179


 9115      6600
 9116              	.LASF230:
 9117 0809 776D656D 	 .ascii "wmemcmp\000"
 9117      636D7000 
 9118              	.LASF196:
 9119 0811 6D627274 	 .ascii "mbrtowc\000"
 9119      6F776300 
 9120              	.LASF210:
 9121 0819 77637274 	 .ascii "wcrtomb\000"
 9121      6F6D6200 
 9122              	.LASF263:
 9123 0821 75696E74 	 .ascii "uint_least64_t\000"
 9123      5F6C6561 
 9123      73743634 
 9123      5F7400
 9124              	.LASF80:
 9125 0830 5F4D5F65 	 .ascii "_M_exception_object\000"
 9125      78636570 
 9125      74696F6E 
 9125      5F6F626A 
 9125      65637400 
 9126              	.LASF329:
 9127 0844 6C6C6469 	 .ascii "lldiv\000"
 9127      7600
 9128              	.LASF330:
 9129 084a 61746F6C 	 .ascii "atoll\000"
 9129      6C00
 9130              	.LASF404:
 9131 0850 5F5A4E31 	 .ascii "_ZN12cpp_freertos5DequeC4EOS0_\000"
 9131      32637070 
 9131      5F667265 
 9131      6572746F 
 9131      73354465 
 9132              	.LASF207:
 9133 086f 76737773 	 .ascii "vswscanf\000"
 9133      63616E66 
 9133      00
 9134              	.LASF300:
 9135 0878 5F5F6774 	 .ascii "__gthread_key_t\000"
 9135      68726561 
 9135      645F6B65 
 9135      795F7400 
 9136              	.LASF204:
 9137 0888 76667770 	 .ascii "vfwprintf\000"
 9137      72696E74 
 9137      6600
 9138              	.LASF419:
 9139 0892 5F5A4E31 	 .ascii "_ZN12cpp_freertos11BinaryQueueD2Ev\000"
 9139      32637070 
 9139      5F667265 
 9139      6572746F 
 9139      73313142 
 9140              	.LASF345:
 9141 08b5 666F7065 	 .ascii "fopen\000"
 9141      6E00
 9142              	.LASF184:
 9143 08bb 5F5F676E 	 .ascii "__gnuc_va_list\000"
ARM GAS   			page 180


 9143      75635F76 
 9143      615F6C69 
 9143      737400
 9144              	.LASF289:
 9145 08ca 705F7369 	 .ascii "p_sign_posn\000"
 9145      676E5F70 
 9145      6F736E00 
 9146              	.LASF37:
 9147 08d6 73697A65 	 .ascii "size_t\000"
 9147      5F7400
 9148              	.LASF323:
 9149 08dd 73747274 	 .ascii "strtod\000"
 9149      6F6400
 9150              	.LASF48:
 9151 08e4 6C6F6E67 	 .ascii "long int\000"
 9151      20696E74 
 9151      00
 9152              	.LASF256:
 9153 08ed 696E745F 	 .ascii "int_least8_t\000"
 9153      6C656173 
 9153      74385F74 
 9153      00
 9154              	.LASF250:
 9155 08fa 696E7436 	 .ascii "int64_t\000"
 9155      345F7400 
 9156              	.LASF262:
 9157 0902 696E745F 	 .ascii "int_least64_t\000"
 9157      6C656173 
 9157      7436345F 
 9157      7400
 9158              	.LASF132:
 9159 0910 5F617363 	 .ascii "_asctime_buf\000"
 9159      74696D65 
 9159      5F627566 
 9159      00
 9160              	.LASF199:
 9161 091d 70757477 	 .ascii "putwc\000"
 9161      6300
 9162              	.LASF427:
 9163 0923 5F5A4E31 	 .ascii "_ZN12cpp_freertos5DequeC2Emm\000"
 9163      32637070 
 9163      5F667265 
 9163      6572746F 
 9163      73354465 
 9164              	.LASF99:
 9165 0940 5F5F746D 	 .ascii "__tm_yday\000"
 9165      5F796461 
 9165      7900
 9166              	.LASF257:
 9167 094a 75696E74 	 .ascii "uint_least8_t\000"
 9167      5F6C6561 
 9167      7374385F 
 9167      7400
 9168              	.LASF156:
 9169 0958 5F696E63 	 .ascii "_inc\000"
 9169      00
 9170              	.LASF107:
ARM GAS   			page 181


 9171 095d 5F696E64 	 .ascii "_ind\000"
 9171      00
 9172              	.LASF69:
 9173 0962 5F5F7569 	 .ascii "__uint_least32_t\000"
 9173      6E745F6C 
 9173      65617374 
 9173      33325F74 
 9173      00
 9174              	.LASF314:
 9175 0973 62736561 	 .ascii "bsearch\000"
 9175      72636800 
 9176              	.LASF87:
 9177 097b 5F6E6578 	 .ascii "_next\000"
 9177      7400
 9178              	.LASF283:
 9179 0981 696E745F 	 .ascii "int_frac_digits\000"
 9179      66726163 
 9179      5F646967 
 9179      69747300 
 9180              	.LASF337:
 9181 0991 636C6561 	 .ascii "clearerr\000"
 9181      72657272 
 9181      00
 9182              	.LASF239:
 9183 099a 77637373 	 .ascii "wcsstr\000"
 9183      747200
 9184              	.LASF232:
 9185 09a1 776D656D 	 .ascii "wmemmove\000"
 9185      6D6F7665 
 9185      00
 9186              	.LASF291:
 9187 09aa 696E745F 	 .ascii "int_n_cs_precedes\000"
 9187      6E5F6373 
 9187      5F707265 
 9187      63656465 
 9187      7300
 9188              	.LASF443:
 9189 09bc 5F5A4E31 	 .ascii "_ZN12cpp_freertos5QueueD4Ev\000"
 9189      32637070 
 9189      5F667265 
 9189      6572746F 
 9189      73355175 
 9190              	.LASF282:
 9191 09d8 6E656761 	 .ascii "negative_sign\000"
 9191      74697665 
 9191      5F736967 
 9191      6E00
 9192              	.LASF347:
 9193 09e6 6672656F 	 .ascii "freopen\000"
 9193      70656E00 
 9194              	.LASF25:
 9195 09ee 5F5F7661 	 .ascii "__value\000"
 9195      6C756500 
 9196              	.LASF59:
 9197 09f6 5F5F7569 	 .ascii "__uint16_t\000"
 9197      6E743136 
 9197      5F7400
ARM GAS   			page 182


 9198              	.LASF164:
 9199 0a01 5F703573 	 .ascii "_p5s\000"
 9199      00
 9200              	.LASF98:
 9201 0a06 5F5F746D 	 .ascii "__tm_wday\000"
 9201      5F776461 
 9201      7900
 9202              	.LASF27:
 9203 0a10 70696563 	 .ascii "piecewise_construct_t\000"
 9203      65776973 
 9203      655F636F 
 9203      6E737472 
 9203      7563745F 
 9204              	.LASF275:
 9205 0a26 67726F75 	 .ascii "grouping\000"
 9205      70696E67 
 9205      00
 9206              	.LASF301:
 9207 0a2f 31305F6D 	 .ascii "10_mbstate_t\000"
 9207      62737461 
 9207      74655F74 
 9207      00
 9208              	.LASF235:
 9209 0a3c 77736361 	 .ascii "wscanf\000"
 9209      6E6600
 9210              	.LASF24:
 9211 0a43 5F5F6973 	 .ascii "__is_integer<double>\000"
 9211      5F696E74 
 9211      65676572 
 9211      3C646F75 
 9211      626C653E 
 9212              	.LASF191:
 9213 0a58 66776964 	 .ascii "fwide\000"
 9213      6500
 9214              	.LASF137:
 9215 0a5e 5F6D626C 	 .ascii "_mblen_state\000"
 9215      656E5F73 
 9215      74617465 
 9215      00
 9216              	.LASF433:
 9217 0a6b 433A5C55 	 .ascii "C:\\Users\\niels\\Documents\\Elektrotechniek\\Jaar "
 9217      73657273 
 9217      5C6E6965 
 9217      6C735C44 
 9217      6F63756D 
 9218 0a99 335C6473 	 .ascii "3\\dspl\\software\\STM32Basis\\HAL\\gemeenschappeli"
 9218      706C5C73 
 9218      6F667477 
 9218      6172655C 
 9218      53544D33 
 9219 0ac7 6A6B5C54 	 .ascii "jk\\Third_Party\\freertos-addons-1.1.0\\c++\\Source"
 9219      68697264 
 9219      5F506172 
 9219      74795C66 
 9219      72656572 
 9220 0af6 5C637175 	 .ascii "\\cqueue.cpp\000"
 9220      6575652E 
ARM GAS   			page 183


 9220      63707000 
 9221              	.LASF89:
 9222 0b02 5F736967 	 .ascii "_sign\000"
 9222      6E00
 9223              	.LASF173:
 9224 0b08 63686172 	 .ascii "char\000"
 9224      00
 9225              	.LASF361:
 9226 0b0d 756E6765 	 .ascii "ungetc\000"
 9226      746300
 9227              	.LASF95:
 9228 0b14 5F5F746D 	 .ascii "__tm_mday\000"
 9228      5F6D6461 
 9228      7900
 9229              	.LASF170:
 9230 0b1e 5F736967 	 .ascii "_sig_func\000"
 9230      5F66756E 
 9230      6300
 9231              	.LASF144:
 9232 0b28 5F6D6272 	 .ascii "_mbrtowc_state\000"
 9232      746F7763 
 9232      5F737461 
 9232      746500
 9233              	.LASF169:
 9234 0b37 5F617465 	 .ascii "_atexit0\000"
 9234      78697430 
 9234      00
 9235              	.LASF202:
 9236 0b40 73777363 	 .ascii "swscanf\000"
 9236      616E6600 
 9237              	.LASF363:
 9238 0b48 55426173 	 .ascii "UBaseType_t\000"
 9238      65547970 
 9238      655F7400 
 9239              	.LASF430:
 9240 0b54 5F5A4E31 	 .ascii "_ZN12cpp_freertos5QueueC2Emm\000"
 9240      32637070 
 9240      5F667265 
 9240      6572746F 
 9240      73355175 
 9241              	.LASF387:
 9242 0b71 5F5A4E31 	 .ascii "_ZN12cpp_freertos5Queue4PeekEPvm\000"
 9242      32637070 
 9242      5F667265 
 9242      6572746F 
 9242      73355175 
 9243              	.LASF340:
 9244 0b92 66657272 	 .ascii "ferror\000"
 9244      6F7200
 9245              	.LASF123:
 9246 0b99 5F626C6B 	 .ascii "_blksize\000"
 9246      73697A65 
 9246      00
 9247              	.LASF163:
 9248 0ba2 5F726573 	 .ascii "_result_k\000"
 9248      756C745F 
 9248      6B00
ARM GAS   			page 184


 9249              	.LASF39:
 9250 0bac 6C6F6E67 	 .ascii "long long int\000"
 9250      206C6F6E 
 9250      6720696E 
 9250      7400
 9251              	.LASF63:
 9252 0bba 5F5F7569 	 .ascii "__uint64_t\000"
 9252      6E743634 
 9252      5F7400
 9253              	.LASF365:
 9254 0bc5 51756575 	 .ascii "QueueHandle_t\000"
 9254      6548616E 
 9254      646C655F 
 9254      7400
 9255              	.LASF409:
 9256 0bd3 456E7175 	 .ascii "EnqueueToFrontFromISR\000"
 9256      65756554 
 9256      6F46726F 
 9256      6E744672 
 9256      6F6D4953 
 9257              	.LASF446:
 9258 0be9 5F5F5052 	 .ascii "__PRETTY_FUNCTION__\000"
 9258      45545459 
 9258      5F46554E 
 9258      4354494F 
 9258      4E5F5F00 
 9259              	.LASF78:
 9260 0bfd 5F5F7763 	 .ascii "__wch\000"
 9260      6800
 9261              	.LASF245:
 9262 0c03 75696E74 	 .ascii "uint8_t\000"
 9262      385F7400 
 9263              	.LASF14:
 9264 0c0b 5F5A4E53 	 .ascii "_ZNSt15__exception_ptr13exception_ptrD4Ev\000"
 9264      7431355F 
 9264      5F657863 
 9264      65707469 
 9264      6F6E5F70 
 9265              	.LASF303:
 9266 0c35 71756F74 	 .ascii "quot\000"
 9266      00
 9267              	.LASF120:
 9268 0c3a 5F636C6F 	 .ascii "_close\000"
 9268      736500
 9269              	.LASF198:
 9270 0c41 6D627372 	 .ascii "mbsrtowcs\000"
 9270      746F7763 
 9270      7300
 9271              	.LASF369:
 9272 0c4b 5F5A4E31 	 .ascii "_ZN12cpp_freertos11BinaryQueueC4ERKS0_\000"
 9272      32637070 
 9272      5F667265 
 9272      6572746F 
 9272      73313142 
 9273              	.LASF160:
 9274 0c72 5F5F7364 	 .ascii "__sdidinit\000"
 9274      6964696E 
ARM GAS   			page 185


 9274      697400
 9275              	.LASF355:
 9276 0c7d 72656E61 	 .ascii "rename\000"
 9276      6D6500
 9277              	.LASF318:
 9278 0c84 6D627374 	 .ascii "mbstowcs\000"
 9278      6F776373 
 9278      00
 9279              	.LASF158:
 9280 0c8d 5F756E73 	 .ascii "_unspecified_locale_info\000"
 9280      70656369 
 9280      66696564 
 9280      5F6C6F63 
 9280      616C655F 
 9281              	.LASF16:
 9282 0ca6 73776170 	 .ascii "swap\000"
 9282      00
 9283              	.LASF4:
 9284 0cab 65786365 	 .ascii "exception_ptr\000"
 9284      7074696F 
 9284      6E5F7074 
 9284      7200
 9285              	.LASF224:
 9286 0cb9 77637374 	 .ascii "wcstof\000"
 9286      6F6600
 9287              	.LASF222:
 9288 0cc0 77637373 	 .ascii "wcsspn\000"
 9288      706E00
 9289              	.LASF153:
 9290 0cc7 5F737464 	 .ascii "_stdin\000"
 9290      696E00
 9291              	.LASF20:
 9292 0cce 5F5A4E4B 	 .ascii "_ZNKSt15__exception_ptr13exception_ptr20__cxa_excep"
 9292      53743135 
 9292      5F5F6578 
 9292      63657074 
 9292      696F6E5F 
 9293 0d01 74696F6E 	 .ascii "tion_typeEv\000"
 9293      5F747970 
 9293      65457600 
 9294              	.LASF415:
 9295 0d0d 5F5F696E 	 .ascii "__in_chrg\000"
 9295      5F636872 
 9295      6700
 9296              	.LASF357:
 9297 0d17 73657462 	 .ascii "setbuf\000"
 9297      756600
 9298              	.LASF225:
 9299 0d1e 77637374 	 .ascii "wcstok\000"
 9299      6F6B00
 9300              	.LASF309:
 9301 0d25 5F5F636F 	 .ascii "__compar_fn_t\000"
 9301      6D706172 
 9301      5F666E5F 
 9301      7400
 9302              	.LASF110:
 9303 0d33 5F626173 	 .ascii "_base\000"
ARM GAS   			page 186


 9303      6500
 9304              	.LASF165:
 9305 0d39 5F667265 	 .ascii "_freelist\000"
 9305      656C6973 
 9305      7400
 9306              	.LASF180:
 9307 0d43 5F6D756C 	 .ascii "_mult\000"
 9307      7400
 9308              	.LASF181:
 9309 0d49 5F616464 	 .ascii "_add\000"
 9309      00
 9310              	.LASF391:
 9311 0d4e 5065656B 	 .ascii "PeekFromISR\000"
 9311      46726F6D 
 9311      49535200 
 9312              	.LASF418:
 9313 0d5a 5F5A4E31 	 .ascii "_ZN12cpp_freertos11BinaryQueueD0Ev\000"
 9313      32637070 
 9313      5F667265 
 9313      6572746F 
 9313      73313142 
 9314              	.LASF386:
 9315 0d7d 5065656B 	 .ascii "Peek\000"
 9315      00
 9316              	.LASF447:
 9317 0d82 5F5F6774 	 .ascii "__gthread_key_delete\000"
 9317      68726561 
 9317      645F6B65 
 9317      795F6465 
 9317      6C657465 
 9318              	.LASF146:
 9319 0d97 5F776372 	 .ascii "_wcrtomb_state\000"
 9319      746F6D62 
 9319      5F737461 
 9319      746500
 9320              	.LASF362:
 9321 0da6 42617365 	 .ascii "BaseType_t\000"
 9321      54797065 
 9321      5F7400
 9322              	.LASF41:
 9323 0db1 626F6F6C 	 .ascii "bool\000"
 9323      00
 9324              	.LASF31:
 9325 0db6 5F5F6378 	 .ascii "__cxx11\000"
 9325      78313100 
 9326              	.LASF58:
 9327 0dbe 5F5F696E 	 .ascii "__int16_t\000"
 9327      7431365F 
 9327      7400
 9328              	.LASF285:
 9329 0dc8 705F6373 	 .ascii "p_cs_precedes\000"
 9329      5F707265 
 9329      63656465 
 9329      7300
 9330              	.LASF441:
 9331 0dd6 5F5F6170 	 .ascii "__ap\000"
 9331      00
ARM GAS   			page 187


 9332              	.LASF187:
 9333 0ddb 66676574 	 .ascii "fgetwc\000"
 9333      776300
 9334              	.LASF23:
 9335 0de2 5F5F6973 	 .ascii "__is_integer<long double>\000"
 9335      5F696E74 
 9335      65676572 
 9335      3C6C6F6E 
 9335      6720646F 
 9336              	.LASF264:
 9337 0dfc 696E745F 	 .ascii "int_fast8_t\000"
 9337      66617374 
 9337      385F7400 
 9338              	.LASF348:
 9339 0e08 66736565 	 .ascii "fseek\000"
 9339      6B00
 9340              	.LASF316:
 9341 0e0e 6C646976 	 .ascii "ldiv\000"
 9341      00
 9342              	.LASF161:
 9343 0e13 5F5F636C 	 .ascii "__cleanup\000"
 9343      65616E75 
 9343      7000
 9344              	.LASF400:
 9345 0e1d 5F5A4E31 	 .ascii "_ZN12cpp_freertos5Queue8NumItemsEv\000"
 9345      32637070 
 9345      5F667265 
 9345      6572746F 
 9345      73355175 
 9346              	.LASF188:
 9347 0e40 66676574 	 .ascii "fgetws\000"
 9347      777300
 9348              	.LASF82:
 9349 0e47 5F6D6273 	 .ascii "_mbstate_t\000"
 9349      74617465 
 9349      5F7400
 9350              	.LASF436:
 9351 0e52 70696563 	 .ascii "piecewise_construct\000"
 9351      65776973 
 9351      655F636F 
 9351      6E737472 
 9351      75637400 
 9352              	.LASF10:
 9353 0e66 6F706572 	 .ascii "operator=\000"
 9353      61746F72 
 9353      3D00
 9354              	.LASF15:
 9355 0e70 5F4D5F67 	 .ascii "_M_get\000"
 9355      657400
 9356              	.LASF66:
 9357 0e77 5F5F696E 	 .ascii "__int_least16_t\000"
 9357      745F6C65 
 9357      61737431 
 9357      365F7400 
 9358              	.LASF322:
 9359 0e87 7372616E 	 .ascii "srand\000"
 9359      6400
ARM GAS   			page 188


 9360              	.LASF40:
 9361 0e8d 6C6F6E67 	 .ascii "long double\000"
 9361      20646F75 
 9361      626C6500 
 9362              	.LASF423:
 9363 0e99 54696D65 	 .ascii "Timeout\000"
 9363      6F757400 
 9364              	.LASF85:
 9365 0ea1 5F666C6F 	 .ascii "_flock_t\000"
 9365      636B5F74 
 9365      00
 9366              	.LASF349:
 9367 0eaa 66736574 	 .ascii "fsetpos\000"
 9367      706F7300 
 9368              	.LASF100:
 9369 0eb2 5F5F746D 	 .ascii "__tm_isdst\000"
 9369      5F697364 
 9369      737400
 9370              	.LASF269:
 9371 0ebd 75696E74 	 .ascii "uint_fast32_t\000"
 9371      5F666173 
 9371      7433325F 
 9371      7400
 9372              	.LASF147:
 9373 0ecb 5F776373 	 .ascii "_wcsrtombs_state\000"
 9373      72746F6D 
 9373      62735F73 
 9373      74617465 
 9373      00
 9374              	.LASF381:
 9375 0edc 5F5A4E31 	 .ascii "_ZN12cpp_freertos5QueueC4Emm\000"
 9375      32637070 
 9375      5F667265 
 9375      6572746F 
 9375      73355175 
 9376              	.LASF350:
 9377 0ef9 6674656C 	 .ascii "ftell\000"
 9377      6C00
 9378              	.LASF203:
 9379 0eff 756E6765 	 .ascii "ungetwc\000"
 9379      74776300 
 9380              	.LASF395:
 9381 0f07 49734675 	 .ascii "IsFull\000"
 9381      6C6C00
 9382              	.LASF44:
 9383 0f0e 6C6F6E67 	 .ascii "long unsigned int\000"
 9383      20756E73 
 9383      69676E65 
 9383      6420696E 
 9383      7400
 9384              	.LASF429:
 9385 0f20 5F5A4E31 	 .ascii "_ZN12cpp_freertos5QueueD2Ev\000"
 9385      32637070 
 9385      5F667265 
 9385      6572746F 
 9385      73355175 
 9386              	.LASF148:
ARM GAS   			page 189


 9387 0f3c 5F685F65 	 .ascii "_h_errno\000"
 9387      72726E6F 
 9387      00
 9388              	.LASF342:
 9389 0f45 66676574 	 .ascii "fgetc\000"
 9389      6300
 9390              	.LASF426:
 9391 0f4b 6D617849 	 .ascii "maxItems\000"
 9391      74656D73 
 9391      00
 9392              	.LASF413:
 9393 0f54 5F5A4E31 	 .ascii "_ZN12cpp_freertos5DequeD4Ev\000"
 9393      32637070 
 9393      5F667265 
 9393      6572746F 
 9393      73354465 
 9394              	.LASF364:
 9395 0f70 5469636B 	 .ascii "TickType_t\000"
 9395      54797065 
 9395      5F7400
 9396              	.LASF56:
 9397 0f7b 5F5F696E 	 .ascii "__int8_t\000"
 9397      74385F74 
 9397      00
 9398              	.LASF344:
 9399 0f84 66676574 	 .ascii "fgets\000"
 9399      7300
 9400              	.LASF96:
 9401 0f8a 5F5F746D 	 .ascii "__tm_mon\000"
 9401      5F6D6F6E 
 9401      00
 9402              	.LASF236:
 9403 0f93 77637363 	 .ascii "wcschr\000"
 9403      687200
 9404              	.LASF62:
 9405 0f9a 5F5F696E 	 .ascii "__int64_t\000"
 9405      7436345F 
 9405      7400
 9406              	.LASF360:
 9407 0fa4 746D706E 	 .ascii "tmpnam\000"
 9407      616D00
 9408              	.LASF72:
 9409 0fab 5F5F696E 	 .ascii "__intmax_t\000"
 9409      746D6178 
 9409      5F7400
 9410              	.LASF189:
 9411 0fb6 66707574 	 .ascii "fputwc\000"
 9411      776300
 9412              	.LASF254:
 9413 0fbd 696E7470 	 .ascii "intptr_t\000"
 9413      74725F74 
 9413      00
 9414              	.LASF84:
 9415 0fc6 5F4C4F43 	 .ascii "_LOCK_T\000"
 9415      4B5F5400 
 9416              	.LASF247:
 9417 0fce 75696E74 	 .ascii "uint16_t\000"
ARM GAS   			page 190


 9417      31365F74 
 9417      00
 9418              	.LASF213:
 9419 0fd7 77637363 	 .ascii "wcscoll\000"
 9419      6F6C6C00 
 9420              	.LASF118:
 9421 0fdf 5F777269 	 .ascii "_write\000"
 9421      746500
 9422              	.LASF414:
 9423 0fe6 74686973 	 .ascii "this\000"
 9423      00
 9424              	.LASF134:
 9425 0feb 5F67616D 	 .ascii "_gamma_signgam\000"
 9425      6D615F73 
 9425      69676E67 
 9425      616D00
 9426              	.LASF190:
 9427 0ffa 66707574 	 .ascii "fputws\000"
 9427      777300
 9428              	.LASF61:
 9429 1001 5F5F7569 	 .ascii "__uint32_t\000"
 9429      6E743332 
 9429      5F7400
 9430              	.LASF6:
 9431 100c 5F5A4E53 	 .ascii "_ZNSt15__exception_ptr13exception_ptrC4Ev\000"
 9431      7431355F 
 9431      5F657863 
 9431      65707469 
 9431      6F6E5F70 
 9432              	.LASF135:
 9433 1036 5F72616E 	 .ascii "_rand_next\000"
 9433      645F6E65 
 9433      787400
 9434              	.LASF70:
 9435 1041 5F5F696E 	 .ascii "__int_least64_t\000"
 9435      745F6C65 
 9435      61737436 
 9435      345F7400 
 9436              	.LASF186:
 9437 1051 62746F77 	 .ascii "btowc\000"
 9437      6300
 9438              	.LASF106:
 9439 1057 5F617465 	 .ascii "_atexit\000"
 9439      78697400 
 9440              	.LASF338:
 9441 105f 66636C6F 	 .ascii "fclose\000"
 9441      736500
 9442              	.LASF65:
 9443 1066 5F5F7569 	 .ascii "__uint_least8_t\000"
 9443      6E745F6C 
 9443      65617374 
 9443      385F7400 
 9444              	.LASF268:
 9445 1076 696E745F 	 .ascii "int_fast32_t\000"
 9445      66617374 
 9445      33325F74 
 9445      00
ARM GAS   			page 191


 9446              	.LASF21:
 9447 1083 72657468 	 .ascii "rethrow_exception\000"
 9447      726F775F 
 9447      65786365 
 9447      7074696F 
 9447      6E00
 9448              	.LASF197:
 9449 1095 6D627369 	 .ascii "mbsinit\000"
 9449      6E697400 
 9450              	.LASF240:
 9451 109d 776D656D 	 .ascii "wmemchr\000"
 9451      63687200 
 9452              	.LASF374:
 9453 10a5 456E7175 	 .ascii "EnqueueFromISR\000"
 9453      65756546 
 9453      726F6D49 
 9453      535200
 9454              	.LASF221:
 9455 10b4 77637372 	 .ascii "wcsrtombs\000"
 9455      746F6D62 
 9455      7300
 9456              	.LASF276:
 9457 10be 696E745F 	 .ascii "int_curr_symbol\000"
 9457      63757272 
 9457      5F73796D 
 9457      626F6C00 
 9458              	.LASF243:
 9459 10ce 77637374 	 .ascii "wcstoull\000"
 9459      6F756C6C 
 9459      00
 9460              	.LASF19:
 9461 10d7 5F5F6378 	 .ascii "__cxa_exception_type\000"
 9461      615F6578 
 9461      63657074 
 9461      696F6E5F 
 9461      74797065 
 9462              	.LASF284:
 9463 10ec 66726163 	 .ascii "frac_digits\000"
 9463      5F646967 
 9463      69747300 
 9464              	.LASF372:
 9465 10f8 5F5A4E31 	 .ascii "_ZN12cpp_freertos11BinaryQueueC4Em\000"
 9465      32637070 
 9465      5F667265 
 9465      6572746F 
 9465      73313142 
 9466              	.LASF195:
 9467 111b 6D62726C 	 .ascii "mbrlen\000"
 9467      656E00
 9468              	.LASF231:
 9469 1122 776D656D 	 .ascii "wmemcpy\000"
 9469      63707900 
 9470              	.LASF346:
 9471 112a 66726561 	 .ascii "fread\000"
 9471      6400
 9472              	.LASF86:
 9473 1130 5F426967 	 .ascii "_Bigint\000"
ARM GAS   			page 192


 9473      696E7400 
 9474              	.LASF290:
 9475 1138 6E5F7369 	 .ascii "n_sign_posn\000"
 9475      676E5F70 
 9475      6F736E00 
 9476              	.LASF12:
 9477 1144 5F5A4E53 	 .ascii "_ZNSt15__exception_ptr13exception_ptraSEOS0_\000"
 9477      7431355F 
 9477      5F657863 
 9477      65707469 
 9477      6F6E5F70 
 9478              	.LASF172:
 9479 1171 5F5F7366 	 .ascii "__sf\000"
 9479      00
 9480              	.LASF310:
 9481 1176 61746578 	 .ascii "atexit\000"
 9481      697400
 9482              	.LASF200:
 9483 117d 70757477 	 .ascii "putwchar\000"
 9483      63686172 
 9483      00
 9484              	.LASF238:
 9485 1186 77637372 	 .ascii "wcsrchr\000"
 9485      63687200 
 9486              	.LASF298:
 9487 118e 67657477 	 .ascii "getwchar\000"
 9487      63686172 
 9487      00
 9488              	.LASF407:
 9489 1197 456E7175 	 .ascii "EnqueueToFront\000"
 9489      65756554 
 9489      6F46726F 
 9489      6E7400
 9490              	.LASF353:
 9491 11a6 70657272 	 .ascii "perror\000"
 9491      6F7200
 9492              	.LASF125:
 9493 11ad 5F646174 	 .ascii "_data\000"
 9493      6100
 9494              	.LASF281:
 9495 11b3 706F7369 	 .ascii "positive_sign\000"
 9495      74697665 
 9495      5F736967 
 9495      6E00
 9496              	.LASF79:
 9497 11c1 5F5F7763 	 .ascii "__wchb\000"
 9497      686200
 9498              	.LASF251:
 9499 11c8 75696E74 	 .ascii "uint64_t\000"
 9499      36345F74 
 9499      00
 9500              	.LASF437:
 9501 11d1 6C697465 	 .ascii "literals\000"
 9501      72616C73 
 9501      00
 9502              	.LASF422:
 9503 11da 5F5A4E31 	 .ascii "_ZN12cpp_freertos11BinaryQueueC2Em\000"
ARM GAS   			page 193


 9503      32637070 
 9503      5F667265 
 9503      6572746F 
 9503      73313142 
 9504              	.LASF97:
 9505 11fd 5F5F746D 	 .ascii "__tm_year\000"
 9505      5F796561 
 9505      7200
 9506              	.LASF417:
 9507 1207 5F5A4E31 	 .ascii "_ZN12cpp_freertos5DequeD2Ev\000"
 9507      32637070 
 9507      5F667265 
 9507      6572746F 
 9507      73354465 
 9508              	.LASF219:
 9509 1223 7763736E 	 .ascii "wcsncmp\000"
 9509      636D7000 
 9510              	.LASF114:
 9511 122b 5F66696C 	 .ascii "_file\000"
 9511      6500
 9512              	.LASF384:
 9513 1231 44657175 	 .ascii "Dequeue\000"
 9513      65756500 
 9514              	.LASF306:
 9515 1239 6C646976 	 .ascii "ldiv_t\000"
 9515      5F7400
 9516              	.LASF133:
 9517 1240 5F6C6F63 	 .ascii "_localtime_buf\000"
 9517      616C7469 
 9517      6D655F62 
 9517      756600
 9518              	.LASF434:
 9519 124f 433A5C55 	 .ascii "C:\\Users\\niels\\DOCUME~1\\ELEKTR~1\\JAAR3~1\\dspl"
 9519      73657273 
 9519      5C6E6965 
 9519      6C735C44 
 9519      4F43554D 
 9520 127c 5C736F66 	 .ascii "\\software\\OP2A2E~1\\CLion\\Debug\\FREERT~1\000"
 9520      74776172 
 9520      655C4F50 
 9520      32413245 
 9520      7E315C43 
 9521              	.LASF151:
 9522 12a4 5F756E75 	 .ascii "_unused\000"
 9522      73656400 
 9523              	.LASF57:
 9524 12ac 5F5F7569 	 .ascii "__uint8_t\000"
 9524      6E74385F 
 9524      7400
 9525              	.LASF216:
 9526 12b6 77637366 	 .ascii "wcsftime\000"
 9526      74696D65 
 9526      00
 9527              	.LASF168:
 9528 12bf 5F6E6577 	 .ascii "_new\000"
 9528      00
 9529              	.LASF295:
ARM GAS   			page 194


 9530 12c4 696E745F 	 .ascii "int_p_sep_by_space\000"
 9530      705F7365 
 9530      705F6279 
 9530      5F737061 
 9530      636500
 9531              	.LASF166:
 9532 12d7 5F637674 	 .ascii "_cvtlen\000"
 9532      6C656E00 
 9533              	.LASF88:
 9534 12df 5F6D6178 	 .ascii "_maxwds\000"
 9534      77647300 
 9535              	.LASF424:
 9536 12e7 73756363 	 .ascii "success\000"
 9536      65737300 
 9537              	.LASF351:
 9538 12ef 67657463 	 .ascii "getc\000"
 9538      00
 9539              	.LASF261:
 9540 12f4 75696E74 	 .ascii "uint_least32_t\000"
 9540      5F6C6561 
 9540      73743332 
 9540      5F7400
 9541              	.LASF370:
 9542 1303 6F706572 	 .ascii "operator bool\000"
 9542      61746F72 
 9542      20626F6F 
 9542      6C00
 9543              	.LASF368:
 9544 1311 5F5A4E31 	 .ascii "_ZN12cpp_freertos11BinaryQueueC4EOS0_\000"
 9544      32637070 
 9544      5F667265 
 9544      6572746F 
 9544      73313142 
 9545              	.LASF371:
 9546 1337 5F5A4E4B 	 .ascii "_ZNKSt15__exception_ptr13exception_ptrcvbEv\000"
 9546      53743135 
 9546      5F5F6578 
 9546      63657074 
 9546      696F6E5F 
 9547              	.LASF64:
 9548 1363 5F5F696E 	 .ascii "__int_least8_t\000"
 9548      745F6C65 
 9548      61737438 
 9548      5F7400
 9549              	.LASF255:
 9550 1372 75696E74 	 .ascii "uintptr_t\000"
 9550      7074725F 
 9550      7400
 9551              	.LASF91:
 9552 137c 5F5F746D 	 .ascii "__tm\000"
 9552      00
 9553              	.LASF0:
 9554 1381 5F4D5F61 	 .ascii "_M_addref\000"
 9554      64647265 
 9554      6600
 9555              	.LASF126:
 9556 138b 5F6C6F63 	 .ascii "_lock\000"
ARM GAS   			page 195


 9556      6B00
 9557              	.LASF325:
 9558 1391 73747274 	 .ascii "strtoul\000"
 9558      6F756C00 
 9559              	.LASF272:
 9560 1399 6C636F6E 	 .ascii "lconv\000"
 9560      7600
 9561              	.LASF428:
 9562 139f 5F5A4E31 	 .ascii "_ZN12cpp_freertos5QueueD0Ev\000"
 9562      32637070 
 9562      5F667265 
 9562      6572746F 
 9562      73355175 
 9563              	.LASF373:
 9564 13bb 456E7175 	 .ascii "Enqueue\000"
 9564      65756500 
 9565              	.LASF176:
 9566 13c3 5F6E696F 	 .ascii "_niobs\000"
 9566      627300
 9567              	.LASF55:
 9568 13ca 77696E74 	 .ascii "wint_t\000"
 9568      5F7400
 9569              	.LASF408:
 9570 13d1 5F5A4E31 	 .ascii "_ZN12cpp_freertos5Deque14EnqueueToFrontEPvm\000"
 9570      32637070 
 9570      5F667265 
 9570      6572746F 
 9570      73354465 
 9571              	.LASF248:
 9572 13fd 696E7433 	 .ascii "int32_t\000"
 9572      325F7400 
 9573              	.LASF260:
 9574 1405 696E745F 	 .ascii "int_least32_t\000"
 9574      6C656173 
 9574      7433325F 
 9574      7400
 9575              	.LASF223:
 9576 1413 77637374 	 .ascii "wcstod\000"
 9576      6F6400
 9577              	.LASF237:
 9578 141a 77637370 	 .ascii "wcspbrk\000"
 9578      62726B00 
 9579              	.LASF103:
 9580 1422 5F64736F 	 .ascii "_dso_handle\000"
 9580      5F68616E 
 9580      646C6500 
 9581              	.LASF8:
 9582 142e 5F5A4E53 	 .ascii "_ZNSt15__exception_ptr13exception_ptrC4EDn\000"
 9582      7431355F 
 9582      5F657863 
 9582      65707469 
 9582      6F6E5F70 
 9583              	.LASF185:
 9584 1459 6D627374 	 .ascii "mbstate_t\000"
 9584      6174655F 
 9584      7400
 9585              	.LASF182:
ARM GAS   			page 196


 9586 1463 5F5F6C6F 	 .ascii "__lock\000"
 9586      636B00
 9587              	.LASF226:
 9588 146a 77637374 	 .ascii "wcstol\000"
 9588      6F6C00
 9589              	.LASF279:
 9590 1471 6D6F6E5F 	 .ascii "mon_thousands_sep\000"
 9590      74686F75 
 9590      73616E64 
 9590      735F7365 
 9590      7000
 9591              	.LASF382:
 9592 1483 5F5A4E31 	 .ascii "_ZN12cpp_freertos5Queue7EnqueueEPv\000"
 9592      32637070 
 9592      5F667265 
 9592      6572746F 
 9592      73355175 
 9593              	.LASF233:
 9594 14a6 776D656D 	 .ascii "wmemset\000"
 9594      73657400 
 9595              	.LASF297:
 9596 14ae 7365746C 	 .ascii "setlocale\000"
 9596      6F63616C 
 9596      6500
 9597              	.LASF3:
 9598 14b8 5F5A4E53 	 .ascii "_ZNSt15__exception_ptr13exception_ptr10_M_releaseEv"
 9598      7431355F 
 9598      5F657863 
 9598      65707469 
 9598      6F6E5F70 
 9599 14eb 00       	 .ascii "\000"
 9600              	.LASF167:
 9601 14ec 5F637674 	 .ascii "_cvtbuf\000"
 9601      62756600 
 9602              	.LASF402:
 9603 14f4 5F5A4E31 	 .ascii "_ZN12cpp_freertos5Queue13NumSpacesLeftEv\000"
 9603      32637070 
 9603      5F667265 
 9603      6572746F 
 9603      73355175 
 9604              	.LASF42:
 9605 151d 756E7369 	 .ascii "unsigned char\000"
 9605      676E6564 
 9605      20636861 
 9605      7200
 9606              	.LASF405:
 9607 152b 5F5A4E31 	 .ascii "_ZN12cpp_freertos5DequeC4ERKS0_\000"
 9607      32637070 
 9607      5F667265 
 9607      6572746F 
 9607      73354465 
 9608              	.LASF17:
 9609 154b 5F5A4E4B 	 .ascii "_ZNKSt15__exception_ptr13exception_ptr6_M_getEv\000"
 9609      53743135 
 9609      5F5F6578 
 9609      63657074 
 9609      696F6E5F 
ARM GAS   			page 197


 9610              	.LASF435:
 9611 157b 74797065 	 .ascii "type_info\000"
 9611      5F696E66 
 9611      6F00
 9612              	.LASF431:
 9613 1585 5F5F6B65 	 .ascii "__key\000"
 9613      7900
 9614              	.LASF359:
 9615 158b 746D7066 	 .ascii "tmpfile\000"
 9615      696C6500 
 9616              	.LASF352:
 9617 1593 67657463 	 .ascii "getchar\000"
 9617      68617200 
 9618              	.LASF142:
 9619 159b 5F676574 	 .ascii "_getdate_err\000"
 9619      64617465 
 9619      5F657272 
 9619      00
 9620              	.LASF274:
 9621 15a8 74686F75 	 .ascii "thousands_sep\000"
 9621      73616E64 
 9621      735F7365 
 9621      7000
 9622              	.LASF1:
 9623 15b6 5F4D5F72 	 .ascii "_M_release\000"
 9623      656C6561 
 9623      736500
 9624              	.LASF375:
 9625 15c1 5F5A4E31 	 .ascii "_ZN12cpp_freertos11BinaryQueue7EnqueueEPv\000"
 9625      32637070 
 9625      5F667265 
 9625      6572746F 
 9625      73313142 
 9626              	.LASF439:
 9627 15eb 6465636C 	 .ascii "decltype(nullptr)\000"
 9627      74797065 
 9627      286E756C 
 9627      6C707472 
 9627      2900
 9628              	.LASF333:
 9629 15fd 73747274 	 .ascii "strtof\000"
 9629      6F6600
 9630              	.LASF265:
 9631 1604 75696E74 	 .ascii "uint_fast8_t\000"
 9631      5F666173 
 9631      74385F74 
 9631      00
 9632              	.LASF339:
 9633 1611 66656F66 	 .ascii "feof\000"
 9633      00
 9634              	.LASF143:
 9635 1616 5F6D6272 	 .ascii "_mbrlen_state\000"
 9635      6C656E5F 
 9635      73746174 
 9635      6500
 9636              	.LASF327:
 9637 1624 77637374 	 .ascii "wcstombs\000"
ARM GAS   			page 198


 9637      6F6D6273 
 9637      00
 9638              	.LASF324:
 9639 162d 73747274 	 .ascii "strtol\000"
 9639      6F6C00
 9640              	.LASF376:
 9641 1634 5F5A4E31 	 .ascii "_ZN12cpp_freertos11BinaryQueue14EnqueueFromISREPvPl"
 9641      32637070 
 9641      5F667265 
 9641      6572746F 
 9641      73313142 
 9642 1667 00       	 .ascii "\000"
 9643              	.LASF192:
 9644 1668 66777072 	 .ascii "fwprintf\000"
 9644      696E7466 
 9644      00
 9645              	.LASF399:
 9646 1671 4E756D49 	 .ascii "NumItems\000"
 9646      74656D73 
 9646      00
 9647              	.LASF71:
 9648 167a 5F5F7569 	 .ascii "__uint_least64_t\000"
 9648      6E745F6C 
 9648      65617374 
 9648      36345F74 
 9648      00
 9649              	.LASF393:
 9650 168b 4973456D 	 .ascii "IsEmpty\000"
 9650      70747900 
 9651              	.LASF109:
 9652 1693 5F5F7362 	 .ascii "__sbuf\000"
 9652      756600
 9653              	.LASF241:
 9654 169a 77637374 	 .ascii "wcstold\000"
 9654      6F6C6400 
 9655              	.LASF383:
 9656 16a2 5F5A4E31 	 .ascii "_ZN12cpp_freertos5Queue7EnqueueEPvm\000"
 9656      32637070 
 9656      5F667265 
 9656      6572746F 
 9656      73355175 
 9657              	.LASF140:
 9658 16c6 5F6C3634 	 .ascii "_l64a_buf\000"
 9658      615F6275 
 9658      6600
 9659              	.LASF229:
 9660 16d0 7763746F 	 .ascii "wctob\000"
 9660      6200
 9661              	.LASF305:
 9662 16d6 366C6469 	 .ascii "6ldiv_t\000"
 9662      765F7400 
 9663              	.LASF242:
 9664 16de 77637374 	 .ascii "wcstoll\000"
 9664      6F6C6C00 
 9665              	.LASF201:
 9666 16e6 73777072 	 .ascii "swprintf\000"
 9666      696E7466 
ARM GAS   			page 199


 9666      00
 9667              	.LASF420:
 9668 16ef 6974656D 	 .ascii "item\000"
 9668      00
 9669              	.LASF7:
 9670 16f4 5F5A4E53 	 .ascii "_ZNSt15__exception_ptr13exception_ptrC4ERKS0_\000"
 9670      7431355F 
 9670      5F657863 
 9670      65707469 
 9670      6F6E5F70 
 9671              	.LASF171:
 9672 1722 5F5F7367 	 .ascii "__sglue\000"
 9672      6C756500 
 9673              	.LASF131:
 9674 172a 5F737472 	 .ascii "_strtok_last\000"
 9674      746F6B5F 
 9674      6C617374 
 9674      00
 9675              	.LASF334:
 9676 1737 73747274 	 .ascii "strtold\000"
 9676      6F6C6400 
 9677              	.LASF356:
 9678 173f 72657769 	 .ascii "rewind\000"
 9678      6E6400
 9679              	.LASF307:
 9680 1746 376C6C64 	 .ascii "7lldiv_t\000"
 9680      69765F74 
 9680      00
 9681              	.LASF102:
 9682 174f 5F666E61 	 .ascii "_fnargs\000"
 9682      72677300 
 9683              	.LASF46:
 9684 1757 7369676E 	 .ascii "signed char\000"
 9684      65642063 
 9684      68617200 
 9685              	.LASF129:
 9686 1763 5F726565 	 .ascii "_reent\000"
 9686      6E7400
 9687              	.LASF43:
 9688 176a 73686F72 	 .ascii "short unsigned int\000"
 9688      7420756E 
 9688      7369676E 
 9688      65642069 
 9688      6E7400
 9689              	.LASF385:
 9690 177d 5F5A4E31 	 .ascii "_ZN12cpp_freertos5Queue7DequeueEPvm\000"
 9690      32637070 
 9690      5F667265 
 9690      6572746F 
 9690      73355175 
 9691              	.LASF308:
 9692 17a1 6C6C6469 	 .ascii "lldiv_t\000"
 9692      765F7400 
 9693              	.LASF444:
 9694 17a9 68616E64 	 .ascii "handle\000"
 9694      6C6500
 9695              	.LASF397:
ARM GAS   			page 200


 9696 17b0 466C7573 	 .ascii "Flush\000"
 9696      6800
 9697              	.LASF215:
 9698 17b6 77637363 	 .ascii "wcscspn\000"
 9698      73706E00 
 9699              	.LASF312:
 9700 17be 61746F69 	 .ascii "atoi\000"
 9700      00
 9701              	.LASF287:
 9702 17c3 6E5F6373 	 .ascii "n_cs_precedes\000"
 9702      5F707265 
 9702      63656465 
 9702      7300
 9703              	.LASF313:
 9704 17d1 61746F6C 	 .ascii "atol\000"
 9704      00
 9705              	.LASF11:
 9706 17d6 5F5A4E53 	 .ascii "_ZNSt15__exception_ptr13exception_ptraSERKS0_\000"
 9706      7431355F 
 9706      5F657863 
 9706      65707469 
 9706      6F6E5F70 
 9707              	.LASF416:
 9708 1804 5F5A4E31 	 .ascii "_ZN12cpp_freertos5DequeD0Ev\000"
 9708      32637070 
 9708      5F667265 
 9708      6572746F 
 9708      73354465 
 9709              	.LASF220:
 9710 1820 7763736E 	 .ascii "wcsncpy\000"
 9710      63707900 
 9711              	.LASF159:
 9712 1828 5F6C6F63 	 .ascii "_locale\000"
 9712      616C6500 
 9713              	.LASF104:
 9714 1830 5F666E74 	 .ascii "_fntypes\000"
 9714      79706573 
 9714      00
 9715              	.LASF112:
 9716 1839 5F5F7346 	 .ascii "__sFILE\000"
 9716      494C4500 
 9717              	.LASF442:
 9718 1841 7E517565 	 .ascii "~Queue\000"
 9718      756500
 9719              	.LASF111:
 9720 1848 5F73697A 	 .ascii "_size\000"
 9720      6500
 9721              	.LASF52:
 9722 184e 646F7562 	 .ascii "double\000"
 9722      6C6500
 9723              	.LASF212:
 9724 1855 77637363 	 .ascii "wcscmp\000"
 9724      6D7000
 9725              	.LASF218:
 9726 185c 7763736E 	 .ascii "wcsncat\000"
 9726      63617400 
 9727              	.LASF76:
ARM GAS   			page 201


 9728 1864 5F6F6666 	 .ascii "_off_t\000"
 9728      5F7400
 9729              	.LASF122:
 9730 186b 5F6E6275 	 .ascii "_nbuf\000"
 9730      6600
 9731              	.LASF130:
 9732 1871 5F756E75 	 .ascii "_unused_rand\000"
 9732      7365645F 
 9732      72616E64 
 9732      00
 9733              	.LASF67:
 9734 187e 5F5F7569 	 .ascii "__uint_least16_t\000"
 9734      6E745F6C 
 9734      65617374 
 9734      31365F74 
 9734      00
 9735              	.LASF50:
 9736 188f 63686172 	 .ascii "char16_t\000"
 9736      31365F74 
 9736      00
 9737              	.LASF2:
 9738 1898 5F5A4E53 	 .ascii "_ZNSt15__exception_ptr13exception_ptr9_M_addrefEv\000"
 9738      7431355F 
 9738      5F657863 
 9738      65707469 
 9738      6F6E5F70 
 9739              	.LASF335:
 9740 18ca 46494C45 	 .ascii "FILE\000"
 9740      00
 9741              	.LASF206:
 9742 18cf 76737770 	 .ascii "vswprintf\000"
 9742      72696E74 
 9742      6600
 9743              	.LASF128:
 9744 18d9 5F666C61 	 .ascii "_flags2\000"
 9744      67733200 
 9745              	.LASF105:
 9746 18e1 5F69735F 	 .ascii "_is_cxa\000"
 9746      63786100 
 9747              	.LASF396:
 9748 18e9 5F5A4E31 	 .ascii "_ZN12cpp_freertos5Queue6IsFullEv\000"
 9748      32637070 
 9748      5F667265 
 9748      6572746F 
 9748      73355175 
 9749              	.LASF179:
 9750 190a 5F736565 	 .ascii "_seed\000"
 9750      6400
 9751              	.LASF183:
 9752 1910 5F5F6C6F 	 .ascii "__locale_t\000"
 9752      63616C65 
 9752      5F7400
 9753              	.LASF296:
 9754 191b 696E745F 	 .ascii "int_p_sign_posn\000"
 9754      705F7369 
 9754      676E5F70 
 9754      6F736E00 
ARM GAS   			page 202


 9755              	.LASF119:
 9756 192b 5F736565 	 .ascii "_seek\000"
 9756      6B00
 9757              	.LASF217:
 9758 1931 7763736C 	 .ascii "wcslen\000"
 9758      656E00
 9759              	.LASF155:
 9760 1938 5F737464 	 .ascii "_stderr\000"
 9760      65727200 
 9761              	.LASF150:
 9762 1940 5F6E6D61 	 .ascii "_nmalloc\000"
 9762      6C6C6F63 
 9762      00
 9763              	.LASF177:
 9764 1949 5F696F62 	 .ascii "_iobs\000"
 9764      7300
 9765              	.LASF379:
 9766 194f 5F5A4E31 	 .ascii "_ZN12cpp_freertos5QueueC4ERKS0_\000"
 9766      32637070 
 9766      5F667265 
 9766      6572746F 
 9766      73355175 
 9767              	.LASF321:
 9768 196f 71736F72 	 .ascii "qsort\000"
 9768      7400
 9769              	 .ident "GCC: (GNU Arm Embedded Toolchain 10.3-2021.10) 10.3.1 20210824 (release)"
