ARM GAS   			page 1


   1              	 .cpu cortex-m4
   2              	 .arch armv7e-m
   3              	 .fpu fpv4-sp-d16
   4              	 .eabi_attribute 27,1
   5              	 .eabi_attribute 28,1
   6              	 .eabi_attribute 20,1
   7              	 .eabi_attribute 21,1
   8              	 .eabi_attribute 23,3
   9              	 .eabi_attribute 24,1
  10              	 .eabi_attribute 25,1
  11              	 .eabi_attribute 26,1
  12              	 .eabi_attribute 30,6
  13              	 .eabi_attribute 34,0
  14              	 .eabi_attribute 18,4
  15              	 .file "csemaphore.cpp"
  16              	 .text
  17              	.Ltext0:
  18              	 .cfi_sections .debug_frame
  19              	 .section .rodata._ZStL19piecewise_construct,"a"
  20              	 .align 2
  21              	 .type _ZStL19piecewise_construct,%object
  22              	 .size _ZStL19piecewise_construct,1
  23              	_ZStL19piecewise_construct:
  24 0000 00       	 .space 1
  25              	 .section .text._ZL20__gthread_key_deletei,"ax",%progbits
  26              	 .align 1
  27              	 .syntax unified
  28              	 .thumb
  29              	 .thumb_func
  30              	 .type _ZL20__gthread_key_deletei,%function
  31              	_ZL20__gthread_key_deletei:
  32              	.LFB652:
  33              	 .file 1 "c:\\progra~2\\gnuarm~1\\102021~1.10\\arm-none-eabi\\include\\c++\\10.3.1\\arm-none-eabi\\thumb\\v7e-m+fp\\hard\\bits\\gthr-default.h"
   1:c:\progra~2\gnuarm~1\102021~1.10\arm-none-eabi\include\c++\10.3.1\arm-none-eabi\thumb\v7e-m+fp\hard\bits\gthr-default.h **** /* Threads compatibility routines for libgcc2 and libobjc.  */
   2:c:\progra~2\gnuarm~1\102021~1.10\arm-none-eabi\include\c++\10.3.1\arm-none-eabi\thumb\v7e-m+fp\hard\bits\gthr-default.h **** /* Compile this one with gcc.  */
   3:c:\progra~2\gnuarm~1\102021~1.10\arm-none-eabi\include\c++\10.3.1\arm-none-eabi\thumb\v7e-m+fp\hard\bits\gthr-default.h **** /* Copyright (C) 1997-2020 Free Software Foundation, Inc.
   4:c:\progra~2\gnuarm~1\102021~1.10\arm-none-eabi\include\c++\10.3.1\arm-none-eabi\thumb\v7e-m+fp\hard\bits\gthr-default.h **** 
   5:c:\progra~2\gnuarm~1\102021~1.10\arm-none-eabi\include\c++\10.3.1\arm-none-eabi\thumb\v7e-m+fp\hard\bits\gthr-default.h **** This file is part of GCC.
   6:c:\progra~2\gnuarm~1\102021~1.10\arm-none-eabi\include\c++\10.3.1\arm-none-eabi\thumb\v7e-m+fp\hard\bits\gthr-default.h **** 
   7:c:\progra~2\gnuarm~1\102021~1.10\arm-none-eabi\include\c++\10.3.1\arm-none-eabi\thumb\v7e-m+fp\hard\bits\gthr-default.h **** GCC is free software; you can redistribute it and/or modify it under
   8:c:\progra~2\gnuarm~1\102021~1.10\arm-none-eabi\include\c++\10.3.1\arm-none-eabi\thumb\v7e-m+fp\hard\bits\gthr-default.h **** the terms of the GNU General Public License as published by the Free
   9:c:\progra~2\gnuarm~1\102021~1.10\arm-none-eabi\include\c++\10.3.1\arm-none-eabi\thumb\v7e-m+fp\hard\bits\gthr-default.h **** Software Foundation; either version 3, or (at your option) any later
  10:c:\progra~2\gnuarm~1\102021~1.10\arm-none-eabi\include\c++\10.3.1\arm-none-eabi\thumb\v7e-m+fp\hard\bits\gthr-default.h **** version.
  11:c:\progra~2\gnuarm~1\102021~1.10\arm-none-eabi\include\c++\10.3.1\arm-none-eabi\thumb\v7e-m+fp\hard\bits\gthr-default.h **** 
  12:c:\progra~2\gnuarm~1\102021~1.10\arm-none-eabi\include\c++\10.3.1\arm-none-eabi\thumb\v7e-m+fp\hard\bits\gthr-default.h **** GCC is distributed in the hope that it will be useful, but WITHOUT ANY
  13:c:\progra~2\gnuarm~1\102021~1.10\arm-none-eabi\include\c++\10.3.1\arm-none-eabi\thumb\v7e-m+fp\hard\bits\gthr-default.h **** WARRANTY; without even the implied warranty of MERCHANTABILITY or
  14:c:\progra~2\gnuarm~1\102021~1.10\arm-none-eabi\include\c++\10.3.1\arm-none-eabi\thumb\v7e-m+fp\hard\bits\gthr-default.h **** FITNESS FOR A PARTICULAR PURPOSE.  See the GNU General Public License
  15:c:\progra~2\gnuarm~1\102021~1.10\arm-none-eabi\include\c++\10.3.1\arm-none-eabi\thumb\v7e-m+fp\hard\bits\gthr-default.h **** for more details.
  16:c:\progra~2\gnuarm~1\102021~1.10\arm-none-eabi\include\c++\10.3.1\arm-none-eabi\thumb\v7e-m+fp\hard\bits\gthr-default.h **** 
  17:c:\progra~2\gnuarm~1\102021~1.10\arm-none-eabi\include\c++\10.3.1\arm-none-eabi\thumb\v7e-m+fp\hard\bits\gthr-default.h **** Under Section 7 of GPL version 3, you are granted additional
  18:c:\progra~2\gnuarm~1\102021~1.10\arm-none-eabi\include\c++\10.3.1\arm-none-eabi\thumb\v7e-m+fp\hard\bits\gthr-default.h **** permissions described in the GCC Runtime Library Exception, version
  19:c:\progra~2\gnuarm~1\102021~1.10\arm-none-eabi\include\c++\10.3.1\arm-none-eabi\thumb\v7e-m+fp\hard\bits\gthr-default.h **** 3.1, as published by the Free Software Foundation.
  20:c:\progra~2\gnuarm~1\102021~1.10\arm-none-eabi\include\c++\10.3.1\arm-none-eabi\thumb\v7e-m+fp\hard\bits\gthr-default.h **** 
  21:c:\progra~2\gnuarm~1\102021~1.10\arm-none-eabi\include\c++\10.3.1\arm-none-eabi\thumb\v7e-m+fp\hard\bits\gthr-default.h **** You should have received a copy of the GNU General Public License and
  22:c:\progra~2\gnuarm~1\102021~1.10\arm-none-eabi\include\c++\10.3.1\arm-none-eabi\thumb\v7e-m+fp\hard\bits\gthr-default.h **** a copy of the GCC Runtime Library Exception along with this program;
  23:c:\progra~2\gnuarm~1\102021~1.10\arm-none-eabi\include\c++\10.3.1\arm-none-eabi\thumb\v7e-m+fp\hard\bits\gthr-default.h **** see the files COPYING3 and COPYING.RUNTIME respectively.  If not, see
  24:c:\progra~2\gnuarm~1\102021~1.10\arm-none-eabi\include\c++\10.3.1\arm-none-eabi\thumb\v7e-m+fp\hard\bits\gthr-default.h **** <http://www.gnu.org/licenses/>.  */
ARM GAS   			page 2


  25:c:\progra~2\gnuarm~1\102021~1.10\arm-none-eabi\include\c++\10.3.1\arm-none-eabi\thumb\v7e-m+fp\hard\bits\gthr-default.h **** 
  26:c:\progra~2\gnuarm~1\102021~1.10\arm-none-eabi\include\c++\10.3.1\arm-none-eabi\thumb\v7e-m+fp\hard\bits\gthr-default.h **** #ifndef _GLIBCXX_GCC_GTHR_SINGLE_H
  27:c:\progra~2\gnuarm~1\102021~1.10\arm-none-eabi\include\c++\10.3.1\arm-none-eabi\thumb\v7e-m+fp\hard\bits\gthr-default.h **** #define _GLIBCXX_GCC_GTHR_SINGLE_H
  28:c:\progra~2\gnuarm~1\102021~1.10\arm-none-eabi\include\c++\10.3.1\arm-none-eabi\thumb\v7e-m+fp\hard\bits\gthr-default.h **** 
  29:c:\progra~2\gnuarm~1\102021~1.10\arm-none-eabi\include\c++\10.3.1\arm-none-eabi\thumb\v7e-m+fp\hard\bits\gthr-default.h **** /* Just provide compatibility for mutex handling.  */
  30:c:\progra~2\gnuarm~1\102021~1.10\arm-none-eabi\include\c++\10.3.1\arm-none-eabi\thumb\v7e-m+fp\hard\bits\gthr-default.h **** 
  31:c:\progra~2\gnuarm~1\102021~1.10\arm-none-eabi\include\c++\10.3.1\arm-none-eabi\thumb\v7e-m+fp\hard\bits\gthr-default.h **** typedef int __gthread_key_t;
  32:c:\progra~2\gnuarm~1\102021~1.10\arm-none-eabi\include\c++\10.3.1\arm-none-eabi\thumb\v7e-m+fp\hard\bits\gthr-default.h **** typedef int __gthread_once_t;
  33:c:\progra~2\gnuarm~1\102021~1.10\arm-none-eabi\include\c++\10.3.1\arm-none-eabi\thumb\v7e-m+fp\hard\bits\gthr-default.h **** typedef int __gthread_mutex_t;
  34:c:\progra~2\gnuarm~1\102021~1.10\arm-none-eabi\include\c++\10.3.1\arm-none-eabi\thumb\v7e-m+fp\hard\bits\gthr-default.h **** typedef int __gthread_recursive_mutex_t;
  35:c:\progra~2\gnuarm~1\102021~1.10\arm-none-eabi\include\c++\10.3.1\arm-none-eabi\thumb\v7e-m+fp\hard\bits\gthr-default.h **** 
  36:c:\progra~2\gnuarm~1\102021~1.10\arm-none-eabi\include\c++\10.3.1\arm-none-eabi\thumb\v7e-m+fp\hard\bits\gthr-default.h **** #define __GTHREAD_ONCE_INIT 0
  37:c:\progra~2\gnuarm~1\102021~1.10\arm-none-eabi\include\c++\10.3.1\arm-none-eabi\thumb\v7e-m+fp\hard\bits\gthr-default.h **** #define __GTHREAD_MUTEX_INIT 0
  38:c:\progra~2\gnuarm~1\102021~1.10\arm-none-eabi\include\c++\10.3.1\arm-none-eabi\thumb\v7e-m+fp\hard\bits\gthr-default.h **** #define __GTHREAD_MUTEX_INIT_FUNCTION(mx) do {} while (0)
  39:c:\progra~2\gnuarm~1\102021~1.10\arm-none-eabi\include\c++\10.3.1\arm-none-eabi\thumb\v7e-m+fp\hard\bits\gthr-default.h **** #define __GTHREAD_RECURSIVE_MUTEX_INIT 0
  40:c:\progra~2\gnuarm~1\102021~1.10\arm-none-eabi\include\c++\10.3.1\arm-none-eabi\thumb\v7e-m+fp\hard\bits\gthr-default.h **** 
  41:c:\progra~2\gnuarm~1\102021~1.10\arm-none-eabi\include\c++\10.3.1\arm-none-eabi\thumb\v7e-m+fp\hard\bits\gthr-default.h **** #define _GLIBCXX_UNUSED __attribute__((__unused__))
  42:c:\progra~2\gnuarm~1\102021~1.10\arm-none-eabi\include\c++\10.3.1\arm-none-eabi\thumb\v7e-m+fp\hard\bits\gthr-default.h **** 
  43:c:\progra~2\gnuarm~1\102021~1.10\arm-none-eabi\include\c++\10.3.1\arm-none-eabi\thumb\v7e-m+fp\hard\bits\gthr-default.h **** #ifdef _LIBOBJC
  44:c:\progra~2\gnuarm~1\102021~1.10\arm-none-eabi\include\c++\10.3.1\arm-none-eabi\thumb\v7e-m+fp\hard\bits\gthr-default.h **** 
  45:c:\progra~2\gnuarm~1\102021~1.10\arm-none-eabi\include\c++\10.3.1\arm-none-eabi\thumb\v7e-m+fp\hard\bits\gthr-default.h **** /* Thread local storage for a single thread */
  46:c:\progra~2\gnuarm~1\102021~1.10\arm-none-eabi\include\c++\10.3.1\arm-none-eabi\thumb\v7e-m+fp\hard\bits\gthr-default.h **** static void *thread_local_storage = NULL;
  47:c:\progra~2\gnuarm~1\102021~1.10\arm-none-eabi\include\c++\10.3.1\arm-none-eabi\thumb\v7e-m+fp\hard\bits\gthr-default.h **** 
  48:c:\progra~2\gnuarm~1\102021~1.10\arm-none-eabi\include\c++\10.3.1\arm-none-eabi\thumb\v7e-m+fp\hard\bits\gthr-default.h **** /* Backend initialization functions */
  49:c:\progra~2\gnuarm~1\102021~1.10\arm-none-eabi\include\c++\10.3.1\arm-none-eabi\thumb\v7e-m+fp\hard\bits\gthr-default.h **** 
  50:c:\progra~2\gnuarm~1\102021~1.10\arm-none-eabi\include\c++\10.3.1\arm-none-eabi\thumb\v7e-m+fp\hard\bits\gthr-default.h **** /* Initialize the threads subsystem.  */
  51:c:\progra~2\gnuarm~1\102021~1.10\arm-none-eabi\include\c++\10.3.1\arm-none-eabi\thumb\v7e-m+fp\hard\bits\gthr-default.h **** static inline int
  52:c:\progra~2\gnuarm~1\102021~1.10\arm-none-eabi\include\c++\10.3.1\arm-none-eabi\thumb\v7e-m+fp\hard\bits\gthr-default.h **** __gthread_objc_init_thread_system (void)
  53:c:\progra~2\gnuarm~1\102021~1.10\arm-none-eabi\include\c++\10.3.1\arm-none-eabi\thumb\v7e-m+fp\hard\bits\gthr-default.h **** {
  54:c:\progra~2\gnuarm~1\102021~1.10\arm-none-eabi\include\c++\10.3.1\arm-none-eabi\thumb\v7e-m+fp\hard\bits\gthr-default.h ****   /* No thread support available */
  55:c:\progra~2\gnuarm~1\102021~1.10\arm-none-eabi\include\c++\10.3.1\arm-none-eabi\thumb\v7e-m+fp\hard\bits\gthr-default.h ****   return -1;
  56:c:\progra~2\gnuarm~1\102021~1.10\arm-none-eabi\include\c++\10.3.1\arm-none-eabi\thumb\v7e-m+fp\hard\bits\gthr-default.h **** }
  57:c:\progra~2\gnuarm~1\102021~1.10\arm-none-eabi\include\c++\10.3.1\arm-none-eabi\thumb\v7e-m+fp\hard\bits\gthr-default.h **** 
  58:c:\progra~2\gnuarm~1\102021~1.10\arm-none-eabi\include\c++\10.3.1\arm-none-eabi\thumb\v7e-m+fp\hard\bits\gthr-default.h **** /* Close the threads subsystem.  */
  59:c:\progra~2\gnuarm~1\102021~1.10\arm-none-eabi\include\c++\10.3.1\arm-none-eabi\thumb\v7e-m+fp\hard\bits\gthr-default.h **** static inline int
  60:c:\progra~2\gnuarm~1\102021~1.10\arm-none-eabi\include\c++\10.3.1\arm-none-eabi\thumb\v7e-m+fp\hard\bits\gthr-default.h **** __gthread_objc_close_thread_system (void)
  61:c:\progra~2\gnuarm~1\102021~1.10\arm-none-eabi\include\c++\10.3.1\arm-none-eabi\thumb\v7e-m+fp\hard\bits\gthr-default.h **** {
  62:c:\progra~2\gnuarm~1\102021~1.10\arm-none-eabi\include\c++\10.3.1\arm-none-eabi\thumb\v7e-m+fp\hard\bits\gthr-default.h ****   /* No thread support available */
  63:c:\progra~2\gnuarm~1\102021~1.10\arm-none-eabi\include\c++\10.3.1\arm-none-eabi\thumb\v7e-m+fp\hard\bits\gthr-default.h ****   return -1;
  64:c:\progra~2\gnuarm~1\102021~1.10\arm-none-eabi\include\c++\10.3.1\arm-none-eabi\thumb\v7e-m+fp\hard\bits\gthr-default.h **** }
  65:c:\progra~2\gnuarm~1\102021~1.10\arm-none-eabi\include\c++\10.3.1\arm-none-eabi\thumb\v7e-m+fp\hard\bits\gthr-default.h **** 
  66:c:\progra~2\gnuarm~1\102021~1.10\arm-none-eabi\include\c++\10.3.1\arm-none-eabi\thumb\v7e-m+fp\hard\bits\gthr-default.h **** /* Backend thread functions */
  67:c:\progra~2\gnuarm~1\102021~1.10\arm-none-eabi\include\c++\10.3.1\arm-none-eabi\thumb\v7e-m+fp\hard\bits\gthr-default.h **** 
  68:c:\progra~2\gnuarm~1\102021~1.10\arm-none-eabi\include\c++\10.3.1\arm-none-eabi\thumb\v7e-m+fp\hard\bits\gthr-default.h **** /* Create a new thread of execution.  */
  69:c:\progra~2\gnuarm~1\102021~1.10\arm-none-eabi\include\c++\10.3.1\arm-none-eabi\thumb\v7e-m+fp\hard\bits\gthr-default.h **** static inline objc_thread_t
  70:c:\progra~2\gnuarm~1\102021~1.10\arm-none-eabi\include\c++\10.3.1\arm-none-eabi\thumb\v7e-m+fp\hard\bits\gthr-default.h **** __gthread_objc_thread_detach (void (* func)(void *), void * arg _GLIBCXX_UNUSED)
  71:c:\progra~2\gnuarm~1\102021~1.10\arm-none-eabi\include\c++\10.3.1\arm-none-eabi\thumb\v7e-m+fp\hard\bits\gthr-default.h **** {
  72:c:\progra~2\gnuarm~1\102021~1.10\arm-none-eabi\include\c++\10.3.1\arm-none-eabi\thumb\v7e-m+fp\hard\bits\gthr-default.h ****   /* No thread support available */
  73:c:\progra~2\gnuarm~1\102021~1.10\arm-none-eabi\include\c++\10.3.1\arm-none-eabi\thumb\v7e-m+fp\hard\bits\gthr-default.h ****   return NULL;
  74:c:\progra~2\gnuarm~1\102021~1.10\arm-none-eabi\include\c++\10.3.1\arm-none-eabi\thumb\v7e-m+fp\hard\bits\gthr-default.h **** }
  75:c:\progra~2\gnuarm~1\102021~1.10\arm-none-eabi\include\c++\10.3.1\arm-none-eabi\thumb\v7e-m+fp\hard\bits\gthr-default.h **** 
  76:c:\progra~2\gnuarm~1\102021~1.10\arm-none-eabi\include\c++\10.3.1\arm-none-eabi\thumb\v7e-m+fp\hard\bits\gthr-default.h **** /* Set the current thread's priority.  */
  77:c:\progra~2\gnuarm~1\102021~1.10\arm-none-eabi\include\c++\10.3.1\arm-none-eabi\thumb\v7e-m+fp\hard\bits\gthr-default.h **** static inline int
  78:c:\progra~2\gnuarm~1\102021~1.10\arm-none-eabi\include\c++\10.3.1\arm-none-eabi\thumb\v7e-m+fp\hard\bits\gthr-default.h **** __gthread_objc_thread_set_priority (int priority _GLIBCXX_UNUSED)
  79:c:\progra~2\gnuarm~1\102021~1.10\arm-none-eabi\include\c++\10.3.1\arm-none-eabi\thumb\v7e-m+fp\hard\bits\gthr-default.h **** {
  80:c:\progra~2\gnuarm~1\102021~1.10\arm-none-eabi\include\c++\10.3.1\arm-none-eabi\thumb\v7e-m+fp\hard\bits\gthr-default.h ****   /* No thread support available */
  81:c:\progra~2\gnuarm~1\102021~1.10\arm-none-eabi\include\c++\10.3.1\arm-none-eabi\thumb\v7e-m+fp\hard\bits\gthr-default.h ****   return -1;
ARM GAS   			page 3


  82:c:\progra~2\gnuarm~1\102021~1.10\arm-none-eabi\include\c++\10.3.1\arm-none-eabi\thumb\v7e-m+fp\hard\bits\gthr-default.h **** }
  83:c:\progra~2\gnuarm~1\102021~1.10\arm-none-eabi\include\c++\10.3.1\arm-none-eabi\thumb\v7e-m+fp\hard\bits\gthr-default.h **** 
  84:c:\progra~2\gnuarm~1\102021~1.10\arm-none-eabi\include\c++\10.3.1\arm-none-eabi\thumb\v7e-m+fp\hard\bits\gthr-default.h **** /* Return the current thread's priority.  */
  85:c:\progra~2\gnuarm~1\102021~1.10\arm-none-eabi\include\c++\10.3.1\arm-none-eabi\thumb\v7e-m+fp\hard\bits\gthr-default.h **** static inline int
  86:c:\progra~2\gnuarm~1\102021~1.10\arm-none-eabi\include\c++\10.3.1\arm-none-eabi\thumb\v7e-m+fp\hard\bits\gthr-default.h **** __gthread_objc_thread_get_priority (void)
  87:c:\progra~2\gnuarm~1\102021~1.10\arm-none-eabi\include\c++\10.3.1\arm-none-eabi\thumb\v7e-m+fp\hard\bits\gthr-default.h **** {
  88:c:\progra~2\gnuarm~1\102021~1.10\arm-none-eabi\include\c++\10.3.1\arm-none-eabi\thumb\v7e-m+fp\hard\bits\gthr-default.h ****   return OBJC_THREAD_INTERACTIVE_PRIORITY;
  89:c:\progra~2\gnuarm~1\102021~1.10\arm-none-eabi\include\c++\10.3.1\arm-none-eabi\thumb\v7e-m+fp\hard\bits\gthr-default.h **** }
  90:c:\progra~2\gnuarm~1\102021~1.10\arm-none-eabi\include\c++\10.3.1\arm-none-eabi\thumb\v7e-m+fp\hard\bits\gthr-default.h **** 
  91:c:\progra~2\gnuarm~1\102021~1.10\arm-none-eabi\include\c++\10.3.1\arm-none-eabi\thumb\v7e-m+fp\hard\bits\gthr-default.h **** /* Yield our process time to another thread.  */
  92:c:\progra~2\gnuarm~1\102021~1.10\arm-none-eabi\include\c++\10.3.1\arm-none-eabi\thumb\v7e-m+fp\hard\bits\gthr-default.h **** static inline void
  93:c:\progra~2\gnuarm~1\102021~1.10\arm-none-eabi\include\c++\10.3.1\arm-none-eabi\thumb\v7e-m+fp\hard\bits\gthr-default.h **** __gthread_objc_thread_yield (void)
  94:c:\progra~2\gnuarm~1\102021~1.10\arm-none-eabi\include\c++\10.3.1\arm-none-eabi\thumb\v7e-m+fp\hard\bits\gthr-default.h **** {
  95:c:\progra~2\gnuarm~1\102021~1.10\arm-none-eabi\include\c++\10.3.1\arm-none-eabi\thumb\v7e-m+fp\hard\bits\gthr-default.h ****   return;
  96:c:\progra~2\gnuarm~1\102021~1.10\arm-none-eabi\include\c++\10.3.1\arm-none-eabi\thumb\v7e-m+fp\hard\bits\gthr-default.h **** }
  97:c:\progra~2\gnuarm~1\102021~1.10\arm-none-eabi\include\c++\10.3.1\arm-none-eabi\thumb\v7e-m+fp\hard\bits\gthr-default.h **** 
  98:c:\progra~2\gnuarm~1\102021~1.10\arm-none-eabi\include\c++\10.3.1\arm-none-eabi\thumb\v7e-m+fp\hard\bits\gthr-default.h **** /* Terminate the current thread.  */
  99:c:\progra~2\gnuarm~1\102021~1.10\arm-none-eabi\include\c++\10.3.1\arm-none-eabi\thumb\v7e-m+fp\hard\bits\gthr-default.h **** static inline int
 100:c:\progra~2\gnuarm~1\102021~1.10\arm-none-eabi\include\c++\10.3.1\arm-none-eabi\thumb\v7e-m+fp\hard\bits\gthr-default.h **** __gthread_objc_thread_exit (void)
 101:c:\progra~2\gnuarm~1\102021~1.10\arm-none-eabi\include\c++\10.3.1\arm-none-eabi\thumb\v7e-m+fp\hard\bits\gthr-default.h **** {
 102:c:\progra~2\gnuarm~1\102021~1.10\arm-none-eabi\include\c++\10.3.1\arm-none-eabi\thumb\v7e-m+fp\hard\bits\gthr-default.h ****   /* No thread support available */
 103:c:\progra~2\gnuarm~1\102021~1.10\arm-none-eabi\include\c++\10.3.1\arm-none-eabi\thumb\v7e-m+fp\hard\bits\gthr-default.h ****   /* Should we really exit the program */
 104:c:\progra~2\gnuarm~1\102021~1.10\arm-none-eabi\include\c++\10.3.1\arm-none-eabi\thumb\v7e-m+fp\hard\bits\gthr-default.h ****   /* exit (&__objc_thread_exit_status); */
 105:c:\progra~2\gnuarm~1\102021~1.10\arm-none-eabi\include\c++\10.3.1\arm-none-eabi\thumb\v7e-m+fp\hard\bits\gthr-default.h ****   return -1;
 106:c:\progra~2\gnuarm~1\102021~1.10\arm-none-eabi\include\c++\10.3.1\arm-none-eabi\thumb\v7e-m+fp\hard\bits\gthr-default.h **** }
 107:c:\progra~2\gnuarm~1\102021~1.10\arm-none-eabi\include\c++\10.3.1\arm-none-eabi\thumb\v7e-m+fp\hard\bits\gthr-default.h **** 
 108:c:\progra~2\gnuarm~1\102021~1.10\arm-none-eabi\include\c++\10.3.1\arm-none-eabi\thumb\v7e-m+fp\hard\bits\gthr-default.h **** /* Returns an integer value which uniquely describes a thread.  */
 109:c:\progra~2\gnuarm~1\102021~1.10\arm-none-eabi\include\c++\10.3.1\arm-none-eabi\thumb\v7e-m+fp\hard\bits\gthr-default.h **** static inline objc_thread_t
 110:c:\progra~2\gnuarm~1\102021~1.10\arm-none-eabi\include\c++\10.3.1\arm-none-eabi\thumb\v7e-m+fp\hard\bits\gthr-default.h **** __gthread_objc_thread_id (void)
 111:c:\progra~2\gnuarm~1\102021~1.10\arm-none-eabi\include\c++\10.3.1\arm-none-eabi\thumb\v7e-m+fp\hard\bits\gthr-default.h **** {
 112:c:\progra~2\gnuarm~1\102021~1.10\arm-none-eabi\include\c++\10.3.1\arm-none-eabi\thumb\v7e-m+fp\hard\bits\gthr-default.h ****   /* No thread support, use 1.  */
 113:c:\progra~2\gnuarm~1\102021~1.10\arm-none-eabi\include\c++\10.3.1\arm-none-eabi\thumb\v7e-m+fp\hard\bits\gthr-default.h ****   return (objc_thread_t) 1;
 114:c:\progra~2\gnuarm~1\102021~1.10\arm-none-eabi\include\c++\10.3.1\arm-none-eabi\thumb\v7e-m+fp\hard\bits\gthr-default.h **** }
 115:c:\progra~2\gnuarm~1\102021~1.10\arm-none-eabi\include\c++\10.3.1\arm-none-eabi\thumb\v7e-m+fp\hard\bits\gthr-default.h **** 
 116:c:\progra~2\gnuarm~1\102021~1.10\arm-none-eabi\include\c++\10.3.1\arm-none-eabi\thumb\v7e-m+fp\hard\bits\gthr-default.h **** /* Sets the thread's local storage pointer.  */
 117:c:\progra~2\gnuarm~1\102021~1.10\arm-none-eabi\include\c++\10.3.1\arm-none-eabi\thumb\v7e-m+fp\hard\bits\gthr-default.h **** static inline int
 118:c:\progra~2\gnuarm~1\102021~1.10\arm-none-eabi\include\c++\10.3.1\arm-none-eabi\thumb\v7e-m+fp\hard\bits\gthr-default.h **** __gthread_objc_thread_set_data (void *value)
 119:c:\progra~2\gnuarm~1\102021~1.10\arm-none-eabi\include\c++\10.3.1\arm-none-eabi\thumb\v7e-m+fp\hard\bits\gthr-default.h **** {
 120:c:\progra~2\gnuarm~1\102021~1.10\arm-none-eabi\include\c++\10.3.1\arm-none-eabi\thumb\v7e-m+fp\hard\bits\gthr-default.h ****   thread_local_storage = value;
 121:c:\progra~2\gnuarm~1\102021~1.10\arm-none-eabi\include\c++\10.3.1\arm-none-eabi\thumb\v7e-m+fp\hard\bits\gthr-default.h ****   return 0;
 122:c:\progra~2\gnuarm~1\102021~1.10\arm-none-eabi\include\c++\10.3.1\arm-none-eabi\thumb\v7e-m+fp\hard\bits\gthr-default.h **** }
 123:c:\progra~2\gnuarm~1\102021~1.10\arm-none-eabi\include\c++\10.3.1\arm-none-eabi\thumb\v7e-m+fp\hard\bits\gthr-default.h **** 
 124:c:\progra~2\gnuarm~1\102021~1.10\arm-none-eabi\include\c++\10.3.1\arm-none-eabi\thumb\v7e-m+fp\hard\bits\gthr-default.h **** /* Returns the thread's local storage pointer.  */
 125:c:\progra~2\gnuarm~1\102021~1.10\arm-none-eabi\include\c++\10.3.1\arm-none-eabi\thumb\v7e-m+fp\hard\bits\gthr-default.h **** static inline void *
 126:c:\progra~2\gnuarm~1\102021~1.10\arm-none-eabi\include\c++\10.3.1\arm-none-eabi\thumb\v7e-m+fp\hard\bits\gthr-default.h **** __gthread_objc_thread_get_data (void)
 127:c:\progra~2\gnuarm~1\102021~1.10\arm-none-eabi\include\c++\10.3.1\arm-none-eabi\thumb\v7e-m+fp\hard\bits\gthr-default.h **** {
 128:c:\progra~2\gnuarm~1\102021~1.10\arm-none-eabi\include\c++\10.3.1\arm-none-eabi\thumb\v7e-m+fp\hard\bits\gthr-default.h ****   return thread_local_storage;
 129:c:\progra~2\gnuarm~1\102021~1.10\arm-none-eabi\include\c++\10.3.1\arm-none-eabi\thumb\v7e-m+fp\hard\bits\gthr-default.h **** }
 130:c:\progra~2\gnuarm~1\102021~1.10\arm-none-eabi\include\c++\10.3.1\arm-none-eabi\thumb\v7e-m+fp\hard\bits\gthr-default.h **** 
 131:c:\progra~2\gnuarm~1\102021~1.10\arm-none-eabi\include\c++\10.3.1\arm-none-eabi\thumb\v7e-m+fp\hard\bits\gthr-default.h **** /* Backend mutex functions */
 132:c:\progra~2\gnuarm~1\102021~1.10\arm-none-eabi\include\c++\10.3.1\arm-none-eabi\thumb\v7e-m+fp\hard\bits\gthr-default.h **** 
 133:c:\progra~2\gnuarm~1\102021~1.10\arm-none-eabi\include\c++\10.3.1\arm-none-eabi\thumb\v7e-m+fp\hard\bits\gthr-default.h **** /* Allocate a mutex.  */
 134:c:\progra~2\gnuarm~1\102021~1.10\arm-none-eabi\include\c++\10.3.1\arm-none-eabi\thumb\v7e-m+fp\hard\bits\gthr-default.h **** static inline int
 135:c:\progra~2\gnuarm~1\102021~1.10\arm-none-eabi\include\c++\10.3.1\arm-none-eabi\thumb\v7e-m+fp\hard\bits\gthr-default.h **** __gthread_objc_mutex_allocate (objc_mutex_t mutex _GLIBCXX_UNUSED)
 136:c:\progra~2\gnuarm~1\102021~1.10\arm-none-eabi\include\c++\10.3.1\arm-none-eabi\thumb\v7e-m+fp\hard\bits\gthr-default.h **** {
 137:c:\progra~2\gnuarm~1\102021~1.10\arm-none-eabi\include\c++\10.3.1\arm-none-eabi\thumb\v7e-m+fp\hard\bits\gthr-default.h ****   return 0;
 138:c:\progra~2\gnuarm~1\102021~1.10\arm-none-eabi\include\c++\10.3.1\arm-none-eabi\thumb\v7e-m+fp\hard\bits\gthr-default.h **** }
ARM GAS   			page 4


 139:c:\progra~2\gnuarm~1\102021~1.10\arm-none-eabi\include\c++\10.3.1\arm-none-eabi\thumb\v7e-m+fp\hard\bits\gthr-default.h **** 
 140:c:\progra~2\gnuarm~1\102021~1.10\arm-none-eabi\include\c++\10.3.1\arm-none-eabi\thumb\v7e-m+fp\hard\bits\gthr-default.h **** /* Deallocate a mutex.  */
 141:c:\progra~2\gnuarm~1\102021~1.10\arm-none-eabi\include\c++\10.3.1\arm-none-eabi\thumb\v7e-m+fp\hard\bits\gthr-default.h **** static inline int
 142:c:\progra~2\gnuarm~1\102021~1.10\arm-none-eabi\include\c++\10.3.1\arm-none-eabi\thumb\v7e-m+fp\hard\bits\gthr-default.h **** __gthread_objc_mutex_deallocate (objc_mutex_t mutex _GLIBCXX_UNUSED)
 143:c:\progra~2\gnuarm~1\102021~1.10\arm-none-eabi\include\c++\10.3.1\arm-none-eabi\thumb\v7e-m+fp\hard\bits\gthr-default.h **** {
 144:c:\progra~2\gnuarm~1\102021~1.10\arm-none-eabi\include\c++\10.3.1\arm-none-eabi\thumb\v7e-m+fp\hard\bits\gthr-default.h ****   return 0;
 145:c:\progra~2\gnuarm~1\102021~1.10\arm-none-eabi\include\c++\10.3.1\arm-none-eabi\thumb\v7e-m+fp\hard\bits\gthr-default.h **** }
 146:c:\progra~2\gnuarm~1\102021~1.10\arm-none-eabi\include\c++\10.3.1\arm-none-eabi\thumb\v7e-m+fp\hard\bits\gthr-default.h **** 
 147:c:\progra~2\gnuarm~1\102021~1.10\arm-none-eabi\include\c++\10.3.1\arm-none-eabi\thumb\v7e-m+fp\hard\bits\gthr-default.h **** /* Grab a lock on a mutex.  */
 148:c:\progra~2\gnuarm~1\102021~1.10\arm-none-eabi\include\c++\10.3.1\arm-none-eabi\thumb\v7e-m+fp\hard\bits\gthr-default.h **** static inline int
 149:c:\progra~2\gnuarm~1\102021~1.10\arm-none-eabi\include\c++\10.3.1\arm-none-eabi\thumb\v7e-m+fp\hard\bits\gthr-default.h **** __gthread_objc_mutex_lock (objc_mutex_t mutex _GLIBCXX_UNUSED)
 150:c:\progra~2\gnuarm~1\102021~1.10\arm-none-eabi\include\c++\10.3.1\arm-none-eabi\thumb\v7e-m+fp\hard\bits\gthr-default.h **** {
 151:c:\progra~2\gnuarm~1\102021~1.10\arm-none-eabi\include\c++\10.3.1\arm-none-eabi\thumb\v7e-m+fp\hard\bits\gthr-default.h ****   /* There can only be one thread, so we always get the lock */
 152:c:\progra~2\gnuarm~1\102021~1.10\arm-none-eabi\include\c++\10.3.1\arm-none-eabi\thumb\v7e-m+fp\hard\bits\gthr-default.h ****   return 0;
 153:c:\progra~2\gnuarm~1\102021~1.10\arm-none-eabi\include\c++\10.3.1\arm-none-eabi\thumb\v7e-m+fp\hard\bits\gthr-default.h **** }
 154:c:\progra~2\gnuarm~1\102021~1.10\arm-none-eabi\include\c++\10.3.1\arm-none-eabi\thumb\v7e-m+fp\hard\bits\gthr-default.h **** 
 155:c:\progra~2\gnuarm~1\102021~1.10\arm-none-eabi\include\c++\10.3.1\arm-none-eabi\thumb\v7e-m+fp\hard\bits\gthr-default.h **** /* Try to grab a lock on a mutex.  */
 156:c:\progra~2\gnuarm~1\102021~1.10\arm-none-eabi\include\c++\10.3.1\arm-none-eabi\thumb\v7e-m+fp\hard\bits\gthr-default.h **** static inline int
 157:c:\progra~2\gnuarm~1\102021~1.10\arm-none-eabi\include\c++\10.3.1\arm-none-eabi\thumb\v7e-m+fp\hard\bits\gthr-default.h **** __gthread_objc_mutex_trylock (objc_mutex_t mutex _GLIBCXX_UNUSED)
 158:c:\progra~2\gnuarm~1\102021~1.10\arm-none-eabi\include\c++\10.3.1\arm-none-eabi\thumb\v7e-m+fp\hard\bits\gthr-default.h **** {
 159:c:\progra~2\gnuarm~1\102021~1.10\arm-none-eabi\include\c++\10.3.1\arm-none-eabi\thumb\v7e-m+fp\hard\bits\gthr-default.h ****   /* There can only be one thread, so we always get the lock */
 160:c:\progra~2\gnuarm~1\102021~1.10\arm-none-eabi\include\c++\10.3.1\arm-none-eabi\thumb\v7e-m+fp\hard\bits\gthr-default.h ****   return 0;
 161:c:\progra~2\gnuarm~1\102021~1.10\arm-none-eabi\include\c++\10.3.1\arm-none-eabi\thumb\v7e-m+fp\hard\bits\gthr-default.h **** }
 162:c:\progra~2\gnuarm~1\102021~1.10\arm-none-eabi\include\c++\10.3.1\arm-none-eabi\thumb\v7e-m+fp\hard\bits\gthr-default.h **** 
 163:c:\progra~2\gnuarm~1\102021~1.10\arm-none-eabi\include\c++\10.3.1\arm-none-eabi\thumb\v7e-m+fp\hard\bits\gthr-default.h **** /* Unlock the mutex */
 164:c:\progra~2\gnuarm~1\102021~1.10\arm-none-eabi\include\c++\10.3.1\arm-none-eabi\thumb\v7e-m+fp\hard\bits\gthr-default.h **** static inline int
 165:c:\progra~2\gnuarm~1\102021~1.10\arm-none-eabi\include\c++\10.3.1\arm-none-eabi\thumb\v7e-m+fp\hard\bits\gthr-default.h **** __gthread_objc_mutex_unlock (objc_mutex_t mutex _GLIBCXX_UNUSED)
 166:c:\progra~2\gnuarm~1\102021~1.10\arm-none-eabi\include\c++\10.3.1\arm-none-eabi\thumb\v7e-m+fp\hard\bits\gthr-default.h **** {
 167:c:\progra~2\gnuarm~1\102021~1.10\arm-none-eabi\include\c++\10.3.1\arm-none-eabi\thumb\v7e-m+fp\hard\bits\gthr-default.h ****   return 0;
 168:c:\progra~2\gnuarm~1\102021~1.10\arm-none-eabi\include\c++\10.3.1\arm-none-eabi\thumb\v7e-m+fp\hard\bits\gthr-default.h **** }
 169:c:\progra~2\gnuarm~1\102021~1.10\arm-none-eabi\include\c++\10.3.1\arm-none-eabi\thumb\v7e-m+fp\hard\bits\gthr-default.h **** 
 170:c:\progra~2\gnuarm~1\102021~1.10\arm-none-eabi\include\c++\10.3.1\arm-none-eabi\thumb\v7e-m+fp\hard\bits\gthr-default.h **** /* Backend condition mutex functions */
 171:c:\progra~2\gnuarm~1\102021~1.10\arm-none-eabi\include\c++\10.3.1\arm-none-eabi\thumb\v7e-m+fp\hard\bits\gthr-default.h **** 
 172:c:\progra~2\gnuarm~1\102021~1.10\arm-none-eabi\include\c++\10.3.1\arm-none-eabi\thumb\v7e-m+fp\hard\bits\gthr-default.h **** /* Allocate a condition.  */
 173:c:\progra~2\gnuarm~1\102021~1.10\arm-none-eabi\include\c++\10.3.1\arm-none-eabi\thumb\v7e-m+fp\hard\bits\gthr-default.h **** static inline int
 174:c:\progra~2\gnuarm~1\102021~1.10\arm-none-eabi\include\c++\10.3.1\arm-none-eabi\thumb\v7e-m+fp\hard\bits\gthr-default.h **** __gthread_objc_condition_allocate (objc_condition_t condition _GLIBCXX_UNUSED)
 175:c:\progra~2\gnuarm~1\102021~1.10\arm-none-eabi\include\c++\10.3.1\arm-none-eabi\thumb\v7e-m+fp\hard\bits\gthr-default.h **** {
 176:c:\progra~2\gnuarm~1\102021~1.10\arm-none-eabi\include\c++\10.3.1\arm-none-eabi\thumb\v7e-m+fp\hard\bits\gthr-default.h ****   return 0;
 177:c:\progra~2\gnuarm~1\102021~1.10\arm-none-eabi\include\c++\10.3.1\arm-none-eabi\thumb\v7e-m+fp\hard\bits\gthr-default.h **** }
 178:c:\progra~2\gnuarm~1\102021~1.10\arm-none-eabi\include\c++\10.3.1\arm-none-eabi\thumb\v7e-m+fp\hard\bits\gthr-default.h **** 
 179:c:\progra~2\gnuarm~1\102021~1.10\arm-none-eabi\include\c++\10.3.1\arm-none-eabi\thumb\v7e-m+fp\hard\bits\gthr-default.h **** /* Deallocate a condition.  */
 180:c:\progra~2\gnuarm~1\102021~1.10\arm-none-eabi\include\c++\10.3.1\arm-none-eabi\thumb\v7e-m+fp\hard\bits\gthr-default.h **** static inline int
 181:c:\progra~2\gnuarm~1\102021~1.10\arm-none-eabi\include\c++\10.3.1\arm-none-eabi\thumb\v7e-m+fp\hard\bits\gthr-default.h **** __gthread_objc_condition_deallocate (objc_condition_t condition _GLIBCXX_UNUSED)
 182:c:\progra~2\gnuarm~1\102021~1.10\arm-none-eabi\include\c++\10.3.1\arm-none-eabi\thumb\v7e-m+fp\hard\bits\gthr-default.h **** {
 183:c:\progra~2\gnuarm~1\102021~1.10\arm-none-eabi\include\c++\10.3.1\arm-none-eabi\thumb\v7e-m+fp\hard\bits\gthr-default.h ****   return 0;
 184:c:\progra~2\gnuarm~1\102021~1.10\arm-none-eabi\include\c++\10.3.1\arm-none-eabi\thumb\v7e-m+fp\hard\bits\gthr-default.h **** }
 185:c:\progra~2\gnuarm~1\102021~1.10\arm-none-eabi\include\c++\10.3.1\arm-none-eabi\thumb\v7e-m+fp\hard\bits\gthr-default.h **** 
 186:c:\progra~2\gnuarm~1\102021~1.10\arm-none-eabi\include\c++\10.3.1\arm-none-eabi\thumb\v7e-m+fp\hard\bits\gthr-default.h **** /* Wait on the condition */
 187:c:\progra~2\gnuarm~1\102021~1.10\arm-none-eabi\include\c++\10.3.1\arm-none-eabi\thumb\v7e-m+fp\hard\bits\gthr-default.h **** static inline int
 188:c:\progra~2\gnuarm~1\102021~1.10\arm-none-eabi\include\c++\10.3.1\arm-none-eabi\thumb\v7e-m+fp\hard\bits\gthr-default.h **** __gthread_objc_condition_wait (objc_condition_t condition _GLIBCXX_UNUSED,
 189:c:\progra~2\gnuarm~1\102021~1.10\arm-none-eabi\include\c++\10.3.1\arm-none-eabi\thumb\v7e-m+fp\hard\bits\gthr-default.h **** 			       objc_mutex_t mutex _GLIBCXX_UNUSED)
 190:c:\progra~2\gnuarm~1\102021~1.10\arm-none-eabi\include\c++\10.3.1\arm-none-eabi\thumb\v7e-m+fp\hard\bits\gthr-default.h **** {
 191:c:\progra~2\gnuarm~1\102021~1.10\arm-none-eabi\include\c++\10.3.1\arm-none-eabi\thumb\v7e-m+fp\hard\bits\gthr-default.h ****   return 0;
 192:c:\progra~2\gnuarm~1\102021~1.10\arm-none-eabi\include\c++\10.3.1\arm-none-eabi\thumb\v7e-m+fp\hard\bits\gthr-default.h **** }
 193:c:\progra~2\gnuarm~1\102021~1.10\arm-none-eabi\include\c++\10.3.1\arm-none-eabi\thumb\v7e-m+fp\hard\bits\gthr-default.h **** 
 194:c:\progra~2\gnuarm~1\102021~1.10\arm-none-eabi\include\c++\10.3.1\arm-none-eabi\thumb\v7e-m+fp\hard\bits\gthr-default.h **** /* Wake up all threads waiting on this condition.  */
 195:c:\progra~2\gnuarm~1\102021~1.10\arm-none-eabi\include\c++\10.3.1\arm-none-eabi\thumb\v7e-m+fp\hard\bits\gthr-default.h **** static inline int
ARM GAS   			page 5


 196:c:\progra~2\gnuarm~1\102021~1.10\arm-none-eabi\include\c++\10.3.1\arm-none-eabi\thumb\v7e-m+fp\hard\bits\gthr-default.h **** __gthread_objc_condition_broadcast (objc_condition_t condition _GLIBCXX_UNUSED)
 197:c:\progra~2\gnuarm~1\102021~1.10\arm-none-eabi\include\c++\10.3.1\arm-none-eabi\thumb\v7e-m+fp\hard\bits\gthr-default.h **** {
 198:c:\progra~2\gnuarm~1\102021~1.10\arm-none-eabi\include\c++\10.3.1\arm-none-eabi\thumb\v7e-m+fp\hard\bits\gthr-default.h ****   return 0;
 199:c:\progra~2\gnuarm~1\102021~1.10\arm-none-eabi\include\c++\10.3.1\arm-none-eabi\thumb\v7e-m+fp\hard\bits\gthr-default.h **** }
 200:c:\progra~2\gnuarm~1\102021~1.10\arm-none-eabi\include\c++\10.3.1\arm-none-eabi\thumb\v7e-m+fp\hard\bits\gthr-default.h **** 
 201:c:\progra~2\gnuarm~1\102021~1.10\arm-none-eabi\include\c++\10.3.1\arm-none-eabi\thumb\v7e-m+fp\hard\bits\gthr-default.h **** /* Wake up one thread waiting on this condition.  */
 202:c:\progra~2\gnuarm~1\102021~1.10\arm-none-eabi\include\c++\10.3.1\arm-none-eabi\thumb\v7e-m+fp\hard\bits\gthr-default.h **** static inline int
 203:c:\progra~2\gnuarm~1\102021~1.10\arm-none-eabi\include\c++\10.3.1\arm-none-eabi\thumb\v7e-m+fp\hard\bits\gthr-default.h **** __gthread_objc_condition_signal (objc_condition_t condition _GLIBCXX_UNUSED)
 204:c:\progra~2\gnuarm~1\102021~1.10\arm-none-eabi\include\c++\10.3.1\arm-none-eabi\thumb\v7e-m+fp\hard\bits\gthr-default.h **** {
 205:c:\progra~2\gnuarm~1\102021~1.10\arm-none-eabi\include\c++\10.3.1\arm-none-eabi\thumb\v7e-m+fp\hard\bits\gthr-default.h ****   return 0;
 206:c:\progra~2\gnuarm~1\102021~1.10\arm-none-eabi\include\c++\10.3.1\arm-none-eabi\thumb\v7e-m+fp\hard\bits\gthr-default.h **** }
 207:c:\progra~2\gnuarm~1\102021~1.10\arm-none-eabi\include\c++\10.3.1\arm-none-eabi\thumb\v7e-m+fp\hard\bits\gthr-default.h **** 
 208:c:\progra~2\gnuarm~1\102021~1.10\arm-none-eabi\include\c++\10.3.1\arm-none-eabi\thumb\v7e-m+fp\hard\bits\gthr-default.h **** #else /* _LIBOBJC */
 209:c:\progra~2\gnuarm~1\102021~1.10\arm-none-eabi\include\c++\10.3.1\arm-none-eabi\thumb\v7e-m+fp\hard\bits\gthr-default.h **** 
 210:c:\progra~2\gnuarm~1\102021~1.10\arm-none-eabi\include\c++\10.3.1\arm-none-eabi\thumb\v7e-m+fp\hard\bits\gthr-default.h **** static inline int
 211:c:\progra~2\gnuarm~1\102021~1.10\arm-none-eabi\include\c++\10.3.1\arm-none-eabi\thumb\v7e-m+fp\hard\bits\gthr-default.h **** __gthread_active_p (void)
 212:c:\progra~2\gnuarm~1\102021~1.10\arm-none-eabi\include\c++\10.3.1\arm-none-eabi\thumb\v7e-m+fp\hard\bits\gthr-default.h **** {
 213:c:\progra~2\gnuarm~1\102021~1.10\arm-none-eabi\include\c++\10.3.1\arm-none-eabi\thumb\v7e-m+fp\hard\bits\gthr-default.h ****   return 0;
 214:c:\progra~2\gnuarm~1\102021~1.10\arm-none-eabi\include\c++\10.3.1\arm-none-eabi\thumb\v7e-m+fp\hard\bits\gthr-default.h **** }
 215:c:\progra~2\gnuarm~1\102021~1.10\arm-none-eabi\include\c++\10.3.1\arm-none-eabi\thumb\v7e-m+fp\hard\bits\gthr-default.h **** 
 216:c:\progra~2\gnuarm~1\102021~1.10\arm-none-eabi\include\c++\10.3.1\arm-none-eabi\thumb\v7e-m+fp\hard\bits\gthr-default.h **** static inline int
 217:c:\progra~2\gnuarm~1\102021~1.10\arm-none-eabi\include\c++\10.3.1\arm-none-eabi\thumb\v7e-m+fp\hard\bits\gthr-default.h **** __gthread_once (__gthread_once_t *__once _GLIBCXX_UNUSED, void (*__func) (void) _GLIBCXX_UNUSED)
 218:c:\progra~2\gnuarm~1\102021~1.10\arm-none-eabi\include\c++\10.3.1\arm-none-eabi\thumb\v7e-m+fp\hard\bits\gthr-default.h **** {
 219:c:\progra~2\gnuarm~1\102021~1.10\arm-none-eabi\include\c++\10.3.1\arm-none-eabi\thumb\v7e-m+fp\hard\bits\gthr-default.h ****   return 0;
 220:c:\progra~2\gnuarm~1\102021~1.10\arm-none-eabi\include\c++\10.3.1\arm-none-eabi\thumb\v7e-m+fp\hard\bits\gthr-default.h **** }
 221:c:\progra~2\gnuarm~1\102021~1.10\arm-none-eabi\include\c++\10.3.1\arm-none-eabi\thumb\v7e-m+fp\hard\bits\gthr-default.h **** 
 222:c:\progra~2\gnuarm~1\102021~1.10\arm-none-eabi\include\c++\10.3.1\arm-none-eabi\thumb\v7e-m+fp\hard\bits\gthr-default.h **** static inline int _GLIBCXX_UNUSED
 223:c:\progra~2\gnuarm~1\102021~1.10\arm-none-eabi\include\c++\10.3.1\arm-none-eabi\thumb\v7e-m+fp\hard\bits\gthr-default.h **** __gthread_key_create (__gthread_key_t *__key _GLIBCXX_UNUSED, void (*__func) (void *) _GLIBCXX_UNUS
 224:c:\progra~2\gnuarm~1\102021~1.10\arm-none-eabi\include\c++\10.3.1\arm-none-eabi\thumb\v7e-m+fp\hard\bits\gthr-default.h **** {
 225:c:\progra~2\gnuarm~1\102021~1.10\arm-none-eabi\include\c++\10.3.1\arm-none-eabi\thumb\v7e-m+fp\hard\bits\gthr-default.h ****   return 0;
 226:c:\progra~2\gnuarm~1\102021~1.10\arm-none-eabi\include\c++\10.3.1\arm-none-eabi\thumb\v7e-m+fp\hard\bits\gthr-default.h **** }
 227:c:\progra~2\gnuarm~1\102021~1.10\arm-none-eabi\include\c++\10.3.1\arm-none-eabi\thumb\v7e-m+fp\hard\bits\gthr-default.h **** 
 228:c:\progra~2\gnuarm~1\102021~1.10\arm-none-eabi\include\c++\10.3.1\arm-none-eabi\thumb\v7e-m+fp\hard\bits\gthr-default.h **** static int _GLIBCXX_UNUSED
 229:c:\progra~2\gnuarm~1\102021~1.10\arm-none-eabi\include\c++\10.3.1\arm-none-eabi\thumb\v7e-m+fp\hard\bits\gthr-default.h **** __gthread_key_delete (__gthread_key_t __key _GLIBCXX_UNUSED)
 230:c:\progra~2\gnuarm~1\102021~1.10\arm-none-eabi\include\c++\10.3.1\arm-none-eabi\thumb\v7e-m+fp\hard\bits\gthr-default.h **** {
  34              	 .loc 1 230 1
  35              	 .cfi_startproc
  36              	 
  37              	 
  38              	 
  39 0000 80B4     	 push {r7}
  40              	 .cfi_def_cfa_offset 4
  41              	 .cfi_offset 7,-4
  42 0002 83B0     	 sub sp,sp,#12
  43              	 .cfi_def_cfa_offset 16
  44 0004 00AF     	 add r7,sp,#0
  45              	 .cfi_def_cfa_register 7
  46 0006 7860     	 str r0,[r7,#4]
 231:c:\progra~2\gnuarm~1\102021~1.10\arm-none-eabi\include\c++\10.3.1\arm-none-eabi\thumb\v7e-m+fp\hard\bits\gthr-default.h ****   return 0;
  47              	 .loc 1 231 10
  48 0008 0023     	 movs r3,#0
 232:c:\progra~2\gnuarm~1\102021~1.10\arm-none-eabi\include\c++\10.3.1\arm-none-eabi\thumb\v7e-m+fp\hard\bits\gthr-default.h **** }
  49              	 .loc 1 232 1
  50 000a 1846     	 mov r0,r3
  51 000c 0C37     	 adds r7,r7,#12
  52              	 .cfi_def_cfa_offset 4
  53 000e BD46     	 mov sp,r7
ARM GAS   			page 6


  54              	 .cfi_def_cfa_register 13
  55              	 
  56 0010 5DF8047B 	 ldr r7,[sp],#4
  57              	 .cfi_restore 7
  58              	 .cfi_def_cfa_offset 0
  59 0014 7047     	 bx lr
  60              	 .cfi_endproc
  61              	.LFE652:
  62              	 .size _ZL20__gthread_key_deletei,.-_ZL20__gthread_key_deletei
  63              	 .section .text._ZN12cpp_freertos9Semaphore4TakeEm,"ax",%progbits
  64              	 .align 1
  65              	 .global _ZN12cpp_freertos9Semaphore4TakeEm
  66              	 .syntax unified
  67              	 .thumb
  68              	 .thumb_func
  69              	 .type _ZN12cpp_freertos9Semaphore4TakeEm,%function
  70              	_ZN12cpp_freertos9Semaphore4TakeEm:
  71              	.LFB1032:
  72              	 .file 2 "C:\\Users\\niels\\Documents\\GitHub\\DSP\\software\\STM32Basis\\HAL\\gemeenschappelijk\\Third_Party\\freertos-addons-1.1.0\\c++\\Source\\csemaphore.cpp"
   1:C:\Users\niels\Documents\GitHub\DSP\software\STM32Basis\HAL\gemeenschappelijk\Third_Party\freertos-addons-1.1.0\c++\Source\csemaphore.cpp **** /****************************************************************************
   2:C:\Users\niels\Documents\GitHub\DSP\software\STM32Basis\HAL\gemeenschappelijk\Third_Party\freertos-addons-1.1.0\c++\Source\csemaphore.cpp ****  *
   3:C:\Users\niels\Documents\GitHub\DSP\software\STM32Basis\HAL\gemeenschappelijk\Third_Party\freertos-addons-1.1.0\c++\Source\csemaphore.cpp ****  *  Copyright (c) 2016, Michael Becker (michael.f.becker@gmail.com)
   4:C:\Users\niels\Documents\GitHub\DSP\software\STM32Basis\HAL\gemeenschappelijk\Third_Party\freertos-addons-1.1.0\c++\Source\csemaphore.cpp ****  *
   5:C:\Users\niels\Documents\GitHub\DSP\software\STM32Basis\HAL\gemeenschappelijk\Third_Party\freertos-addons-1.1.0\c++\Source\csemaphore.cpp ****  *  This file is part of the FreeRTOS C++ Wrappers project.
   6:C:\Users\niels\Documents\GitHub\DSP\software\STM32Basis\HAL\gemeenschappelijk\Third_Party\freertos-addons-1.1.0\c++\Source\csemaphore.cpp ****  *
   7:C:\Users\niels\Documents\GitHub\DSP\software\STM32Basis\HAL\gemeenschappelijk\Third_Party\freertos-addons-1.1.0\c++\Source\csemaphore.cpp ****  *  The FreeRTOS C++ Wrappers project is free software: you can redistribute
   8:C:\Users\niels\Documents\GitHub\DSP\software\STM32Basis\HAL\gemeenschappelijk\Third_Party\freertos-addons-1.1.0\c++\Source\csemaphore.cpp ****  *  it and/or modify it under the terms of the GNU General Public License as
   9:C:\Users\niels\Documents\GitHub\DSP\software\STM32Basis\HAL\gemeenschappelijk\Third_Party\freertos-addons-1.1.0\c++\Source\csemaphore.cpp ****  *  published by the Free Software Foundation, either version 2
  10:C:\Users\niels\Documents\GitHub\DSP\software\STM32Basis\HAL\gemeenschappelijk\Third_Party\freertos-addons-1.1.0\c++\Source\csemaphore.cpp ****  *  of the License, or (at your option) any later version.
  11:C:\Users\niels\Documents\GitHub\DSP\software\STM32Basis\HAL\gemeenschappelijk\Third_Party\freertos-addons-1.1.0\c++\Source\csemaphore.cpp ****  *
  12:C:\Users\niels\Documents\GitHub\DSP\software\STM32Basis\HAL\gemeenschappelijk\Third_Party\freertos-addons-1.1.0\c++\Source\csemaphore.cpp ****  *  The FreeRTOS C++ Wrappers project is distributed in the hope that it will
  13:C:\Users\niels\Documents\GitHub\DSP\software\STM32Basis\HAL\gemeenschappelijk\Third_Party\freertos-addons-1.1.0\c++\Source\csemaphore.cpp ****  *  be useful, but WITHOUT ANY WARRANTY; without even the implied warranty of
  14:C:\Users\niels\Documents\GitHub\DSP\software\STM32Basis\HAL\gemeenschappelijk\Third_Party\freertos-addons-1.1.0\c++\Source\csemaphore.cpp ****  *  MERCHANTABILITY or FITNESS FOR A PARTICULAR PURPOSE.  See the
  15:C:\Users\niels\Documents\GitHub\DSP\software\STM32Basis\HAL\gemeenschappelijk\Third_Party\freertos-addons-1.1.0\c++\Source\csemaphore.cpp ****  *  GNU General Public License for more details.
  16:C:\Users\niels\Documents\GitHub\DSP\software\STM32Basis\HAL\gemeenschappelijk\Third_Party\freertos-addons-1.1.0\c++\Source\csemaphore.cpp ****  *
  17:C:\Users\niels\Documents\GitHub\DSP\software\STM32Basis\HAL\gemeenschappelijk\Third_Party\freertos-addons-1.1.0\c++\Source\csemaphore.cpp ****  *  You should have received a copy of the GNU General Public License
  18:C:\Users\niels\Documents\GitHub\DSP\software\STM32Basis\HAL\gemeenschappelijk\Third_Party\freertos-addons-1.1.0\c++\Source\csemaphore.cpp ****  *  along with the FreeRTOS C++ Wrappers project.
  19:C:\Users\niels\Documents\GitHub\DSP\software\STM32Basis\HAL\gemeenschappelijk\Third_Party\freertos-addons-1.1.0\c++\Source\csemaphore.cpp ****  *  If not, see <http://www.gnu.org/licenses/>.
  20:C:\Users\niels\Documents\GitHub\DSP\software\STM32Basis\HAL\gemeenschappelijk\Third_Party\freertos-addons-1.1.0\c++\Source\csemaphore.cpp ****  *
  21:C:\Users\niels\Documents\GitHub\DSP\software\STM32Basis\HAL\gemeenschappelijk\Third_Party\freertos-addons-1.1.0\c++\Source\csemaphore.cpp ****  ***************************************************************************/
  22:C:\Users\niels\Documents\GitHub\DSP\software\STM32Basis\HAL\gemeenschappelijk\Third_Party\freertos-addons-1.1.0\c++\Source\csemaphore.cpp **** #include <assert.h>
  23:C:\Users\niels\Documents\GitHub\DSP\software\STM32Basis\HAL\gemeenschappelijk\Third_Party\freertos-addons-1.1.0\c++\Source\csemaphore.cpp **** #include "semaphore.hpp"
  24:C:\Users\niels\Documents\GitHub\DSP\software\STM32Basis\HAL\gemeenschappelijk\Third_Party\freertos-addons-1.1.0\c++\Source\csemaphore.cpp **** 
  25:C:\Users\niels\Documents\GitHub\DSP\software\STM32Basis\HAL\gemeenschappelijk\Third_Party\freertos-addons-1.1.0\c++\Source\csemaphore.cpp **** 
  26:C:\Users\niels\Documents\GitHub\DSP\software\STM32Basis\HAL\gemeenschappelijk\Third_Party\freertos-addons-1.1.0\c++\Source\csemaphore.cpp **** using namespace cpp_freertos;
  27:C:\Users\niels\Documents\GitHub\DSP\software\STM32Basis\HAL\gemeenschappelijk\Third_Party\freertos-addons-1.1.0\c++\Source\csemaphore.cpp **** 
  28:C:\Users\niels\Documents\GitHub\DSP\software\STM32Basis\HAL\gemeenschappelijk\Third_Party\freertos-addons-1.1.0\c++\Source\csemaphore.cpp **** 
  29:C:\Users\niels\Documents\GitHub\DSP\software\STM32Basis\HAL\gemeenschappelijk\Third_Party\freertos-addons-1.1.0\c++\Source\csemaphore.cpp **** bool Semaphore::Take(TickType_t xBlockTime)
  30:C:\Users\niels\Documents\GitHub\DSP\software\STM32Basis\HAL\gemeenschappelijk\Third_Party\freertos-addons-1.1.0\c++\Source\csemaphore.cpp **** {
  73              	 .loc 2 30 1
  74              	 .cfi_startproc
  75              	 
  76              	 
  77 0000 80B5     	 push {r7,lr}
  78              	 .cfi_def_cfa_offset 8
  79              	 .cfi_offset 7,-8
  80              	 .cfi_offset 14,-4
ARM GAS   			page 7


  81 0002 84B0     	 sub sp,sp,#16
  82              	 .cfi_def_cfa_offset 24
  83 0004 00AF     	 add r7,sp,#0
  84              	 .cfi_def_cfa_register 7
  85 0006 7860     	 str r0,[r7,#4]
  86 0008 3960     	 str r1,[r7]
  31:C:\Users\niels\Documents\GitHub\DSP\software\STM32Basis\HAL\gemeenschappelijk\Third_Party\freertos-addons-1.1.0\c++\Source\csemaphore.cpp ****     BaseType_t success;
  32:C:\Users\niels\Documents\GitHub\DSP\software\STM32Basis\HAL\gemeenschappelijk\Third_Party\freertos-addons-1.1.0\c++\Source\csemaphore.cpp **** 
  33:C:\Users\niels\Documents\GitHub\DSP\software\STM32Basis\HAL\gemeenschappelijk\Third_Party\freertos-addons-1.1.0\c++\Source\csemaphore.cpp ****     success = xSemaphoreTake(handle, xBlockTime);
  87              	 .loc 2 33 15
  88 000a 7B68     	 ldr r3,[r7,#4]
  89 000c 5868     	 ldr r0,[r3,#4]
  90 000e 0023     	 movs r3,#0
  91 0010 3A68     	 ldr r2,[r7]
  92 0012 0021     	 movs r1,#0
  93 0014 FFF7FEFF 	 bl xQueueGenericReceive
  94 0018 F860     	 str r0,[r7,#12]
  34:C:\Users\niels\Documents\GitHub\DSP\software\STM32Basis\HAL\gemeenschappelijk\Third_Party\freertos-addons-1.1.0\c++\Source\csemaphore.cpp **** 
  35:C:\Users\niels\Documents\GitHub\DSP\software\STM32Basis\HAL\gemeenschappelijk\Third_Party\freertos-addons-1.1.0\c++\Source\csemaphore.cpp ****     return success == pdTRUE ? true : false;
  95              	 .loc 2 35 39
  96 001a FB68     	 ldr r3,[r7,#12]
  97 001c 012B     	 cmp r3,#1
  98 001e 0CBF     	 ite eq
  99 0020 0123     	 moveq r3,#1
 100 0022 0023     	 movne r3,#0
 101 0024 DBB2     	 uxtb r3,r3
  36:C:\Users\niels\Documents\GitHub\DSP\software\STM32Basis\HAL\gemeenschappelijk\Third_Party\freertos-addons-1.1.0\c++\Source\csemaphore.cpp **** }
 102              	 .loc 2 36 1
 103 0026 1846     	 mov r0,r3
 104 0028 1037     	 adds r7,r7,#16
 105              	 .cfi_def_cfa_offset 8
 106 002a BD46     	 mov sp,r7
 107              	 .cfi_def_cfa_register 13
 108              	 
 109 002c 80BD     	 pop {r7,pc}
 110              	 .cfi_endproc
 111              	.LFE1032:
 112              	 .size _ZN12cpp_freertos9Semaphore4TakeEm,.-_ZN12cpp_freertos9Semaphore4TakeEm
 113              	 .section .text._ZN12cpp_freertos9Semaphore11TakeFromISREPl,"ax",%progbits
 114              	 .align 1
 115              	 .global _ZN12cpp_freertos9Semaphore11TakeFromISREPl
 116              	 .syntax unified
 117              	 .thumb
 118              	 .thumb_func
 119              	 .type _ZN12cpp_freertos9Semaphore11TakeFromISREPl,%function
 120              	_ZN12cpp_freertos9Semaphore11TakeFromISREPl:
 121              	.LFB1033:
  37:C:\Users\niels\Documents\GitHub\DSP\software\STM32Basis\HAL\gemeenschappelijk\Third_Party\freertos-addons-1.1.0\c++\Source\csemaphore.cpp **** 
  38:C:\Users\niels\Documents\GitHub\DSP\software\STM32Basis\HAL\gemeenschappelijk\Third_Party\freertos-addons-1.1.0\c++\Source\csemaphore.cpp **** 
  39:C:\Users\niels\Documents\GitHub\DSP\software\STM32Basis\HAL\gemeenschappelijk\Third_Party\freertos-addons-1.1.0\c++\Source\csemaphore.cpp **** bool Semaphore::TakeFromISR(BaseType_t *pxHigherPriorityTaskWoken)
  40:C:\Users\niels\Documents\GitHub\DSP\software\STM32Basis\HAL\gemeenschappelijk\Third_Party\freertos-addons-1.1.0\c++\Source\csemaphore.cpp **** {
 122              	 .loc 2 40 1
 123              	 .cfi_startproc
 124              	 
 125              	 
 126 0000 80B5     	 push {r7,lr}
 127              	 .cfi_def_cfa_offset 8
ARM GAS   			page 8


 128              	 .cfi_offset 7,-8
 129              	 .cfi_offset 14,-4
 130 0002 84B0     	 sub sp,sp,#16
 131              	 .cfi_def_cfa_offset 24
 132 0004 00AF     	 add r7,sp,#0
 133              	 .cfi_def_cfa_register 7
 134 0006 7860     	 str r0,[r7,#4]
 135 0008 3960     	 str r1,[r7]
  41:C:\Users\niels\Documents\GitHub\DSP\software\STM32Basis\HAL\gemeenschappelijk\Third_Party\freertos-addons-1.1.0\c++\Source\csemaphore.cpp ****     BaseType_t success;
  42:C:\Users\niels\Documents\GitHub\DSP\software\STM32Basis\HAL\gemeenschappelijk\Third_Party\freertos-addons-1.1.0\c++\Source\csemaphore.cpp **** 
  43:C:\Users\niels\Documents\GitHub\DSP\software\STM32Basis\HAL\gemeenschappelijk\Third_Party\freertos-addons-1.1.0\c++\Source\csemaphore.cpp ****     success = xSemaphoreTakeFromISR(handle, pxHigherPriorityTaskWoken);
 136              	 .loc 2 43 15
 137 000a 7B68     	 ldr r3,[r7,#4]
 138 000c 5B68     	 ldr r3,[r3,#4]
 139 000e 3A68     	 ldr r2,[r7]
 140 0010 0021     	 movs r1,#0
 141 0012 1846     	 mov r0,r3
 142 0014 FFF7FEFF 	 bl xQueueReceiveFromISR
 143 0018 F860     	 str r0,[r7,#12]
  44:C:\Users\niels\Documents\GitHub\DSP\software\STM32Basis\HAL\gemeenschappelijk\Third_Party\freertos-addons-1.1.0\c++\Source\csemaphore.cpp **** 
  45:C:\Users\niels\Documents\GitHub\DSP\software\STM32Basis\HAL\gemeenschappelijk\Third_Party\freertos-addons-1.1.0\c++\Source\csemaphore.cpp ****     return success == pdTRUE ? true : false;
 144              	 .loc 2 45 39
 145 001a FB68     	 ldr r3,[r7,#12]
 146 001c 012B     	 cmp r3,#1
 147 001e 0CBF     	 ite eq
 148 0020 0123     	 moveq r3,#1
 149 0022 0023     	 movne r3,#0
 150 0024 DBB2     	 uxtb r3,r3
  46:C:\Users\niels\Documents\GitHub\DSP\software\STM32Basis\HAL\gemeenschappelijk\Third_Party\freertos-addons-1.1.0\c++\Source\csemaphore.cpp **** }
 151              	 .loc 2 46 1
 152 0026 1846     	 mov r0,r3
 153 0028 1037     	 adds r7,r7,#16
 154              	 .cfi_def_cfa_offset 8
 155 002a BD46     	 mov sp,r7
 156              	 .cfi_def_cfa_register 13
 157              	 
 158 002c 80BD     	 pop {r7,pc}
 159              	 .cfi_endproc
 160              	.LFE1033:
 161              	 .size _ZN12cpp_freertos9Semaphore11TakeFromISREPl,.-_ZN12cpp_freertos9Semaphore11TakeFromISREPl
 162              	 .section .text._ZN12cpp_freertos9Semaphore4GiveEv,"ax",%progbits
 163              	 .align 1
 164              	 .global _ZN12cpp_freertos9Semaphore4GiveEv
 165              	 .syntax unified
 166              	 .thumb
 167              	 .thumb_func
 168              	 .type _ZN12cpp_freertos9Semaphore4GiveEv,%function
 169              	_ZN12cpp_freertos9Semaphore4GiveEv:
 170              	.LFB1034:
  47:C:\Users\niels\Documents\GitHub\DSP\software\STM32Basis\HAL\gemeenschappelijk\Third_Party\freertos-addons-1.1.0\c++\Source\csemaphore.cpp **** 
  48:C:\Users\niels\Documents\GitHub\DSP\software\STM32Basis\HAL\gemeenschappelijk\Third_Party\freertos-addons-1.1.0\c++\Source\csemaphore.cpp **** 
  49:C:\Users\niels\Documents\GitHub\DSP\software\STM32Basis\HAL\gemeenschappelijk\Third_Party\freertos-addons-1.1.0\c++\Source\csemaphore.cpp **** bool Semaphore::Give()
  50:C:\Users\niels\Documents\GitHub\DSP\software\STM32Basis\HAL\gemeenschappelijk\Third_Party\freertos-addons-1.1.0\c++\Source\csemaphore.cpp **** {
 171              	 .loc 2 50 1
 172              	 .cfi_startproc
 173              	 
 174              	 
ARM GAS   			page 9


 175 0000 80B5     	 push {r7,lr}
 176              	 .cfi_def_cfa_offset 8
 177              	 .cfi_offset 7,-8
 178              	 .cfi_offset 14,-4
 179 0002 84B0     	 sub sp,sp,#16
 180              	 .cfi_def_cfa_offset 24
 181 0004 00AF     	 add r7,sp,#0
 182              	 .cfi_def_cfa_register 7
 183 0006 7860     	 str r0,[r7,#4]
  51:C:\Users\niels\Documents\GitHub\DSP\software\STM32Basis\HAL\gemeenschappelijk\Third_Party\freertos-addons-1.1.0\c++\Source\csemaphore.cpp ****     BaseType_t success;
  52:C:\Users\niels\Documents\GitHub\DSP\software\STM32Basis\HAL\gemeenschappelijk\Third_Party\freertos-addons-1.1.0\c++\Source\csemaphore.cpp **** 
  53:C:\Users\niels\Documents\GitHub\DSP\software\STM32Basis\HAL\gemeenschappelijk\Third_Party\freertos-addons-1.1.0\c++\Source\csemaphore.cpp ****     success = xSemaphoreGive(handle);
 184              	 .loc 2 53 15
 185 0008 7B68     	 ldr r3,[r7,#4]
 186 000a 5868     	 ldr r0,[r3,#4]
 187 000c 0023     	 movs r3,#0
 188 000e 0022     	 movs r2,#0
 189 0010 0021     	 movs r1,#0
 190 0012 FFF7FEFF 	 bl xQueueGenericSend
 191 0016 F860     	 str r0,[r7,#12]
  54:C:\Users\niels\Documents\GitHub\DSP\software\STM32Basis\HAL\gemeenschappelijk\Third_Party\freertos-addons-1.1.0\c++\Source\csemaphore.cpp **** 
  55:C:\Users\niels\Documents\GitHub\DSP\software\STM32Basis\HAL\gemeenschappelijk\Third_Party\freertos-addons-1.1.0\c++\Source\csemaphore.cpp ****     return success == pdTRUE ? true : false;
 192              	 .loc 2 55 39
 193 0018 FB68     	 ldr r3,[r7,#12]
 194 001a 012B     	 cmp r3,#1
 195 001c 0CBF     	 ite eq
 196 001e 0123     	 moveq r3,#1
 197 0020 0023     	 movne r3,#0
 198 0022 DBB2     	 uxtb r3,r3
  56:C:\Users\niels\Documents\GitHub\DSP\software\STM32Basis\HAL\gemeenschappelijk\Third_Party\freertos-addons-1.1.0\c++\Source\csemaphore.cpp **** }
 199              	 .loc 2 56 1
 200 0024 1846     	 mov r0,r3
 201 0026 1037     	 adds r7,r7,#16
 202              	 .cfi_def_cfa_offset 8
 203 0028 BD46     	 mov sp,r7
 204              	 .cfi_def_cfa_register 13
 205              	 
 206 002a 80BD     	 pop {r7,pc}
 207              	 .cfi_endproc
 208              	.LFE1034:
 209              	 .size _ZN12cpp_freertos9Semaphore4GiveEv,.-_ZN12cpp_freertos9Semaphore4GiveEv
 210              	 .section .text._ZN12cpp_freertos9Semaphore11GiveFromISREPl,"ax",%progbits
 211              	 .align 1
 212              	 .global _ZN12cpp_freertos9Semaphore11GiveFromISREPl
 213              	 .syntax unified
 214              	 .thumb
 215              	 .thumb_func
 216              	 .type _ZN12cpp_freertos9Semaphore11GiveFromISREPl,%function
 217              	_ZN12cpp_freertos9Semaphore11GiveFromISREPl:
 218              	.LFB1035:
  57:C:\Users\niels\Documents\GitHub\DSP\software\STM32Basis\HAL\gemeenschappelijk\Third_Party\freertos-addons-1.1.0\c++\Source\csemaphore.cpp **** 
  58:C:\Users\niels\Documents\GitHub\DSP\software\STM32Basis\HAL\gemeenschappelijk\Third_Party\freertos-addons-1.1.0\c++\Source\csemaphore.cpp **** 
  59:C:\Users\niels\Documents\GitHub\DSP\software\STM32Basis\HAL\gemeenschappelijk\Third_Party\freertos-addons-1.1.0\c++\Source\csemaphore.cpp **** bool Semaphore::GiveFromISR(BaseType_t *pxHigherPriorityTaskWoken)
  60:C:\Users\niels\Documents\GitHub\DSP\software\STM32Basis\HAL\gemeenschappelijk\Third_Party\freertos-addons-1.1.0\c++\Source\csemaphore.cpp **** {
 219              	 .loc 2 60 1
 220              	 .cfi_startproc
 221              	 
ARM GAS   			page 10


 222              	 
 223 0000 80B5     	 push {r7,lr}
 224              	 .cfi_def_cfa_offset 8
 225              	 .cfi_offset 7,-8
 226              	 .cfi_offset 14,-4
 227 0002 84B0     	 sub sp,sp,#16
 228              	 .cfi_def_cfa_offset 24
 229 0004 00AF     	 add r7,sp,#0
 230              	 .cfi_def_cfa_register 7
 231 0006 7860     	 str r0,[r7,#4]
 232 0008 3960     	 str r1,[r7]
  61:C:\Users\niels\Documents\GitHub\DSP\software\STM32Basis\HAL\gemeenschappelijk\Third_Party\freertos-addons-1.1.0\c++\Source\csemaphore.cpp ****     BaseType_t success;
  62:C:\Users\niels\Documents\GitHub\DSP\software\STM32Basis\HAL\gemeenschappelijk\Third_Party\freertos-addons-1.1.0\c++\Source\csemaphore.cpp **** 
  63:C:\Users\niels\Documents\GitHub\DSP\software\STM32Basis\HAL\gemeenschappelijk\Third_Party\freertos-addons-1.1.0\c++\Source\csemaphore.cpp ****     success = xSemaphoreGiveFromISR(handle, pxHigherPriorityTaskWoken);
 233              	 .loc 2 63 15
 234 000a 7B68     	 ldr r3,[r7,#4]
 235 000c 5B68     	 ldr r3,[r3,#4]
 236 000e 3968     	 ldr r1,[r7]
 237 0010 1846     	 mov r0,r3
 238 0012 FFF7FEFF 	 bl xQueueGiveFromISR
 239 0016 F860     	 str r0,[r7,#12]
  64:C:\Users\niels\Documents\GitHub\DSP\software\STM32Basis\HAL\gemeenschappelijk\Third_Party\freertos-addons-1.1.0\c++\Source\csemaphore.cpp **** 
  65:C:\Users\niels\Documents\GitHub\DSP\software\STM32Basis\HAL\gemeenschappelijk\Third_Party\freertos-addons-1.1.0\c++\Source\csemaphore.cpp ****     return success == pdTRUE ? true : false;
 240              	 .loc 2 65 39
 241 0018 FB68     	 ldr r3,[r7,#12]
 242 001a 012B     	 cmp r3,#1
 243 001c 0CBF     	 ite eq
 244 001e 0123     	 moveq r3,#1
 245 0020 0023     	 movne r3,#0
 246 0022 DBB2     	 uxtb r3,r3
  66:C:\Users\niels\Documents\GitHub\DSP\software\STM32Basis\HAL\gemeenschappelijk\Third_Party\freertos-addons-1.1.0\c++\Source\csemaphore.cpp **** }
 247              	 .loc 2 66 1
 248 0024 1846     	 mov r0,r3
 249 0026 1037     	 adds r7,r7,#16
 250              	 .cfi_def_cfa_offset 8
 251 0028 BD46     	 mov sp,r7
 252              	 .cfi_def_cfa_register 13
 253              	 
 254 002a 80BD     	 pop {r7,pc}
 255              	 .cfi_endproc
 256              	.LFE1035:
 257              	 .size _ZN12cpp_freertos9Semaphore11GiveFromISREPl,.-_ZN12cpp_freertos9Semaphore11GiveFromISREPl
 258              	 .section .text._ZN12cpp_freertos9SemaphoreD2Ev,"ax",%progbits
 259              	 .align 1
 260              	 .global _ZN12cpp_freertos9SemaphoreD2Ev
 261              	 .syntax unified
 262              	 .thumb
 263              	 .thumb_func
 264              	 .type _ZN12cpp_freertos9SemaphoreD2Ev,%function
 265              	_ZN12cpp_freertos9SemaphoreD2Ev:
 266              	.LFB1037:
  67:C:\Users\niels\Documents\GitHub\DSP\software\STM32Basis\HAL\gemeenschappelijk\Third_Party\freertos-addons-1.1.0\c++\Source\csemaphore.cpp **** 
  68:C:\Users\niels\Documents\GitHub\DSP\software\STM32Basis\HAL\gemeenschappelijk\Third_Party\freertos-addons-1.1.0\c++\Source\csemaphore.cpp **** 
  69:C:\Users\niels\Documents\GitHub\DSP\software\STM32Basis\HAL\gemeenschappelijk\Third_Party\freertos-addons-1.1.0\c++\Source\csemaphore.cpp **** Semaphore::~Semaphore()
 267              	 .loc 2 69 1
 268              	 .cfi_startproc
 269              	 
ARM GAS   			page 11


 270              	 
 271 0000 80B5     	 push {r7,lr}
 272              	 .cfi_def_cfa_offset 8
 273              	 .cfi_offset 7,-8
 274              	 .cfi_offset 14,-4
 275 0002 82B0     	 sub sp,sp,#8
 276              	 .cfi_def_cfa_offset 16
 277 0004 00AF     	 add r7,sp,#0
 278              	 .cfi_def_cfa_register 7
 279 0006 7860     	 str r0,[r7,#4]
 280              	.LBB2:
 281              	 .loc 2 69 23
 282 0008 064A     	 ldr r2,.L13
 283 000a 7B68     	 ldr r3,[r7,#4]
 284 000c 1A60     	 str r2,[r3]
  70:C:\Users\niels\Documents\GitHub\DSP\software\STM32Basis\HAL\gemeenschappelijk\Third_Party\freertos-addons-1.1.0\c++\Source\csemaphore.cpp **** {
  71:C:\Users\niels\Documents\GitHub\DSP\software\STM32Basis\HAL\gemeenschappelijk\Third_Party\freertos-addons-1.1.0\c++\Source\csemaphore.cpp ****     vSemaphoreDelete(handle);
 285              	 .loc 2 71 5
 286 000e 7B68     	 ldr r3,[r7,#4]
 287 0010 5B68     	 ldr r3,[r3,#4]
 288 0012 1846     	 mov r0,r3
 289 0014 FFF7FEFF 	 bl vQueueDelete
 290              	.LBE2:
  72:C:\Users\niels\Documents\GitHub\DSP\software\STM32Basis\HAL\gemeenschappelijk\Third_Party\freertos-addons-1.1.0\c++\Source\csemaphore.cpp **** }
 291              	 .loc 2 72 1
 292 0018 7B68     	 ldr r3,[r7,#4]
 293 001a 1846     	 mov r0,r3
 294 001c 0837     	 adds r7,r7,#8
 295              	 .cfi_def_cfa_offset 8
 296 001e BD46     	 mov sp,r7
 297              	 .cfi_def_cfa_register 13
 298              	 
 299 0020 80BD     	 pop {r7,pc}
 300              	.L14:
 301 0022 00BF     	 .align 2
 302              	.L13:
 303 0024 08000000 	 .word _ZTVN12cpp_freertos9SemaphoreE+8
 304              	 .cfi_endproc
 305              	.LFE1037:
 306              	 .size _ZN12cpp_freertos9SemaphoreD2Ev,.-_ZN12cpp_freertos9SemaphoreD2Ev
 307              	 .global _ZN12cpp_freertos9SemaphoreD1Ev
 308              	 .thumb_set _ZN12cpp_freertos9SemaphoreD1Ev,_ZN12cpp_freertos9SemaphoreD2Ev
 309              	 .section .text._ZN12cpp_freertos9SemaphoreD0Ev,"ax",%progbits
 310              	 .align 1
 311              	 .global _ZN12cpp_freertos9SemaphoreD0Ev
 312              	 .syntax unified
 313              	 .thumb
 314              	 .thumb_func
 315              	 .type _ZN12cpp_freertos9SemaphoreD0Ev,%function
 316              	_ZN12cpp_freertos9SemaphoreD0Ev:
 317              	.LFB1039:
  69:C:\Users\niels\Documents\GitHub\DSP\software\STM32Basis\HAL\gemeenschappelijk\Third_Party\freertos-addons-1.1.0\c++\Source\csemaphore.cpp **** {
 318              	 .loc 2 69 1
 319              	 .cfi_startproc
 320              	 
 321              	 
 322 0000 80B5     	 push {r7,lr}
ARM GAS   			page 12


 323              	 .cfi_def_cfa_offset 8
 324              	 .cfi_offset 7,-8
 325              	 .cfi_offset 14,-4
 326 0002 82B0     	 sub sp,sp,#8
 327              	 .cfi_def_cfa_offset 16
 328 0004 00AF     	 add r7,sp,#0
 329              	 .cfi_def_cfa_register 7
 330 0006 7860     	 str r0,[r7,#4]
 331              	 .loc 2 72 1
 332 0008 7868     	 ldr r0,[r7,#4]
 333 000a FFF7FEFF 	 bl _ZN12cpp_freertos9SemaphoreD1Ev
 334 000e 0821     	 movs r1,#8
 335 0010 7868     	 ldr r0,[r7,#4]
 336 0012 FFF7FEFF 	 bl _ZdlPvj
 337 0016 7B68     	 ldr r3,[r7,#4]
 338 0018 1846     	 mov r0,r3
 339 001a 0837     	 adds r7,r7,#8
 340              	 .cfi_def_cfa_offset 8
 341 001c BD46     	 mov sp,r7
 342              	 .cfi_def_cfa_register 13
 343              	 
 344 001e 80BD     	 pop {r7,pc}
 345              	 .cfi_endproc
 346              	.LFE1039:
 347              	 .size _ZN12cpp_freertos9SemaphoreD0Ev,.-_ZN12cpp_freertos9SemaphoreD0Ev
 348              	 .section .text._ZN12cpp_freertos9SemaphoreC2Ev,"axG",%progbits,_ZN12cpp_freertos9SemaphoreC5Ev,comdat
 349              	 .align 1
 350              	 .weak _ZN12cpp_freertos9SemaphoreC2Ev
 351              	 .syntax unified
 352              	 .thumb
 353              	 .thumb_func
 354              	 .type _ZN12cpp_freertos9SemaphoreC2Ev,%function
 355              	_ZN12cpp_freertos9SemaphoreC2Ev:
 356              	.LFB1042:
 357              	 .file 3 "c:\\users\\niels\\documents\\github\\dsp\\software\\stm32basis\\hal\\gemeenschappelijk\\third_party\\freertos-addons-1.1.0\\c++\\source\\include\\semaphore.hpp"
   1:c:\users\niels\documents\github\dsp\software\stm32basis\hal\gemeenschappelijk\third_party\freertos-addons-1.1.0\c++\source\include\semaphore.hpp **** /****************************************************************************
   2:c:\users\niels\documents\github\dsp\software\stm32basis\hal\gemeenschappelijk\third_party\freertos-addons-1.1.0\c++\source\include\semaphore.hpp ****  *
   3:c:\users\niels\documents\github\dsp\software\stm32basis\hal\gemeenschappelijk\third_party\freertos-addons-1.1.0\c++\source\include\semaphore.hpp ****  *  Copyright (c) 2016, Michael Becker (michael.f.becker@gmail.com)
   4:c:\users\niels\documents\github\dsp\software\stm32basis\hal\gemeenschappelijk\third_party\freertos-addons-1.1.0\c++\source\include\semaphore.hpp ****  *
   5:c:\users\niels\documents\github\dsp\software\stm32basis\hal\gemeenschappelijk\third_party\freertos-addons-1.1.0\c++\source\include\semaphore.hpp ****  *  This file is part of the FreeRTOS C++ Wrappers project.
   6:c:\users\niels\documents\github\dsp\software\stm32basis\hal\gemeenschappelijk\third_party\freertos-addons-1.1.0\c++\source\include\semaphore.hpp ****  *
   7:c:\users\niels\documents\github\dsp\software\stm32basis\hal\gemeenschappelijk\third_party\freertos-addons-1.1.0\c++\source\include\semaphore.hpp ****  *  The FreeRTOS C++ Wrappers project is free software: you can redistribute
   8:c:\users\niels\documents\github\dsp\software\stm32basis\hal\gemeenschappelijk\third_party\freertos-addons-1.1.0\c++\source\include\semaphore.hpp ****  *  it and/or modify it under the terms of the GNU General Public License as
   9:c:\users\niels\documents\github\dsp\software\stm32basis\hal\gemeenschappelijk\third_party\freertos-addons-1.1.0\c++\source\include\semaphore.hpp ****  *  published by the Free Software Foundation, either version 2
  10:c:\users\niels\documents\github\dsp\software\stm32basis\hal\gemeenschappelijk\third_party\freertos-addons-1.1.0\c++\source\include\semaphore.hpp ****  *  of the License, or (at your option) any later version.
  11:c:\users\niels\documents\github\dsp\software\stm32basis\hal\gemeenschappelijk\third_party\freertos-addons-1.1.0\c++\source\include\semaphore.hpp ****  *
  12:c:\users\niels\documents\github\dsp\software\stm32basis\hal\gemeenschappelijk\third_party\freertos-addons-1.1.0\c++\source\include\semaphore.hpp ****  *  The FreeRTOS C++ Wrappers project is distributed in the hope that it will
  13:c:\users\niels\documents\github\dsp\software\stm32basis\hal\gemeenschappelijk\third_party\freertos-addons-1.1.0\c++\source\include\semaphore.hpp ****  *  be useful, but WITHOUT ANY WARRANTY; without even the implied warranty of
  14:c:\users\niels\documents\github\dsp\software\stm32basis\hal\gemeenschappelijk\third_party\freertos-addons-1.1.0\c++\source\include\semaphore.hpp ****  *  MERCHANTABILITY or FITNESS FOR A PARTICULAR PURPOSE.  See the
  15:c:\users\niels\documents\github\dsp\software\stm32basis\hal\gemeenschappelijk\third_party\freertos-addons-1.1.0\c++\source\include\semaphore.hpp ****  *  GNU General Public License for more details.
  16:c:\users\niels\documents\github\dsp\software\stm32basis\hal\gemeenschappelijk\third_party\freertos-addons-1.1.0\c++\source\include\semaphore.hpp ****  *
  17:c:\users\niels\documents\github\dsp\software\stm32basis\hal\gemeenschappelijk\third_party\freertos-addons-1.1.0\c++\source\include\semaphore.hpp ****  *  You should have received a copy of the GNU General Public License
  18:c:\users\niels\documents\github\dsp\software\stm32basis\hal\gemeenschappelijk\third_party\freertos-addons-1.1.0\c++\source\include\semaphore.hpp ****  *  along with the FreeRTOS C++ Wrappers project.
  19:c:\users\niels\documents\github\dsp\software\stm32basis\hal\gemeenschappelijk\third_party\freertos-addons-1.1.0\c++\source\include\semaphore.hpp ****  *  If not, see <http://www.gnu.org/licenses/>.
  20:c:\users\niels\documents\github\dsp\software\stm32basis\hal\gemeenschappelijk\third_party\freertos-addons-1.1.0\c++\source\include\semaphore.hpp ****  *
  21:c:\users\niels\documents\github\dsp\software\stm32basis\hal\gemeenschappelijk\third_party\freertos-addons-1.1.0\c++\source\include\semaphore.hpp ****  ***************************************************************************/
  22:c:\users\niels\documents\github\dsp\software\stm32basis\hal\gemeenschappelijk\third_party\freertos-addons-1.1.0\c++\source\include\semaphore.hpp **** #ifndef SEMAPHORE_HPP_
ARM GAS   			page 13


  23:c:\users\niels\documents\github\dsp\software\stm32basis\hal\gemeenschappelijk\third_party\freertos-addons-1.1.0\c++\source\include\semaphore.hpp **** #define SEMAPHORE_HPP_
  24:c:\users\niels\documents\github\dsp\software\stm32basis\hal\gemeenschappelijk\third_party\freertos-addons-1.1.0\c++\source\include\semaphore.hpp **** 
  25:c:\users\niels\documents\github\dsp\software\stm32basis\hal\gemeenschappelijk\third_party\freertos-addons-1.1.0\c++\source\include\semaphore.hpp **** #include <exception>
  26:c:\users\niels\documents\github\dsp\software\stm32basis\hal\gemeenschappelijk\third_party\freertos-addons-1.1.0\c++\source\include\semaphore.hpp **** #include <string>
  27:c:\users\niels\documents\github\dsp\software\stm32basis\hal\gemeenschappelijk\third_party\freertos-addons-1.1.0\c++\source\include\semaphore.hpp **** #include "FreeRTOS.h"
  28:c:\users\niels\documents\github\dsp\software\stm32basis\hal\gemeenschappelijk\third_party\freertos-addons-1.1.0\c++\source\include\semaphore.hpp **** #include "semphr.h"
  29:c:\users\niels\documents\github\dsp\software\stm32basis\hal\gemeenschappelijk\third_party\freertos-addons-1.1.0\c++\source\include\semaphore.hpp **** // TODO - explore replacing sprintf with stringstream
  30:c:\users\niels\documents\github\dsp\software\stm32basis\hal\gemeenschappelijk\third_party\freertos-addons-1.1.0\c++\source\include\semaphore.hpp **** #include <cstdio>
  31:c:\users\niels\documents\github\dsp\software\stm32basis\hal\gemeenschappelijk\third_party\freertos-addons-1.1.0\c++\source\include\semaphore.hpp **** 
  32:c:\users\niels\documents\github\dsp\software\stm32basis\hal\gemeenschappelijk\third_party\freertos-addons-1.1.0\c++\source\include\semaphore.hpp **** 
  33:c:\users\niels\documents\github\dsp\software\stm32basis\hal\gemeenschappelijk\third_party\freertos-addons-1.1.0\c++\source\include\semaphore.hpp **** namespace cpp_freertos {
  34:c:\users\niels\documents\github\dsp\software\stm32basis\hal\gemeenschappelijk\third_party\freertos-addons-1.1.0\c++\source\include\semaphore.hpp **** 
  35:c:\users\niels\documents\github\dsp\software\stm32basis\hal\gemeenschappelijk\third_party\freertos-addons-1.1.0\c++\source\include\semaphore.hpp **** 
  36:c:\users\niels\documents\github\dsp\software\stm32basis\hal\gemeenschappelijk\third_party\freertos-addons-1.1.0\c++\source\include\semaphore.hpp **** /**
  37:c:\users\niels\documents\github\dsp\software\stm32basis\hal\gemeenschappelijk\third_party\freertos-addons-1.1.0\c++\source\include\semaphore.hpp ****  *  This is the exception that is thrown if a Semaphore constructor fails.
  38:c:\users\niels\documents\github\dsp\software\stm32basis\hal\gemeenschappelijk\third_party\freertos-addons-1.1.0\c++\source\include\semaphore.hpp ****  */
  39:c:\users\niels\documents\github\dsp\software\stm32basis\hal\gemeenschappelijk\third_party\freertos-addons-1.1.0\c++\source\include\semaphore.hpp **** class SemaphoreCreateException : public std::exception {
  40:c:\users\niels\documents\github\dsp\software\stm32basis\hal\gemeenschappelijk\third_party\freertos-addons-1.1.0\c++\source\include\semaphore.hpp **** 
  41:c:\users\niels\documents\github\dsp\software\stm32basis\hal\gemeenschappelijk\third_party\freertos-addons-1.1.0\c++\source\include\semaphore.hpp ****     public:
  42:c:\users\niels\documents\github\dsp\software\stm32basis\hal\gemeenschappelijk\third_party\freertos-addons-1.1.0\c++\source\include\semaphore.hpp ****         /**
  43:c:\users\niels\documents\github\dsp\software\stm32basis\hal\gemeenschappelijk\third_party\freertos-addons-1.1.0\c++\source\include\semaphore.hpp ****          *  Create the exception.
  44:c:\users\niels\documents\github\dsp\software\stm32basis\hal\gemeenschappelijk\third_party\freertos-addons-1.1.0\c++\source\include\semaphore.hpp ****          */
  45:c:\users\niels\documents\github\dsp\software\stm32basis\hal\gemeenschappelijk\third_party\freertos-addons-1.1.0\c++\source\include\semaphore.hpp ****         SemaphoreCreateException()
  46:c:\users\niels\documents\github\dsp\software\stm32basis\hal\gemeenschappelijk\third_party\freertos-addons-1.1.0\c++\source\include\semaphore.hpp ****         {
  47:c:\users\niels\documents\github\dsp\software\stm32basis\hal\gemeenschappelijk\third_party\freertos-addons-1.1.0\c++\source\include\semaphore.hpp ****             sprintf(errorString, "Semaphore Constructor Failed");
  48:c:\users\niels\documents\github\dsp\software\stm32basis\hal\gemeenschappelijk\third_party\freertos-addons-1.1.0\c++\source\include\semaphore.hpp ****         }
  49:c:\users\niels\documents\github\dsp\software\stm32basis\hal\gemeenschappelijk\third_party\freertos-addons-1.1.0\c++\source\include\semaphore.hpp **** 
  50:c:\users\niels\documents\github\dsp\software\stm32basis\hal\gemeenschappelijk\third_party\freertos-addons-1.1.0\c++\source\include\semaphore.hpp ****         /**
  51:c:\users\niels\documents\github\dsp\software\stm32basis\hal\gemeenschappelijk\third_party\freertos-addons-1.1.0\c++\source\include\semaphore.hpp ****          *  Create the exception.
  52:c:\users\niels\documents\github\dsp\software\stm32basis\hal\gemeenschappelijk\third_party\freertos-addons-1.1.0\c++\source\include\semaphore.hpp ****          */
  53:c:\users\niels\documents\github\dsp\software\stm32basis\hal\gemeenschappelijk\third_party\freertos-addons-1.1.0\c++\source\include\semaphore.hpp ****         explicit SemaphoreCreateException(const char *info)
  54:c:\users\niels\documents\github\dsp\software\stm32basis\hal\gemeenschappelijk\third_party\freertos-addons-1.1.0\c++\source\include\semaphore.hpp ****         {
  55:c:\users\niels\documents\github\dsp\software\stm32basis\hal\gemeenschappelijk\third_party\freertos-addons-1.1.0\c++\source\include\semaphore.hpp ****             snprintf(errorString, sizeof(errorString),
  56:c:\users\niels\documents\github\dsp\software\stm32basis\hal\gemeenschappelijk\third_party\freertos-addons-1.1.0\c++\source\include\semaphore.hpp ****                         "Semaphore Constructor Failed %s", info);
  57:c:\users\niels\documents\github\dsp\software\stm32basis\hal\gemeenschappelijk\third_party\freertos-addons-1.1.0\c++\source\include\semaphore.hpp ****         }
  58:c:\users\niels\documents\github\dsp\software\stm32basis\hal\gemeenschappelijk\third_party\freertos-addons-1.1.0\c++\source\include\semaphore.hpp **** 
  59:c:\users\niels\documents\github\dsp\software\stm32basis\hal\gemeenschappelijk\third_party\freertos-addons-1.1.0\c++\source\include\semaphore.hpp ****         /**
  60:c:\users\niels\documents\github\dsp\software\stm32basis\hal\gemeenschappelijk\third_party\freertos-addons-1.1.0\c++\source\include\semaphore.hpp ****          *  Get what happened as a string.
  61:c:\users\niels\documents\github\dsp\software\stm32basis\hal\gemeenschappelijk\third_party\freertos-addons-1.1.0\c++\source\include\semaphore.hpp ****          *  We are overriding the base implementation here.
  62:c:\users\niels\documents\github\dsp\software\stm32basis\hal\gemeenschappelijk\third_party\freertos-addons-1.1.0\c++\source\include\semaphore.hpp ****          */
  63:c:\users\niels\documents\github\dsp\software\stm32basis\hal\gemeenschappelijk\third_party\freertos-addons-1.1.0\c++\source\include\semaphore.hpp ****         virtual const char *what() const throw()
  64:c:\users\niels\documents\github\dsp\software\stm32basis\hal\gemeenschappelijk\third_party\freertos-addons-1.1.0\c++\source\include\semaphore.hpp ****         {
  65:c:\users\niels\documents\github\dsp\software\stm32basis\hal\gemeenschappelijk\third_party\freertos-addons-1.1.0\c++\source\include\semaphore.hpp ****             return errorString;
  66:c:\users\niels\documents\github\dsp\software\stm32basis\hal\gemeenschappelijk\third_party\freertos-addons-1.1.0\c++\source\include\semaphore.hpp ****         }
  67:c:\users\niels\documents\github\dsp\software\stm32basis\hal\gemeenschappelijk\third_party\freertos-addons-1.1.0\c++\source\include\semaphore.hpp **** 
  68:c:\users\niels\documents\github\dsp\software\stm32basis\hal\gemeenschappelijk\third_party\freertos-addons-1.1.0\c++\source\include\semaphore.hpp ****     private:
  69:c:\users\niels\documents\github\dsp\software\stm32basis\hal\gemeenschappelijk\third_party\freertos-addons-1.1.0\c++\source\include\semaphore.hpp ****         /**
  70:c:\users\niels\documents\github\dsp\software\stm32basis\hal\gemeenschappelijk\third_party\freertos-addons-1.1.0\c++\source\include\semaphore.hpp ****          *  A text string representing what failed.
  71:c:\users\niels\documents\github\dsp\software\stm32basis\hal\gemeenschappelijk\third_party\freertos-addons-1.1.0\c++\source\include\semaphore.hpp ****          */
  72:c:\users\niels\documents\github\dsp\software\stm32basis\hal\gemeenschappelijk\third_party\freertos-addons-1.1.0\c++\source\include\semaphore.hpp ****         char errorString[80];
  73:c:\users\niels\documents\github\dsp\software\stm32basis\hal\gemeenschappelijk\third_party\freertos-addons-1.1.0\c++\source\include\semaphore.hpp **** };
  74:c:\users\niels\documents\github\dsp\software\stm32basis\hal\gemeenschappelijk\third_party\freertos-addons-1.1.0\c++\source\include\semaphore.hpp **** 
  75:c:\users\niels\documents\github\dsp\software\stm32basis\hal\gemeenschappelijk\third_party\freertos-addons-1.1.0\c++\source\include\semaphore.hpp **** 
  76:c:\users\niels\documents\github\dsp\software\stm32basis\hal\gemeenschappelijk\third_party\freertos-addons-1.1.0\c++\source\include\semaphore.hpp **** /**
  77:c:\users\niels\documents\github\dsp\software\stm32basis\hal\gemeenschappelijk\third_party\freertos-addons-1.1.0\c++\source\include\semaphore.hpp ****  *
  78:c:\users\niels\documents\github\dsp\software\stm32basis\hal\gemeenschappelijk\third_party\freertos-addons-1.1.0\c++\source\include\semaphore.hpp ****  *  Base wrapper class around FreeRTOS's implementation of semaphores.
  79:c:\users\niels\documents\github\dsp\software\stm32basis\hal\gemeenschappelijk\third_party\freertos-addons-1.1.0\c++\source\include\semaphore.hpp ****  *
ARM GAS   			page 14


  80:c:\users\niels\documents\github\dsp\software\stm32basis\hal\gemeenschappelijk\third_party\freertos-addons-1.1.0\c++\source\include\semaphore.hpp ****  *  It is not expected that an application will derive from this class.
  81:c:\users\niels\documents\github\dsp\software\stm32basis\hal\gemeenschappelijk\third_party\freertos-addons-1.1.0\c++\source\include\semaphore.hpp ****  *
  82:c:\users\niels\documents\github\dsp\software\stm32basis\hal\gemeenschappelijk\third_party\freertos-addons-1.1.0\c++\source\include\semaphore.hpp ****  *  Note that we distinguish between Semaphore, Binary Semaphores,
  83:c:\users\niels\documents\github\dsp\software\stm32basis\hal\gemeenschappelijk\third_party\freertos-addons-1.1.0\c++\source\include\semaphore.hpp ****  *  Counting Semaphores, and Mutexes. Mutexes, while implemented as a kind
  84:c:\users\niels\documents\github\dsp\software\stm32basis\hal\gemeenschappelijk\third_party\freertos-addons-1.1.0\c++\source\include\semaphore.hpp ****  *  of semaphore in FreeRTOS, are conceptually very different in use and
  85:c:\users\niels\documents\github\dsp\software\stm32basis\hal\gemeenschappelijk\third_party\freertos-addons-1.1.0\c++\source\include\semaphore.hpp ****  *  behavior from semaphores. We acknowledge this difference in the class
  86:c:\users\niels\documents\github\dsp\software\stm32basis\hal\gemeenschappelijk\third_party\freertos-addons-1.1.0\c++\source\include\semaphore.hpp ****  *  heirarchy, implementing mutextes as a completely different class heirarchy.
  87:c:\users\niels\documents\github\dsp\software\stm32basis\hal\gemeenschappelijk\third_party\freertos-addons-1.1.0\c++\source\include\semaphore.hpp ****  */
  88:c:\users\niels\documents\github\dsp\software\stm32basis\hal\gemeenschappelijk\third_party\freertos-addons-1.1.0\c++\source\include\semaphore.hpp **** class Semaphore {
  89:c:\users\niels\documents\github\dsp\software\stm32basis\hal\gemeenschappelijk\third_party\freertos-addons-1.1.0\c++\source\include\semaphore.hpp **** 
  90:c:\users\niels\documents\github\dsp\software\stm32basis\hal\gemeenschappelijk\third_party\freertos-addons-1.1.0\c++\source\include\semaphore.hpp ****     /////////////////////////////////////////////////////////////////////////
  91:c:\users\niels\documents\github\dsp\software\stm32basis\hal\gemeenschappelijk\third_party\freertos-addons-1.1.0\c++\source\include\semaphore.hpp ****     //
  92:c:\users\niels\documents\github\dsp\software\stm32basis\hal\gemeenschappelijk\third_party\freertos-addons-1.1.0\c++\source\include\semaphore.hpp ****     //  Public API
  93:c:\users\niels\documents\github\dsp\software\stm32basis\hal\gemeenschappelijk\third_party\freertos-addons-1.1.0\c++\source\include\semaphore.hpp ****     //
  94:c:\users\niels\documents\github\dsp\software\stm32basis\hal\gemeenschappelijk\third_party\freertos-addons-1.1.0\c++\source\include\semaphore.hpp ****     /////////////////////////////////////////////////////////////////////////
  95:c:\users\niels\documents\github\dsp\software\stm32basis\hal\gemeenschappelijk\third_party\freertos-addons-1.1.0\c++\source\include\semaphore.hpp ****     public:
  96:c:\users\niels\documents\github\dsp\software\stm32basis\hal\gemeenschappelijk\third_party\freertos-addons-1.1.0\c++\source\include\semaphore.hpp ****         /**
  97:c:\users\niels\documents\github\dsp\software\stm32basis\hal\gemeenschappelijk\third_party\freertos-addons-1.1.0\c++\source\include\semaphore.hpp ****          *  Aquire (take) a semaphore.
  98:c:\users\niels\documents\github\dsp\software\stm32basis\hal\gemeenschappelijk\third_party\freertos-addons-1.1.0\c++\source\include\semaphore.hpp ****          *
  99:c:\users\niels\documents\github\dsp\software\stm32basis\hal\gemeenschappelijk\third_party\freertos-addons-1.1.0\c++\source\include\semaphore.hpp ****          *  Example of blocking indefinitely:
 100:c:\users\niels\documents\github\dsp\software\stm32basis\hal\gemeenschappelijk\third_party\freertos-addons-1.1.0\c++\source\include\semaphore.hpp ****          *      aSemaphore.Take();
 101:c:\users\niels\documents\github\dsp\software\stm32basis\hal\gemeenschappelijk\third_party\freertos-addons-1.1.0\c++\source\include\semaphore.hpp ****          *
 102:c:\users\niels\documents\github\dsp\software\stm32basis\hal\gemeenschappelijk\third_party\freertos-addons-1.1.0\c++\source\include\semaphore.hpp ****          *  Example of blocking for 100 ticks:
 103:c:\users\niels\documents\github\dsp\software\stm32basis\hal\gemeenschappelijk\third_party\freertos-addons-1.1.0\c++\source\include\semaphore.hpp ****          *      aSemaphore.Take(100);
 104:c:\users\niels\documents\github\dsp\software\stm32basis\hal\gemeenschappelijk\third_party\freertos-addons-1.1.0\c++\source\include\semaphore.hpp ****          *
 105:c:\users\niels\documents\github\dsp\software\stm32basis\hal\gemeenschappelijk\third_party\freertos-addons-1.1.0\c++\source\include\semaphore.hpp ****          *  @param Timeout How long to wait to get the Lock until giving up.
 106:c:\users\niels\documents\github\dsp\software\stm32basis\hal\gemeenschappelijk\third_party\freertos-addons-1.1.0\c++\source\include\semaphore.hpp ****          *  @return true if the Semaphore was acquired, false if it timed out.
 107:c:\users\niels\documents\github\dsp\software\stm32basis\hal\gemeenschappelijk\third_party\freertos-addons-1.1.0\c++\source\include\semaphore.hpp ****          */
 108:c:\users\niels\documents\github\dsp\software\stm32basis\hal\gemeenschappelijk\third_party\freertos-addons-1.1.0\c++\source\include\semaphore.hpp ****         bool Take(TickType_t Timeout = portMAX_DELAY);
 109:c:\users\niels\documents\github\dsp\software\stm32basis\hal\gemeenschappelijk\third_party\freertos-addons-1.1.0\c++\source\include\semaphore.hpp **** 
 110:c:\users\niels\documents\github\dsp\software\stm32basis\hal\gemeenschappelijk\third_party\freertos-addons-1.1.0\c++\source\include\semaphore.hpp ****         /**
 111:c:\users\niels\documents\github\dsp\software\stm32basis\hal\gemeenschappelijk\third_party\freertos-addons-1.1.0\c++\source\include\semaphore.hpp ****          *  Release (give) a semaphore.
 112:c:\users\niels\documents\github\dsp\software\stm32basis\hal\gemeenschappelijk\third_party\freertos-addons-1.1.0\c++\source\include\semaphore.hpp ****          *
 113:c:\users\niels\documents\github\dsp\software\stm32basis\hal\gemeenschappelijk\third_party\freertos-addons-1.1.0\c++\source\include\semaphore.hpp ****          *  @return true if the Semaphore was released, false if it failed.
 114:c:\users\niels\documents\github\dsp\software\stm32basis\hal\gemeenschappelijk\third_party\freertos-addons-1.1.0\c++\source\include\semaphore.hpp ****          */
 115:c:\users\niels\documents\github\dsp\software\stm32basis\hal\gemeenschappelijk\third_party\freertos-addons-1.1.0\c++\source\include\semaphore.hpp ****         bool Give();
 116:c:\users\niels\documents\github\dsp\software\stm32basis\hal\gemeenschappelijk\third_party\freertos-addons-1.1.0\c++\source\include\semaphore.hpp **** 
 117:c:\users\niels\documents\github\dsp\software\stm32basis\hal\gemeenschappelijk\third_party\freertos-addons-1.1.0\c++\source\include\semaphore.hpp ****         /**
 118:c:\users\niels\documents\github\dsp\software\stm32basis\hal\gemeenschappelijk\third_party\freertos-addons-1.1.0\c++\source\include\semaphore.hpp ****          *  Aquire (take) a semaphore from ISR context.
 119:c:\users\niels\documents\github\dsp\software\stm32basis\hal\gemeenschappelijk\third_party\freertos-addons-1.1.0\c++\source\include\semaphore.hpp ****          *
 120:c:\users\niels\documents\github\dsp\software\stm32basis\hal\gemeenschappelijk\third_party\freertos-addons-1.1.0\c++\source\include\semaphore.hpp ****          *  @param pxHigherPriorityTaskWoken Did this operation result in a
 121:c:\users\niels\documents\github\dsp\software\stm32basis\hal\gemeenschappelijk\third_party\freertos-addons-1.1.0\c++\source\include\semaphore.hpp ****          *         rescheduling event.
 122:c:\users\niels\documents\github\dsp\software\stm32basis\hal\gemeenschappelijk\third_party\freertos-addons-1.1.0\c++\source\include\semaphore.hpp ****          *  @return true if the Semaphore was acquired, false if it timed out.
 123:c:\users\niels\documents\github\dsp\software\stm32basis\hal\gemeenschappelijk\third_party\freertos-addons-1.1.0\c++\source\include\semaphore.hpp ****          */
 124:c:\users\niels\documents\github\dsp\software\stm32basis\hal\gemeenschappelijk\third_party\freertos-addons-1.1.0\c++\source\include\semaphore.hpp ****         bool TakeFromISR(BaseType_t *pxHigherPriorityTaskWoken);
 125:c:\users\niels\documents\github\dsp\software\stm32basis\hal\gemeenschappelijk\third_party\freertos-addons-1.1.0\c++\source\include\semaphore.hpp **** 
 126:c:\users\niels\documents\github\dsp\software\stm32basis\hal\gemeenschappelijk\third_party\freertos-addons-1.1.0\c++\source\include\semaphore.hpp ****         /**
 127:c:\users\niels\documents\github\dsp\software\stm32basis\hal\gemeenschappelijk\third_party\freertos-addons-1.1.0\c++\source\include\semaphore.hpp ****          *  Release (give) a semaphore from ISR context.
 128:c:\users\niels\documents\github\dsp\software\stm32basis\hal\gemeenschappelijk\third_party\freertos-addons-1.1.0\c++\source\include\semaphore.hpp ****          *
 129:c:\users\niels\documents\github\dsp\software\stm32basis\hal\gemeenschappelijk\third_party\freertos-addons-1.1.0\c++\source\include\semaphore.hpp ****          *  @param pxHigherPriorityTaskWoken Did this operation result in a
 130:c:\users\niels\documents\github\dsp\software\stm32basis\hal\gemeenschappelijk\third_party\freertos-addons-1.1.0\c++\source\include\semaphore.hpp ****          *         rescheduling event.
 131:c:\users\niels\documents\github\dsp\software\stm32basis\hal\gemeenschappelijk\third_party\freertos-addons-1.1.0\c++\source\include\semaphore.hpp ****          *  @return true if the Semaphore was released, false if it failed.
 132:c:\users\niels\documents\github\dsp\software\stm32basis\hal\gemeenschappelijk\third_party\freertos-addons-1.1.0\c++\source\include\semaphore.hpp ****          */
 133:c:\users\niels\documents\github\dsp\software\stm32basis\hal\gemeenschappelijk\third_party\freertos-addons-1.1.0\c++\source\include\semaphore.hpp ****         bool GiveFromISR(BaseType_t *pxHigherPriorityTaskWoken);
 134:c:\users\niels\documents\github\dsp\software\stm32basis\hal\gemeenschappelijk\third_party\freertos-addons-1.1.0\c++\source\include\semaphore.hpp **** 
 135:c:\users\niels\documents\github\dsp\software\stm32basis\hal\gemeenschappelijk\third_party\freertos-addons-1.1.0\c++\source\include\semaphore.hpp ****         /**
 136:c:\users\niels\documents\github\dsp\software\stm32basis\hal\gemeenschappelijk\third_party\freertos-addons-1.1.0\c++\source\include\semaphore.hpp ****          *  Our destructor
ARM GAS   			page 15


 137:c:\users\niels\documents\github\dsp\software\stm32basis\hal\gemeenschappelijk\third_party\freertos-addons-1.1.0\c++\source\include\semaphore.hpp ****          */
 138:c:\users\niels\documents\github\dsp\software\stm32basis\hal\gemeenschappelijk\third_party\freertos-addons-1.1.0\c++\source\include\semaphore.hpp ****         virtual ~Semaphore();
 139:c:\users\niels\documents\github\dsp\software\stm32basis\hal\gemeenschappelijk\third_party\freertos-addons-1.1.0\c++\source\include\semaphore.hpp **** 
 140:c:\users\niels\documents\github\dsp\software\stm32basis\hal\gemeenschappelijk\third_party\freertos-addons-1.1.0\c++\source\include\semaphore.hpp ****     /////////////////////////////////////////////////////////////////////////
 141:c:\users\niels\documents\github\dsp\software\stm32basis\hal\gemeenschappelijk\third_party\freertos-addons-1.1.0\c++\source\include\semaphore.hpp ****     //
 142:c:\users\niels\documents\github\dsp\software\stm32basis\hal\gemeenschappelijk\third_party\freertos-addons-1.1.0\c++\source\include\semaphore.hpp ****     //  Protected API
 143:c:\users\niels\documents\github\dsp\software\stm32basis\hal\gemeenschappelijk\third_party\freertos-addons-1.1.0\c++\source\include\semaphore.hpp ****     //  Not intended for use by application code.
 144:c:\users\niels\documents\github\dsp\software\stm32basis\hal\gemeenschappelijk\third_party\freertos-addons-1.1.0\c++\source\include\semaphore.hpp ****     //
 145:c:\users\niels\documents\github\dsp\software\stm32basis\hal\gemeenschappelijk\third_party\freertos-addons-1.1.0\c++\source\include\semaphore.hpp ****     /////////////////////////////////////////////////////////////////////////
 146:c:\users\niels\documents\github\dsp\software\stm32basis\hal\gemeenschappelijk\third_party\freertos-addons-1.1.0\c++\source\include\semaphore.hpp ****     protected:
 147:c:\users\niels\documents\github\dsp\software\stm32basis\hal\gemeenschappelijk\third_party\freertos-addons-1.1.0\c++\source\include\semaphore.hpp ****         /**
 148:c:\users\niels\documents\github\dsp\software\stm32basis\hal\gemeenschappelijk\third_party\freertos-addons-1.1.0\c++\source\include\semaphore.hpp ****          *  FreeRTOS semaphore handle.
 149:c:\users\niels\documents\github\dsp\software\stm32basis\hal\gemeenschappelijk\third_party\freertos-addons-1.1.0\c++\source\include\semaphore.hpp ****          */
 150:c:\users\niels\documents\github\dsp\software\stm32basis\hal\gemeenschappelijk\third_party\freertos-addons-1.1.0\c++\source\include\semaphore.hpp ****         SemaphoreHandle_t handle;
 151:c:\users\niels\documents\github\dsp\software\stm32basis\hal\gemeenschappelijk\third_party\freertos-addons-1.1.0\c++\source\include\semaphore.hpp **** 
 152:c:\users\niels\documents\github\dsp\software\stm32basis\hal\gemeenschappelijk\third_party\freertos-addons-1.1.0\c++\source\include\semaphore.hpp ****         /**
 153:c:\users\niels\documents\github\dsp\software\stm32basis\hal\gemeenschappelijk\third_party\freertos-addons-1.1.0\c++\source\include\semaphore.hpp ****          *  We do not want a Semaphore ctor. This class should never be
 154:c:\users\niels\documents\github\dsp\software\stm32basis\hal\gemeenschappelijk\third_party\freertos-addons-1.1.0\c++\source\include\semaphore.hpp ****          *  directly created, this is a base class only.
 155:c:\users\niels\documents\github\dsp\software\stm32basis\hal\gemeenschappelijk\third_party\freertos-addons-1.1.0\c++\source\include\semaphore.hpp ****          */
 156:c:\users\niels\documents\github\dsp\software\stm32basis\hal\gemeenschappelijk\third_party\freertos-addons-1.1.0\c++\source\include\semaphore.hpp ****         Semaphore() = default;
 358              	 .loc 3 156 9
 359              	 .cfi_startproc
 360              	 
 361              	 
 362              	 
 363 0000 80B4     	 push {r7}
 364              	 .cfi_def_cfa_offset 4
 365              	 .cfi_offset 7,-4
 366 0002 83B0     	 sub sp,sp,#12
 367              	 .cfi_def_cfa_offset 16
 368 0004 00AF     	 add r7,sp,#0
 369              	 .cfi_def_cfa_register 7
 370 0006 7860     	 str r0,[r7,#4]
 371              	.LBB3:
 372              	 .loc 3 156 9
 373 0008 044A     	 ldr r2,.L19
 374 000a 7B68     	 ldr r3,[r7,#4]
 375 000c 1A60     	 str r2,[r3]
 376              	.LBE3:
 377 000e 7B68     	 ldr r3,[r7,#4]
 378 0010 1846     	 mov r0,r3
 379 0012 0C37     	 adds r7,r7,#12
 380              	 .cfi_def_cfa_offset 4
 381 0014 BD46     	 mov sp,r7
 382              	 .cfi_def_cfa_register 13
 383              	 
 384 0016 5DF8047B 	 ldr r7,[sp],#4
 385              	 .cfi_restore 7
 386              	 .cfi_def_cfa_offset 0
 387 001a 7047     	 bx lr
 388              	.L20:
 389              	 .align 2
 390              	.L19:
 391 001c 08000000 	 .word _ZTVN12cpp_freertos9SemaphoreE+8
 392              	 .cfi_endproc
 393              	.LFE1042:
 394              	 .size _ZN12cpp_freertos9SemaphoreC2Ev,.-_ZN12cpp_freertos9SemaphoreC2Ev
ARM GAS   			page 16


 395              	 .weak _ZN12cpp_freertos9SemaphoreC1Ev
 396              	 .thumb_set _ZN12cpp_freertos9SemaphoreC1Ev,_ZN12cpp_freertos9SemaphoreC2Ev
 397              	 .section .rodata
 398              	 .align 2
 399              	.LC0:
 400 0000 68616E64 	 .ascii "handle != NULL\000"
 400      6C652021 
 400      3D204E55 
 400      4C4C00
 401 000f 00       	 .align 2
 402              	.LC1:
 403 0010 6370705F 	 .ascii "cpp_freertos::BinarySemaphore::BinarySemaphore(bool"
 403      66726565 
 403      72746F73 
 403      3A3A4269 
 403      6E617279 
 404 0043 2900     	 .ascii ")\000"
 405 0045 000000   	 .align 2
 406              	.LC2:
 407 0048 433A5C55 	 .ascii "C:\\Users\\niels\\Documents\\GitHub\\DSP\\software\\"
 407      73657273 
 407      5C6E6965 
 407      6C735C44 
 407      6F63756D 
 408 0075 53544D33 	 .ascii "STM32Basis\\HAL\\gemeenschappelijk\\Third_Party\\fr"
 408      32426173 
 408      69735C48 
 408      414C5C67 
 408      656D6565 
 409 00a4 65657274 	 .ascii "eertos-addons-1.1.0\\c++\\Source\\csemaphore.cpp\000"
 409      6F732D61 
 409      64646F6E 
 409      732D312E 
 409      312E305C 
 410              	 .section .text._ZN12cpp_freertos15BinarySemaphoreC2Eb,"ax",%progbits
 411              	 .align 1
 412              	 .global _ZN12cpp_freertos15BinarySemaphoreC2Eb
 413              	 .syntax unified
 414              	 .thumb
 415              	 .thumb_func
 416              	 .type _ZN12cpp_freertos15BinarySemaphoreC2Eb,%function
 417              	_ZN12cpp_freertos15BinarySemaphoreC2Eb:
 418              	.LFB1044:
  73:C:\Users\niels\Documents\GitHub\DSP\software\STM32Basis\HAL\gemeenschappelijk\Third_Party\freertos-addons-1.1.0\c++\Source\csemaphore.cpp **** 
  74:C:\Users\niels\Documents\GitHub\DSP\software\STM32Basis\HAL\gemeenschappelijk\Third_Party\freertos-addons-1.1.0\c++\Source\csemaphore.cpp **** 
  75:C:\Users\niels\Documents\GitHub\DSP\software\STM32Basis\HAL\gemeenschappelijk\Third_Party\freertos-addons-1.1.0\c++\Source\csemaphore.cpp **** BinarySemaphore::BinarySemaphore(bool set)
 419              	 .loc 2 75 1
 420              	 .cfi_startproc
 421              	 
 422              	 
 423 0000 80B5     	 push {r7,lr}
 424              	 .cfi_def_cfa_offset 8
 425              	 .cfi_offset 7,-8
 426              	 .cfi_offset 14,-4
 427 0002 82B0     	 sub sp,sp,#8
 428              	 .cfi_def_cfa_offset 16
 429 0004 00AF     	 add r7,sp,#0
ARM GAS   			page 17


 430              	 .cfi_def_cfa_register 7
 431 0006 7860     	 str r0,[r7,#4]
 432 0008 0B46     	 mov r3,r1
 433 000a FB70     	 strb r3,[r7,#3]
 434              	.LBB4:
 435              	 .loc 2 75 42
 436 000c 7B68     	 ldr r3,[r7,#4]
 437 000e 1846     	 mov r0,r3
 438 0010 FFF7FEFF 	 bl _ZN12cpp_freertos9SemaphoreC2Ev
 439 0014 114A     	 ldr r2,.L25
 440 0016 7B68     	 ldr r3,[r7,#4]
 441 0018 1A60     	 str r2,[r3]
  76:C:\Users\niels\Documents\GitHub\DSP\software\STM32Basis\HAL\gemeenschappelijk\Third_Party\freertos-addons-1.1.0\c++\Source\csemaphore.cpp **** {
  77:C:\Users\niels\Documents\GitHub\DSP\software\STM32Basis\HAL\gemeenschappelijk\Third_Party\freertos-addons-1.1.0\c++\Source\csemaphore.cpp ****     handle = xSemaphoreCreateBinary();
 442              	 .loc 2 77 14
 443 001a 0322     	 movs r2,#3
 444 001c 0021     	 movs r1,#0
 445 001e 0120     	 movs r0,#1
 446 0020 FFF7FEFF 	 bl xQueueGenericCreate
 447 0024 0246     	 mov r2,r0
 448              	 .loc 2 77 12
 449 0026 7B68     	 ldr r3,[r7,#4]
 450 0028 5A60     	 str r2,[r3,#4]
  78:C:\Users\niels\Documents\GitHub\DSP\software\STM32Basis\HAL\gemeenschappelijk\Third_Party\freertos-addons-1.1.0\c++\Source\csemaphore.cpp **** 
  79:C:\Users\niels\Documents\GitHub\DSP\software\STM32Basis\HAL\gemeenschappelijk\Third_Party\freertos-addons-1.1.0\c++\Source\csemaphore.cpp ****     assert(handle != NULL);
 451              	 .loc 2 79 5
 452 002a 7B68     	 ldr r3,[r7,#4]
 453 002c 5B68     	 ldr r3,[r3,#4]
 454 002e 002B     	 cmp r3,#0
 455 0030 05D1     	 bne .L22
 456              	 .loc 2 79 5 is_stmt 0 discriminator 1
 457 0032 0B4B     	 ldr r3,.L25+4
 458 0034 0B4A     	 ldr r2,.L25+8
 459 0036 4F21     	 movs r1,#79
 460 0038 0B48     	 ldr r0,.L25+12
 461 003a FFF7FEFF 	 bl __assert_func
 462              	.L22:
  80:C:\Users\niels\Documents\GitHub\DSP\software\STM32Basis\HAL\gemeenschappelijk\Third_Party\freertos-addons-1.1.0\c++\Source\csemaphore.cpp **** 
  81:C:\Users\niels\Documents\GitHub\DSP\software\STM32Basis\HAL\gemeenschappelijk\Third_Party\freertos-addons-1.1.0\c++\Source\csemaphore.cpp ****     if (set) {
 463              	 .loc 2 81 5 is_stmt 1
 464 003e FB78     	 ldrb r3,[r7,#3]
 465 0040 002B     	 cmp r3,#0
 466 0042 06D0     	 beq .L23
  82:C:\Users\niels\Documents\GitHub\DSP\software\STM32Basis\HAL\gemeenschappelijk\Third_Party\freertos-addons-1.1.0\c++\Source\csemaphore.cpp ****         xSemaphoreGive(handle);
 467              	 .loc 2 82 9
 468 0044 7B68     	 ldr r3,[r7,#4]
 469 0046 5868     	 ldr r0,[r3,#4]
 470 0048 0023     	 movs r3,#0
 471 004a 0022     	 movs r2,#0
 472 004c 0021     	 movs r1,#0
 473 004e FFF7FEFF 	 bl xQueueGenericSend
 474              	.L23:
 475              	.LBE4:
  83:C:\Users\niels\Documents\GitHub\DSP\software\STM32Basis\HAL\gemeenschappelijk\Third_Party\freertos-addons-1.1.0\c++\Source\csemaphore.cpp ****     }
  84:C:\Users\niels\Documents\GitHub\DSP\software\STM32Basis\HAL\gemeenschappelijk\Third_Party\freertos-addons-1.1.0\c++\Source\csemaphore.cpp **** }
 476              	 .loc 2 84 1
 477 0052 7B68     	 ldr r3,[r7,#4]
ARM GAS   			page 18


 478 0054 1846     	 mov r0,r3
 479 0056 0837     	 adds r7,r7,#8
 480              	 .cfi_def_cfa_offset 8
 481 0058 BD46     	 mov sp,r7
 482              	 .cfi_def_cfa_register 13
 483              	 
 484 005a 80BD     	 pop {r7,pc}
 485              	.L26:
 486              	 .align 2
 487              	.L25:
 488 005c 08000000 	 .word _ZTVN12cpp_freertos15BinarySemaphoreE+8
 489 0060 00000000 	 .word .LC0
 490 0064 10000000 	 .word .LC1
 491 0068 48000000 	 .word .LC2
 492              	 .cfi_endproc
 493              	.LFE1044:
 494              	 .size _ZN12cpp_freertos15BinarySemaphoreC2Eb,.-_ZN12cpp_freertos15BinarySemaphoreC2Eb
 495              	 .global _ZN12cpp_freertos15BinarySemaphoreC1Eb
 496              	 .thumb_set _ZN12cpp_freertos15BinarySemaphoreC1Eb,_ZN12cpp_freertos15BinarySemaphoreC2Eb
 497              	 .section .rodata
 498 00d2 0000     	 .align 2
 499              	.LC3:
 500 00d4 6D617843 	 .ascii "maxCount != 0\000"
 500      6F756E74 
 500      20213D20 
 500      3000
 501 00e2 0000     	 .align 2
 502              	.LC4:
 503 00e4 6370705F 	 .ascii "cpp_freertos::CountingSemaphore::CountingSemaphore("
 503      66726565 
 503      72746F73 
 503      3A3A436F 
 503      756E7469 
 504 0117 55426173 	 .ascii "UBaseType_t, UBaseType_t)\000"
 504      65547970 
 504      655F742C 
 504      20554261 
 504      73655479 
 505 0131 000000   	 .align 2
 506              	.LC5:
 507 0134 696E6974 	 .ascii "initialCount <= maxCount\000"
 507      69616C43 
 507      6F756E74 
 507      203C3D20 
 507      6D617843 
 508              	 .section .text._ZN12cpp_freertos17CountingSemaphoreC2Emm,"ax",%progbits
 509              	 .align 1
 510              	 .global _ZN12cpp_freertos17CountingSemaphoreC2Emm
 511              	 .syntax unified
 512              	 .thumb
 513              	 .thumb_func
 514              	 .type _ZN12cpp_freertos17CountingSemaphoreC2Emm,%function
 515              	_ZN12cpp_freertos17CountingSemaphoreC2Emm:
 516              	.LFB1047:
  85:C:\Users\niels\Documents\GitHub\DSP\software\STM32Basis\HAL\gemeenschappelijk\Third_Party\freertos-addons-1.1.0\c++\Source\csemaphore.cpp **** 
  86:C:\Users\niels\Documents\GitHub\DSP\software\STM32Basis\HAL\gemeenschappelijk\Third_Party\freertos-addons-1.1.0\c++\Source\csemaphore.cpp **** 
  87:C:\Users\niels\Documents\GitHub\DSP\software\STM32Basis\HAL\gemeenschappelijk\Third_Party\freertos-addons-1.1.0\c++\Source\csemaphore.cpp **** CountingSemaphore::CountingSemaphore(UBaseType_t maxCount, UBaseType_t initialCount)
ARM GAS   			page 19


 517              	 .loc 2 87 1
 518              	 .cfi_startproc
 519              	 
 520              	 
 521 0000 80B5     	 push {r7,lr}
 522              	 .cfi_def_cfa_offset 8
 523              	 .cfi_offset 7,-8
 524              	 .cfi_offset 14,-4
 525 0002 84B0     	 sub sp,sp,#16
 526              	 .cfi_def_cfa_offset 24
 527 0004 00AF     	 add r7,sp,#0
 528              	 .cfi_def_cfa_register 7
 529 0006 F860     	 str r0,[r7,#12]
 530 0008 B960     	 str r1,[r7,#8]
 531 000a 7A60     	 str r2,[r7,#4]
 532              	.LBB5:
 533              	 .loc 2 87 84
 534 000c FB68     	 ldr r3,[r7,#12]
 535 000e 1846     	 mov r0,r3
 536 0010 FFF7FEFF 	 bl _ZN12cpp_freertos9SemaphoreC2Ev
 537 0014 154A     	 ldr r2,.L32
 538 0016 FB68     	 ldr r3,[r7,#12]
 539 0018 1A60     	 str r2,[r3]
  88:C:\Users\niels\Documents\GitHub\DSP\software\STM32Basis\HAL\gemeenschappelijk\Third_Party\freertos-addons-1.1.0\c++\Source\csemaphore.cpp **** {
  89:C:\Users\niels\Documents\GitHub\DSP\software\STM32Basis\HAL\gemeenschappelijk\Third_Party\freertos-addons-1.1.0\c++\Source\csemaphore.cpp ****     assert (maxCount != 0);
 540              	 .loc 2 89 5
 541 001a BB68     	 ldr r3,[r7,#8]
 542 001c 002B     	 cmp r3,#0
 543 001e 05D1     	 bne .L28
 544              	 .loc 2 89 5 is_stmt 0 discriminator 1
 545 0020 134B     	 ldr r3,.L32+4
 546 0022 144A     	 ldr r2,.L32+8
 547 0024 5921     	 movs r1,#89
 548 0026 1448     	 ldr r0,.L32+12
 549 0028 FFF7FEFF 	 bl __assert_func
 550              	.L28:
  90:C:\Users\niels\Documents\GitHub\DSP\software\STM32Basis\HAL\gemeenschappelijk\Third_Party\freertos-addons-1.1.0\c++\Source\csemaphore.cpp **** 
  91:C:\Users\niels\Documents\GitHub\DSP\software\STM32Basis\HAL\gemeenschappelijk\Third_Party\freertos-addons-1.1.0\c++\Source\csemaphore.cpp ****     assert (initialCount <= maxCount);
 551              	 .loc 2 91 5 is_stmt 1
 552 002c 7A68     	 ldr r2,[r7,#4]
 553 002e BB68     	 ldr r3,[r7,#8]
 554 0030 9A42     	 cmp r2,r3
 555 0032 05D9     	 bls .L29
 556              	 .loc 2 91 5 is_stmt 0 discriminator 1
 557 0034 114B     	 ldr r3,.L32+16
 558 0036 0F4A     	 ldr r2,.L32+8
 559 0038 5B21     	 movs r1,#91
 560 003a 0F48     	 ldr r0,.L32+12
 561 003c FFF7FEFF 	 bl __assert_func
 562              	.L29:
  92:C:\Users\niels\Documents\GitHub\DSP\software\STM32Basis\HAL\gemeenschappelijk\Third_Party\freertos-addons-1.1.0\c++\Source\csemaphore.cpp **** 
  93:C:\Users\niels\Documents\GitHub\DSP\software\STM32Basis\HAL\gemeenschappelijk\Third_Party\freertos-addons-1.1.0\c++\Source\csemaphore.cpp ****     handle = xSemaphoreCreateCounting(maxCount, initialCount);
 563              	 .loc 2 93 14 is_stmt 1
 564 0040 7968     	 ldr r1,[r7,#4]
 565 0042 B868     	 ldr r0,[r7,#8]
 566 0044 FFF7FEFF 	 bl xQueueCreateCountingSemaphore
 567 0048 0246     	 mov r2,r0
ARM GAS   			page 20


 568              	 .loc 2 93 12
 569 004a FB68     	 ldr r3,[r7,#12]
 570 004c 5A60     	 str r2,[r3,#4]
  94:C:\Users\niels\Documents\GitHub\DSP\software\STM32Basis\HAL\gemeenschappelijk\Third_Party\freertos-addons-1.1.0\c++\Source\csemaphore.cpp **** 
  95:C:\Users\niels\Documents\GitHub\DSP\software\STM32Basis\HAL\gemeenschappelijk\Third_Party\freertos-addons-1.1.0\c++\Source\csemaphore.cpp ****     assert(handle != NULL);
 571              	 .loc 2 95 5
 572 004e FB68     	 ldr r3,[r7,#12]
 573 0050 5B68     	 ldr r3,[r3,#4]
 574 0052 002B     	 cmp r3,#0
 575 0054 05D1     	 bne .L30
 576              	 .loc 2 95 5 is_stmt 0 discriminator 1
 577 0056 0A4B     	 ldr r3,.L32+20
 578 0058 064A     	 ldr r2,.L32+8
 579 005a 5F21     	 movs r1,#95
 580 005c 0648     	 ldr r0,.L32+12
 581 005e FFF7FEFF 	 bl __assert_func
 582              	.L30:
 583              	.LBE5:
  96:C:\Users\niels\Documents\GitHub\DSP\software\STM32Basis\HAL\gemeenschappelijk\Third_Party\freertos-addons-1.1.0\c++\Source\csemaphore.cpp **** }
 584              	 .loc 2 96 1 is_stmt 1
 585 0062 FB68     	 ldr r3,[r7,#12]
 586 0064 1846     	 mov r0,r3
 587 0066 1037     	 adds r7,r7,#16
 588              	 .cfi_def_cfa_offset 8
 589 0068 BD46     	 mov sp,r7
 590              	 .cfi_def_cfa_register 13
 591              	 
 592 006a 80BD     	 pop {r7,pc}
 593              	.L33:
 594              	 .align 2
 595              	.L32:
 596 006c 08000000 	 .word _ZTVN12cpp_freertos17CountingSemaphoreE+8
 597 0070 D4000000 	 .word .LC3
 598 0074 E4000000 	 .word .LC4
 599 0078 48000000 	 .word .LC2
 600 007c 34010000 	 .word .LC5
 601 0080 00000000 	 .word .LC0
 602              	 .cfi_endproc
 603              	.LFE1047:
 604              	 .size _ZN12cpp_freertos17CountingSemaphoreC2Emm,.-_ZN12cpp_freertos17CountingSemaphoreC2Emm
 605              	 .global _ZN12cpp_freertos17CountingSemaphoreC1Emm
 606              	 .thumb_set _ZN12cpp_freertos17CountingSemaphoreC1Emm,_ZN12cpp_freertos17CountingSemaphoreC2Emm
 607              	 .weak _ZTVN12cpp_freertos17CountingSemaphoreE
 608              	 .section .rodata._ZTVN12cpp_freertos17CountingSemaphoreE,"aG",%progbits,_ZTVN12cpp_freertos17CountingSemaphoreE,comdat
 609              	 .align 2
 610              	 .type _ZTVN12cpp_freertos17CountingSemaphoreE,%object
 611              	 .size _ZTVN12cpp_freertos17CountingSemaphoreE,16
 612              	_ZTVN12cpp_freertos17CountingSemaphoreE:
 613 0000 00000000 	 .word 0
 614 0004 00000000 	 .word 0
 615 0008 00000000 	 .word _ZN12cpp_freertos17CountingSemaphoreD1Ev
 616 000c 00000000 	 .word _ZN12cpp_freertos17CountingSemaphoreD0Ev
 617              	 .section .text._ZN12cpp_freertos17CountingSemaphoreD2Ev,"axG",%progbits,_ZN12cpp_freertos17CountingSemaphoreD5Ev,comdat
 618              	 .align 1
 619              	 .weak _ZN12cpp_freertos17CountingSemaphoreD2Ev
 620              	 .syntax unified
 621              	 .thumb
ARM GAS   			page 21


 622              	 .thumb_func
 623              	 .type _ZN12cpp_freertos17CountingSemaphoreD2Ev,%function
 624              	_ZN12cpp_freertos17CountingSemaphoreD2Ev:
 625              	.LFB1517:
 157:c:\users\niels\documents\github\dsp\software\stm32basis\hal\gemeenschappelijk\third_party\freertos-addons-1.1.0\c++\source\include\semaphore.hpp **** };
 158:c:\users\niels\documents\github\dsp\software\stm32basis\hal\gemeenschappelijk\third_party\freertos-addons-1.1.0\c++\source\include\semaphore.hpp **** 
 159:c:\users\niels\documents\github\dsp\software\stm32basis\hal\gemeenschappelijk\third_party\freertos-addons-1.1.0\c++\source\include\semaphore.hpp **** 
 160:c:\users\niels\documents\github\dsp\software\stm32basis\hal\gemeenschappelijk\third_party\freertos-addons-1.1.0\c++\source\include\semaphore.hpp **** /**
 161:c:\users\niels\documents\github\dsp\software\stm32basis\hal\gemeenschappelijk\third_party\freertos-addons-1.1.0\c++\source\include\semaphore.hpp ****  *  Wrapper class for Binary Semaphores.
 162:c:\users\niels\documents\github\dsp\software\stm32basis\hal\gemeenschappelijk\third_party\freertos-addons-1.1.0\c++\source\include\semaphore.hpp ****  */
 163:c:\users\niels\documents\github\dsp\software\stm32basis\hal\gemeenschappelijk\third_party\freertos-addons-1.1.0\c++\source\include\semaphore.hpp **** class BinarySemaphore : public Semaphore {
 164:c:\users\niels\documents\github\dsp\software\stm32basis\hal\gemeenschappelijk\third_party\freertos-addons-1.1.0\c++\source\include\semaphore.hpp **** 
 165:c:\users\niels\documents\github\dsp\software\stm32basis\hal\gemeenschappelijk\third_party\freertos-addons-1.1.0\c++\source\include\semaphore.hpp ****     /////////////////////////////////////////////////////////////////////////
 166:c:\users\niels\documents\github\dsp\software\stm32basis\hal\gemeenschappelijk\third_party\freertos-addons-1.1.0\c++\source\include\semaphore.hpp ****     //
 167:c:\users\niels\documents\github\dsp\software\stm32basis\hal\gemeenschappelijk\third_party\freertos-addons-1.1.0\c++\source\include\semaphore.hpp ****     //  Public API
 168:c:\users\niels\documents\github\dsp\software\stm32basis\hal\gemeenschappelijk\third_party\freertos-addons-1.1.0\c++\source\include\semaphore.hpp ****     //
 169:c:\users\niels\documents\github\dsp\software\stm32basis\hal\gemeenschappelijk\third_party\freertos-addons-1.1.0\c++\source\include\semaphore.hpp ****     /////////////////////////////////////////////////////////////////////////
 170:c:\users\niels\documents\github\dsp\software\stm32basis\hal\gemeenschappelijk\third_party\freertos-addons-1.1.0\c++\source\include\semaphore.hpp ****     public:
 171:c:\users\niels\documents\github\dsp\software\stm32basis\hal\gemeenschappelijk\third_party\freertos-addons-1.1.0\c++\source\include\semaphore.hpp ****         /**
 172:c:\users\niels\documents\github\dsp\software\stm32basis\hal\gemeenschappelijk\third_party\freertos-addons-1.1.0\c++\source\include\semaphore.hpp ****          *  Constructor to create a binary semaphore.
 173:c:\users\niels\documents\github\dsp\software\stm32basis\hal\gemeenschappelijk\third_party\freertos-addons-1.1.0\c++\source\include\semaphore.hpp ****          *
 174:c:\users\niels\documents\github\dsp\software\stm32basis\hal\gemeenschappelijk\third_party\freertos-addons-1.1.0\c++\source\include\semaphore.hpp ****          *  @param set Is this semaphore "full" or not?
 175:c:\users\niels\documents\github\dsp\software\stm32basis\hal\gemeenschappelijk\third_party\freertos-addons-1.1.0\c++\source\include\semaphore.hpp ****          *  @throws SemaphoreCreateException on failure.
 176:c:\users\niels\documents\github\dsp\software\stm32basis\hal\gemeenschappelijk\third_party\freertos-addons-1.1.0\c++\source\include\semaphore.hpp ****          *  @return Instance of a BinarySemaphore.
 177:c:\users\niels\documents\github\dsp\software\stm32basis\hal\gemeenschappelijk\third_party\freertos-addons-1.1.0\c++\source\include\semaphore.hpp ****          */
 178:c:\users\niels\documents\github\dsp\software\stm32basis\hal\gemeenschappelijk\third_party\freertos-addons-1.1.0\c++\source\include\semaphore.hpp ****         explicit BinarySemaphore(bool set = false);
 179:c:\users\niels\documents\github\dsp\software\stm32basis\hal\gemeenschappelijk\third_party\freertos-addons-1.1.0\c++\source\include\semaphore.hpp **** };
 180:c:\users\niels\documents\github\dsp\software\stm32basis\hal\gemeenschappelijk\third_party\freertos-addons-1.1.0\c++\source\include\semaphore.hpp **** 
 181:c:\users\niels\documents\github\dsp\software\stm32basis\hal\gemeenschappelijk\third_party\freertos-addons-1.1.0\c++\source\include\semaphore.hpp **** 
 182:c:\users\niels\documents\github\dsp\software\stm32basis\hal\gemeenschappelijk\third_party\freertos-addons-1.1.0\c++\source\include\semaphore.hpp **** /**
 183:c:\users\niels\documents\github\dsp\software\stm32basis\hal\gemeenschappelijk\third_party\freertos-addons-1.1.0\c++\source\include\semaphore.hpp ****  *  Wrapper class for Counting Semaphores.
 184:c:\users\niels\documents\github\dsp\software\stm32basis\hal\gemeenschappelijk\third_party\freertos-addons-1.1.0\c++\source\include\semaphore.hpp ****  */
 185:c:\users\niels\documents\github\dsp\software\stm32basis\hal\gemeenschappelijk\third_party\freertos-addons-1.1.0\c++\source\include\semaphore.hpp **** class CountingSemaphore : public Semaphore {
 626              	 .loc 3 185 7
 627              	 .cfi_startproc
 628              	 
 629              	 
 630 0000 80B5     	 push {r7,lr}
 631              	 .cfi_def_cfa_offset 8
 632              	 .cfi_offset 7,-8
 633              	 .cfi_offset 14,-4
 634 0002 82B0     	 sub sp,sp,#8
 635              	 .cfi_def_cfa_offset 16
 636 0004 00AF     	 add r7,sp,#0
 637              	 .cfi_def_cfa_register 7
 638 0006 7860     	 str r0,[r7,#4]
 639              	.LBB6:
 640              	 .loc 3 185 7
 641 0008 054A     	 ldr r2,.L36
 642 000a 7B68     	 ldr r3,[r7,#4]
 643 000c 1A60     	 str r2,[r3]
 644 000e 7B68     	 ldr r3,[r7,#4]
 645 0010 1846     	 mov r0,r3
 646 0012 FFF7FEFF 	 bl _ZN12cpp_freertos9SemaphoreD2Ev
 647              	.LBE6:
 648 0016 7B68     	 ldr r3,[r7,#4]
 649 0018 1846     	 mov r0,r3
ARM GAS   			page 22


 650 001a 0837     	 adds r7,r7,#8
 651              	 .cfi_def_cfa_offset 8
 652 001c BD46     	 mov sp,r7
 653              	 .cfi_def_cfa_register 13
 654              	 
 655 001e 80BD     	 pop {r7,pc}
 656              	.L37:
 657              	 .align 2
 658              	.L36:
 659 0020 08000000 	 .word _ZTVN12cpp_freertos17CountingSemaphoreE+8
 660              	 .cfi_endproc
 661              	.LFE1517:
 662              	 .size _ZN12cpp_freertos17CountingSemaphoreD2Ev,.-_ZN12cpp_freertos17CountingSemaphoreD2Ev
 663              	 .weak _ZN12cpp_freertos17CountingSemaphoreD1Ev
 664              	 .thumb_set _ZN12cpp_freertos17CountingSemaphoreD1Ev,_ZN12cpp_freertos17CountingSemaphoreD2Ev
 665              	 .section .text._ZN12cpp_freertos17CountingSemaphoreD0Ev,"axG",%progbits,_ZN12cpp_freertos17CountingSemaphoreD5Ev,comdat
 666              	 .align 1
 667              	 .weak _ZN12cpp_freertos17CountingSemaphoreD0Ev
 668              	 .syntax unified
 669              	 .thumb
 670              	 .thumb_func
 671              	 .type _ZN12cpp_freertos17CountingSemaphoreD0Ev,%function
 672              	_ZN12cpp_freertos17CountingSemaphoreD0Ev:
 673              	.LFB1519:
 674              	 .loc 3 185 7
 675              	 .cfi_startproc
 676              	 
 677              	 
 678 0000 80B5     	 push {r7,lr}
 679              	 .cfi_def_cfa_offset 8
 680              	 .cfi_offset 7,-8
 681              	 .cfi_offset 14,-4
 682 0002 82B0     	 sub sp,sp,#8
 683              	 .cfi_def_cfa_offset 16
 684 0004 00AF     	 add r7,sp,#0
 685              	 .cfi_def_cfa_register 7
 686 0006 7860     	 str r0,[r7,#4]
 687              	 .loc 3 185 7
 688 0008 7868     	 ldr r0,[r7,#4]
 689 000a FFF7FEFF 	 bl _ZN12cpp_freertos17CountingSemaphoreD1Ev
 690 000e 0821     	 movs r1,#8
 691 0010 7868     	 ldr r0,[r7,#4]
 692 0012 FFF7FEFF 	 bl _ZdlPvj
 693 0016 7B68     	 ldr r3,[r7,#4]
 694 0018 1846     	 mov r0,r3
 695 001a 0837     	 adds r7,r7,#8
 696              	 .cfi_def_cfa_offset 8
 697 001c BD46     	 mov sp,r7
 698              	 .cfi_def_cfa_register 13
 699              	 
 700 001e 80BD     	 pop {r7,pc}
 701              	 .cfi_endproc
 702              	.LFE1519:
 703              	 .size _ZN12cpp_freertos17CountingSemaphoreD0Ev,.-_ZN12cpp_freertos17CountingSemaphoreD0Ev
 704              	 .weak _ZTVN12cpp_freertos15BinarySemaphoreE
 705              	 .section .rodata._ZTVN12cpp_freertos15BinarySemaphoreE,"aG",%progbits,_ZTVN12cpp_freertos15BinarySemaphoreE,comdat
 706              	 .align 2
ARM GAS   			page 23


 707              	 .type _ZTVN12cpp_freertos15BinarySemaphoreE,%object
 708              	 .size _ZTVN12cpp_freertos15BinarySemaphoreE,16
 709              	_ZTVN12cpp_freertos15BinarySemaphoreE:
 710 0000 00000000 	 .word 0
 711 0004 00000000 	 .word 0
 712 0008 00000000 	 .word _ZN12cpp_freertos15BinarySemaphoreD1Ev
 713 000c 00000000 	 .word _ZN12cpp_freertos15BinarySemaphoreD0Ev
 714              	 .section .text._ZN12cpp_freertos15BinarySemaphoreD2Ev,"axG",%progbits,_ZN12cpp_freertos15BinarySemaphoreD5Ev,comdat
 715              	 .align 1
 716              	 .weak _ZN12cpp_freertos15BinarySemaphoreD2Ev
 717              	 .syntax unified
 718              	 .thumb
 719              	 .thumb_func
 720              	 .type _ZN12cpp_freertos15BinarySemaphoreD2Ev,%function
 721              	_ZN12cpp_freertos15BinarySemaphoreD2Ev:
 722              	.LFB1521:
 163:c:\users\niels\documents\github\dsp\software\stm32basis\hal\gemeenschappelijk\third_party\freertos-addons-1.1.0\c++\source\include\semaphore.hpp **** 
 723              	 .loc 3 163 7
 724              	 .cfi_startproc
 725              	 
 726              	 
 727 0000 80B5     	 push {r7,lr}
 728              	 .cfi_def_cfa_offset 8
 729              	 .cfi_offset 7,-8
 730              	 .cfi_offset 14,-4
 731 0002 82B0     	 sub sp,sp,#8
 732              	 .cfi_def_cfa_offset 16
 733 0004 00AF     	 add r7,sp,#0
 734              	 .cfi_def_cfa_register 7
 735 0006 7860     	 str r0,[r7,#4]
 736              	.LBB7:
 163:c:\users\niels\documents\github\dsp\software\stm32basis\hal\gemeenschappelijk\third_party\freertos-addons-1.1.0\c++\source\include\semaphore.hpp **** 
 737              	 .loc 3 163 7
 738 0008 054A     	 ldr r2,.L42
 739 000a 7B68     	 ldr r3,[r7,#4]
 740 000c 1A60     	 str r2,[r3]
 741 000e 7B68     	 ldr r3,[r7,#4]
 742 0010 1846     	 mov r0,r3
 743 0012 FFF7FEFF 	 bl _ZN12cpp_freertos9SemaphoreD2Ev
 744              	.LBE7:
 745 0016 7B68     	 ldr r3,[r7,#4]
 746 0018 1846     	 mov r0,r3
 747 001a 0837     	 adds r7,r7,#8
 748              	 .cfi_def_cfa_offset 8
 749 001c BD46     	 mov sp,r7
 750              	 .cfi_def_cfa_register 13
 751              	 
 752 001e 80BD     	 pop {r7,pc}
 753              	.L43:
 754              	 .align 2
 755              	.L42:
 756 0020 08000000 	 .word _ZTVN12cpp_freertos15BinarySemaphoreE+8
 757              	 .cfi_endproc
 758              	.LFE1521:
 759              	 .size _ZN12cpp_freertos15BinarySemaphoreD2Ev,.-_ZN12cpp_freertos15BinarySemaphoreD2Ev
 760              	 .weak _ZN12cpp_freertos15BinarySemaphoreD1Ev
 761              	 .thumb_set _ZN12cpp_freertos15BinarySemaphoreD1Ev,_ZN12cpp_freertos15BinarySemaphoreD2Ev
ARM GAS   			page 24


 762              	 .section .text._ZN12cpp_freertos15BinarySemaphoreD0Ev,"axG",%progbits,_ZN12cpp_freertos15BinarySemaphoreD5Ev,comdat
 763              	 .align 1
 764              	 .weak _ZN12cpp_freertos15BinarySemaphoreD0Ev
 765              	 .syntax unified
 766              	 .thumb
 767              	 .thumb_func
 768              	 .type _ZN12cpp_freertos15BinarySemaphoreD0Ev,%function
 769              	_ZN12cpp_freertos15BinarySemaphoreD0Ev:
 770              	.LFB1523:
 163:c:\users\niels\documents\github\dsp\software\stm32basis\hal\gemeenschappelijk\third_party\freertos-addons-1.1.0\c++\source\include\semaphore.hpp **** 
 771              	 .loc 3 163 7
 772              	 .cfi_startproc
 773              	 
 774              	 
 775 0000 80B5     	 push {r7,lr}
 776              	 .cfi_def_cfa_offset 8
 777              	 .cfi_offset 7,-8
 778              	 .cfi_offset 14,-4
 779 0002 82B0     	 sub sp,sp,#8
 780              	 .cfi_def_cfa_offset 16
 781 0004 00AF     	 add r7,sp,#0
 782              	 .cfi_def_cfa_register 7
 783 0006 7860     	 str r0,[r7,#4]
 163:c:\users\niels\documents\github\dsp\software\stm32basis\hal\gemeenschappelijk\third_party\freertos-addons-1.1.0\c++\source\include\semaphore.hpp **** 
 784              	 .loc 3 163 7
 785 0008 7868     	 ldr r0,[r7,#4]
 786 000a FFF7FEFF 	 bl _ZN12cpp_freertos15BinarySemaphoreD1Ev
 787 000e 0821     	 movs r1,#8
 788 0010 7868     	 ldr r0,[r7,#4]
 789 0012 FFF7FEFF 	 bl _ZdlPvj
 790 0016 7B68     	 ldr r3,[r7,#4]
 791 0018 1846     	 mov r0,r3
 792 001a 0837     	 adds r7,r7,#8
 793              	 .cfi_def_cfa_offset 8
 794 001c BD46     	 mov sp,r7
 795              	 .cfi_def_cfa_register 13
 796              	 
 797 001e 80BD     	 pop {r7,pc}
 798              	 .cfi_endproc
 799              	.LFE1523:
 800              	 .size _ZN12cpp_freertos15BinarySemaphoreD0Ev,.-_ZN12cpp_freertos15BinarySemaphoreD0Ev
 801              	 .global _ZTVN12cpp_freertos9SemaphoreE
 802              	 .section .rodata._ZTVN12cpp_freertos9SemaphoreE,"a"
 803              	 .align 2
 804              	 .type _ZTVN12cpp_freertos9SemaphoreE,%object
 805              	 .size _ZTVN12cpp_freertos9SemaphoreE,16
 806              	_ZTVN12cpp_freertos9SemaphoreE:
 807 0000 00000000 	 .word 0
 808 0004 00000000 	 .word 0
 809 0008 00000000 	 .word _ZN12cpp_freertos9SemaphoreD1Ev
 810 000c 00000000 	 .word _ZN12cpp_freertos9SemaphoreD0Ev
 811              	 .text
 812              	.Letext0:
 813              	 .file 4 "c:\\progra~2\\gnuarm~1\\102021~1.10\\arm-none-eabi\\include\\c++\\10.3.1\\bits\\exception_ptr.h"
 814              	 .file 5 "c:\\progra~2\\gnuarm~1\\102021~1.10\\arm-none-eabi\\include\\c++\\10.3.1\\bits\\cpp_type_traits.h"
 815              	 .file 6 "c:\\progra~2\\gnuarm~1\\102021~1.10\\arm-none-eabi\\include\\c++\\10.3.1\\bits\\stl_pair.h"
 816              	 .file 7 "c:\\progra~2\\gnuarm~1\\102021~1.10\\arm-none-eabi\\include\\c++\\10.3.1\\type_traits"
ARM GAS   			page 25


 817              	 .file 8 "c:\\progra~2\\gnuarm~1\\102021~1.10\\arm-none-eabi\\include\\c++\\10.3.1\\debug\\debug.h"
 818              	 .file 9 "c:\\progra~2\\gnuarm~1\\102021~1.10\\arm-none-eabi\\include\\c++\\10.3.1\\cwchar"
 819              	 .file 10 "c:\\progra~2\\gnuarm~1\\102021~1.10\\arm-none-eabi\\include\\c++\\10.3.1\\cstdint"
 820              	 .file 11 "c:\\progra~2\\gnuarm~1\\102021~1.10\\arm-none-eabi\\include\\c++\\10.3.1\\clocale"
 821              	 .file 12 "c:\\progra~2\\gnuarm~1\\102021~1.10\\arm-none-eabi\\include\\c++\\10.3.1\\cstdlib"
 822              	 .file 13 "c:\\progra~2\\gnuarm~1\\102021~1.10\\arm-none-eabi\\include\\c++\\10.3.1\\cstdio"
 823              	 .file 14 "c:\\progra~2\\gnuarm~1\\102021~1.10\\arm-none-eabi\\include\\c++\\10.3.1\\arm-none-eabi\\thumb\\v7e-m+fp\\hard\\bits\\c++config.h"
 824              	 .file 15 "c:\\progra~2\\gnuarm~1\\102021~1.10\\arm-none-eabi\\include\\c++\\10.3.1\\bits\\basic_string.h"
 825              	 .file 16 "c:\\progra~2\\gnuarm~1\\102021~1.10\\arm-none-eabi\\include\\c++\\10.3.1\\bits\\predefined_ops.h"
 826              	 .file 17 "c:\\progra~2\\gnuarm~1\\102021~1.10\\lib\\gcc\\arm-none-eabi\\10.3.1\\include\\stddef.h"
 827              	 .file 18 "c:\\progra~2\\gnuarm~1\\102021~1.10\\arm-none-eabi\\include\\machine\\_default_types.h"
 828              	 .file 19 "c:\\progra~2\\gnuarm~1\\102021~1.10\\arm-none-eabi\\include\\sys\\_types.h"
 829              	 .file 20 "c:\\progra~2\\gnuarm~1\\102021~1.10\\arm-none-eabi\\include\\sys\\reent.h"
 830              	 .file 21 "c:\\progra~2\\gnuarm~1\\102021~1.10\\arm-none-eabi\\include\\sys\\lock.h"
 831              	 .file 22 "c:\\progra~2\\gnuarm~1\\102021~1.10\\lib\\gcc\\arm-none-eabi\\10.3.1\\include\\stdarg.h"
 832              	 .file 23 "c:\\progra~2\\gnuarm~1\\102021~1.10\\arm-none-eabi\\include\\wchar.h"
 833              	 .file 24 "c:\\progra~2\\gnuarm~1\\102021~1.10\\arm-none-eabi\\include\\sys\\_stdint.h"
 834              	 .file 25 "c:\\progra~2\\gnuarm~1\\102021~1.10\\arm-none-eabi\\include\\stdint.h"
 835              	 .file 26 "c:\\progra~2\\gnuarm~1\\102021~1.10\\arm-none-eabi\\include\\locale.h"
 836              	 .file 27 "c:\\progra~2\\gnuarm~1\\102021~1.10\\arm-none-eabi\\include\\stdlib.h"
 837              	 .file 28 "c:\\progra~2\\gnuarm~1\\102021~1.10\\arm-none-eabi\\include\\stdio.h"
 838              	 .file 29 "c:\\users\\niels\\documents\\github\\dsp\\software\\stm32basis\\hal\\gemeenschappelijk\\third_party\\freertos\\source\\portable\\gcc\\arm_cm4f\\portmacro.h"
 839              	 .file 30 "c:\\users\\niels\\documents\\github\\dsp\\software\\stm32basis\\hal\\gemeenschappelijk\\third_party\\freertos\\source\\include\\queue.h"
 840              	 .file 31 "c:\\users\\niels\\documents\\github\\dsp\\software\\stm32basis\\hal\\gemeenschappelijk\\third_party\\freertos\\source\\include\\semphr.h"
 841              	 .file 32 "<built-in>"