ARM GAS   			page 1


   1              	 .cpu cortex-m4
   2              	 .arch armv7e-m
   3              	 .fpu fpv4-sp-d16
   4              	 .eabi_attribute 27,1
   5              	 .eabi_attribute 28,1
   6              	 .eabi_attribute 20,1
   7              	 .eabi_attribute 21,1
   8              	 .eabi_attribute 23,3
   9              	 .eabi_attribute 24,1
  10              	 .eabi_attribute 25,1
  11              	 .eabi_attribute 26,1
  12              	 .eabi_attribute 30,6
  13              	 .eabi_attribute 34,0
  14              	 .eabi_attribute 18,4
  15              	 .file "cthread.cpp"
  16              	 .text
  17              	.Ltext0:
  18              	 .cfi_sections .debug_frame
  19              	 .section .rodata._ZStL19piecewise_construct,"a"
  20              	 .align 2
  21              	 .type _ZStL19piecewise_construct,%object
  22              	 .size _ZStL19piecewise_construct,1
  23              	_ZStL19piecewise_construct:
  24 0000 00       	 .space 1
  25              	 .section .text._ZL20__gthread_key_deletei,"ax",%progbits
  26              	 .align 1
  27              	 .syntax unified
  28              	 .thumb
  29              	 .thumb_func
  30              	 .type _ZL20__gthread_key_deletei,%function
  31              	_ZL20__gthread_key_deletei:
  32              	.LFB652:
  33              	 .file 1 "c:\\progra~2\\gnuarm~1\\102021~1.10\\arm-none-eabi\\include\\c++\\10.3.1\\arm-none-eabi\\thumb\\v7e-m+fp\\hard\\bits\\gthr-default.h"
   1:c:\progra~2\gnuarm~1\102021~1.10\arm-none-eabi\include\c++\10.3.1\arm-none-eabi\thumb\v7e-m+fp\hard\bits\gthr-default.h **** /* Threads compatibility routines for libgcc2 and libobjc.  */
   2:c:\progra~2\gnuarm~1\102021~1.10\arm-none-eabi\include\c++\10.3.1\arm-none-eabi\thumb\v7e-m+fp\hard\bits\gthr-default.h **** /* Compile this one with gcc.  */
   3:c:\progra~2\gnuarm~1\102021~1.10\arm-none-eabi\include\c++\10.3.1\arm-none-eabi\thumb\v7e-m+fp\hard\bits\gthr-default.h **** /* Copyright (C) 1997-2020 Free Software Foundation, Inc.
   4:c:\progra~2\gnuarm~1\102021~1.10\arm-none-eabi\include\c++\10.3.1\arm-none-eabi\thumb\v7e-m+fp\hard\bits\gthr-default.h **** 
   5:c:\progra~2\gnuarm~1\102021~1.10\arm-none-eabi\include\c++\10.3.1\arm-none-eabi\thumb\v7e-m+fp\hard\bits\gthr-default.h **** This file is part of GCC.
   6:c:\progra~2\gnuarm~1\102021~1.10\arm-none-eabi\include\c++\10.3.1\arm-none-eabi\thumb\v7e-m+fp\hard\bits\gthr-default.h **** 
   7:c:\progra~2\gnuarm~1\102021~1.10\arm-none-eabi\include\c++\10.3.1\arm-none-eabi\thumb\v7e-m+fp\hard\bits\gthr-default.h **** GCC is free software; you can redistribute it and/or modify it under
   8:c:\progra~2\gnuarm~1\102021~1.10\arm-none-eabi\include\c++\10.3.1\arm-none-eabi\thumb\v7e-m+fp\hard\bits\gthr-default.h **** the terms of the GNU General Public License as published by the Free
   9:c:\progra~2\gnuarm~1\102021~1.10\arm-none-eabi\include\c++\10.3.1\arm-none-eabi\thumb\v7e-m+fp\hard\bits\gthr-default.h **** Software Foundation; either version 3, or (at your option) any later
  10:c:\progra~2\gnuarm~1\102021~1.10\arm-none-eabi\include\c++\10.3.1\arm-none-eabi\thumb\v7e-m+fp\hard\bits\gthr-default.h **** version.
  11:c:\progra~2\gnuarm~1\102021~1.10\arm-none-eabi\include\c++\10.3.1\arm-none-eabi\thumb\v7e-m+fp\hard\bits\gthr-default.h **** 
  12:c:\progra~2\gnuarm~1\102021~1.10\arm-none-eabi\include\c++\10.3.1\arm-none-eabi\thumb\v7e-m+fp\hard\bits\gthr-default.h **** GCC is distributed in the hope that it will be useful, but WITHOUT ANY
  13:c:\progra~2\gnuarm~1\102021~1.10\arm-none-eabi\include\c++\10.3.1\arm-none-eabi\thumb\v7e-m+fp\hard\bits\gthr-default.h **** WARRANTY; without even the implied warranty of MERCHANTABILITY or
  14:c:\progra~2\gnuarm~1\102021~1.10\arm-none-eabi\include\c++\10.3.1\arm-none-eabi\thumb\v7e-m+fp\hard\bits\gthr-default.h **** FITNESS FOR A PARTICULAR PURPOSE.  See the GNU General Public License
  15:c:\progra~2\gnuarm~1\102021~1.10\arm-none-eabi\include\c++\10.3.1\arm-none-eabi\thumb\v7e-m+fp\hard\bits\gthr-default.h **** for more details.
  16:c:\progra~2\gnuarm~1\102021~1.10\arm-none-eabi\include\c++\10.3.1\arm-none-eabi\thumb\v7e-m+fp\hard\bits\gthr-default.h **** 
  17:c:\progra~2\gnuarm~1\102021~1.10\arm-none-eabi\include\c++\10.3.1\arm-none-eabi\thumb\v7e-m+fp\hard\bits\gthr-default.h **** Under Section 7 of GPL version 3, you are granted additional
  18:c:\progra~2\gnuarm~1\102021~1.10\arm-none-eabi\include\c++\10.3.1\arm-none-eabi\thumb\v7e-m+fp\hard\bits\gthr-default.h **** permissions described in the GCC Runtime Library Exception, version
  19:c:\progra~2\gnuarm~1\102021~1.10\arm-none-eabi\include\c++\10.3.1\arm-none-eabi\thumb\v7e-m+fp\hard\bits\gthr-default.h **** 3.1, as published by the Free Software Foundation.
  20:c:\progra~2\gnuarm~1\102021~1.10\arm-none-eabi\include\c++\10.3.1\arm-none-eabi\thumb\v7e-m+fp\hard\bits\gthr-default.h **** 
  21:c:\progra~2\gnuarm~1\102021~1.10\arm-none-eabi\include\c++\10.3.1\arm-none-eabi\thumb\v7e-m+fp\hard\bits\gthr-default.h **** You should have received a copy of the GNU General Public License and
  22:c:\progra~2\gnuarm~1\102021~1.10\arm-none-eabi\include\c++\10.3.1\arm-none-eabi\thumb\v7e-m+fp\hard\bits\gthr-default.h **** a copy of the GCC Runtime Library Exception along with this program;
  23:c:\progra~2\gnuarm~1\102021~1.10\arm-none-eabi\include\c++\10.3.1\arm-none-eabi\thumb\v7e-m+fp\hard\bits\gthr-default.h **** see the files COPYING3 and COPYING.RUNTIME respectively.  If not, see
  24:c:\progra~2\gnuarm~1\102021~1.10\arm-none-eabi\include\c++\10.3.1\arm-none-eabi\thumb\v7e-m+fp\hard\bits\gthr-default.h **** <http://www.gnu.org/licenses/>.  */
ARM GAS   			page 2


  25:c:\progra~2\gnuarm~1\102021~1.10\arm-none-eabi\include\c++\10.3.1\arm-none-eabi\thumb\v7e-m+fp\hard\bits\gthr-default.h **** 
  26:c:\progra~2\gnuarm~1\102021~1.10\arm-none-eabi\include\c++\10.3.1\arm-none-eabi\thumb\v7e-m+fp\hard\bits\gthr-default.h **** #ifndef _GLIBCXX_GCC_GTHR_SINGLE_H
  27:c:\progra~2\gnuarm~1\102021~1.10\arm-none-eabi\include\c++\10.3.1\arm-none-eabi\thumb\v7e-m+fp\hard\bits\gthr-default.h **** #define _GLIBCXX_GCC_GTHR_SINGLE_H
  28:c:\progra~2\gnuarm~1\102021~1.10\arm-none-eabi\include\c++\10.3.1\arm-none-eabi\thumb\v7e-m+fp\hard\bits\gthr-default.h **** 
  29:c:\progra~2\gnuarm~1\102021~1.10\arm-none-eabi\include\c++\10.3.1\arm-none-eabi\thumb\v7e-m+fp\hard\bits\gthr-default.h **** /* Just provide compatibility for mutex handling.  */
  30:c:\progra~2\gnuarm~1\102021~1.10\arm-none-eabi\include\c++\10.3.1\arm-none-eabi\thumb\v7e-m+fp\hard\bits\gthr-default.h **** 
  31:c:\progra~2\gnuarm~1\102021~1.10\arm-none-eabi\include\c++\10.3.1\arm-none-eabi\thumb\v7e-m+fp\hard\bits\gthr-default.h **** typedef int __gthread_key_t;
  32:c:\progra~2\gnuarm~1\102021~1.10\arm-none-eabi\include\c++\10.3.1\arm-none-eabi\thumb\v7e-m+fp\hard\bits\gthr-default.h **** typedef int __gthread_once_t;
  33:c:\progra~2\gnuarm~1\102021~1.10\arm-none-eabi\include\c++\10.3.1\arm-none-eabi\thumb\v7e-m+fp\hard\bits\gthr-default.h **** typedef int __gthread_mutex_t;
  34:c:\progra~2\gnuarm~1\102021~1.10\arm-none-eabi\include\c++\10.3.1\arm-none-eabi\thumb\v7e-m+fp\hard\bits\gthr-default.h **** typedef int __gthread_recursive_mutex_t;
  35:c:\progra~2\gnuarm~1\102021~1.10\arm-none-eabi\include\c++\10.3.1\arm-none-eabi\thumb\v7e-m+fp\hard\bits\gthr-default.h **** 
  36:c:\progra~2\gnuarm~1\102021~1.10\arm-none-eabi\include\c++\10.3.1\arm-none-eabi\thumb\v7e-m+fp\hard\bits\gthr-default.h **** #define __GTHREAD_ONCE_INIT 0
  37:c:\progra~2\gnuarm~1\102021~1.10\arm-none-eabi\include\c++\10.3.1\arm-none-eabi\thumb\v7e-m+fp\hard\bits\gthr-default.h **** #define __GTHREAD_MUTEX_INIT 0
  38:c:\progra~2\gnuarm~1\102021~1.10\arm-none-eabi\include\c++\10.3.1\arm-none-eabi\thumb\v7e-m+fp\hard\bits\gthr-default.h **** #define __GTHREAD_MUTEX_INIT_FUNCTION(mx) do {} while (0)
  39:c:\progra~2\gnuarm~1\102021~1.10\arm-none-eabi\include\c++\10.3.1\arm-none-eabi\thumb\v7e-m+fp\hard\bits\gthr-default.h **** #define __GTHREAD_RECURSIVE_MUTEX_INIT 0
  40:c:\progra~2\gnuarm~1\102021~1.10\arm-none-eabi\include\c++\10.3.1\arm-none-eabi\thumb\v7e-m+fp\hard\bits\gthr-default.h **** 
  41:c:\progra~2\gnuarm~1\102021~1.10\arm-none-eabi\include\c++\10.3.1\arm-none-eabi\thumb\v7e-m+fp\hard\bits\gthr-default.h **** #define _GLIBCXX_UNUSED __attribute__((__unused__))
  42:c:\progra~2\gnuarm~1\102021~1.10\arm-none-eabi\include\c++\10.3.1\arm-none-eabi\thumb\v7e-m+fp\hard\bits\gthr-default.h **** 
  43:c:\progra~2\gnuarm~1\102021~1.10\arm-none-eabi\include\c++\10.3.1\arm-none-eabi\thumb\v7e-m+fp\hard\bits\gthr-default.h **** #ifdef _LIBOBJC
  44:c:\progra~2\gnuarm~1\102021~1.10\arm-none-eabi\include\c++\10.3.1\arm-none-eabi\thumb\v7e-m+fp\hard\bits\gthr-default.h **** 
  45:c:\progra~2\gnuarm~1\102021~1.10\arm-none-eabi\include\c++\10.3.1\arm-none-eabi\thumb\v7e-m+fp\hard\bits\gthr-default.h **** /* Thread local storage for a single thread */
  46:c:\progra~2\gnuarm~1\102021~1.10\arm-none-eabi\include\c++\10.3.1\arm-none-eabi\thumb\v7e-m+fp\hard\bits\gthr-default.h **** static void *thread_local_storage = NULL;
  47:c:\progra~2\gnuarm~1\102021~1.10\arm-none-eabi\include\c++\10.3.1\arm-none-eabi\thumb\v7e-m+fp\hard\bits\gthr-default.h **** 
  48:c:\progra~2\gnuarm~1\102021~1.10\arm-none-eabi\include\c++\10.3.1\arm-none-eabi\thumb\v7e-m+fp\hard\bits\gthr-default.h **** /* Backend initialization functions */
  49:c:\progra~2\gnuarm~1\102021~1.10\arm-none-eabi\include\c++\10.3.1\arm-none-eabi\thumb\v7e-m+fp\hard\bits\gthr-default.h **** 
  50:c:\progra~2\gnuarm~1\102021~1.10\arm-none-eabi\include\c++\10.3.1\arm-none-eabi\thumb\v7e-m+fp\hard\bits\gthr-default.h **** /* Initialize the threads subsystem.  */
  51:c:\progra~2\gnuarm~1\102021~1.10\arm-none-eabi\include\c++\10.3.1\arm-none-eabi\thumb\v7e-m+fp\hard\bits\gthr-default.h **** static inline int
  52:c:\progra~2\gnuarm~1\102021~1.10\arm-none-eabi\include\c++\10.3.1\arm-none-eabi\thumb\v7e-m+fp\hard\bits\gthr-default.h **** __gthread_objc_init_thread_system (void)
  53:c:\progra~2\gnuarm~1\102021~1.10\arm-none-eabi\include\c++\10.3.1\arm-none-eabi\thumb\v7e-m+fp\hard\bits\gthr-default.h **** {
  54:c:\progra~2\gnuarm~1\102021~1.10\arm-none-eabi\include\c++\10.3.1\arm-none-eabi\thumb\v7e-m+fp\hard\bits\gthr-default.h ****   /* No thread support available */
  55:c:\progra~2\gnuarm~1\102021~1.10\arm-none-eabi\include\c++\10.3.1\arm-none-eabi\thumb\v7e-m+fp\hard\bits\gthr-default.h ****   return -1;
  56:c:\progra~2\gnuarm~1\102021~1.10\arm-none-eabi\include\c++\10.3.1\arm-none-eabi\thumb\v7e-m+fp\hard\bits\gthr-default.h **** }
  57:c:\progra~2\gnuarm~1\102021~1.10\arm-none-eabi\include\c++\10.3.1\arm-none-eabi\thumb\v7e-m+fp\hard\bits\gthr-default.h **** 
  58:c:\progra~2\gnuarm~1\102021~1.10\arm-none-eabi\include\c++\10.3.1\arm-none-eabi\thumb\v7e-m+fp\hard\bits\gthr-default.h **** /* Close the threads subsystem.  */
  59:c:\progra~2\gnuarm~1\102021~1.10\arm-none-eabi\include\c++\10.3.1\arm-none-eabi\thumb\v7e-m+fp\hard\bits\gthr-default.h **** static inline int
  60:c:\progra~2\gnuarm~1\102021~1.10\arm-none-eabi\include\c++\10.3.1\arm-none-eabi\thumb\v7e-m+fp\hard\bits\gthr-default.h **** __gthread_objc_close_thread_system (void)
  61:c:\progra~2\gnuarm~1\102021~1.10\arm-none-eabi\include\c++\10.3.1\arm-none-eabi\thumb\v7e-m+fp\hard\bits\gthr-default.h **** {
  62:c:\progra~2\gnuarm~1\102021~1.10\arm-none-eabi\include\c++\10.3.1\arm-none-eabi\thumb\v7e-m+fp\hard\bits\gthr-default.h ****   /* No thread support available */
  63:c:\progra~2\gnuarm~1\102021~1.10\arm-none-eabi\include\c++\10.3.1\arm-none-eabi\thumb\v7e-m+fp\hard\bits\gthr-default.h ****   return -1;
  64:c:\progra~2\gnuarm~1\102021~1.10\arm-none-eabi\include\c++\10.3.1\arm-none-eabi\thumb\v7e-m+fp\hard\bits\gthr-default.h **** }
  65:c:\progra~2\gnuarm~1\102021~1.10\arm-none-eabi\include\c++\10.3.1\arm-none-eabi\thumb\v7e-m+fp\hard\bits\gthr-default.h **** 
  66:c:\progra~2\gnuarm~1\102021~1.10\arm-none-eabi\include\c++\10.3.1\arm-none-eabi\thumb\v7e-m+fp\hard\bits\gthr-default.h **** /* Backend thread functions */
  67:c:\progra~2\gnuarm~1\102021~1.10\arm-none-eabi\include\c++\10.3.1\arm-none-eabi\thumb\v7e-m+fp\hard\bits\gthr-default.h **** 
  68:c:\progra~2\gnuarm~1\102021~1.10\arm-none-eabi\include\c++\10.3.1\arm-none-eabi\thumb\v7e-m+fp\hard\bits\gthr-default.h **** /* Create a new thread of execution.  */
  69:c:\progra~2\gnuarm~1\102021~1.10\arm-none-eabi\include\c++\10.3.1\arm-none-eabi\thumb\v7e-m+fp\hard\bits\gthr-default.h **** static inline objc_thread_t
  70:c:\progra~2\gnuarm~1\102021~1.10\arm-none-eabi\include\c++\10.3.1\arm-none-eabi\thumb\v7e-m+fp\hard\bits\gthr-default.h **** __gthread_objc_thread_detach (void (* func)(void *), void * arg _GLIBCXX_UNUSED)
  71:c:\progra~2\gnuarm~1\102021~1.10\arm-none-eabi\include\c++\10.3.1\arm-none-eabi\thumb\v7e-m+fp\hard\bits\gthr-default.h **** {
  72:c:\progra~2\gnuarm~1\102021~1.10\arm-none-eabi\include\c++\10.3.1\arm-none-eabi\thumb\v7e-m+fp\hard\bits\gthr-default.h ****   /* No thread support available */
  73:c:\progra~2\gnuarm~1\102021~1.10\arm-none-eabi\include\c++\10.3.1\arm-none-eabi\thumb\v7e-m+fp\hard\bits\gthr-default.h ****   return NULL;
  74:c:\progra~2\gnuarm~1\102021~1.10\arm-none-eabi\include\c++\10.3.1\arm-none-eabi\thumb\v7e-m+fp\hard\bits\gthr-default.h **** }
  75:c:\progra~2\gnuarm~1\102021~1.10\arm-none-eabi\include\c++\10.3.1\arm-none-eabi\thumb\v7e-m+fp\hard\bits\gthr-default.h **** 
  76:c:\progra~2\gnuarm~1\102021~1.10\arm-none-eabi\include\c++\10.3.1\arm-none-eabi\thumb\v7e-m+fp\hard\bits\gthr-default.h **** /* Set the current thread's priority.  */
  77:c:\progra~2\gnuarm~1\102021~1.10\arm-none-eabi\include\c++\10.3.1\arm-none-eabi\thumb\v7e-m+fp\hard\bits\gthr-default.h **** static inline int
  78:c:\progra~2\gnuarm~1\102021~1.10\arm-none-eabi\include\c++\10.3.1\arm-none-eabi\thumb\v7e-m+fp\hard\bits\gthr-default.h **** __gthread_objc_thread_set_priority (int priority _GLIBCXX_UNUSED)
  79:c:\progra~2\gnuarm~1\102021~1.10\arm-none-eabi\include\c++\10.3.1\arm-none-eabi\thumb\v7e-m+fp\hard\bits\gthr-default.h **** {
  80:c:\progra~2\gnuarm~1\102021~1.10\arm-none-eabi\include\c++\10.3.1\arm-none-eabi\thumb\v7e-m+fp\hard\bits\gthr-default.h ****   /* No thread support available */
  81:c:\progra~2\gnuarm~1\102021~1.10\arm-none-eabi\include\c++\10.3.1\arm-none-eabi\thumb\v7e-m+fp\hard\bits\gthr-default.h ****   return -1;
ARM GAS   			page 3


  82:c:\progra~2\gnuarm~1\102021~1.10\arm-none-eabi\include\c++\10.3.1\arm-none-eabi\thumb\v7e-m+fp\hard\bits\gthr-default.h **** }
  83:c:\progra~2\gnuarm~1\102021~1.10\arm-none-eabi\include\c++\10.3.1\arm-none-eabi\thumb\v7e-m+fp\hard\bits\gthr-default.h **** 
  84:c:\progra~2\gnuarm~1\102021~1.10\arm-none-eabi\include\c++\10.3.1\arm-none-eabi\thumb\v7e-m+fp\hard\bits\gthr-default.h **** /* Return the current thread's priority.  */
  85:c:\progra~2\gnuarm~1\102021~1.10\arm-none-eabi\include\c++\10.3.1\arm-none-eabi\thumb\v7e-m+fp\hard\bits\gthr-default.h **** static inline int
  86:c:\progra~2\gnuarm~1\102021~1.10\arm-none-eabi\include\c++\10.3.1\arm-none-eabi\thumb\v7e-m+fp\hard\bits\gthr-default.h **** __gthread_objc_thread_get_priority (void)
  87:c:\progra~2\gnuarm~1\102021~1.10\arm-none-eabi\include\c++\10.3.1\arm-none-eabi\thumb\v7e-m+fp\hard\bits\gthr-default.h **** {
  88:c:\progra~2\gnuarm~1\102021~1.10\arm-none-eabi\include\c++\10.3.1\arm-none-eabi\thumb\v7e-m+fp\hard\bits\gthr-default.h ****   return OBJC_THREAD_INTERACTIVE_PRIORITY;
  89:c:\progra~2\gnuarm~1\102021~1.10\arm-none-eabi\include\c++\10.3.1\arm-none-eabi\thumb\v7e-m+fp\hard\bits\gthr-default.h **** }
  90:c:\progra~2\gnuarm~1\102021~1.10\arm-none-eabi\include\c++\10.3.1\arm-none-eabi\thumb\v7e-m+fp\hard\bits\gthr-default.h **** 
  91:c:\progra~2\gnuarm~1\102021~1.10\arm-none-eabi\include\c++\10.3.1\arm-none-eabi\thumb\v7e-m+fp\hard\bits\gthr-default.h **** /* Yield our process time to another thread.  */
  92:c:\progra~2\gnuarm~1\102021~1.10\arm-none-eabi\include\c++\10.3.1\arm-none-eabi\thumb\v7e-m+fp\hard\bits\gthr-default.h **** static inline void
  93:c:\progra~2\gnuarm~1\102021~1.10\arm-none-eabi\include\c++\10.3.1\arm-none-eabi\thumb\v7e-m+fp\hard\bits\gthr-default.h **** __gthread_objc_thread_yield (void)
  94:c:\progra~2\gnuarm~1\102021~1.10\arm-none-eabi\include\c++\10.3.1\arm-none-eabi\thumb\v7e-m+fp\hard\bits\gthr-default.h **** {
  95:c:\progra~2\gnuarm~1\102021~1.10\arm-none-eabi\include\c++\10.3.1\arm-none-eabi\thumb\v7e-m+fp\hard\bits\gthr-default.h ****   return;
  96:c:\progra~2\gnuarm~1\102021~1.10\arm-none-eabi\include\c++\10.3.1\arm-none-eabi\thumb\v7e-m+fp\hard\bits\gthr-default.h **** }
  97:c:\progra~2\gnuarm~1\102021~1.10\arm-none-eabi\include\c++\10.3.1\arm-none-eabi\thumb\v7e-m+fp\hard\bits\gthr-default.h **** 
  98:c:\progra~2\gnuarm~1\102021~1.10\arm-none-eabi\include\c++\10.3.1\arm-none-eabi\thumb\v7e-m+fp\hard\bits\gthr-default.h **** /* Terminate the current thread.  */
  99:c:\progra~2\gnuarm~1\102021~1.10\arm-none-eabi\include\c++\10.3.1\arm-none-eabi\thumb\v7e-m+fp\hard\bits\gthr-default.h **** static inline int
 100:c:\progra~2\gnuarm~1\102021~1.10\arm-none-eabi\include\c++\10.3.1\arm-none-eabi\thumb\v7e-m+fp\hard\bits\gthr-default.h **** __gthread_objc_thread_exit (void)
 101:c:\progra~2\gnuarm~1\102021~1.10\arm-none-eabi\include\c++\10.3.1\arm-none-eabi\thumb\v7e-m+fp\hard\bits\gthr-default.h **** {
 102:c:\progra~2\gnuarm~1\102021~1.10\arm-none-eabi\include\c++\10.3.1\arm-none-eabi\thumb\v7e-m+fp\hard\bits\gthr-default.h ****   /* No thread support available */
 103:c:\progra~2\gnuarm~1\102021~1.10\arm-none-eabi\include\c++\10.3.1\arm-none-eabi\thumb\v7e-m+fp\hard\bits\gthr-default.h ****   /* Should we really exit the program */
 104:c:\progra~2\gnuarm~1\102021~1.10\arm-none-eabi\include\c++\10.3.1\arm-none-eabi\thumb\v7e-m+fp\hard\bits\gthr-default.h ****   /* exit (&__objc_thread_exit_status); */
 105:c:\progra~2\gnuarm~1\102021~1.10\arm-none-eabi\include\c++\10.3.1\arm-none-eabi\thumb\v7e-m+fp\hard\bits\gthr-default.h ****   return -1;
 106:c:\progra~2\gnuarm~1\102021~1.10\arm-none-eabi\include\c++\10.3.1\arm-none-eabi\thumb\v7e-m+fp\hard\bits\gthr-default.h **** }
 107:c:\progra~2\gnuarm~1\102021~1.10\arm-none-eabi\include\c++\10.3.1\arm-none-eabi\thumb\v7e-m+fp\hard\bits\gthr-default.h **** 
 108:c:\progra~2\gnuarm~1\102021~1.10\arm-none-eabi\include\c++\10.3.1\arm-none-eabi\thumb\v7e-m+fp\hard\bits\gthr-default.h **** /* Returns an integer value which uniquely describes a thread.  */
 109:c:\progra~2\gnuarm~1\102021~1.10\arm-none-eabi\include\c++\10.3.1\arm-none-eabi\thumb\v7e-m+fp\hard\bits\gthr-default.h **** static inline objc_thread_t
 110:c:\progra~2\gnuarm~1\102021~1.10\arm-none-eabi\include\c++\10.3.1\arm-none-eabi\thumb\v7e-m+fp\hard\bits\gthr-default.h **** __gthread_objc_thread_id (void)
 111:c:\progra~2\gnuarm~1\102021~1.10\arm-none-eabi\include\c++\10.3.1\arm-none-eabi\thumb\v7e-m+fp\hard\bits\gthr-default.h **** {
 112:c:\progra~2\gnuarm~1\102021~1.10\arm-none-eabi\include\c++\10.3.1\arm-none-eabi\thumb\v7e-m+fp\hard\bits\gthr-default.h ****   /* No thread support, use 1.  */
 113:c:\progra~2\gnuarm~1\102021~1.10\arm-none-eabi\include\c++\10.3.1\arm-none-eabi\thumb\v7e-m+fp\hard\bits\gthr-default.h ****   return (objc_thread_t) 1;
 114:c:\progra~2\gnuarm~1\102021~1.10\arm-none-eabi\include\c++\10.3.1\arm-none-eabi\thumb\v7e-m+fp\hard\bits\gthr-default.h **** }
 115:c:\progra~2\gnuarm~1\102021~1.10\arm-none-eabi\include\c++\10.3.1\arm-none-eabi\thumb\v7e-m+fp\hard\bits\gthr-default.h **** 
 116:c:\progra~2\gnuarm~1\102021~1.10\arm-none-eabi\include\c++\10.3.1\arm-none-eabi\thumb\v7e-m+fp\hard\bits\gthr-default.h **** /* Sets the thread's local storage pointer.  */
 117:c:\progra~2\gnuarm~1\102021~1.10\arm-none-eabi\include\c++\10.3.1\arm-none-eabi\thumb\v7e-m+fp\hard\bits\gthr-default.h **** static inline int
 118:c:\progra~2\gnuarm~1\102021~1.10\arm-none-eabi\include\c++\10.3.1\arm-none-eabi\thumb\v7e-m+fp\hard\bits\gthr-default.h **** __gthread_objc_thread_set_data (void *value)
 119:c:\progra~2\gnuarm~1\102021~1.10\arm-none-eabi\include\c++\10.3.1\arm-none-eabi\thumb\v7e-m+fp\hard\bits\gthr-default.h **** {
 120:c:\progra~2\gnuarm~1\102021~1.10\arm-none-eabi\include\c++\10.3.1\arm-none-eabi\thumb\v7e-m+fp\hard\bits\gthr-default.h ****   thread_local_storage = value;
 121:c:\progra~2\gnuarm~1\102021~1.10\arm-none-eabi\include\c++\10.3.1\arm-none-eabi\thumb\v7e-m+fp\hard\bits\gthr-default.h ****   return 0;
 122:c:\progra~2\gnuarm~1\102021~1.10\arm-none-eabi\include\c++\10.3.1\arm-none-eabi\thumb\v7e-m+fp\hard\bits\gthr-default.h **** }
 123:c:\progra~2\gnuarm~1\102021~1.10\arm-none-eabi\include\c++\10.3.1\arm-none-eabi\thumb\v7e-m+fp\hard\bits\gthr-default.h **** 
 124:c:\progra~2\gnuarm~1\102021~1.10\arm-none-eabi\include\c++\10.3.1\arm-none-eabi\thumb\v7e-m+fp\hard\bits\gthr-default.h **** /* Returns the thread's local storage pointer.  */
 125:c:\progra~2\gnuarm~1\102021~1.10\arm-none-eabi\include\c++\10.3.1\arm-none-eabi\thumb\v7e-m+fp\hard\bits\gthr-default.h **** static inline void *
 126:c:\progra~2\gnuarm~1\102021~1.10\arm-none-eabi\include\c++\10.3.1\arm-none-eabi\thumb\v7e-m+fp\hard\bits\gthr-default.h **** __gthread_objc_thread_get_data (void)
 127:c:\progra~2\gnuarm~1\102021~1.10\arm-none-eabi\include\c++\10.3.1\arm-none-eabi\thumb\v7e-m+fp\hard\bits\gthr-default.h **** {
 128:c:\progra~2\gnuarm~1\102021~1.10\arm-none-eabi\include\c++\10.3.1\arm-none-eabi\thumb\v7e-m+fp\hard\bits\gthr-default.h ****   return thread_local_storage;
 129:c:\progra~2\gnuarm~1\102021~1.10\arm-none-eabi\include\c++\10.3.1\arm-none-eabi\thumb\v7e-m+fp\hard\bits\gthr-default.h **** }
 130:c:\progra~2\gnuarm~1\102021~1.10\arm-none-eabi\include\c++\10.3.1\arm-none-eabi\thumb\v7e-m+fp\hard\bits\gthr-default.h **** 
 131:c:\progra~2\gnuarm~1\102021~1.10\arm-none-eabi\include\c++\10.3.1\arm-none-eabi\thumb\v7e-m+fp\hard\bits\gthr-default.h **** /* Backend mutex functions */
 132:c:\progra~2\gnuarm~1\102021~1.10\arm-none-eabi\include\c++\10.3.1\arm-none-eabi\thumb\v7e-m+fp\hard\bits\gthr-default.h **** 
 133:c:\progra~2\gnuarm~1\102021~1.10\arm-none-eabi\include\c++\10.3.1\arm-none-eabi\thumb\v7e-m+fp\hard\bits\gthr-default.h **** /* Allocate a mutex.  */
 134:c:\progra~2\gnuarm~1\102021~1.10\arm-none-eabi\include\c++\10.3.1\arm-none-eabi\thumb\v7e-m+fp\hard\bits\gthr-default.h **** static inline int
 135:c:\progra~2\gnuarm~1\102021~1.10\arm-none-eabi\include\c++\10.3.1\arm-none-eabi\thumb\v7e-m+fp\hard\bits\gthr-default.h **** __gthread_objc_mutex_allocate (objc_mutex_t mutex _GLIBCXX_UNUSED)
 136:c:\progra~2\gnuarm~1\102021~1.10\arm-none-eabi\include\c++\10.3.1\arm-none-eabi\thumb\v7e-m+fp\hard\bits\gthr-default.h **** {
 137:c:\progra~2\gnuarm~1\102021~1.10\arm-none-eabi\include\c++\10.3.1\arm-none-eabi\thumb\v7e-m+fp\hard\bits\gthr-default.h ****   return 0;
 138:c:\progra~2\gnuarm~1\102021~1.10\arm-none-eabi\include\c++\10.3.1\arm-none-eabi\thumb\v7e-m+fp\hard\bits\gthr-default.h **** }
ARM GAS   			page 4


 139:c:\progra~2\gnuarm~1\102021~1.10\arm-none-eabi\include\c++\10.3.1\arm-none-eabi\thumb\v7e-m+fp\hard\bits\gthr-default.h **** 
 140:c:\progra~2\gnuarm~1\102021~1.10\arm-none-eabi\include\c++\10.3.1\arm-none-eabi\thumb\v7e-m+fp\hard\bits\gthr-default.h **** /* Deallocate a mutex.  */
 141:c:\progra~2\gnuarm~1\102021~1.10\arm-none-eabi\include\c++\10.3.1\arm-none-eabi\thumb\v7e-m+fp\hard\bits\gthr-default.h **** static inline int
 142:c:\progra~2\gnuarm~1\102021~1.10\arm-none-eabi\include\c++\10.3.1\arm-none-eabi\thumb\v7e-m+fp\hard\bits\gthr-default.h **** __gthread_objc_mutex_deallocate (objc_mutex_t mutex _GLIBCXX_UNUSED)
 143:c:\progra~2\gnuarm~1\102021~1.10\arm-none-eabi\include\c++\10.3.1\arm-none-eabi\thumb\v7e-m+fp\hard\bits\gthr-default.h **** {
 144:c:\progra~2\gnuarm~1\102021~1.10\arm-none-eabi\include\c++\10.3.1\arm-none-eabi\thumb\v7e-m+fp\hard\bits\gthr-default.h ****   return 0;
 145:c:\progra~2\gnuarm~1\102021~1.10\arm-none-eabi\include\c++\10.3.1\arm-none-eabi\thumb\v7e-m+fp\hard\bits\gthr-default.h **** }
 146:c:\progra~2\gnuarm~1\102021~1.10\arm-none-eabi\include\c++\10.3.1\arm-none-eabi\thumb\v7e-m+fp\hard\bits\gthr-default.h **** 
 147:c:\progra~2\gnuarm~1\102021~1.10\arm-none-eabi\include\c++\10.3.1\arm-none-eabi\thumb\v7e-m+fp\hard\bits\gthr-default.h **** /* Grab a lock on a mutex.  */
 148:c:\progra~2\gnuarm~1\102021~1.10\arm-none-eabi\include\c++\10.3.1\arm-none-eabi\thumb\v7e-m+fp\hard\bits\gthr-default.h **** static inline int
 149:c:\progra~2\gnuarm~1\102021~1.10\arm-none-eabi\include\c++\10.3.1\arm-none-eabi\thumb\v7e-m+fp\hard\bits\gthr-default.h **** __gthread_objc_mutex_lock (objc_mutex_t mutex _GLIBCXX_UNUSED)
 150:c:\progra~2\gnuarm~1\102021~1.10\arm-none-eabi\include\c++\10.3.1\arm-none-eabi\thumb\v7e-m+fp\hard\bits\gthr-default.h **** {
 151:c:\progra~2\gnuarm~1\102021~1.10\arm-none-eabi\include\c++\10.3.1\arm-none-eabi\thumb\v7e-m+fp\hard\bits\gthr-default.h ****   /* There can only be one thread, so we always get the lock */
 152:c:\progra~2\gnuarm~1\102021~1.10\arm-none-eabi\include\c++\10.3.1\arm-none-eabi\thumb\v7e-m+fp\hard\bits\gthr-default.h ****   return 0;
 153:c:\progra~2\gnuarm~1\102021~1.10\arm-none-eabi\include\c++\10.3.1\arm-none-eabi\thumb\v7e-m+fp\hard\bits\gthr-default.h **** }
 154:c:\progra~2\gnuarm~1\102021~1.10\arm-none-eabi\include\c++\10.3.1\arm-none-eabi\thumb\v7e-m+fp\hard\bits\gthr-default.h **** 
 155:c:\progra~2\gnuarm~1\102021~1.10\arm-none-eabi\include\c++\10.3.1\arm-none-eabi\thumb\v7e-m+fp\hard\bits\gthr-default.h **** /* Try to grab a lock on a mutex.  */
 156:c:\progra~2\gnuarm~1\102021~1.10\arm-none-eabi\include\c++\10.3.1\arm-none-eabi\thumb\v7e-m+fp\hard\bits\gthr-default.h **** static inline int
 157:c:\progra~2\gnuarm~1\102021~1.10\arm-none-eabi\include\c++\10.3.1\arm-none-eabi\thumb\v7e-m+fp\hard\bits\gthr-default.h **** __gthread_objc_mutex_trylock (objc_mutex_t mutex _GLIBCXX_UNUSED)
 158:c:\progra~2\gnuarm~1\102021~1.10\arm-none-eabi\include\c++\10.3.1\arm-none-eabi\thumb\v7e-m+fp\hard\bits\gthr-default.h **** {
 159:c:\progra~2\gnuarm~1\102021~1.10\arm-none-eabi\include\c++\10.3.1\arm-none-eabi\thumb\v7e-m+fp\hard\bits\gthr-default.h ****   /* There can only be one thread, so we always get the lock */
 160:c:\progra~2\gnuarm~1\102021~1.10\arm-none-eabi\include\c++\10.3.1\arm-none-eabi\thumb\v7e-m+fp\hard\bits\gthr-default.h ****   return 0;
 161:c:\progra~2\gnuarm~1\102021~1.10\arm-none-eabi\include\c++\10.3.1\arm-none-eabi\thumb\v7e-m+fp\hard\bits\gthr-default.h **** }
 162:c:\progra~2\gnuarm~1\102021~1.10\arm-none-eabi\include\c++\10.3.1\arm-none-eabi\thumb\v7e-m+fp\hard\bits\gthr-default.h **** 
 163:c:\progra~2\gnuarm~1\102021~1.10\arm-none-eabi\include\c++\10.3.1\arm-none-eabi\thumb\v7e-m+fp\hard\bits\gthr-default.h **** /* Unlock the mutex */
 164:c:\progra~2\gnuarm~1\102021~1.10\arm-none-eabi\include\c++\10.3.1\arm-none-eabi\thumb\v7e-m+fp\hard\bits\gthr-default.h **** static inline int
 165:c:\progra~2\gnuarm~1\102021~1.10\arm-none-eabi\include\c++\10.3.1\arm-none-eabi\thumb\v7e-m+fp\hard\bits\gthr-default.h **** __gthread_objc_mutex_unlock (objc_mutex_t mutex _GLIBCXX_UNUSED)
 166:c:\progra~2\gnuarm~1\102021~1.10\arm-none-eabi\include\c++\10.3.1\arm-none-eabi\thumb\v7e-m+fp\hard\bits\gthr-default.h **** {
 167:c:\progra~2\gnuarm~1\102021~1.10\arm-none-eabi\include\c++\10.3.1\arm-none-eabi\thumb\v7e-m+fp\hard\bits\gthr-default.h ****   return 0;
 168:c:\progra~2\gnuarm~1\102021~1.10\arm-none-eabi\include\c++\10.3.1\arm-none-eabi\thumb\v7e-m+fp\hard\bits\gthr-default.h **** }
 169:c:\progra~2\gnuarm~1\102021~1.10\arm-none-eabi\include\c++\10.3.1\arm-none-eabi\thumb\v7e-m+fp\hard\bits\gthr-default.h **** 
 170:c:\progra~2\gnuarm~1\102021~1.10\arm-none-eabi\include\c++\10.3.1\arm-none-eabi\thumb\v7e-m+fp\hard\bits\gthr-default.h **** /* Backend condition mutex functions */
 171:c:\progra~2\gnuarm~1\102021~1.10\arm-none-eabi\include\c++\10.3.1\arm-none-eabi\thumb\v7e-m+fp\hard\bits\gthr-default.h **** 
 172:c:\progra~2\gnuarm~1\102021~1.10\arm-none-eabi\include\c++\10.3.1\arm-none-eabi\thumb\v7e-m+fp\hard\bits\gthr-default.h **** /* Allocate a condition.  */
 173:c:\progra~2\gnuarm~1\102021~1.10\arm-none-eabi\include\c++\10.3.1\arm-none-eabi\thumb\v7e-m+fp\hard\bits\gthr-default.h **** static inline int
 174:c:\progra~2\gnuarm~1\102021~1.10\arm-none-eabi\include\c++\10.3.1\arm-none-eabi\thumb\v7e-m+fp\hard\bits\gthr-default.h **** __gthread_objc_condition_allocate (objc_condition_t condition _GLIBCXX_UNUSED)
 175:c:\progra~2\gnuarm~1\102021~1.10\arm-none-eabi\include\c++\10.3.1\arm-none-eabi\thumb\v7e-m+fp\hard\bits\gthr-default.h **** {
 176:c:\progra~2\gnuarm~1\102021~1.10\arm-none-eabi\include\c++\10.3.1\arm-none-eabi\thumb\v7e-m+fp\hard\bits\gthr-default.h ****   return 0;
 177:c:\progra~2\gnuarm~1\102021~1.10\arm-none-eabi\include\c++\10.3.1\arm-none-eabi\thumb\v7e-m+fp\hard\bits\gthr-default.h **** }
 178:c:\progra~2\gnuarm~1\102021~1.10\arm-none-eabi\include\c++\10.3.1\arm-none-eabi\thumb\v7e-m+fp\hard\bits\gthr-default.h **** 
 179:c:\progra~2\gnuarm~1\102021~1.10\arm-none-eabi\include\c++\10.3.1\arm-none-eabi\thumb\v7e-m+fp\hard\bits\gthr-default.h **** /* Deallocate a condition.  */
 180:c:\progra~2\gnuarm~1\102021~1.10\arm-none-eabi\include\c++\10.3.1\arm-none-eabi\thumb\v7e-m+fp\hard\bits\gthr-default.h **** static inline int
 181:c:\progra~2\gnuarm~1\102021~1.10\arm-none-eabi\include\c++\10.3.1\arm-none-eabi\thumb\v7e-m+fp\hard\bits\gthr-default.h **** __gthread_objc_condition_deallocate (objc_condition_t condition _GLIBCXX_UNUSED)
 182:c:\progra~2\gnuarm~1\102021~1.10\arm-none-eabi\include\c++\10.3.1\arm-none-eabi\thumb\v7e-m+fp\hard\bits\gthr-default.h **** {
 183:c:\progra~2\gnuarm~1\102021~1.10\arm-none-eabi\include\c++\10.3.1\arm-none-eabi\thumb\v7e-m+fp\hard\bits\gthr-default.h ****   return 0;
 184:c:\progra~2\gnuarm~1\102021~1.10\arm-none-eabi\include\c++\10.3.1\arm-none-eabi\thumb\v7e-m+fp\hard\bits\gthr-default.h **** }
 185:c:\progra~2\gnuarm~1\102021~1.10\arm-none-eabi\include\c++\10.3.1\arm-none-eabi\thumb\v7e-m+fp\hard\bits\gthr-default.h **** 
 186:c:\progra~2\gnuarm~1\102021~1.10\arm-none-eabi\include\c++\10.3.1\arm-none-eabi\thumb\v7e-m+fp\hard\bits\gthr-default.h **** /* Wait on the condition */
 187:c:\progra~2\gnuarm~1\102021~1.10\arm-none-eabi\include\c++\10.3.1\arm-none-eabi\thumb\v7e-m+fp\hard\bits\gthr-default.h **** static inline int
 188:c:\progra~2\gnuarm~1\102021~1.10\arm-none-eabi\include\c++\10.3.1\arm-none-eabi\thumb\v7e-m+fp\hard\bits\gthr-default.h **** __gthread_objc_condition_wait (objc_condition_t condition _GLIBCXX_UNUSED,
 189:c:\progra~2\gnuarm~1\102021~1.10\arm-none-eabi\include\c++\10.3.1\arm-none-eabi\thumb\v7e-m+fp\hard\bits\gthr-default.h **** 			       objc_mutex_t mutex _GLIBCXX_UNUSED)
 190:c:\progra~2\gnuarm~1\102021~1.10\arm-none-eabi\include\c++\10.3.1\arm-none-eabi\thumb\v7e-m+fp\hard\bits\gthr-default.h **** {
 191:c:\progra~2\gnuarm~1\102021~1.10\arm-none-eabi\include\c++\10.3.1\arm-none-eabi\thumb\v7e-m+fp\hard\bits\gthr-default.h ****   return 0;
 192:c:\progra~2\gnuarm~1\102021~1.10\arm-none-eabi\include\c++\10.3.1\arm-none-eabi\thumb\v7e-m+fp\hard\bits\gthr-default.h **** }
 193:c:\progra~2\gnuarm~1\102021~1.10\arm-none-eabi\include\c++\10.3.1\arm-none-eabi\thumb\v7e-m+fp\hard\bits\gthr-default.h **** 
 194:c:\progra~2\gnuarm~1\102021~1.10\arm-none-eabi\include\c++\10.3.1\arm-none-eabi\thumb\v7e-m+fp\hard\bits\gthr-default.h **** /* Wake up all threads waiting on this condition.  */
 195:c:\progra~2\gnuarm~1\102021~1.10\arm-none-eabi\include\c++\10.3.1\arm-none-eabi\thumb\v7e-m+fp\hard\bits\gthr-default.h **** static inline int
ARM GAS   			page 5


 196:c:\progra~2\gnuarm~1\102021~1.10\arm-none-eabi\include\c++\10.3.1\arm-none-eabi\thumb\v7e-m+fp\hard\bits\gthr-default.h **** __gthread_objc_condition_broadcast (objc_condition_t condition _GLIBCXX_UNUSED)
 197:c:\progra~2\gnuarm~1\102021~1.10\arm-none-eabi\include\c++\10.3.1\arm-none-eabi\thumb\v7e-m+fp\hard\bits\gthr-default.h **** {
 198:c:\progra~2\gnuarm~1\102021~1.10\arm-none-eabi\include\c++\10.3.1\arm-none-eabi\thumb\v7e-m+fp\hard\bits\gthr-default.h ****   return 0;
 199:c:\progra~2\gnuarm~1\102021~1.10\arm-none-eabi\include\c++\10.3.1\arm-none-eabi\thumb\v7e-m+fp\hard\bits\gthr-default.h **** }
 200:c:\progra~2\gnuarm~1\102021~1.10\arm-none-eabi\include\c++\10.3.1\arm-none-eabi\thumb\v7e-m+fp\hard\bits\gthr-default.h **** 
 201:c:\progra~2\gnuarm~1\102021~1.10\arm-none-eabi\include\c++\10.3.1\arm-none-eabi\thumb\v7e-m+fp\hard\bits\gthr-default.h **** /* Wake up one thread waiting on this condition.  */
 202:c:\progra~2\gnuarm~1\102021~1.10\arm-none-eabi\include\c++\10.3.1\arm-none-eabi\thumb\v7e-m+fp\hard\bits\gthr-default.h **** static inline int
 203:c:\progra~2\gnuarm~1\102021~1.10\arm-none-eabi\include\c++\10.3.1\arm-none-eabi\thumb\v7e-m+fp\hard\bits\gthr-default.h **** __gthread_objc_condition_signal (objc_condition_t condition _GLIBCXX_UNUSED)
 204:c:\progra~2\gnuarm~1\102021~1.10\arm-none-eabi\include\c++\10.3.1\arm-none-eabi\thumb\v7e-m+fp\hard\bits\gthr-default.h **** {
 205:c:\progra~2\gnuarm~1\102021~1.10\arm-none-eabi\include\c++\10.3.1\arm-none-eabi\thumb\v7e-m+fp\hard\bits\gthr-default.h ****   return 0;
 206:c:\progra~2\gnuarm~1\102021~1.10\arm-none-eabi\include\c++\10.3.1\arm-none-eabi\thumb\v7e-m+fp\hard\bits\gthr-default.h **** }
 207:c:\progra~2\gnuarm~1\102021~1.10\arm-none-eabi\include\c++\10.3.1\arm-none-eabi\thumb\v7e-m+fp\hard\bits\gthr-default.h **** 
 208:c:\progra~2\gnuarm~1\102021~1.10\arm-none-eabi\include\c++\10.3.1\arm-none-eabi\thumb\v7e-m+fp\hard\bits\gthr-default.h **** #else /* _LIBOBJC */
 209:c:\progra~2\gnuarm~1\102021~1.10\arm-none-eabi\include\c++\10.3.1\arm-none-eabi\thumb\v7e-m+fp\hard\bits\gthr-default.h **** 
 210:c:\progra~2\gnuarm~1\102021~1.10\arm-none-eabi\include\c++\10.3.1\arm-none-eabi\thumb\v7e-m+fp\hard\bits\gthr-default.h **** static inline int
 211:c:\progra~2\gnuarm~1\102021~1.10\arm-none-eabi\include\c++\10.3.1\arm-none-eabi\thumb\v7e-m+fp\hard\bits\gthr-default.h **** __gthread_active_p (void)
 212:c:\progra~2\gnuarm~1\102021~1.10\arm-none-eabi\include\c++\10.3.1\arm-none-eabi\thumb\v7e-m+fp\hard\bits\gthr-default.h **** {
 213:c:\progra~2\gnuarm~1\102021~1.10\arm-none-eabi\include\c++\10.3.1\arm-none-eabi\thumb\v7e-m+fp\hard\bits\gthr-default.h ****   return 0;
 214:c:\progra~2\gnuarm~1\102021~1.10\arm-none-eabi\include\c++\10.3.1\arm-none-eabi\thumb\v7e-m+fp\hard\bits\gthr-default.h **** }
 215:c:\progra~2\gnuarm~1\102021~1.10\arm-none-eabi\include\c++\10.3.1\arm-none-eabi\thumb\v7e-m+fp\hard\bits\gthr-default.h **** 
 216:c:\progra~2\gnuarm~1\102021~1.10\arm-none-eabi\include\c++\10.3.1\arm-none-eabi\thumb\v7e-m+fp\hard\bits\gthr-default.h **** static inline int
 217:c:\progra~2\gnuarm~1\102021~1.10\arm-none-eabi\include\c++\10.3.1\arm-none-eabi\thumb\v7e-m+fp\hard\bits\gthr-default.h **** __gthread_once (__gthread_once_t *__once _GLIBCXX_UNUSED, void (*__func) (void) _GLIBCXX_UNUSED)
 218:c:\progra~2\gnuarm~1\102021~1.10\arm-none-eabi\include\c++\10.3.1\arm-none-eabi\thumb\v7e-m+fp\hard\bits\gthr-default.h **** {
 219:c:\progra~2\gnuarm~1\102021~1.10\arm-none-eabi\include\c++\10.3.1\arm-none-eabi\thumb\v7e-m+fp\hard\bits\gthr-default.h ****   return 0;
 220:c:\progra~2\gnuarm~1\102021~1.10\arm-none-eabi\include\c++\10.3.1\arm-none-eabi\thumb\v7e-m+fp\hard\bits\gthr-default.h **** }
 221:c:\progra~2\gnuarm~1\102021~1.10\arm-none-eabi\include\c++\10.3.1\arm-none-eabi\thumb\v7e-m+fp\hard\bits\gthr-default.h **** 
 222:c:\progra~2\gnuarm~1\102021~1.10\arm-none-eabi\include\c++\10.3.1\arm-none-eabi\thumb\v7e-m+fp\hard\bits\gthr-default.h **** static inline int _GLIBCXX_UNUSED
 223:c:\progra~2\gnuarm~1\102021~1.10\arm-none-eabi\include\c++\10.3.1\arm-none-eabi\thumb\v7e-m+fp\hard\bits\gthr-default.h **** __gthread_key_create (__gthread_key_t *__key _GLIBCXX_UNUSED, void (*__func) (void *) _GLIBCXX_UNUS
 224:c:\progra~2\gnuarm~1\102021~1.10\arm-none-eabi\include\c++\10.3.1\arm-none-eabi\thumb\v7e-m+fp\hard\bits\gthr-default.h **** {
 225:c:\progra~2\gnuarm~1\102021~1.10\arm-none-eabi\include\c++\10.3.1\arm-none-eabi\thumb\v7e-m+fp\hard\bits\gthr-default.h ****   return 0;
 226:c:\progra~2\gnuarm~1\102021~1.10\arm-none-eabi\include\c++\10.3.1\arm-none-eabi\thumb\v7e-m+fp\hard\bits\gthr-default.h **** }
 227:c:\progra~2\gnuarm~1\102021~1.10\arm-none-eabi\include\c++\10.3.1\arm-none-eabi\thumb\v7e-m+fp\hard\bits\gthr-default.h **** 
 228:c:\progra~2\gnuarm~1\102021~1.10\arm-none-eabi\include\c++\10.3.1\arm-none-eabi\thumb\v7e-m+fp\hard\bits\gthr-default.h **** static int _GLIBCXX_UNUSED
 229:c:\progra~2\gnuarm~1\102021~1.10\arm-none-eabi\include\c++\10.3.1\arm-none-eabi\thumb\v7e-m+fp\hard\bits\gthr-default.h **** __gthread_key_delete (__gthread_key_t __key _GLIBCXX_UNUSED)
 230:c:\progra~2\gnuarm~1\102021~1.10\arm-none-eabi\include\c++\10.3.1\arm-none-eabi\thumb\v7e-m+fp\hard\bits\gthr-default.h **** {
  34              	 .loc 1 230 1
  35              	 .cfi_startproc
  36              	 
  37              	 
  38              	 
  39 0000 80B4     	 push {r7}
  40              	 .cfi_def_cfa_offset 4
  41              	 .cfi_offset 7,-4
  42 0002 83B0     	 sub sp,sp,#12
  43              	 .cfi_def_cfa_offset 16
  44 0004 00AF     	 add r7,sp,#0
  45              	 .cfi_def_cfa_register 7
  46 0006 7860     	 str r0,[r7,#4]
 231:c:\progra~2\gnuarm~1\102021~1.10\arm-none-eabi\include\c++\10.3.1\arm-none-eabi\thumb\v7e-m+fp\hard\bits\gthr-default.h ****   return 0;
  47              	 .loc 1 231 10
  48 0008 0023     	 movs r3,#0
 232:c:\progra~2\gnuarm~1\102021~1.10\arm-none-eabi\include\c++\10.3.1\arm-none-eabi\thumb\v7e-m+fp\hard\bits\gthr-default.h **** }
  49              	 .loc 1 232 1
  50 000a 1846     	 mov r0,r3
  51 000c 0C37     	 adds r7,r7,#12
  52              	 .cfi_def_cfa_offset 4
  53 000e BD46     	 mov sp,r7
ARM GAS   			page 6


  54              	 .cfi_def_cfa_register 13
  55              	 
  56 0010 5DF8047B 	 ldr r7,[sp],#4
  57              	 .cfi_restore 7
  58              	 .cfi_def_cfa_offset 0
  59 0014 7047     	 bx lr
  60              	 .cfi_endproc
  61              	.LFE652:
  62              	 .size _ZL20__gthread_key_deletei,.-_ZL20__gthread_key_deletei
  63              	 .global _ZN12cpp_freertos6Thread15SchedulerActiveE
  64              	 .section .bss._ZN12cpp_freertos6Thread15SchedulerActiveE,"aw",%nobits
  65              	 .type _ZN12cpp_freertos6Thread15SchedulerActiveE,%object
  66              	 .size _ZN12cpp_freertos6Thread15SchedulerActiveE,1
  67              	_ZN12cpp_freertos6Thread15SchedulerActiveE:
  68 0000 00       	 .space 1
  69              	 .global _ZN12cpp_freertos6Thread14StartGuardLockE
  70              	 .section .bss._ZN12cpp_freertos6Thread14StartGuardLockE,"aw",%nobits
  71              	 .align 2
  72              	 .type _ZN12cpp_freertos6Thread14StartGuardLockE,%object
  73              	 .size _ZN12cpp_freertos6Thread14StartGuardLockE,8
  74              	_ZN12cpp_freertos6Thread14StartGuardLockE:
  75 0000 00000000 	 .space 8
  75      00000000 
  76              	 .section .text._ZN12cpp_freertos6ThreadC2ERKNSt7__cxx1112basic_stringIcSt11char_traitsIcESaIcEEEtm,"ax",%progbits
  77              	 .align 1
  78              	 .global _ZN12cpp_freertos6ThreadC2ERKNSt7__cxx1112basic_stringIcSt11char_traitsIcESaIcEEEtm
  79              	 .syntax unified
  80              	 .thumb
  81              	 .thumb_func
  82              	 .type _ZN12cpp_freertos6ThreadC2ERKNSt7__cxx1112basic_stringIcSt11char_traitsIcESaIcEEEtm,%function
  83              	_ZN12cpp_freertos6ThreadC2ERKNSt7__cxx1112basic_stringIcSt11char_traitsIcESaIcEEEtm:
  84              	.LFB1042:
  85              	 .file 2 "C:\\Users\\niels\\Documents\\GitHub\\DSP\\software\\STM32Basis\\HAL\\gemeenschappelijk\\Third_Party\\freertos-addons-1.1.0\\c++\\Source\\cthread.cpp"
   1:C:\Users\niels\Documents\GitHub\DSP\software\STM32Basis\HAL\gemeenschappelijk\Third_Party\freertos-addons-1.1.0\c++\Source\cthread.cpp **** /****************************************************************************
   2:C:\Users\niels\Documents\GitHub\DSP\software\STM32Basis\HAL\gemeenschappelijk\Third_Party\freertos-addons-1.1.0\c++\Source\cthread.cpp ****  *
   3:C:\Users\niels\Documents\GitHub\DSP\software\STM32Basis\HAL\gemeenschappelijk\Third_Party\freertos-addons-1.1.0\c++\Source\cthread.cpp ****  *  Copyright (c) 2016, Michael Becker (michael.f.becker@gmail.com)
   4:C:\Users\niels\Documents\GitHub\DSP\software\STM32Basis\HAL\gemeenschappelijk\Third_Party\freertos-addons-1.1.0\c++\Source\cthread.cpp ****  *
   5:C:\Users\niels\Documents\GitHub\DSP\software\STM32Basis\HAL\gemeenschappelijk\Third_Party\freertos-addons-1.1.0\c++\Source\cthread.cpp ****  *  This file is part of the FreeRTOS C++ Wrappers project.
   6:C:\Users\niels\Documents\GitHub\DSP\software\STM32Basis\HAL\gemeenschappelijk\Third_Party\freertos-addons-1.1.0\c++\Source\cthread.cpp ****  *
   7:C:\Users\niels\Documents\GitHub\DSP\software\STM32Basis\HAL\gemeenschappelijk\Third_Party\freertos-addons-1.1.0\c++\Source\cthread.cpp ****  *  The FreeRTOS C++ Wrappers project is free software: you can redistribute
   8:C:\Users\niels\Documents\GitHub\DSP\software\STM32Basis\HAL\gemeenschappelijk\Third_Party\freertos-addons-1.1.0\c++\Source\cthread.cpp ****  *  it and/or modify it under the terms of the GNU General Public License as
   9:C:\Users\niels\Documents\GitHub\DSP\software\STM32Basis\HAL\gemeenschappelijk\Third_Party\freertos-addons-1.1.0\c++\Source\cthread.cpp ****  *  published by the Free Software Foundation, either version 2
  10:C:\Users\niels\Documents\GitHub\DSP\software\STM32Basis\HAL\gemeenschappelijk\Third_Party\freertos-addons-1.1.0\c++\Source\cthread.cpp ****  *  of the License, or (at your option) any later version.
  11:C:\Users\niels\Documents\GitHub\DSP\software\STM32Basis\HAL\gemeenschappelijk\Third_Party\freertos-addons-1.1.0\c++\Source\cthread.cpp ****  *
  12:C:\Users\niels\Documents\GitHub\DSP\software\STM32Basis\HAL\gemeenschappelijk\Third_Party\freertos-addons-1.1.0\c++\Source\cthread.cpp ****  *  The FreeRTOS C++ Wrappers project is distributed in the hope that it will
  13:C:\Users\niels\Documents\GitHub\DSP\software\STM32Basis\HAL\gemeenschappelijk\Third_Party\freertos-addons-1.1.0\c++\Source\cthread.cpp ****  *  be useful, but WITHOUT ANY WARRANTY; without even the implied warranty of
  14:C:\Users\niels\Documents\GitHub\DSP\software\STM32Basis\HAL\gemeenschappelijk\Third_Party\freertos-addons-1.1.0\c++\Source\cthread.cpp ****  *  MERCHANTABILITY or FITNESS FOR A PARTICULAR PURPOSE.  See the
  15:C:\Users\niels\Documents\GitHub\DSP\software\STM32Basis\HAL\gemeenschappelijk\Third_Party\freertos-addons-1.1.0\c++\Source\cthread.cpp ****  *  GNU General Public License for more details.
  16:C:\Users\niels\Documents\GitHub\DSP\software\STM32Basis\HAL\gemeenschappelijk\Third_Party\freertos-addons-1.1.0\c++\Source\cthread.cpp ****  *
  17:C:\Users\niels\Documents\GitHub\DSP\software\STM32Basis\HAL\gemeenschappelijk\Third_Party\freertos-addons-1.1.0\c++\Source\cthread.cpp ****  *  You should have received a copy of the GNU General Public License
  18:C:\Users\niels\Documents\GitHub\DSP\software\STM32Basis\HAL\gemeenschappelijk\Third_Party\freertos-addons-1.1.0\c++\Source\cthread.cpp ****  *  along with the FreeRTOS C++ Wrappers project.
  19:C:\Users\niels\Documents\GitHub\DSP\software\STM32Basis\HAL\gemeenschappelijk\Third_Party\freertos-addons-1.1.0\c++\Source\cthread.cpp ****  *  If not, see <http://www.gnu.org/licenses/>.
  20:C:\Users\niels\Documents\GitHub\DSP\software\STM32Basis\HAL\gemeenschappelijk\Third_Party\freertos-addons-1.1.0\c++\Source\cthread.cpp ****  *
  21:C:\Users\niels\Documents\GitHub\DSP\software\STM32Basis\HAL\gemeenschappelijk\Third_Party\freertos-addons-1.1.0\c++\Source\cthread.cpp ****  ***************************************************************************/
  22:C:\Users\niels\Documents\GitHub\DSP\software\STM32Basis\HAL\gemeenschappelijk\Third_Party\freertos-addons-1.1.0\c++\Source\cthread.cpp **** #include "thread.hpp"
  23:C:\Users\niels\Documents\GitHub\DSP\software\STM32Basis\HAL\gemeenschappelijk\Third_Party\freertos-addons-1.1.0\c++\Source\cthread.cpp **** 
  24:C:\Users\niels\Documents\GitHub\DSP\software\STM32Basis\HAL\gemeenschappelijk\Third_Party\freertos-addons-1.1.0\c++\Source\cthread.cpp **** 
ARM GAS   			page 7


  25:C:\Users\niels\Documents\GitHub\DSP\software\STM32Basis\HAL\gemeenschappelijk\Third_Party\freertos-addons-1.1.0\c++\Source\cthread.cpp **** using namespace cpp_freertos;
  26:C:\Users\niels\Documents\GitHub\DSP\software\STM32Basis\HAL\gemeenschappelijk\Third_Party\freertos-addons-1.1.0\c++\Source\cthread.cpp **** 
  27:C:\Users\niels\Documents\GitHub\DSP\software\STM32Basis\HAL\gemeenschappelijk\Third_Party\freertos-addons-1.1.0\c++\Source\cthread.cpp **** 
  28:C:\Users\niels\Documents\GitHub\DSP\software\STM32Basis\HAL\gemeenschappelijk\Third_Party\freertos-addons-1.1.0\c++\Source\cthread.cpp **** volatile bool Thread::SchedulerActive = false;
  29:C:\Users\niels\Documents\GitHub\DSP\software\STM32Basis\HAL\gemeenschappelijk\Third_Party\freertos-addons-1.1.0\c++\Source\cthread.cpp **** MutexStandard Thread::StartGuardLock;
  30:C:\Users\niels\Documents\GitHub\DSP\software\STM32Basis\HAL\gemeenschappelijk\Third_Party\freertos-addons-1.1.0\c++\Source\cthread.cpp **** 
  31:C:\Users\niels\Documents\GitHub\DSP\software\STM32Basis\HAL\gemeenschappelijk\Third_Party\freertos-addons-1.1.0\c++\Source\cthread.cpp **** 
  32:C:\Users\niels\Documents\GitHub\DSP\software\STM32Basis\HAL\gemeenschappelijk\Third_Party\freertos-addons-1.1.0\c++\Source\cthread.cpp **** Thread::Thread(const std::string &pcName,
  86              	 .loc 2 32 1
  87              	 .cfi_startproc
  88              	 
  89              	 
  90 0000 80B5     	 push {r7,lr}
  91              	 .cfi_def_cfa_offset 8
  92              	 .cfi_offset 7,-8
  93              	 .cfi_offset 14,-4
  94 0002 84B0     	 sub sp,sp,#16
  95              	 .cfi_def_cfa_offset 24
  96 0004 00AF     	 add r7,sp,#0
  97              	 .cfi_def_cfa_register 7
  98 0006 F860     	 str r0,[r7,#12]
  99 0008 B960     	 str r1,[r7,#8]
 100 000a 3B60     	 str r3,[r7]
 101 000c 1346     	 mov r3,r2
 102 000e FB80     	 strh r3,[r7,#6]
 103              	.LBB4:
  33:C:\Users\niels\Documents\GitHub\DSP\software\STM32Basis\HAL\gemeenschappelijk\Third_Party\freertos-addons-1.1.0\c++\Source\cthread.cpp ****                uint16_t usStackDepth,
  34:C:\Users\niels\Documents\GitHub\DSP\software\STM32Basis\HAL\gemeenschappelijk\Third_Party\freertos-addons-1.1.0\c++\Source\cthread.cpp ****                UBaseType_t uxPriority)
  35:C:\Users\niels\Documents\GitHub\DSP\software\STM32Basis\HAL\gemeenschappelijk\Third_Party\freertos-addons-1.1.0\c++\Source\cthread.cpp ****     :   Name(pcName), 
  36:C:\Users\niels\Documents\GitHub\DSP\software\STM32Basis\HAL\gemeenschappelijk\Third_Party\freertos-addons-1.1.0\c++\Source\cthread.cpp ****         StackDepth(usStackDepth), 
  37:C:\Users\niels\Documents\GitHub\DSP\software\STM32Basis\HAL\gemeenschappelijk\Third_Party\freertos-addons-1.1.0\c++\Source\cthread.cpp ****         Priority(uxPriority),
  38:C:\Users\niels\Documents\GitHub\DSP\software\STM32Basis\HAL\gemeenschappelijk\Third_Party\freertos-addons-1.1.0\c++\Source\cthread.cpp ****         ThreadStarted(false)
 104              	 .loc 2 38 28
 105 0010 0B4A     	 ldr r2,.L5
 106 0012 FB68     	 ldr r3,[r7,#12]
 107 0014 1A60     	 str r2,[r3]
 108 0016 FB68     	 ldr r3,[r7,#12]
 109 0018 0833     	 adds r3,r3,#8
 110 001a B968     	 ldr r1,[r7,#8]
 111 001c 1846     	 mov r0,r3
 112 001e FFF7FEFF 	 bl _ZNSt7__cxx1112basic_stringIcSt11char_traitsIcESaIcEEC1ERKS4_
 113 0022 FB68     	 ldr r3,[r7,#12]
 114 0024 FA88     	 ldrh r2,[r7,#6]
 115 0026 1A84     	 strh r2,[r3,#32]
 116 0028 FB68     	 ldr r3,[r7,#12]
 117 002a 3A68     	 ldr r2,[r7]
 118 002c 5A62     	 str r2,[r3,#36]
 119 002e FB68     	 ldr r3,[r7,#12]
 120 0030 0022     	 movs r2,#0
 121 0032 83F82820 	 strb r2,[r3,#40]
 122              	.LBE4:
  39:C:\Users\niels\Documents\GitHub\DSP\software\STM32Basis\HAL\gemeenschappelijk\Third_Party\freertos-addons-1.1.0\c++\Source\cthread.cpp **** {
  40:C:\Users\niels\Documents\GitHub\DSP\software\STM32Basis\HAL\gemeenschappelijk\Third_Party\freertos-addons-1.1.0\c++\Source\cthread.cpp **** #if (INCLUDE_vTaskDelayUntil == 1)
  41:C:\Users\niels\Documents\GitHub\DSP\software\STM32Basis\HAL\gemeenschappelijk\Third_Party\freertos-addons-1.1.0\c++\Source\cthread.cpp ****     delayUntilInitialized = false;
  42:C:\Users\niels\Documents\GitHub\DSP\software\STM32Basis\HAL\gemeenschappelijk\Third_Party\freertos-addons-1.1.0\c++\Source\cthread.cpp **** #endif
  43:C:\Users\niels\Documents\GitHub\DSP\software\STM32Basis\HAL\gemeenschappelijk\Third_Party\freertos-addons-1.1.0\c++\Source\cthread.cpp **** }
 123              	 .loc 2 43 1
ARM GAS   			page 8


 124 0036 FB68     	 ldr r3,[r7,#12]
 125 0038 1846     	 mov r0,r3
 126 003a 1037     	 adds r7,r7,#16
 127              	 .cfi_def_cfa_offset 8
 128 003c BD46     	 mov sp,r7
 129              	 .cfi_def_cfa_register 13
 130              	 
 131 003e 80BD     	 pop {r7,pc}
 132              	.L6:
 133              	 .align 2
 134              	.L5:
 135 0040 08000000 	 .word _ZTVN12cpp_freertos6ThreadE+8
 136              	 .cfi_endproc
 137              	.LFE1042:
 138              	 .size _ZN12cpp_freertos6ThreadC2ERKNSt7__cxx1112basic_stringIcSt11char_traitsIcESaIcEEEtm,.-_ZN12cpp_freertos6ThreadC2ERKNSt7__cxx1112basic_stringIcSt11char_traitsIcESaIcEEEtm
 139              	 .global _ZN12cpp_freertos6ThreadC1ERKNSt7__cxx1112basic_stringIcSt11char_traitsIcESaIcEEEtm
 140              	 .thumb_set _ZN12cpp_freertos6ThreadC1ERKNSt7__cxx1112basic_stringIcSt11char_traitsIcESaIcEEEtm,_ZN12cpp_freertos6ThreadC2ERKNSt7__cxx1112basic_stringIcSt11char_traitsIcESaIcEEEtm
 141              	 .section .rodata
 142              	 .align 2
 143              	.LC0:
 144 0000 44656661 	 .ascii "Default\000"
 144      756C7400 
 145              	 .section .text._ZN12cpp_freertos6ThreadC2Etm,"ax",%progbits
 146              	 .align 1
 147              	 .global _ZN12cpp_freertos6ThreadC2Etm
 148              	 .syntax unified
 149              	 .thumb
 150              	 .thumb_func
 151              	 .type _ZN12cpp_freertos6ThreadC2Etm,%function
 152              	_ZN12cpp_freertos6ThreadC2Etm:
 153              	.LFB1045:
  44:C:\Users\niels\Documents\GitHub\DSP\software\STM32Basis\HAL\gemeenschappelijk\Third_Party\freertos-addons-1.1.0\c++\Source\cthread.cpp **** 
  45:C:\Users\niels\Documents\GitHub\DSP\software\STM32Basis\HAL\gemeenschappelijk\Third_Party\freertos-addons-1.1.0\c++\Source\cthread.cpp **** 
  46:C:\Users\niels\Documents\GitHub\DSP\software\STM32Basis\HAL\gemeenschappelijk\Third_Party\freertos-addons-1.1.0\c++\Source\cthread.cpp **** Thread::Thread( uint16_t usStackDepth,
 154              	 .loc 2 46 1
 155              	 .cfi_startproc
 156              	 
 157              	 
 158 0000 90B5     	 push {r4,r7,lr}
 159              	 .cfi_def_cfa_offset 12
 160              	 .cfi_offset 4,-12
 161              	 .cfi_offset 7,-8
 162              	 .cfi_offset 14,-4
 163 0002 87B0     	 sub sp,sp,#28
 164              	 .cfi_def_cfa_offset 40
 165 0004 00AF     	 add r7,sp,#0
 166              	 .cfi_def_cfa_register 7
 167 0006 F860     	 str r0,[r7,#12]
 168 0008 0B46     	 mov r3,r1
 169 000a 7A60     	 str r2,[r7,#4]
 170 000c 7B81     	 strh r3,[r7,#10]
 171              	.LBB5:
  47:C:\Users\niels\Documents\GitHub\DSP\software\STM32Basis\HAL\gemeenschappelijk\Third_Party\freertos-addons-1.1.0\c++\Source\cthread.cpp ****                 UBaseType_t uxPriority)
  48:C:\Users\niels\Documents\GitHub\DSP\software\STM32Basis\HAL\gemeenschappelijk\Third_Party\freertos-addons-1.1.0\c++\Source\cthread.cpp ****     :   Name("Default"), 
  49:C:\Users\niels\Documents\GitHub\DSP\software\STM32Basis\HAL\gemeenschappelijk\Third_Party\freertos-addons-1.1.0\c++\Source\cthread.cpp ****         StackDepth(usStackDepth), 
  50:C:\Users\niels\Documents\GitHub\DSP\software\STM32Basis\HAL\gemeenschappelijk\Third_Party\freertos-addons-1.1.0\c++\Source\cthread.cpp ****         Priority(uxPriority),
  51:C:\Users\niels\Documents\GitHub\DSP\software\STM32Basis\HAL\gemeenschappelijk\Third_Party\freertos-addons-1.1.0\c++\Source\cthread.cpp ****         ThreadStarted(false)
ARM GAS   			page 9


 172              	 .loc 2 51 28
 173 000e 134A     	 ldr r2,.L9
 174 0010 FB68     	 ldr r3,[r7,#12]
 175 0012 1A60     	 str r2,[r3]
 176 0014 FB68     	 ldr r3,[r7,#12]
 177 0016 03F10804 	 add r4,r3,#8
 178 001a 07F11403 	 add r3,r7,#20
 179 001e 1846     	 mov r0,r3
 180 0020 FFF7FEFF 	 bl _ZNSaIcEC1Ev
 181 0024 07F11403 	 add r3,r7,#20
 182 0028 1A46     	 mov r2,r3
 183 002a 0D49     	 ldr r1,.L9+4
 184 002c 2046     	 mov r0,r4
 185 002e FFF7FEFF 	 bl _ZNSt7__cxx1112basic_stringIcSt11char_traitsIcESaIcEEC1EPKcRKS3_
 186 0032 07F11403 	 add r3,r7,#20
 187 0036 1846     	 mov r0,r3
 188 0038 FFF7FEFF 	 bl _ZNSaIcED1Ev
 189 003c FB68     	 ldr r3,[r7,#12]
 190 003e 7A89     	 ldrh r2,[r7,#10]
 191 0040 1A84     	 strh r2,[r3,#32]
 192 0042 FB68     	 ldr r3,[r7,#12]
 193 0044 7A68     	 ldr r2,[r7,#4]
 194 0046 5A62     	 str r2,[r3,#36]
 195 0048 FB68     	 ldr r3,[r7,#12]
 196 004a 0022     	 movs r2,#0
 197 004c 83F82820 	 strb r2,[r3,#40]
 198              	.LBE5:
  52:C:\Users\niels\Documents\GitHub\DSP\software\STM32Basis\HAL\gemeenschappelijk\Third_Party\freertos-addons-1.1.0\c++\Source\cthread.cpp **** {
  53:C:\Users\niels\Documents\GitHub\DSP\software\STM32Basis\HAL\gemeenschappelijk\Third_Party\freertos-addons-1.1.0\c++\Source\cthread.cpp **** #if (INCLUDE_vTaskDelayUntil == 1)
  54:C:\Users\niels\Documents\GitHub\DSP\software\STM32Basis\HAL\gemeenschappelijk\Third_Party\freertos-addons-1.1.0\c++\Source\cthread.cpp ****     delayUntilInitialized = false;
  55:C:\Users\niels\Documents\GitHub\DSP\software\STM32Basis\HAL\gemeenschappelijk\Third_Party\freertos-addons-1.1.0\c++\Source\cthread.cpp **** #endif
  56:C:\Users\niels\Documents\GitHub\DSP\software\STM32Basis\HAL\gemeenschappelijk\Third_Party\freertos-addons-1.1.0\c++\Source\cthread.cpp **** }
 199              	 .loc 2 56 1
 200 0050 FB68     	 ldr r3,[r7,#12]
 201 0052 1846     	 mov r0,r3
 202 0054 1C37     	 adds r7,r7,#28
 203              	 .cfi_def_cfa_offset 12
 204 0056 BD46     	 mov sp,r7
 205              	 .cfi_def_cfa_register 13
 206              	 
 207 0058 90BD     	 pop {r4,r7,pc}
 208              	.L10:
 209 005a 00BF     	 .align 2
 210              	.L9:
 211 005c 08000000 	 .word _ZTVN12cpp_freertos6ThreadE+8
 212 0060 00000000 	 .word .LC0
 213              	 .cfi_endproc
 214              	.LFE1045:
 215              	 .size _ZN12cpp_freertos6ThreadC2Etm,.-_ZN12cpp_freertos6ThreadC2Etm
 216              	 .global _ZN12cpp_freertos6ThreadC1Etm
 217              	 .thumb_set _ZN12cpp_freertos6ThreadC1Etm,_ZN12cpp_freertos6ThreadC2Etm
 218              	 .section .text._ZN12cpp_freertos6Thread5StartEv,"ax",%progbits
 219              	 .align 1
 220              	 .global _ZN12cpp_freertos6Thread5StartEv
 221              	 .syntax unified
 222              	 .thumb
 223              	 .thumb_func
ARM GAS   			page 10


 224              	 .type _ZN12cpp_freertos6Thread5StartEv,%function
 225              	_ZN12cpp_freertos6Thread5StartEv:
 226              	.LFB1047:
  57:C:\Users\niels\Documents\GitHub\DSP\software\STM32Basis\HAL\gemeenschappelijk\Third_Party\freertos-addons-1.1.0\c++\Source\cthread.cpp **** 
  58:C:\Users\niels\Documents\GitHub\DSP\software\STM32Basis\HAL\gemeenschappelijk\Third_Party\freertos-addons-1.1.0\c++\Source\cthread.cpp **** 
  59:C:\Users\niels\Documents\GitHub\DSP\software\STM32Basis\HAL\gemeenschappelijk\Third_Party\freertos-addons-1.1.0\c++\Source\cthread.cpp **** bool Thread::Start()
  60:C:\Users\niels\Documents\GitHub\DSP\software\STM32Basis\HAL\gemeenschappelijk\Third_Party\freertos-addons-1.1.0\c++\Source\cthread.cpp **** {
 227              	 .loc 2 60 1
 228              	 .cfi_startproc
 229              	 
 230              	 
 231 0000 B0B5     	 push {r4,r5,r7,lr}
 232              	 .cfi_def_cfa_offset 16
 233              	 .cfi_offset 4,-16
 234              	 .cfi_offset 5,-12
 235              	 .cfi_offset 7,-8
 236              	 .cfi_offset 14,-4
 237 0002 88B0     	 sub sp,sp,#32
 238              	 .cfi_def_cfa_offset 48
 239 0004 04AF     	 add r7,sp,#16
 240              	 .cfi_def_cfa 7,32
 241 0006 7860     	 str r0,[r7,#4]
 242 0008 0024     	 movs r4,#0
 243              	.LBB6:
  61:C:\Users\niels\Documents\GitHub\DSP\software\STM32Basis\HAL\gemeenschappelijk\Third_Party\freertos-addons-1.1.0\c++\Source\cthread.cpp ****     //
  62:C:\Users\niels\Documents\GitHub\DSP\software\STM32Basis\HAL\gemeenschappelijk\Third_Party\freertos-addons-1.1.0\c++\Source\cthread.cpp ****     //  If the Scheduler is on, we need to lock before checking
  63:C:\Users\niels\Documents\GitHub\DSP\software\STM32Basis\HAL\gemeenschappelijk\Third_Party\freertos-addons-1.1.0\c++\Source\cthread.cpp ****     //  the ThreadStarted variable. We'll leverage the LockGuard 
  64:C:\Users\niels\Documents\GitHub\DSP\software\STM32Basis\HAL\gemeenschappelijk\Third_Party\freertos-addons-1.1.0\c++\Source\cthread.cpp ****     //  pattern, so we can create the guard and just forget it. 
  65:C:\Users\niels\Documents\GitHub\DSP\software\STM32Basis\HAL\gemeenschappelijk\Third_Party\freertos-addons-1.1.0\c++\Source\cthread.cpp ****     //  Leaving scope, including the return, will automatically 
  66:C:\Users\niels\Documents\GitHub\DSP\software\STM32Basis\HAL\gemeenschappelijk\Third_Party\freertos-addons-1.1.0\c++\Source\cthread.cpp ****     //  unlock it.
  67:C:\Users\niels\Documents\GitHub\DSP\software\STM32Basis\HAL\gemeenschappelijk\Third_Party\freertos-addons-1.1.0\c++\Source\cthread.cpp ****     //
  68:C:\Users\niels\Documents\GitHub\DSP\software\STM32Basis\HAL\gemeenschappelijk\Third_Party\freertos-addons-1.1.0\c++\Source\cthread.cpp ****     if (SchedulerActive) {
 244              	 .loc 2 68 9
 245 000a 274B     	 ldr r3,.L19
 246 000c 1B78     	 ldrb r3,[r3]
 247 000e DBB2     	 uxtb r3,r3
 248              	 .loc 2 68 5
 249 0010 002B     	 cmp r3,#0
 250 0012 1AD0     	 beq .L12
 251              	.LBB7:
  69:C:\Users\niels\Documents\GitHub\DSP\software\STM32Basis\HAL\gemeenschappelijk\Third_Party\freertos-addons-1.1.0\c++\Source\cthread.cpp **** 
  70:C:\Users\niels\Documents\GitHub\DSP\software\STM32Basis\HAL\gemeenschappelijk\Third_Party\freertos-addons-1.1.0\c++\Source\cthread.cpp ****         LockGuard guard (StartGuardLock);
 252              	 .loc 2 70 40
 253 0014 07F10803 	 add r3,r7,#8
 254 0018 2449     	 ldr r1,.L19+4
 255 001a 1846     	 mov r0,r3
 256 001c FFF7FEFF 	 bl _ZN12cpp_freertos9LockGuardC1ERNS_5MutexE
  71:C:\Users\niels\Documents\GitHub\DSP\software\STM32Basis\HAL\gemeenschappelijk\Third_Party\freertos-addons-1.1.0\c++\Source\cthread.cpp **** 
  72:C:\Users\niels\Documents\GitHub\DSP\software\STM32Basis\HAL\gemeenschappelijk\Third_Party\freertos-addons-1.1.0\c++\Source\cthread.cpp ****         if (ThreadStarted)
 257              	 .loc 2 72 13
 258 0020 7B68     	 ldr r3,[r7,#4]
 259 0022 93F82830 	 ldrb r3,[r3,#40]
 260              	 .loc 2 72 9
 261 0026 002B     	 cmp r3,#0
 262 0028 02D0     	 beq .L13
  73:C:\Users\niels\Documents\GitHub\DSP\software\STM32Basis\HAL\gemeenschappelijk\Third_Party\freertos-addons-1.1.0\c++\Source\cthread.cpp ****             return false;
 263              	 .loc 2 73 20
ARM GAS   			page 11


 264 002a 0024     	 movs r4,#0
 265 002c 0025     	 movs r5,#0
 266 002e 04E0     	 b .L14
 267              	.L13:
  74:C:\Users\niels\Documents\GitHub\DSP\software\STM32Basis\HAL\gemeenschappelijk\Third_Party\freertos-addons-1.1.0\c++\Source\cthread.cpp ****         else 
  75:C:\Users\niels\Documents\GitHub\DSP\software\STM32Basis\HAL\gemeenschappelijk\Third_Party\freertos-addons-1.1.0\c++\Source\cthread.cpp ****             ThreadStarted = true;
 268              	 .loc 2 75 27
 269 0030 7B68     	 ldr r3,[r7,#4]
 270 0032 0122     	 movs r2,#1
 271 0034 83F82820 	 strb r2,[r3,#40]
 272 0038 0125     	 movs r5,#1
 273              	.L14:
 274 003a 07F10803 	 add r3,r7,#8
 275 003e 1846     	 mov r0,r3
 276 0040 FFF7FEFF 	 bl _ZN12cpp_freertos9LockGuardD1Ev
 277 0044 012D     	 cmp r5,#1
 278 0046 29D1     	 bne .L17
 279 0048 0AE0     	 b .L16
 280              	.L12:
 281              	.LBE7:
  76:C:\Users\niels\Documents\GitHub\DSP\software\STM32Basis\HAL\gemeenschappelijk\Third_Party\freertos-addons-1.1.0\c++\Source\cthread.cpp ****     }
  77:C:\Users\niels\Documents\GitHub\DSP\software\STM32Basis\HAL\gemeenschappelijk\Third_Party\freertos-addons-1.1.0\c++\Source\cthread.cpp ****     //
  78:C:\Users\niels\Documents\GitHub\DSP\software\STM32Basis\HAL\gemeenschappelijk\Third_Party\freertos-addons-1.1.0\c++\Source\cthread.cpp ****     //  If the Scheduler isn't running, just check it.
  79:C:\Users\niels\Documents\GitHub\DSP\software\STM32Basis\HAL\gemeenschappelijk\Third_Party\freertos-addons-1.1.0\c++\Source\cthread.cpp ****     //
  80:C:\Users\niels\Documents\GitHub\DSP\software\STM32Basis\HAL\gemeenschappelijk\Third_Party\freertos-addons-1.1.0\c++\Source\cthread.cpp ****     else {
  81:C:\Users\niels\Documents\GitHub\DSP\software\STM32Basis\HAL\gemeenschappelijk\Third_Party\freertos-addons-1.1.0\c++\Source\cthread.cpp **** 
  82:C:\Users\niels\Documents\GitHub\DSP\software\STM32Basis\HAL\gemeenschappelijk\Third_Party\freertos-addons-1.1.0\c++\Source\cthread.cpp ****         if (ThreadStarted)
 282              	 .loc 2 82 13
 283 004a 7B68     	 ldr r3,[r7,#4]
 284 004c 93F82830 	 ldrb r3,[r3,#40]
 285              	 .loc 2 82 9
 286 0050 002B     	 cmp r3,#0
 287 0052 01D0     	 beq .L18
  83:C:\Users\niels\Documents\GitHub\DSP\software\STM32Basis\HAL\gemeenschappelijk\Third_Party\freertos-addons-1.1.0\c++\Source\cthread.cpp ****             return false;
 288              	 .loc 2 83 20
 289 0054 0024     	 movs r4,#0
 290 0056 21E0     	 b .L17
 291              	.L18:
  84:C:\Users\niels\Documents\GitHub\DSP\software\STM32Basis\HAL\gemeenschappelijk\Third_Party\freertos-addons-1.1.0\c++\Source\cthread.cpp ****         else 
  85:C:\Users\niels\Documents\GitHub\DSP\software\STM32Basis\HAL\gemeenschappelijk\Third_Party\freertos-addons-1.1.0\c++\Source\cthread.cpp ****             ThreadStarted = true;
 292              	 .loc 2 85 27
 293 0058 7B68     	 ldr r3,[r7,#4]
 294 005a 0122     	 movs r2,#1
 295 005c 83F82820 	 strb r2,[r3,#40]
 296              	.L16:
 297              	.LBE6:
  86:C:\Users\niels\Documents\GitHub\DSP\software\STM32Basis\HAL\gemeenschappelijk\Third_Party\freertos-addons-1.1.0\c++\Source\cthread.cpp ****     }
  87:C:\Users\niels\Documents\GitHub\DSP\software\STM32Basis\HAL\gemeenschappelijk\Third_Party\freertos-addons-1.1.0\c++\Source\cthread.cpp **** 
  88:C:\Users\niels\Documents\GitHub\DSP\software\STM32Basis\HAL\gemeenschappelijk\Third_Party\freertos-addons-1.1.0\c++\Source\cthread.cpp ****     BaseType_t rc = xTaskCreate(TaskFunctionAdapter,
 298              	 .loc 2 88 21
 299 0060 7B68     	 ldr r3,[r7,#4]
 300 0062 0833     	 adds r3,r3,#8
 301 0064 1846     	 mov r0,r3
 302 0066 FFF7FEFF 	 bl _ZNKSt7__cxx1112basic_stringIcSt11char_traitsIcESaIcEE5c_strEv
 303 006a 7B68     	 ldr r3,[r7,#4]
 304 006c 198C     	 ldrh r1,[r3,#32]
 305 006e 7B68     	 ldr r3,[r7,#4]
ARM GAS   			page 12


 306 0070 5B6A     	 ldr r3,[r3,#36]
 307 0072 7A68     	 ldr r2,[r7,#4]
 308 0074 0432     	 adds r2,r2,#4
 309 0076 0024     	 movs r4,#0
 310 0078 0394     	 str r4,[sp,#12]
 311 007a 0024     	 movs r4,#0
 312 007c 0294     	 str r4,[sp,#8]
 313 007e 0192     	 str r2,[sp,#4]
 314 0080 0093     	 str r3,[sp]
 315 0082 7B68     	 ldr r3,[r7,#4]
 316 0084 0A46     	 mov r2,r1
 317 0086 0146     	 mov r1,r0
 318 0088 0948     	 ldr r0,.L19+8
 319 008a FFF7FEFF 	 bl xTaskGenericCreate
 320 008e F860     	 str r0,[r7,#12]
  89:C:\Users\niels\Documents\GitHub\DSP\software\STM32Basis\HAL\gemeenschappelijk\Third_Party\freertos-addons-1.1.0\c++\Source\cthread.cpp ****                                 Name.c_str(),
  90:C:\Users\niels\Documents\GitHub\DSP\software\STM32Basis\HAL\gemeenschappelijk\Third_Party\freertos-addons-1.1.0\c++\Source\cthread.cpp ****                                 StackDepth,
  91:C:\Users\niels\Documents\GitHub\DSP\software\STM32Basis\HAL\gemeenschappelijk\Third_Party\freertos-addons-1.1.0\c++\Source\cthread.cpp ****                                 this,
  92:C:\Users\niels\Documents\GitHub\DSP\software\STM32Basis\HAL\gemeenschappelijk\Third_Party\freertos-addons-1.1.0\c++\Source\cthread.cpp ****                                 Priority,
  93:C:\Users\niels\Documents\GitHub\DSP\software\STM32Basis\HAL\gemeenschappelijk\Third_Party\freertos-addons-1.1.0\c++\Source\cthread.cpp ****                                 &handle);
  94:C:\Users\niels\Documents\GitHub\DSP\software\STM32Basis\HAL\gemeenschappelijk\Third_Party\freertos-addons-1.1.0\c++\Source\cthread.cpp **** 
  95:C:\Users\niels\Documents\GitHub\DSP\software\STM32Basis\HAL\gemeenschappelijk\Third_Party\freertos-addons-1.1.0\c++\Source\cthread.cpp ****     return rc != pdPASS ? false : true;
 321              	 .loc 2 95 35
 322 0090 FB68     	 ldr r3,[r7,#12]
 323 0092 012B     	 cmp r3,#1
 324 0094 0CBF     	 ite eq
 325 0096 0123     	 moveq r3,#1
 326 0098 0023     	 movne r3,#0
 327 009a DCB2     	 uxtb r4,r3
 328              	.L17:
  96:C:\Users\niels\Documents\GitHub\DSP\software\STM32Basis\HAL\gemeenschappelijk\Third_Party\freertos-addons-1.1.0\c++\Source\cthread.cpp **** }
 329              	 .loc 2 96 1 discriminator 5
 330 009c 2346     	 mov r3,r4
 331 009e 1846     	 mov r0,r3
 332 00a0 1037     	 adds r7,r7,#16
 333              	 .cfi_def_cfa_offset 16
 334 00a2 BD46     	 mov sp,r7
 335              	 .cfi_def_cfa_register 13
 336              	 
 337 00a4 B0BD     	 pop {r4,r5,r7,pc}
 338              	.L20:
 339 00a6 00BF     	 .align 2
 340              	.L19:
 341 00a8 00000000 	 .word _ZN12cpp_freertos6Thread15SchedulerActiveE
 342 00ac 00000000 	 .word _ZN12cpp_freertos6Thread14StartGuardLockE
 343 00b0 00000000 	 .word _ZN12cpp_freertos6Thread19TaskFunctionAdapterEPv
 344              	 .cfi_endproc
 345              	.LFE1047:
 346              	 .size _ZN12cpp_freertos6Thread5StartEv,.-_ZN12cpp_freertos6Thread5StartEv
 347              	 .section .text._ZN12cpp_freertos6ThreadD2Ev,"ax",%progbits
 348              	 .align 1
 349              	 .global _ZN12cpp_freertos6ThreadD2Ev
 350              	 .syntax unified
 351              	 .thumb
 352              	 .thumb_func
 353              	 .type _ZN12cpp_freertos6ThreadD2Ev,%function
 354              	_ZN12cpp_freertos6ThreadD2Ev:
ARM GAS   			page 13


 355              	.LFB1049:
  97:C:\Users\niels\Documents\GitHub\DSP\software\STM32Basis\HAL\gemeenschappelijk\Third_Party\freertos-addons-1.1.0\c++\Source\cthread.cpp **** 
  98:C:\Users\niels\Documents\GitHub\DSP\software\STM32Basis\HAL\gemeenschappelijk\Third_Party\freertos-addons-1.1.0\c++\Source\cthread.cpp **** 
  99:C:\Users\niels\Documents\GitHub\DSP\software\STM32Basis\HAL\gemeenschappelijk\Third_Party\freertos-addons-1.1.0\c++\Source\cthread.cpp **** 
 100:C:\Users\niels\Documents\GitHub\DSP\software\STM32Basis\HAL\gemeenschappelijk\Third_Party\freertos-addons-1.1.0\c++\Source\cthread.cpp **** 
 101:C:\Users\niels\Documents\GitHub\DSP\software\STM32Basis\HAL\gemeenschappelijk\Third_Party\freertos-addons-1.1.0\c++\Source\cthread.cpp **** #if (INCLUDE_vTaskDelete == 1)
 102:C:\Users\niels\Documents\GitHub\DSP\software\STM32Basis\HAL\gemeenschappelijk\Third_Party\freertos-addons-1.1.0\c++\Source\cthread.cpp **** 
 103:C:\Users\niels\Documents\GitHub\DSP\software\STM32Basis\HAL\gemeenschappelijk\Third_Party\freertos-addons-1.1.0\c++\Source\cthread.cpp **** //
 104:C:\Users\niels\Documents\GitHub\DSP\software\STM32Basis\HAL\gemeenschappelijk\Third_Party\freertos-addons-1.1.0\c++\Source\cthread.cpp **** //  Deliberately empty. If this is needed, it will be overloaded.
 105:C:\Users\niels\Documents\GitHub\DSP\software\STM32Basis\HAL\gemeenschappelijk\Third_Party\freertos-addons-1.1.0\c++\Source\cthread.cpp **** //
 106:C:\Users\niels\Documents\GitHub\DSP\software\STM32Basis\HAL\gemeenschappelijk\Third_Party\freertos-addons-1.1.0\c++\Source\cthread.cpp **** void Thread::Cleanup()
 107:C:\Users\niels\Documents\GitHub\DSP\software\STM32Basis\HAL\gemeenschappelijk\Third_Party\freertos-addons-1.1.0\c++\Source\cthread.cpp **** {
 108:C:\Users\niels\Documents\GitHub\DSP\software\STM32Basis\HAL\gemeenschappelijk\Third_Party\freertos-addons-1.1.0\c++\Source\cthread.cpp **** }
 109:C:\Users\niels\Documents\GitHub\DSP\software\STM32Basis\HAL\gemeenschappelijk\Third_Party\freertos-addons-1.1.0\c++\Source\cthread.cpp **** #endif
 110:C:\Users\niels\Documents\GitHub\DSP\software\STM32Basis\HAL\gemeenschappelijk\Third_Party\freertos-addons-1.1.0\c++\Source\cthread.cpp **** 
 111:C:\Users\niels\Documents\GitHub\DSP\software\STM32Basis\HAL\gemeenschappelijk\Third_Party\freertos-addons-1.1.0\c++\Source\cthread.cpp **** Thread::~Thread()
 356              	 .loc 2 111 1
 357              	 .cfi_startproc
 358              	 
 359              	 
 360 0000 80B5     	 push {r7,lr}
 361              	 .cfi_def_cfa_offset 8
 362              	 .cfi_offset 7,-8
 363              	 .cfi_offset 14,-4
 364 0002 82B0     	 sub sp,sp,#8
 365              	 .cfi_def_cfa_offset 16
 366 0004 00AF     	 add r7,sp,#0
 367              	 .cfi_def_cfa_register 7
 368 0006 7860     	 str r0,[r7,#4]
 369              	.LBB8:
 370              	 .loc 2 111 17
 371 0008 084A     	 ldr r2,.L23
 372 000a 7B68     	 ldr r3,[r7,#4]
 373 000c 1A60     	 str r2,[r3]
 112:C:\Users\niels\Documents\GitHub\DSP\software\STM32Basis\HAL\gemeenschappelijk\Third_Party\freertos-addons-1.1.0\c++\Source\cthread.cpp **** {
 113:C:\Users\niels\Documents\GitHub\DSP\software\STM32Basis\HAL\gemeenschappelijk\Third_Party\freertos-addons-1.1.0\c++\Source\cthread.cpp **** #if (INCLUDE_vTaskDelete == 1)
 114:C:\Users\niels\Documents\GitHub\DSP\software\STM32Basis\HAL\gemeenschappelijk\Third_Party\freertos-addons-1.1.0\c++\Source\cthread.cpp ****     vTaskDelete(handle);
 115:C:\Users\niels\Documents\GitHub\DSP\software\STM32Basis\HAL\gemeenschappelijk\Third_Party\freertos-addons-1.1.0\c++\Source\cthread.cpp **** #endif
 116:C:\Users\niels\Documents\GitHub\DSP\software\STM32Basis\HAL\gemeenschappelijk\Third_Party\freertos-addons-1.1.0\c++\Source\cthread.cpp ****     handle = (TaskHandle_t)-1;
 374              	 .loc 2 116 12
 375 000e 7B68     	 ldr r3,[r7,#4]
 376 0010 4FF0FF32 	 mov r2,#-1
 377 0014 5A60     	 str r2,[r3,#4]
 111:C:\Users\niels\Documents\GitHub\DSP\software\STM32Basis\HAL\gemeenschappelijk\Third_Party\freertos-addons-1.1.0\c++\Source\cthread.cpp **** {
 378              	 .loc 2 111 17
 379 0016 7B68     	 ldr r3,[r7,#4]
 380 0018 0833     	 adds r3,r3,#8
 381 001a 1846     	 mov r0,r3
 382 001c FFF7FEFF 	 bl _ZNSt7__cxx1112basic_stringIcSt11char_traitsIcESaIcEED1Ev
 383              	.LBE8:
 117:C:\Users\niels\Documents\GitHub\DSP\software\STM32Basis\HAL\gemeenschappelijk\Third_Party\freertos-addons-1.1.0\c++\Source\cthread.cpp **** }
 384              	 .loc 2 117 1
 385 0020 7B68     	 ldr r3,[r7,#4]
 386 0022 1846     	 mov r0,r3
 387 0024 0837     	 adds r7,r7,#8
 388              	 .cfi_def_cfa_offset 8
 389 0026 BD46     	 mov sp,r7
ARM GAS   			page 14


 390              	 .cfi_def_cfa_register 13
 391              	 
 392 0028 80BD     	 pop {r7,pc}
 393              	.L24:
 394 002a 00BF     	 .align 2
 395              	.L23:
 396 002c 08000000 	 .word _ZTVN12cpp_freertos6ThreadE+8
 397              	 .cfi_endproc
 398              	.LFE1049:
 399              	 .size _ZN12cpp_freertos6ThreadD2Ev,.-_ZN12cpp_freertos6ThreadD2Ev
 400              	 .global _ZN12cpp_freertos6ThreadD1Ev
 401              	 .thumb_set _ZN12cpp_freertos6ThreadD1Ev,_ZN12cpp_freertos6ThreadD2Ev
 402              	 .section .text._ZN12cpp_freertos6ThreadD0Ev,"ax",%progbits
 403              	 .align 1
 404              	 .global _ZN12cpp_freertos6ThreadD0Ev
 405              	 .syntax unified
 406              	 .thumb
 407              	 .thumb_func
 408              	 .type _ZN12cpp_freertos6ThreadD0Ev,%function
 409              	_ZN12cpp_freertos6ThreadD0Ev:
 410              	.LFB1051:
 111:C:\Users\niels\Documents\GitHub\DSP\software\STM32Basis\HAL\gemeenschappelijk\Third_Party\freertos-addons-1.1.0\c++\Source\cthread.cpp **** {
 411              	 .loc 2 111 1
 412              	 .cfi_startproc
 413              	 
 414              	 
 415 0000 80B5     	 push {r7,lr}
 416              	 .cfi_def_cfa_offset 8
 417              	 .cfi_offset 7,-8
 418              	 .cfi_offset 14,-4
 419 0002 82B0     	 sub sp,sp,#8
 420              	 .cfi_def_cfa_offset 16
 421 0004 00AF     	 add r7,sp,#0
 422              	 .cfi_def_cfa_register 7
 423 0006 7860     	 str r0,[r7,#4]
 424              	 .loc 2 117 1
 425 0008 7868     	 ldr r0,[r7,#4]
 426 000a FFF7FEFF 	 bl _ZN12cpp_freertos6ThreadD1Ev
 427 000e 2C21     	 movs r1,#44
 428 0010 7868     	 ldr r0,[r7,#4]
 429 0012 FFF7FEFF 	 bl _ZdlPvj
 430 0016 7B68     	 ldr r3,[r7,#4]
 431 0018 1846     	 mov r0,r3
 432 001a 0837     	 adds r7,r7,#8
 433              	 .cfi_def_cfa_offset 8
 434 001c BD46     	 mov sp,r7
 435              	 .cfi_def_cfa_register 13
 436              	 
 437 001e 80BD     	 pop {r7,pc}
 438              	 .cfi_endproc
 439              	.LFE1051:
 440              	 .size _ZN12cpp_freertos6ThreadD0Ev,.-_ZN12cpp_freertos6ThreadD0Ev
 441              	 .section .text._ZN12cpp_freertos6Thread19TaskFunctionAdapterEPv,"ax",%progbits
 442              	 .align 1
 443              	 .global _ZN12cpp_freertos6Thread19TaskFunctionAdapterEPv
 444              	 .syntax unified
 445              	 .thumb
ARM GAS   			page 15


 446              	 .thumb_func
 447              	 .type _ZN12cpp_freertos6Thread19TaskFunctionAdapterEPv,%function
 448              	_ZN12cpp_freertos6Thread19TaskFunctionAdapterEPv:
 449              	.LFB1052:
 118:C:\Users\niels\Documents\GitHub\DSP\software\STM32Basis\HAL\gemeenschappelijk\Third_Party\freertos-addons-1.1.0\c++\Source\cthread.cpp **** 
 119:C:\Users\niels\Documents\GitHub\DSP\software\STM32Basis\HAL\gemeenschappelijk\Third_Party\freertos-addons-1.1.0\c++\Source\cthread.cpp **** 
 120:C:\Users\niels\Documents\GitHub\DSP\software\STM32Basis\HAL\gemeenschappelijk\Third_Party\freertos-addons-1.1.0\c++\Source\cthread.cpp **** 
 121:C:\Users\niels\Documents\GitHub\DSP\software\STM32Basis\HAL\gemeenschappelijk\Third_Party\freertos-addons-1.1.0\c++\Source\cthread.cpp **** 
 122:C:\Users\niels\Documents\GitHub\DSP\software\STM32Basis\HAL\gemeenschappelijk\Third_Party\freertos-addons-1.1.0\c++\Source\cthread.cpp **** void Thread::TaskFunctionAdapter(void *pvParameters)
 123:C:\Users\niels\Documents\GitHub\DSP\software\STM32Basis\HAL\gemeenschappelijk\Third_Party\freertos-addons-1.1.0\c++\Source\cthread.cpp **** {
 450              	 .loc 2 123 1
 451              	 .cfi_startproc
 452              	 
 453              	 
 454 0000 80B5     	 push {r7,lr}
 455              	 .cfi_def_cfa_offset 8
 456              	 .cfi_offset 7,-8
 457              	 .cfi_offset 14,-4
 458 0002 84B0     	 sub sp,sp,#16
 459              	 .cfi_def_cfa_offset 24
 460 0004 00AF     	 add r7,sp,#0
 461              	 .cfi_def_cfa_register 7
 462 0006 7860     	 str r0,[r7,#4]
 124:C:\Users\niels\Documents\GitHub\DSP\software\STM32Basis\HAL\gemeenschappelijk\Third_Party\freertos-addons-1.1.0\c++\Source\cthread.cpp ****     Thread *thread = static_cast<Thread *>(pvParameters);
 463              	 .loc 2 124 13
 464 0008 7B68     	 ldr r3,[r7,#4]
 465 000a FB60     	 str r3,[r7,#12]
 125:C:\Users\niels\Documents\GitHub\DSP\software\STM32Basis\HAL\gemeenschappelijk\Third_Party\freertos-addons-1.1.0\c++\Source\cthread.cpp **** 
 126:C:\Users\niels\Documents\GitHub\DSP\software\STM32Basis\HAL\gemeenschappelijk\Third_Party\freertos-addons-1.1.0\c++\Source\cthread.cpp ****     thread->Run();
 466              	 .loc 2 126 17
 467 000c FB68     	 ldr r3,[r7,#12]
 468 000e 1B68     	 ldr r3,[r3]
 469 0010 0833     	 adds r3,r3,#8
 470 0012 1B68     	 ldr r3,[r3]
 471              	 .loc 2 126 16
 472 0014 F868     	 ldr r0,[r7,#12]
 473 0016 9847     	 blx r3
 474              	.LVL0:
 475              	.LBB9:
 476              	.LBB10:
 477              	 .file 3 "c:\\users\\niels\\documents\\github\\dsp\\software\\stm32basis\\hal\\gemeenschappelijk\\third_party\\freertos\\source\\portable\\gcc\\arm_cm4f\\portmacro.h"
   1:c:\users\niels\documents\github\dsp\software\stm32basis\hal\gemeenschappelijk\third_party\freertos\source\portable\gcc\arm_cm4f\portmacro.h **** /*
   2:c:\users\niels\documents\github\dsp\software\stm32basis\hal\gemeenschappelijk\third_party\freertos\source\portable\gcc\arm_cm4f\portmacro.h ****     FreeRTOS V8.2.3 - Copyright (C) 2015 Real Time Engineers Ltd.
   3:c:\users\niels\documents\github\dsp\software\stm32basis\hal\gemeenschappelijk\third_party\freertos\source\portable\gcc\arm_cm4f\portmacro.h ****     All rights reserved
   4:c:\users\niels\documents\github\dsp\software\stm32basis\hal\gemeenschappelijk\third_party\freertos\source\portable\gcc\arm_cm4f\portmacro.h **** 
   5:c:\users\niels\documents\github\dsp\software\stm32basis\hal\gemeenschappelijk\third_party\freertos\source\portable\gcc\arm_cm4f\portmacro.h ****     VISIT http://www.FreeRTOS.org TO ENSURE YOU ARE USING THE LATEST VERSION.
   6:c:\users\niels\documents\github\dsp\software\stm32basis\hal\gemeenschappelijk\third_party\freertos\source\portable\gcc\arm_cm4f\portmacro.h **** 
   7:c:\users\niels\documents\github\dsp\software\stm32basis\hal\gemeenschappelijk\third_party\freertos\source\portable\gcc\arm_cm4f\portmacro.h ****     This file is part of the FreeRTOS distribution.
   8:c:\users\niels\documents\github\dsp\software\stm32basis\hal\gemeenschappelijk\third_party\freertos\source\portable\gcc\arm_cm4f\portmacro.h **** 
   9:c:\users\niels\documents\github\dsp\software\stm32basis\hal\gemeenschappelijk\third_party\freertos\source\portable\gcc\arm_cm4f\portmacro.h ****     FreeRTOS is free software; you can redistribute it and/or modify it under
  10:c:\users\niels\documents\github\dsp\software\stm32basis\hal\gemeenschappelijk\third_party\freertos\source\portable\gcc\arm_cm4f\portmacro.h ****     the terms of the GNU General Public License (version 2) as published by the
  11:c:\users\niels\documents\github\dsp\software\stm32basis\hal\gemeenschappelijk\third_party\freertos\source\portable\gcc\arm_cm4f\portmacro.h ****     Free Software Foundation >>>> AND MODIFIED BY <<<< the FreeRTOS exception.
  12:c:\users\niels\documents\github\dsp\software\stm32basis\hal\gemeenschappelijk\third_party\freertos\source\portable\gcc\arm_cm4f\portmacro.h **** 
  13:c:\users\niels\documents\github\dsp\software\stm32basis\hal\gemeenschappelijk\third_party\freertos\source\portable\gcc\arm_cm4f\portmacro.h ****     ***************************************************************************
  14:c:\users\niels\documents\github\dsp\software\stm32basis\hal\gemeenschappelijk\third_party\freertos\source\portable\gcc\arm_cm4f\portmacro.h ****     >>!   NOTE: The modification to the GPL is included to allow you to     !<<
  15:c:\users\niels\documents\github\dsp\software\stm32basis\hal\gemeenschappelijk\third_party\freertos\source\portable\gcc\arm_cm4f\portmacro.h ****     >>!   distribute a combined work that includes FreeRTOS without being   !<<
  16:c:\users\niels\documents\github\dsp\software\stm32basis\hal\gemeenschappelijk\third_party\freertos\source\portable\gcc\arm_cm4f\portmacro.h ****     >>!   obliged to provide the source code for proprietary components     !<<
ARM GAS   			page 16


  17:c:\users\niels\documents\github\dsp\software\stm32basis\hal\gemeenschappelijk\third_party\freertos\source\portable\gcc\arm_cm4f\portmacro.h ****     >>!   outside of the FreeRTOS kernel.                                   !<<
  18:c:\users\niels\documents\github\dsp\software\stm32basis\hal\gemeenschappelijk\third_party\freertos\source\portable\gcc\arm_cm4f\portmacro.h ****     ***************************************************************************
  19:c:\users\niels\documents\github\dsp\software\stm32basis\hal\gemeenschappelijk\third_party\freertos\source\portable\gcc\arm_cm4f\portmacro.h **** 
  20:c:\users\niels\documents\github\dsp\software\stm32basis\hal\gemeenschappelijk\third_party\freertos\source\portable\gcc\arm_cm4f\portmacro.h ****     FreeRTOS is distributed in the hope that it will be useful, but WITHOUT ANY
  21:c:\users\niels\documents\github\dsp\software\stm32basis\hal\gemeenschappelijk\third_party\freertos\source\portable\gcc\arm_cm4f\portmacro.h ****     WARRANTY; without even the implied warranty of MERCHANTABILITY or FITNESS
  22:c:\users\niels\documents\github\dsp\software\stm32basis\hal\gemeenschappelijk\third_party\freertos\source\portable\gcc\arm_cm4f\portmacro.h ****     FOR A PARTICULAR PURPOSE.  Full license text is available on the following
  23:c:\users\niels\documents\github\dsp\software\stm32basis\hal\gemeenschappelijk\third_party\freertos\source\portable\gcc\arm_cm4f\portmacro.h ****     link: http://www.freertos.org/a00114.html
  24:c:\users\niels\documents\github\dsp\software\stm32basis\hal\gemeenschappelijk\third_party\freertos\source\portable\gcc\arm_cm4f\portmacro.h **** 
  25:c:\users\niels\documents\github\dsp\software\stm32basis\hal\gemeenschappelijk\third_party\freertos\source\portable\gcc\arm_cm4f\portmacro.h ****     ***************************************************************************
  26:c:\users\niels\documents\github\dsp\software\stm32basis\hal\gemeenschappelijk\third_party\freertos\source\portable\gcc\arm_cm4f\portmacro.h ****      *                                                                       *
  27:c:\users\niels\documents\github\dsp\software\stm32basis\hal\gemeenschappelijk\third_party\freertos\source\portable\gcc\arm_cm4f\portmacro.h ****      *    FreeRTOS provides completely free yet professionally developed,    *
  28:c:\users\niels\documents\github\dsp\software\stm32basis\hal\gemeenschappelijk\third_party\freertos\source\portable\gcc\arm_cm4f\portmacro.h ****      *    robust, strictly quality controlled, supported, and cross          *
  29:c:\users\niels\documents\github\dsp\software\stm32basis\hal\gemeenschappelijk\third_party\freertos\source\portable\gcc\arm_cm4f\portmacro.h ****      *    platform software that is more than just the market leader, it     *
  30:c:\users\niels\documents\github\dsp\software\stm32basis\hal\gemeenschappelijk\third_party\freertos\source\portable\gcc\arm_cm4f\portmacro.h ****      *    is the industry's de facto standard.                               *
  31:c:\users\niels\documents\github\dsp\software\stm32basis\hal\gemeenschappelijk\third_party\freertos\source\portable\gcc\arm_cm4f\portmacro.h ****      *                                                                       *
  32:c:\users\niels\documents\github\dsp\software\stm32basis\hal\gemeenschappelijk\third_party\freertos\source\portable\gcc\arm_cm4f\portmacro.h ****      *    Help yourself get started quickly while simultaneously helping     *
  33:c:\users\niels\documents\github\dsp\software\stm32basis\hal\gemeenschappelijk\third_party\freertos\source\portable\gcc\arm_cm4f\portmacro.h ****      *    to support the FreeRTOS project by purchasing a FreeRTOS           *
  34:c:\users\niels\documents\github\dsp\software\stm32basis\hal\gemeenschappelijk\third_party\freertos\source\portable\gcc\arm_cm4f\portmacro.h ****      *    tutorial book, reference manual, or both:                          *
  35:c:\users\niels\documents\github\dsp\software\stm32basis\hal\gemeenschappelijk\third_party\freertos\source\portable\gcc\arm_cm4f\portmacro.h ****      *    http://www.FreeRTOS.org/Documentation                              *
  36:c:\users\niels\documents\github\dsp\software\stm32basis\hal\gemeenschappelijk\third_party\freertos\source\portable\gcc\arm_cm4f\portmacro.h ****      *                                                                       *
  37:c:\users\niels\documents\github\dsp\software\stm32basis\hal\gemeenschappelijk\third_party\freertos\source\portable\gcc\arm_cm4f\portmacro.h ****     ***************************************************************************
  38:c:\users\niels\documents\github\dsp\software\stm32basis\hal\gemeenschappelijk\third_party\freertos\source\portable\gcc\arm_cm4f\portmacro.h **** 
  39:c:\users\niels\documents\github\dsp\software\stm32basis\hal\gemeenschappelijk\third_party\freertos\source\portable\gcc\arm_cm4f\portmacro.h ****     http://www.FreeRTOS.org/FAQHelp.html - Having a problem?  Start by reading
  40:c:\users\niels\documents\github\dsp\software\stm32basis\hal\gemeenschappelijk\third_party\freertos\source\portable\gcc\arm_cm4f\portmacro.h ****     the FAQ page "My application does not run, what could be wrong?".  Have you
  41:c:\users\niels\documents\github\dsp\software\stm32basis\hal\gemeenschappelijk\third_party\freertos\source\portable\gcc\arm_cm4f\portmacro.h ****     defined configASSERT()?
  42:c:\users\niels\documents\github\dsp\software\stm32basis\hal\gemeenschappelijk\third_party\freertos\source\portable\gcc\arm_cm4f\portmacro.h **** 
  43:c:\users\niels\documents\github\dsp\software\stm32basis\hal\gemeenschappelijk\third_party\freertos\source\portable\gcc\arm_cm4f\portmacro.h ****     http://www.FreeRTOS.org/support - In return for receiving this top quality
  44:c:\users\niels\documents\github\dsp\software\stm32basis\hal\gemeenschappelijk\third_party\freertos\source\portable\gcc\arm_cm4f\portmacro.h ****     embedded software for free we request you assist our global community by
  45:c:\users\niels\documents\github\dsp\software\stm32basis\hal\gemeenschappelijk\third_party\freertos\source\portable\gcc\arm_cm4f\portmacro.h ****     participating in the support forum.
  46:c:\users\niels\documents\github\dsp\software\stm32basis\hal\gemeenschappelijk\third_party\freertos\source\portable\gcc\arm_cm4f\portmacro.h **** 
  47:c:\users\niels\documents\github\dsp\software\stm32basis\hal\gemeenschappelijk\third_party\freertos\source\portable\gcc\arm_cm4f\portmacro.h ****     http://www.FreeRTOS.org/training - Investing in training allows your team to
  48:c:\users\niels\documents\github\dsp\software\stm32basis\hal\gemeenschappelijk\third_party\freertos\source\portable\gcc\arm_cm4f\portmacro.h ****     be as productive as possible as early as possible.  Now you can receive
  49:c:\users\niels\documents\github\dsp\software\stm32basis\hal\gemeenschappelijk\third_party\freertos\source\portable\gcc\arm_cm4f\portmacro.h ****     FreeRTOS training directly from Richard Barry, CEO of Real Time Engineers
  50:c:\users\niels\documents\github\dsp\software\stm32basis\hal\gemeenschappelijk\third_party\freertos\source\portable\gcc\arm_cm4f\portmacro.h ****     Ltd, and the world's leading authority on the world's leading RTOS.
  51:c:\users\niels\documents\github\dsp\software\stm32basis\hal\gemeenschappelijk\third_party\freertos\source\portable\gcc\arm_cm4f\portmacro.h **** 
  52:c:\users\niels\documents\github\dsp\software\stm32basis\hal\gemeenschappelijk\third_party\freertos\source\portable\gcc\arm_cm4f\portmacro.h ****     http://www.FreeRTOS.org/plus - A selection of FreeRTOS ecosystem products,
  53:c:\users\niels\documents\github\dsp\software\stm32basis\hal\gemeenschappelijk\third_party\freertos\source\portable\gcc\arm_cm4f\portmacro.h ****     including FreeRTOS+Trace - an indispensable productivity tool, a DOS
  54:c:\users\niels\documents\github\dsp\software\stm32basis\hal\gemeenschappelijk\third_party\freertos\source\portable\gcc\arm_cm4f\portmacro.h ****     compatible FAT file system, and our tiny thread aware UDP/IP stack.
  55:c:\users\niels\documents\github\dsp\software\stm32basis\hal\gemeenschappelijk\third_party\freertos\source\portable\gcc\arm_cm4f\portmacro.h **** 
  56:c:\users\niels\documents\github\dsp\software\stm32basis\hal\gemeenschappelijk\third_party\freertos\source\portable\gcc\arm_cm4f\portmacro.h ****     http://www.FreeRTOS.org/labs - Where new FreeRTOS products go to incubate.
  57:c:\users\niels\documents\github\dsp\software\stm32basis\hal\gemeenschappelijk\third_party\freertos\source\portable\gcc\arm_cm4f\portmacro.h ****     Come and try FreeRTOS+TCP, our new open source TCP/IP stack for FreeRTOS.
  58:c:\users\niels\documents\github\dsp\software\stm32basis\hal\gemeenschappelijk\third_party\freertos\source\portable\gcc\arm_cm4f\portmacro.h **** 
  59:c:\users\niels\documents\github\dsp\software\stm32basis\hal\gemeenschappelijk\third_party\freertos\source\portable\gcc\arm_cm4f\portmacro.h ****     http://www.OpenRTOS.com - Real Time Engineers ltd. license FreeRTOS to High
  60:c:\users\niels\documents\github\dsp\software\stm32basis\hal\gemeenschappelijk\third_party\freertos\source\portable\gcc\arm_cm4f\portmacro.h ****     Integrity Systems ltd. to sell under the OpenRTOS brand.  Low cost OpenRTOS
  61:c:\users\niels\documents\github\dsp\software\stm32basis\hal\gemeenschappelijk\third_party\freertos\source\portable\gcc\arm_cm4f\portmacro.h ****     licenses offer ticketed support, indemnification and commercial middleware.
  62:c:\users\niels\documents\github\dsp\software\stm32basis\hal\gemeenschappelijk\third_party\freertos\source\portable\gcc\arm_cm4f\portmacro.h **** 
  63:c:\users\niels\documents\github\dsp\software\stm32basis\hal\gemeenschappelijk\third_party\freertos\source\portable\gcc\arm_cm4f\portmacro.h ****     http://www.SafeRTOS.com - High Integrity Systems also provide a safety
  64:c:\users\niels\documents\github\dsp\software\stm32basis\hal\gemeenschappelijk\third_party\freertos\source\portable\gcc\arm_cm4f\portmacro.h ****     engineered and independently SIL3 certified version for use in safety and
  65:c:\users\niels\documents\github\dsp\software\stm32basis\hal\gemeenschappelijk\third_party\freertos\source\portable\gcc\arm_cm4f\portmacro.h ****     mission critical applications that require provable dependability.
  66:c:\users\niels\documents\github\dsp\software\stm32basis\hal\gemeenschappelijk\third_party\freertos\source\portable\gcc\arm_cm4f\portmacro.h **** 
  67:c:\users\niels\documents\github\dsp\software\stm32basis\hal\gemeenschappelijk\third_party\freertos\source\portable\gcc\arm_cm4f\portmacro.h ****     1 tab == 4 spaces!
  68:c:\users\niels\documents\github\dsp\software\stm32basis\hal\gemeenschappelijk\third_party\freertos\source\portable\gcc\arm_cm4f\portmacro.h **** */
  69:c:\users\niels\documents\github\dsp\software\stm32basis\hal\gemeenschappelijk\third_party\freertos\source\portable\gcc\arm_cm4f\portmacro.h **** 
  70:c:\users\niels\documents\github\dsp\software\stm32basis\hal\gemeenschappelijk\third_party\freertos\source\portable\gcc\arm_cm4f\portmacro.h **** 
  71:c:\users\niels\documents\github\dsp\software\stm32basis\hal\gemeenschappelijk\third_party\freertos\source\portable\gcc\arm_cm4f\portmacro.h **** #ifndef PORTMACRO_H
  72:c:\users\niels\documents\github\dsp\software\stm32basis\hal\gemeenschappelijk\third_party\freertos\source\portable\gcc\arm_cm4f\portmacro.h **** #define PORTMACRO_H
  73:c:\users\niels\documents\github\dsp\software\stm32basis\hal\gemeenschappelijk\third_party\freertos\source\portable\gcc\arm_cm4f\portmacro.h **** 
ARM GAS   			page 17


  74:c:\users\niels\documents\github\dsp\software\stm32basis\hal\gemeenschappelijk\third_party\freertos\source\portable\gcc\arm_cm4f\portmacro.h **** #ifdef __cplusplus
  75:c:\users\niels\documents\github\dsp\software\stm32basis\hal\gemeenschappelijk\third_party\freertos\source\portable\gcc\arm_cm4f\portmacro.h **** extern "C" {
  76:c:\users\niels\documents\github\dsp\software\stm32basis\hal\gemeenschappelijk\third_party\freertos\source\portable\gcc\arm_cm4f\portmacro.h **** #endif
  77:c:\users\niels\documents\github\dsp\software\stm32basis\hal\gemeenschappelijk\third_party\freertos\source\portable\gcc\arm_cm4f\portmacro.h **** 
  78:c:\users\niels\documents\github\dsp\software\stm32basis\hal\gemeenschappelijk\third_party\freertos\source\portable\gcc\arm_cm4f\portmacro.h **** /*-----------------------------------------------------------
  79:c:\users\niels\documents\github\dsp\software\stm32basis\hal\gemeenschappelijk\third_party\freertos\source\portable\gcc\arm_cm4f\portmacro.h ****  * Port specific definitions.
  80:c:\users\niels\documents\github\dsp\software\stm32basis\hal\gemeenschappelijk\third_party\freertos\source\portable\gcc\arm_cm4f\portmacro.h ****  *
  81:c:\users\niels\documents\github\dsp\software\stm32basis\hal\gemeenschappelijk\third_party\freertos\source\portable\gcc\arm_cm4f\portmacro.h ****  * The settings in this file configure FreeRTOS correctly for the
  82:c:\users\niels\documents\github\dsp\software\stm32basis\hal\gemeenschappelijk\third_party\freertos\source\portable\gcc\arm_cm4f\portmacro.h ****  * given hardware and compiler.
  83:c:\users\niels\documents\github\dsp\software\stm32basis\hal\gemeenschappelijk\third_party\freertos\source\portable\gcc\arm_cm4f\portmacro.h ****  *
  84:c:\users\niels\documents\github\dsp\software\stm32basis\hal\gemeenschappelijk\third_party\freertos\source\portable\gcc\arm_cm4f\portmacro.h ****  * These settings should not be altered.
  85:c:\users\niels\documents\github\dsp\software\stm32basis\hal\gemeenschappelijk\third_party\freertos\source\portable\gcc\arm_cm4f\portmacro.h ****  *-----------------------------------------------------------
  86:c:\users\niels\documents\github\dsp\software\stm32basis\hal\gemeenschappelijk\third_party\freertos\source\portable\gcc\arm_cm4f\portmacro.h ****  */
  87:c:\users\niels\documents\github\dsp\software\stm32basis\hal\gemeenschappelijk\third_party\freertos\source\portable\gcc\arm_cm4f\portmacro.h **** 
  88:c:\users\niels\documents\github\dsp\software\stm32basis\hal\gemeenschappelijk\third_party\freertos\source\portable\gcc\arm_cm4f\portmacro.h **** /* Type definitions. */
  89:c:\users\niels\documents\github\dsp\software\stm32basis\hal\gemeenschappelijk\third_party\freertos\source\portable\gcc\arm_cm4f\portmacro.h **** #define portCHAR		char
  90:c:\users\niels\documents\github\dsp\software\stm32basis\hal\gemeenschappelijk\third_party\freertos\source\portable\gcc\arm_cm4f\portmacro.h **** #define portFLOAT		float
  91:c:\users\niels\documents\github\dsp\software\stm32basis\hal\gemeenschappelijk\third_party\freertos\source\portable\gcc\arm_cm4f\portmacro.h **** #define portDOUBLE		double
  92:c:\users\niels\documents\github\dsp\software\stm32basis\hal\gemeenschappelijk\third_party\freertos\source\portable\gcc\arm_cm4f\portmacro.h **** #define portLONG		long
  93:c:\users\niels\documents\github\dsp\software\stm32basis\hal\gemeenschappelijk\third_party\freertos\source\portable\gcc\arm_cm4f\portmacro.h **** #define portSHORT		short
  94:c:\users\niels\documents\github\dsp\software\stm32basis\hal\gemeenschappelijk\third_party\freertos\source\portable\gcc\arm_cm4f\portmacro.h **** #define portSTACK_TYPE	uint32_t
  95:c:\users\niels\documents\github\dsp\software\stm32basis\hal\gemeenschappelijk\third_party\freertos\source\portable\gcc\arm_cm4f\portmacro.h **** #define portBASE_TYPE	long
  96:c:\users\niels\documents\github\dsp\software\stm32basis\hal\gemeenschappelijk\third_party\freertos\source\portable\gcc\arm_cm4f\portmacro.h **** 
  97:c:\users\niels\documents\github\dsp\software\stm32basis\hal\gemeenschappelijk\third_party\freertos\source\portable\gcc\arm_cm4f\portmacro.h **** typedef portSTACK_TYPE StackType_t;
  98:c:\users\niels\documents\github\dsp\software\stm32basis\hal\gemeenschappelijk\third_party\freertos\source\portable\gcc\arm_cm4f\portmacro.h **** typedef long BaseType_t;
  99:c:\users\niels\documents\github\dsp\software\stm32basis\hal\gemeenschappelijk\third_party\freertos\source\portable\gcc\arm_cm4f\portmacro.h **** typedef unsigned long UBaseType_t;
 100:c:\users\niels\documents\github\dsp\software\stm32basis\hal\gemeenschappelijk\third_party\freertos\source\portable\gcc\arm_cm4f\portmacro.h **** 
 101:c:\users\niels\documents\github\dsp\software\stm32basis\hal\gemeenschappelijk\third_party\freertos\source\portable\gcc\arm_cm4f\portmacro.h **** #if( configUSE_16_BIT_TICKS == 1 )
 102:c:\users\niels\documents\github\dsp\software\stm32basis\hal\gemeenschappelijk\third_party\freertos\source\portable\gcc\arm_cm4f\portmacro.h **** 	typedef uint16_t TickType_t;
 103:c:\users\niels\documents\github\dsp\software\stm32basis\hal\gemeenschappelijk\third_party\freertos\source\portable\gcc\arm_cm4f\portmacro.h **** 	#define portMAX_DELAY ( TickType_t ) 0xffff
 104:c:\users\niels\documents\github\dsp\software\stm32basis\hal\gemeenschappelijk\third_party\freertos\source\portable\gcc\arm_cm4f\portmacro.h **** #else
 105:c:\users\niels\documents\github\dsp\software\stm32basis\hal\gemeenschappelijk\third_party\freertos\source\portable\gcc\arm_cm4f\portmacro.h **** 	typedef uint32_t TickType_t;
 106:c:\users\niels\documents\github\dsp\software\stm32basis\hal\gemeenschappelijk\third_party\freertos\source\portable\gcc\arm_cm4f\portmacro.h **** 	#define portMAX_DELAY ( TickType_t ) 0xffffffffUL
 107:c:\users\niels\documents\github\dsp\software\stm32basis\hal\gemeenschappelijk\third_party\freertos\source\portable\gcc\arm_cm4f\portmacro.h **** 
 108:c:\users\niels\documents\github\dsp\software\stm32basis\hal\gemeenschappelijk\third_party\freertos\source\portable\gcc\arm_cm4f\portmacro.h **** 	/* 32-bit tick type on a 32-bit architecture, so reads of the tick count do
 109:c:\users\niels\documents\github\dsp\software\stm32basis\hal\gemeenschappelijk\third_party\freertos\source\portable\gcc\arm_cm4f\portmacro.h **** 	not need to be guarded with a critical section. */
 110:c:\users\niels\documents\github\dsp\software\stm32basis\hal\gemeenschappelijk\third_party\freertos\source\portable\gcc\arm_cm4f\portmacro.h **** 	#define portTICK_TYPE_IS_ATOMIC 1
 111:c:\users\niels\documents\github\dsp\software\stm32basis\hal\gemeenschappelijk\third_party\freertos\source\portable\gcc\arm_cm4f\portmacro.h **** #endif
 112:c:\users\niels\documents\github\dsp\software\stm32basis\hal\gemeenschappelijk\third_party\freertos\source\portable\gcc\arm_cm4f\portmacro.h **** /*-----------------------------------------------------------*/
 113:c:\users\niels\documents\github\dsp\software\stm32basis\hal\gemeenschappelijk\third_party\freertos\source\portable\gcc\arm_cm4f\portmacro.h **** 
 114:c:\users\niels\documents\github\dsp\software\stm32basis\hal\gemeenschappelijk\third_party\freertos\source\portable\gcc\arm_cm4f\portmacro.h **** /* Architecture specifics. */
 115:c:\users\niels\documents\github\dsp\software\stm32basis\hal\gemeenschappelijk\third_party\freertos\source\portable\gcc\arm_cm4f\portmacro.h **** #define portSTACK_GROWTH			( -1 )
 116:c:\users\niels\documents\github\dsp\software\stm32basis\hal\gemeenschappelijk\third_party\freertos\source\portable\gcc\arm_cm4f\portmacro.h **** #define portTICK_PERIOD_MS			( ( TickType_t ) 1000 / configTICK_RATE_HZ )
 117:c:\users\niels\documents\github\dsp\software\stm32basis\hal\gemeenschappelijk\third_party\freertos\source\portable\gcc\arm_cm4f\portmacro.h **** #define portBYTE_ALIGNMENT			8
 118:c:\users\niels\documents\github\dsp\software\stm32basis\hal\gemeenschappelijk\third_party\freertos\source\portable\gcc\arm_cm4f\portmacro.h **** /*-----------------------------------------------------------*/
 119:c:\users\niels\documents\github\dsp\software\stm32basis\hal\gemeenschappelijk\third_party\freertos\source\portable\gcc\arm_cm4f\portmacro.h **** 
 120:c:\users\niels\documents\github\dsp\software\stm32basis\hal\gemeenschappelijk\third_party\freertos\source\portable\gcc\arm_cm4f\portmacro.h **** /* Scheduler utilities. */
 121:c:\users\niels\documents\github\dsp\software\stm32basis\hal\gemeenschappelijk\third_party\freertos\source\portable\gcc\arm_cm4f\portmacro.h **** #define portYIELD() 															\
 122:c:\users\niels\documents\github\dsp\software\stm32basis\hal\gemeenschappelijk\third_party\freertos\source\portable\gcc\arm_cm4f\portmacro.h **** {																				\
 123:c:\users\niels\documents\github\dsp\software\stm32basis\hal\gemeenschappelijk\third_party\freertos\source\portable\gcc\arm_cm4f\portmacro.h **** 	/* Set a PendSV to request a context switch. */								\
 124:c:\users\niels\documents\github\dsp\software\stm32basis\hal\gemeenschappelijk\third_party\freertos\source\portable\gcc\arm_cm4f\portmacro.h **** 	portNVIC_INT_CTRL_REG = portNVIC_PENDSVSET_BIT;								\
 125:c:\users\niels\documents\github\dsp\software\stm32basis\hal\gemeenschappelijk\third_party\freertos\source\portable\gcc\arm_cm4f\portmacro.h **** 																				\
 126:c:\users\niels\documents\github\dsp\software\stm32basis\hal\gemeenschappelijk\third_party\freertos\source\portable\gcc\arm_cm4f\portmacro.h **** 	/* Barriers are normally not required but do ensure the code is completely	\
 127:c:\users\niels\documents\github\dsp\software\stm32basis\hal\gemeenschappelijk\third_party\freertos\source\portable\gcc\arm_cm4f\portmacro.h **** 	within the specified behaviour for the architecture. */						\
 128:c:\users\niels\documents\github\dsp\software\stm32basis\hal\gemeenschappelijk\third_party\freertos\source\portable\gcc\arm_cm4f\portmacro.h **** 	__asm volatile( "dsb" );													\
 129:c:\users\niels\documents\github\dsp\software\stm32basis\hal\gemeenschappelijk\third_party\freertos\source\portable\gcc\arm_cm4f\portmacro.h **** 	__asm volatile( "isb" );													\
 130:c:\users\niels\documents\github\dsp\software\stm32basis\hal\gemeenschappelijk\third_party\freertos\source\portable\gcc\arm_cm4f\portmacro.h **** }
ARM GAS   			page 18


 131:c:\users\niels\documents\github\dsp\software\stm32basis\hal\gemeenschappelijk\third_party\freertos\source\portable\gcc\arm_cm4f\portmacro.h **** 
 132:c:\users\niels\documents\github\dsp\software\stm32basis\hal\gemeenschappelijk\third_party\freertos\source\portable\gcc\arm_cm4f\portmacro.h **** #define portNVIC_INT_CTRL_REG		( * ( ( volatile uint32_t * ) 0xe000ed04 ) )
 133:c:\users\niels\documents\github\dsp\software\stm32basis\hal\gemeenschappelijk\third_party\freertos\source\portable\gcc\arm_cm4f\portmacro.h **** #define portNVIC_PENDSVSET_BIT		( 1UL << 28UL )
 134:c:\users\niels\documents\github\dsp\software\stm32basis\hal\gemeenschappelijk\third_party\freertos\source\portable\gcc\arm_cm4f\portmacro.h **** #define portEND_SWITCHING_ISR( xSwitchRequired ) if( xSwitchRequired != pdFALSE ) portYIELD()
 135:c:\users\niels\documents\github\dsp\software\stm32basis\hal\gemeenschappelijk\third_party\freertos\source\portable\gcc\arm_cm4f\portmacro.h **** #define portYIELD_FROM_ISR( x ) portEND_SWITCHING_ISR( x )
 136:c:\users\niels\documents\github\dsp\software\stm32basis\hal\gemeenschappelijk\third_party\freertos\source\portable\gcc\arm_cm4f\portmacro.h **** /*-----------------------------------------------------------*/
 137:c:\users\niels\documents\github\dsp\software\stm32basis\hal\gemeenschappelijk\third_party\freertos\source\portable\gcc\arm_cm4f\portmacro.h **** 
 138:c:\users\niels\documents\github\dsp\software\stm32basis\hal\gemeenschappelijk\third_party\freertos\source\portable\gcc\arm_cm4f\portmacro.h **** /* Critical section management. */
 139:c:\users\niels\documents\github\dsp\software\stm32basis\hal\gemeenschappelijk\third_party\freertos\source\portable\gcc\arm_cm4f\portmacro.h **** extern void vPortEnterCritical( void );
 140:c:\users\niels\documents\github\dsp\software\stm32basis\hal\gemeenschappelijk\third_party\freertos\source\portable\gcc\arm_cm4f\portmacro.h **** extern void vPortExitCritical( void );
 141:c:\users\niels\documents\github\dsp\software\stm32basis\hal\gemeenschappelijk\third_party\freertos\source\portable\gcc\arm_cm4f\portmacro.h **** #define portSET_INTERRUPT_MASK_FROM_ISR()		ulPortRaiseBASEPRI()
 142:c:\users\niels\documents\github\dsp\software\stm32basis\hal\gemeenschappelijk\third_party\freertos\source\portable\gcc\arm_cm4f\portmacro.h **** #define portCLEAR_INTERRUPT_MASK_FROM_ISR(x)	vPortSetBASEPRI(x)
 143:c:\users\niels\documents\github\dsp\software\stm32basis\hal\gemeenschappelijk\third_party\freertos\source\portable\gcc\arm_cm4f\portmacro.h **** #define portDISABLE_INTERRUPTS()				vPortRaiseBASEPRI()
 144:c:\users\niels\documents\github\dsp\software\stm32basis\hal\gemeenschappelijk\third_party\freertos\source\portable\gcc\arm_cm4f\portmacro.h **** #define portENABLE_INTERRUPTS()					vPortSetBASEPRI(0)
 145:c:\users\niels\documents\github\dsp\software\stm32basis\hal\gemeenschappelijk\third_party\freertos\source\portable\gcc\arm_cm4f\portmacro.h **** #define portENTER_CRITICAL()					vPortEnterCritical()
 146:c:\users\niels\documents\github\dsp\software\stm32basis\hal\gemeenschappelijk\third_party\freertos\source\portable\gcc\arm_cm4f\portmacro.h **** #define portEXIT_CRITICAL()						vPortExitCritical()
 147:c:\users\niels\documents\github\dsp\software\stm32basis\hal\gemeenschappelijk\third_party\freertos\source\portable\gcc\arm_cm4f\portmacro.h **** 
 148:c:\users\niels\documents\github\dsp\software\stm32basis\hal\gemeenschappelijk\third_party\freertos\source\portable\gcc\arm_cm4f\portmacro.h **** /*-----------------------------------------------------------*/
 149:c:\users\niels\documents\github\dsp\software\stm32basis\hal\gemeenschappelijk\third_party\freertos\source\portable\gcc\arm_cm4f\portmacro.h **** 
 150:c:\users\niels\documents\github\dsp\software\stm32basis\hal\gemeenschappelijk\third_party\freertos\source\portable\gcc\arm_cm4f\portmacro.h **** /* Task function macros as described on the FreeRTOS.org WEB site.  These are
 151:c:\users\niels\documents\github\dsp\software\stm32basis\hal\gemeenschappelijk\third_party\freertos\source\portable\gcc\arm_cm4f\portmacro.h **** not necessary for to use this port.  They are defined so the common demo files
 152:c:\users\niels\documents\github\dsp\software\stm32basis\hal\gemeenschappelijk\third_party\freertos\source\portable\gcc\arm_cm4f\portmacro.h **** (which build with all the ports) will build. */
 153:c:\users\niels\documents\github\dsp\software\stm32basis\hal\gemeenschappelijk\third_party\freertos\source\portable\gcc\arm_cm4f\portmacro.h **** #define portTASK_FUNCTION_PROTO( vFunction, pvParameters ) void vFunction( void *pvParameters )
 154:c:\users\niels\documents\github\dsp\software\stm32basis\hal\gemeenschappelijk\third_party\freertos\source\portable\gcc\arm_cm4f\portmacro.h **** #define portTASK_FUNCTION( vFunction, pvParameters ) void vFunction( void *pvParameters )
 155:c:\users\niels\documents\github\dsp\software\stm32basis\hal\gemeenschappelijk\third_party\freertos\source\portable\gcc\arm_cm4f\portmacro.h **** /*-----------------------------------------------------------*/
 156:c:\users\niels\documents\github\dsp\software\stm32basis\hal\gemeenschappelijk\third_party\freertos\source\portable\gcc\arm_cm4f\portmacro.h **** 
 157:c:\users\niels\documents\github\dsp\software\stm32basis\hal\gemeenschappelijk\third_party\freertos\source\portable\gcc\arm_cm4f\portmacro.h **** /* Tickless idle/low power functionality. */
 158:c:\users\niels\documents\github\dsp\software\stm32basis\hal\gemeenschappelijk\third_party\freertos\source\portable\gcc\arm_cm4f\portmacro.h **** #ifndef portSUPPRESS_TICKS_AND_SLEEP
 159:c:\users\niels\documents\github\dsp\software\stm32basis\hal\gemeenschappelijk\third_party\freertos\source\portable\gcc\arm_cm4f\portmacro.h **** 	extern void vPortSuppressTicksAndSleep( TickType_t xExpectedIdleTime );
 160:c:\users\niels\documents\github\dsp\software\stm32basis\hal\gemeenschappelijk\third_party\freertos\source\portable\gcc\arm_cm4f\portmacro.h **** 	#define portSUPPRESS_TICKS_AND_SLEEP( xExpectedIdleTime ) vPortSuppressTicksAndSleep( xExpectedIdl
 161:c:\users\niels\documents\github\dsp\software\stm32basis\hal\gemeenschappelijk\third_party\freertos\source\portable\gcc\arm_cm4f\portmacro.h **** #endif
 162:c:\users\niels\documents\github\dsp\software\stm32basis\hal\gemeenschappelijk\third_party\freertos\source\portable\gcc\arm_cm4f\portmacro.h **** /*-----------------------------------------------------------*/
 163:c:\users\niels\documents\github\dsp\software\stm32basis\hal\gemeenschappelijk\third_party\freertos\source\portable\gcc\arm_cm4f\portmacro.h **** 
 164:c:\users\niels\documents\github\dsp\software\stm32basis\hal\gemeenschappelijk\third_party\freertos\source\portable\gcc\arm_cm4f\portmacro.h **** /* Architecture specific optimisations. */
 165:c:\users\niels\documents\github\dsp\software\stm32basis\hal\gemeenschappelijk\third_party\freertos\source\portable\gcc\arm_cm4f\portmacro.h **** #ifndef configUSE_PORT_OPTIMISED_TASK_SELECTION
 166:c:\users\niels\documents\github\dsp\software\stm32basis\hal\gemeenschappelijk\third_party\freertos\source\portable\gcc\arm_cm4f\portmacro.h **** 	#define configUSE_PORT_OPTIMISED_TASK_SELECTION 1
 167:c:\users\niels\documents\github\dsp\software\stm32basis\hal\gemeenschappelijk\third_party\freertos\source\portable\gcc\arm_cm4f\portmacro.h **** #endif
 168:c:\users\niels\documents\github\dsp\software\stm32basis\hal\gemeenschappelijk\third_party\freertos\source\portable\gcc\arm_cm4f\portmacro.h **** 
 169:c:\users\niels\documents\github\dsp\software\stm32basis\hal\gemeenschappelijk\third_party\freertos\source\portable\gcc\arm_cm4f\portmacro.h **** #if configUSE_PORT_OPTIMISED_TASK_SELECTION == 1
 170:c:\users\niels\documents\github\dsp\software\stm32basis\hal\gemeenschappelijk\third_party\freertos\source\portable\gcc\arm_cm4f\portmacro.h **** 
 171:c:\users\niels\documents\github\dsp\software\stm32basis\hal\gemeenschappelijk\third_party\freertos\source\portable\gcc\arm_cm4f\portmacro.h **** 	/* Generic helper function. */
 172:c:\users\niels\documents\github\dsp\software\stm32basis\hal\gemeenschappelijk\third_party\freertos\source\portable\gcc\arm_cm4f\portmacro.h **** 	__attribute__( ( always_inline ) ) static inline uint8_t ucPortCountLeadingZeros( uint32_t ulBitma
 173:c:\users\niels\documents\github\dsp\software\stm32basis\hal\gemeenschappelijk\third_party\freertos\source\portable\gcc\arm_cm4f\portmacro.h **** 	{
 174:c:\users\niels\documents\github\dsp\software\stm32basis\hal\gemeenschappelijk\third_party\freertos\source\portable\gcc\arm_cm4f\portmacro.h **** 	uint8_t ucReturn;
 175:c:\users\niels\documents\github\dsp\software\stm32basis\hal\gemeenschappelijk\third_party\freertos\source\portable\gcc\arm_cm4f\portmacro.h **** 
 176:c:\users\niels\documents\github\dsp\software\stm32basis\hal\gemeenschappelijk\third_party\freertos\source\portable\gcc\arm_cm4f\portmacro.h **** 		__asm volatile ( "clz %0, %1" : "=r" ( ucReturn ) : "r" ( ulBitmap ) );
 177:c:\users\niels\documents\github\dsp\software\stm32basis\hal\gemeenschappelijk\third_party\freertos\source\portable\gcc\arm_cm4f\portmacro.h **** 		return ucReturn;
 178:c:\users\niels\documents\github\dsp\software\stm32basis\hal\gemeenschappelijk\third_party\freertos\source\portable\gcc\arm_cm4f\portmacro.h **** 	}
 179:c:\users\niels\documents\github\dsp\software\stm32basis\hal\gemeenschappelijk\third_party\freertos\source\portable\gcc\arm_cm4f\portmacro.h **** 
 180:c:\users\niels\documents\github\dsp\software\stm32basis\hal\gemeenschappelijk\third_party\freertos\source\portable\gcc\arm_cm4f\portmacro.h **** 	/* Check the configuration. */
 181:c:\users\niels\documents\github\dsp\software\stm32basis\hal\gemeenschappelijk\third_party\freertos\source\portable\gcc\arm_cm4f\portmacro.h **** 	#if( configMAX_PRIORITIES > 32 )
 182:c:\users\niels\documents\github\dsp\software\stm32basis\hal\gemeenschappelijk\third_party\freertos\source\portable\gcc\arm_cm4f\portmacro.h **** 		#error configUSE_PORT_OPTIMISED_TASK_SELECTION can only be set to 1 when configMAX_PRIORITIES is 
 183:c:\users\niels\documents\github\dsp\software\stm32basis\hal\gemeenschappelijk\third_party\freertos\source\portable\gcc\arm_cm4f\portmacro.h **** 	#endif
 184:c:\users\niels\documents\github\dsp\software\stm32basis\hal\gemeenschappelijk\third_party\freertos\source\portable\gcc\arm_cm4f\portmacro.h **** 
 185:c:\users\niels\documents\github\dsp\software\stm32basis\hal\gemeenschappelijk\third_party\freertos\source\portable\gcc\arm_cm4f\portmacro.h **** 	/* Store/clear the ready priorities in a bit map. */
 186:c:\users\niels\documents\github\dsp\software\stm32basis\hal\gemeenschappelijk\third_party\freertos\source\portable\gcc\arm_cm4f\portmacro.h **** 	#define portRECORD_READY_PRIORITY( uxPriority, uxReadyPriorities ) ( uxReadyPriorities ) |= ( 1UL 
 187:c:\users\niels\documents\github\dsp\software\stm32basis\hal\gemeenschappelijk\third_party\freertos\source\portable\gcc\arm_cm4f\portmacro.h **** 	#define portRESET_READY_PRIORITY( uxPriority, uxReadyPriorities ) ( uxReadyPriorities ) &= ~( 1UL 
ARM GAS   			page 19


 188:c:\users\niels\documents\github\dsp\software\stm32basis\hal\gemeenschappelijk\third_party\freertos\source\portable\gcc\arm_cm4f\portmacro.h **** 
 189:c:\users\niels\documents\github\dsp\software\stm32basis\hal\gemeenschappelijk\third_party\freertos\source\portable\gcc\arm_cm4f\portmacro.h **** 	/*-----------------------------------------------------------*/
 190:c:\users\niels\documents\github\dsp\software\stm32basis\hal\gemeenschappelijk\third_party\freertos\source\portable\gcc\arm_cm4f\portmacro.h **** 
 191:c:\users\niels\documents\github\dsp\software\stm32basis\hal\gemeenschappelijk\third_party\freertos\source\portable\gcc\arm_cm4f\portmacro.h **** 	#define portGET_HIGHEST_PRIORITY( uxTopPriority, uxReadyPriorities ) uxTopPriority = ( 31 - ucPort
 192:c:\users\niels\documents\github\dsp\software\stm32basis\hal\gemeenschappelijk\third_party\freertos\source\portable\gcc\arm_cm4f\portmacro.h **** 
 193:c:\users\niels\documents\github\dsp\software\stm32basis\hal\gemeenschappelijk\third_party\freertos\source\portable\gcc\arm_cm4f\portmacro.h **** #endif /* configUSE_PORT_OPTIMISED_TASK_SELECTION */
 194:c:\users\niels\documents\github\dsp\software\stm32basis\hal\gemeenschappelijk\third_party\freertos\source\portable\gcc\arm_cm4f\portmacro.h **** 
 195:c:\users\niels\documents\github\dsp\software\stm32basis\hal\gemeenschappelijk\third_party\freertos\source\portable\gcc\arm_cm4f\portmacro.h **** /*-----------------------------------------------------------*/
 196:c:\users\niels\documents\github\dsp\software\stm32basis\hal\gemeenschappelijk\third_party\freertos\source\portable\gcc\arm_cm4f\portmacro.h **** 
 197:c:\users\niels\documents\github\dsp\software\stm32basis\hal\gemeenschappelijk\third_party\freertos\source\portable\gcc\arm_cm4f\portmacro.h **** #ifdef configASSERT
 198:c:\users\niels\documents\github\dsp\software\stm32basis\hal\gemeenschappelijk\third_party\freertos\source\portable\gcc\arm_cm4f\portmacro.h **** 	void vPortValidateInterruptPriority( void );
 199:c:\users\niels\documents\github\dsp\software\stm32basis\hal\gemeenschappelijk\third_party\freertos\source\portable\gcc\arm_cm4f\portmacro.h **** 	#define portASSERT_IF_INTERRUPT_PRIORITY_INVALID() 	vPortValidateInterruptPriority()
 200:c:\users\niels\documents\github\dsp\software\stm32basis\hal\gemeenschappelijk\third_party\freertos\source\portable\gcc\arm_cm4f\portmacro.h **** #endif
 201:c:\users\niels\documents\github\dsp\software\stm32basis\hal\gemeenschappelijk\third_party\freertos\source\portable\gcc\arm_cm4f\portmacro.h **** 
 202:c:\users\niels\documents\github\dsp\software\stm32basis\hal\gemeenschappelijk\third_party\freertos\source\portable\gcc\arm_cm4f\portmacro.h **** /* portNOP() is not required by this port. */
 203:c:\users\niels\documents\github\dsp\software\stm32basis\hal\gemeenschappelijk\third_party\freertos\source\portable\gcc\arm_cm4f\portmacro.h **** #define portNOP()
 204:c:\users\niels\documents\github\dsp\software\stm32basis\hal\gemeenschappelijk\third_party\freertos\source\portable\gcc\arm_cm4f\portmacro.h **** 
 205:c:\users\niels\documents\github\dsp\software\stm32basis\hal\gemeenschappelijk\third_party\freertos\source\portable\gcc\arm_cm4f\portmacro.h **** #ifndef portFORCE_INLINE
 206:c:\users\niels\documents\github\dsp\software\stm32basis\hal\gemeenschappelijk\third_party\freertos\source\portable\gcc\arm_cm4f\portmacro.h **** 	#define portFORCE_INLINE inline __attribute__(( always_inline))
 207:c:\users\niels\documents\github\dsp\software\stm32basis\hal\gemeenschappelijk\third_party\freertos\source\portable\gcc\arm_cm4f\portmacro.h **** #endif
 208:c:\users\niels\documents\github\dsp\software\stm32basis\hal\gemeenschappelijk\third_party\freertos\source\portable\gcc\arm_cm4f\portmacro.h **** 
 209:c:\users\niels\documents\github\dsp\software\stm32basis\hal\gemeenschappelijk\third_party\freertos\source\portable\gcc\arm_cm4f\portmacro.h **** /*-----------------------------------------------------------*/
 210:c:\users\niels\documents\github\dsp\software\stm32basis\hal\gemeenschappelijk\third_party\freertos\source\portable\gcc\arm_cm4f\portmacro.h **** 
 211:c:\users\niels\documents\github\dsp\software\stm32basis\hal\gemeenschappelijk\third_party\freertos\source\portable\gcc\arm_cm4f\portmacro.h **** portFORCE_INLINE static void vPortRaiseBASEPRI( void )
 212:c:\users\niels\documents\github\dsp\software\stm32basis\hal\gemeenschappelijk\third_party\freertos\source\portable\gcc\arm_cm4f\portmacro.h **** {
 213:c:\users\niels\documents\github\dsp\software\stm32basis\hal\gemeenschappelijk\third_party\freertos\source\portable\gcc\arm_cm4f\portmacro.h **** uint32_t ulNewBASEPRI;
 214:c:\users\niels\documents\github\dsp\software\stm32basis\hal\gemeenschappelijk\third_party\freertos\source\portable\gcc\arm_cm4f\portmacro.h **** 
 215:c:\users\niels\documents\github\dsp\software\stm32basis\hal\gemeenschappelijk\third_party\freertos\source\portable\gcc\arm_cm4f\portmacro.h **** 	__asm volatile
 478              	 .loc 3 215 2
 479              	 .syntax unified
 480              	
 481 0018 4FF01003 	 mov r3,#16
 482 001c 83F31188 	 msr basepri,r3
 483 0020 BFF36F8F 	 isb 
 484 0024 BFF34F8F 	 dsb 
 485              	
 486              	
 487              	 .thumb
 488              	 .syntax unified
 489 0028 BB60     	 str r3,[r7,#8]
 216:c:\users\niels\documents\github\dsp\software\stm32basis\hal\gemeenschappelijk\third_party\freertos\source\portable\gcc\arm_cm4f\portmacro.h **** 	(
 217:c:\users\niels\documents\github\dsp\software\stm32basis\hal\gemeenschappelijk\third_party\freertos\source\portable\gcc\arm_cm4f\portmacro.h **** 		"	mov %0, %1												\n"	\
 218:c:\users\niels\documents\github\dsp\software\stm32basis\hal\gemeenschappelijk\third_party\freertos\source\portable\gcc\arm_cm4f\portmacro.h **** 		"	msr basepri, %0											\n" \
 219:c:\users\niels\documents\github\dsp\software\stm32basis\hal\gemeenschappelijk\third_party\freertos\source\portable\gcc\arm_cm4f\portmacro.h **** 		"	isb														\n" \
 220:c:\users\niels\documents\github\dsp\software\stm32basis\hal\gemeenschappelijk\third_party\freertos\source\portable\gcc\arm_cm4f\portmacro.h **** 		"	dsb														\n" \
 221:c:\users\niels\documents\github\dsp\software\stm32basis\hal\gemeenschappelijk\third_party\freertos\source\portable\gcc\arm_cm4f\portmacro.h **** 		:"=r" (ulNewBASEPRI) : "i" ( configMAX_SYSCALL_INTERRUPT_PRIORITY )
 222:c:\users\niels\documents\github\dsp\software\stm32basis\hal\gemeenschappelijk\third_party\freertos\source\portable\gcc\arm_cm4f\portmacro.h **** 	);
 223:c:\users\niels\documents\github\dsp\software\stm32basis\hal\gemeenschappelijk\third_party\freertos\source\portable\gcc\arm_cm4f\portmacro.h **** }
 490              	 .loc 3 223 1
 491 002a 00BF     	 nop
 492              	.L28:
 493              	.LBE10:
 494              	.LBE9:
 127:C:\Users\niels\Documents\GitHub\DSP\software\STM32Basis\HAL\gemeenschappelijk\Third_Party\freertos-addons-1.1.0\c++\Source\cthread.cpp **** 
 128:C:\Users\niels\Documents\GitHub\DSP\software\STM32Basis\HAL\gemeenschappelijk\Third_Party\freertos-addons-1.1.0\c++\Source\cthread.cpp **** 
 129:C:\Users\niels\Documents\GitHub\DSP\software\STM32Basis\HAL\gemeenschappelijk\Third_Party\freertos-addons-1.1.0\c++\Source\cthread.cpp **** 
 130:C:\Users\niels\Documents\GitHub\DSP\software\STM32Basis\HAL\gemeenschappelijk\Third_Party\freertos-addons-1.1.0\c++\Source\cthread.cpp **** #if (INCLUDE_vTaskDelete == 1)
ARM GAS   			page 20


 131:C:\Users\niels\Documents\GitHub\DSP\software\STM32Basis\HAL\gemeenschappelijk\Third_Party\freertos-addons-1.1.0\c++\Source\cthread.cpp **** 	thread->Cleanup();
 132:C:\Users\niels\Documents\GitHub\DSP\software\STM32Basis\HAL\gemeenschappelijk\Third_Party\freertos-addons-1.1.0\c++\Source\cthread.cpp ****     vTaskDelete(thread->handle);
 133:C:\Users\niels\Documents\GitHub\DSP\software\STM32Basis\HAL\gemeenschappelijk\Third_Party\freertos-addons-1.1.0\c++\Source\cthread.cpp **** 
 134:C:\Users\niels\Documents\GitHub\DSP\software\STM32Basis\HAL\gemeenschappelijk\Third_Party\freertos-addons-1.1.0\c++\Source\cthread.cpp **** #else
 135:C:\Users\niels\Documents\GitHub\DSP\software\STM32Basis\HAL\gemeenschappelijk\Third_Party\freertos-addons-1.1.0\c++\Source\cthread.cpp ****     configASSERT( ! "Cannot return from a thread.run function "
 495              	 .loc 2 135 5 discriminator 1
 496 002c FEE7     	 b .L28
 497              	 .cfi_endproc
 498              	.LFE1052:
 499              	 .size _ZN12cpp_freertos6Thread19TaskFunctionAdapterEPv,.-_ZN12cpp_freertos6Thread19TaskFunctionAdapterEPv
 500              	 .global _ZTVN12cpp_freertos6ThreadE
 501              	 .section .rodata._ZTVN12cpp_freertos6ThreadE,"a"
 502              	 .align 2
 503              	 .type _ZTVN12cpp_freertos6ThreadE,%object
 504              	 .size _ZTVN12cpp_freertos6ThreadE,20
 505              	_ZTVN12cpp_freertos6ThreadE:
 506 0000 00000000 	 .word 0
 507 0004 00000000 	 .word 0
 508 0008 00000000 	 .word 0
 509 000c 00000000 	 .word 0
 510 0010 00000000 	 .word __cxa_pure_virtual
 511              	 .section .text._ZN12cpp_freertos13MutexStandardD2Ev,"axG",%progbits,_ZN12cpp_freertos13MutexStandardD5Ev,comdat
 512              	 .align 1
 513              	 .weak _ZN12cpp_freertos13MutexStandardD2Ev
 514              	 .syntax unified
 515              	 .thumb
 516              	 .thumb_func
 517              	 .type _ZN12cpp_freertos13MutexStandardD2Ev,%function
 518              	_ZN12cpp_freertos13MutexStandardD2Ev:
 519              	.LFB1535:
 520              	 .file 4 "c:\\users\\niels\\documents\\github\\dsp\\software\\stm32basis\\hal\\gemeenschappelijk\\third_party\\freertos-addons-1.1.0\\c++\\source\\include\\mutex.hpp"
   1:c:\users\niels\documents\github\dsp\software\stm32basis\hal\gemeenschappelijk\third_party\freertos-addons-1.1.0\c++\source\include\mutex.hpp **** /****************************************************************************
   2:c:\users\niels\documents\github\dsp\software\stm32basis\hal\gemeenschappelijk\third_party\freertos-addons-1.1.0\c++\source\include\mutex.hpp ****  *
   3:c:\users\niels\documents\github\dsp\software\stm32basis\hal\gemeenschappelijk\third_party\freertos-addons-1.1.0\c++\source\include\mutex.hpp ****  *  Copyright (c) 2016, Michael Becker (michael.f.becker@gmail.com)
   4:c:\users\niels\documents\github\dsp\software\stm32basis\hal\gemeenschappelijk\third_party\freertos-addons-1.1.0\c++\source\include\mutex.hpp ****  *
   5:c:\users\niels\documents\github\dsp\software\stm32basis\hal\gemeenschappelijk\third_party\freertos-addons-1.1.0\c++\source\include\mutex.hpp ****  *  This file is part of the FreeRTOS C++ Wrappers project.
   6:c:\users\niels\documents\github\dsp\software\stm32basis\hal\gemeenschappelijk\third_party\freertos-addons-1.1.0\c++\source\include\mutex.hpp ****  *
   7:c:\users\niels\documents\github\dsp\software\stm32basis\hal\gemeenschappelijk\third_party\freertos-addons-1.1.0\c++\source\include\mutex.hpp ****  *  The FreeRTOS C++ Wrappers project is free software: you can redistribute
   8:c:\users\niels\documents\github\dsp\software\stm32basis\hal\gemeenschappelijk\third_party\freertos-addons-1.1.0\c++\source\include\mutex.hpp ****  *  it and/or modify it under the terms of the GNU General Public License as
   9:c:\users\niels\documents\github\dsp\software\stm32basis\hal\gemeenschappelijk\third_party\freertos-addons-1.1.0\c++\source\include\mutex.hpp ****  *  published by the Free Software Foundation, either version 2
  10:c:\users\niels\documents\github\dsp\software\stm32basis\hal\gemeenschappelijk\third_party\freertos-addons-1.1.0\c++\source\include\mutex.hpp ****  *  of the License, or (at your option) any later version.
  11:c:\users\niels\documents\github\dsp\software\stm32basis\hal\gemeenschappelijk\third_party\freertos-addons-1.1.0\c++\source\include\mutex.hpp ****  *
  12:c:\users\niels\documents\github\dsp\software\stm32basis\hal\gemeenschappelijk\third_party\freertos-addons-1.1.0\c++\source\include\mutex.hpp ****  *  The FreeRTOS C++ Wrappers project is distributed in the hope that it will
  13:c:\users\niels\documents\github\dsp\software\stm32basis\hal\gemeenschappelijk\third_party\freertos-addons-1.1.0\c++\source\include\mutex.hpp ****  *  be useful, but WITHOUT ANY WARRANTY; without even the implied warranty of
  14:c:\users\niels\documents\github\dsp\software\stm32basis\hal\gemeenschappelijk\third_party\freertos-addons-1.1.0\c++\source\include\mutex.hpp ****  *  MERCHANTABILITY or FITNESS FOR A PARTICULAR PURPOSE.  See the
  15:c:\users\niels\documents\github\dsp\software\stm32basis\hal\gemeenschappelijk\third_party\freertos-addons-1.1.0\c++\source\include\mutex.hpp ****  *  GNU General Public License for more details.
  16:c:\users\niels\documents\github\dsp\software\stm32basis\hal\gemeenschappelijk\third_party\freertos-addons-1.1.0\c++\source\include\mutex.hpp ****  *
  17:c:\users\niels\documents\github\dsp\software\stm32basis\hal\gemeenschappelijk\third_party\freertos-addons-1.1.0\c++\source\include\mutex.hpp ****  *  You should have received a copy of the GNU General Public License
  18:c:\users\niels\documents\github\dsp\software\stm32basis\hal\gemeenschappelijk\third_party\freertos-addons-1.1.0\c++\source\include\mutex.hpp ****  *  along with the FreeRTOS C++ Wrappers project.
  19:c:\users\niels\documents\github\dsp\software\stm32basis\hal\gemeenschappelijk\third_party\freertos-addons-1.1.0\c++\source\include\mutex.hpp ****  *  If not, see <http://www.gnu.org/licenses/>.
  20:c:\users\niels\documents\github\dsp\software\stm32basis\hal\gemeenschappelijk\third_party\freertos-addons-1.1.0\c++\source\include\mutex.hpp ****  *
  21:c:\users\niels\documents\github\dsp\software\stm32basis\hal\gemeenschappelijk\third_party\freertos-addons-1.1.0\c++\source\include\mutex.hpp ****  ***************************************************************************/
  22:c:\users\niels\documents\github\dsp\software\stm32basis\hal\gemeenschappelijk\third_party\freertos-addons-1.1.0\c++\source\include\mutex.hpp **** #ifndef MUTEX_HPP_
  23:c:\users\niels\documents\github\dsp\software\stm32basis\hal\gemeenschappelijk\third_party\freertos-addons-1.1.0\c++\source\include\mutex.hpp **** #define MUTEX_HPP_
  24:c:\users\niels\documents\github\dsp\software\stm32basis\hal\gemeenschappelijk\third_party\freertos-addons-1.1.0\c++\source\include\mutex.hpp **** 
  25:c:\users\niels\documents\github\dsp\software\stm32basis\hal\gemeenschappelijk\third_party\freertos-addons-1.1.0\c++\source\include\mutex.hpp **** #include <exception>
  26:c:\users\niels\documents\github\dsp\software\stm32basis\hal\gemeenschappelijk\third_party\freertos-addons-1.1.0\c++\source\include\mutex.hpp **** #include <string>
ARM GAS   			page 21


  27:c:\users\niels\documents\github\dsp\software\stm32basis\hal\gemeenschappelijk\third_party\freertos-addons-1.1.0\c++\source\include\mutex.hpp **** #include "FreeRTOS.h"
  28:c:\users\niels\documents\github\dsp\software\stm32basis\hal\gemeenschappelijk\third_party\freertos-addons-1.1.0\c++\source\include\mutex.hpp **** #include "semphr.h"
  29:c:\users\niels\documents\github\dsp\software\stm32basis\hal\gemeenschappelijk\third_party\freertos-addons-1.1.0\c++\source\include\mutex.hpp **** // TODO - explore replacing sprintf with stringstream
  30:c:\users\niels\documents\github\dsp\software\stm32basis\hal\gemeenschappelijk\third_party\freertos-addons-1.1.0\c++\source\include\mutex.hpp **** #include <cstdio>
  31:c:\users\niels\documents\github\dsp\software\stm32basis\hal\gemeenschappelijk\third_party\freertos-addons-1.1.0\c++\source\include\mutex.hpp **** 
  32:c:\users\niels\documents\github\dsp\software\stm32basis\hal\gemeenschappelijk\third_party\freertos-addons-1.1.0\c++\source\include\mutex.hpp **** namespace cpp_freertos {
  33:c:\users\niels\documents\github\dsp\software\stm32basis\hal\gemeenschappelijk\third_party\freertos-addons-1.1.0\c++\source\include\mutex.hpp **** 
  34:c:\users\niels\documents\github\dsp\software\stm32basis\hal\gemeenschappelijk\third_party\freertos-addons-1.1.0\c++\source\include\mutex.hpp **** 
  35:c:\users\niels\documents\github\dsp\software\stm32basis\hal\gemeenschappelijk\third_party\freertos-addons-1.1.0\c++\source\include\mutex.hpp **** /**
  36:c:\users\niels\documents\github\dsp\software\stm32basis\hal\gemeenschappelijk\third_party\freertos-addons-1.1.0\c++\source\include\mutex.hpp ****  *  This is the exception that is thrown if a Mutex constructor fails.
  37:c:\users\niels\documents\github\dsp\software\stm32basis\hal\gemeenschappelijk\third_party\freertos-addons-1.1.0\c++\source\include\mutex.hpp ****  */
  38:c:\users\niels\documents\github\dsp\software\stm32basis\hal\gemeenschappelijk\third_party\freertos-addons-1.1.0\c++\source\include\mutex.hpp **** class MutexCreateException : public std::exception {
  39:c:\users\niels\documents\github\dsp\software\stm32basis\hal\gemeenschappelijk\third_party\freertos-addons-1.1.0\c++\source\include\mutex.hpp **** 
  40:c:\users\niels\documents\github\dsp\software\stm32basis\hal\gemeenschappelijk\third_party\freertos-addons-1.1.0\c++\source\include\mutex.hpp ****     public:
  41:c:\users\niels\documents\github\dsp\software\stm32basis\hal\gemeenschappelijk\third_party\freertos-addons-1.1.0\c++\source\include\mutex.hpp ****         /**
  42:c:\users\niels\documents\github\dsp\software\stm32basis\hal\gemeenschappelijk\third_party\freertos-addons-1.1.0\c++\source\include\mutex.hpp ****          *  Create the exception.
  43:c:\users\niels\documents\github\dsp\software\stm32basis\hal\gemeenschappelijk\third_party\freertos-addons-1.1.0\c++\source\include\mutex.hpp ****          */
  44:c:\users\niels\documents\github\dsp\software\stm32basis\hal\gemeenschappelijk\third_party\freertos-addons-1.1.0\c++\source\include\mutex.hpp ****         MutexCreateException()
  45:c:\users\niels\documents\github\dsp\software\stm32basis\hal\gemeenschappelijk\third_party\freertos-addons-1.1.0\c++\source\include\mutex.hpp ****         {
  46:c:\users\niels\documents\github\dsp\software\stm32basis\hal\gemeenschappelijk\third_party\freertos-addons-1.1.0\c++\source\include\mutex.hpp ****             sprintf(errorString, "Mutex Constructor Failed");
  47:c:\users\niels\documents\github\dsp\software\stm32basis\hal\gemeenschappelijk\third_party\freertos-addons-1.1.0\c++\source\include\mutex.hpp ****         }
  48:c:\users\niels\documents\github\dsp\software\stm32basis\hal\gemeenschappelijk\third_party\freertos-addons-1.1.0\c++\source\include\mutex.hpp **** 
  49:c:\users\niels\documents\github\dsp\software\stm32basis\hal\gemeenschappelijk\third_party\freertos-addons-1.1.0\c++\source\include\mutex.hpp ****         /**
  50:c:\users\niels\documents\github\dsp\software\stm32basis\hal\gemeenschappelijk\third_party\freertos-addons-1.1.0\c++\source\include\mutex.hpp ****          *  Get what happened as a string.
  51:c:\users\niels\documents\github\dsp\software\stm32basis\hal\gemeenschappelijk\third_party\freertos-addons-1.1.0\c++\source\include\mutex.hpp ****          *  We are overriding the base implementation here.
  52:c:\users\niels\documents\github\dsp\software\stm32basis\hal\gemeenschappelijk\third_party\freertos-addons-1.1.0\c++\source\include\mutex.hpp ****          */
  53:c:\users\niels\documents\github\dsp\software\stm32basis\hal\gemeenschappelijk\third_party\freertos-addons-1.1.0\c++\source\include\mutex.hpp ****         virtual const char *what() const throw()
  54:c:\users\niels\documents\github\dsp\software\stm32basis\hal\gemeenschappelijk\third_party\freertos-addons-1.1.0\c++\source\include\mutex.hpp ****         {
  55:c:\users\niels\documents\github\dsp\software\stm32basis\hal\gemeenschappelijk\third_party\freertos-addons-1.1.0\c++\source\include\mutex.hpp ****             return errorString;
  56:c:\users\niels\documents\github\dsp\software\stm32basis\hal\gemeenschappelijk\third_party\freertos-addons-1.1.0\c++\source\include\mutex.hpp ****         }
  57:c:\users\niels\documents\github\dsp\software\stm32basis\hal\gemeenschappelijk\third_party\freertos-addons-1.1.0\c++\source\include\mutex.hpp **** 
  58:c:\users\niels\documents\github\dsp\software\stm32basis\hal\gemeenschappelijk\third_party\freertos-addons-1.1.0\c++\source\include\mutex.hpp ****     private:
  59:c:\users\niels\documents\github\dsp\software\stm32basis\hal\gemeenschappelijk\third_party\freertos-addons-1.1.0\c++\source\include\mutex.hpp ****         /**
  60:c:\users\niels\documents\github\dsp\software\stm32basis\hal\gemeenschappelijk\third_party\freertos-addons-1.1.0\c++\source\include\mutex.hpp ****          *  A text string representing what failed.
  61:c:\users\niels\documents\github\dsp\software\stm32basis\hal\gemeenschappelijk\third_party\freertos-addons-1.1.0\c++\source\include\mutex.hpp ****          */
  62:c:\users\niels\documents\github\dsp\software\stm32basis\hal\gemeenschappelijk\third_party\freertos-addons-1.1.0\c++\source\include\mutex.hpp ****         char errorString[80];
  63:c:\users\niels\documents\github\dsp\software\stm32basis\hal\gemeenschappelijk\third_party\freertos-addons-1.1.0\c++\source\include\mutex.hpp **** };
  64:c:\users\niels\documents\github\dsp\software\stm32basis\hal\gemeenschappelijk\third_party\freertos-addons-1.1.0\c++\source\include\mutex.hpp **** 
  65:c:\users\niels\documents\github\dsp\software\stm32basis\hal\gemeenschappelijk\third_party\freertos-addons-1.1.0\c++\source\include\mutex.hpp **** 
  66:c:\users\niels\documents\github\dsp\software\stm32basis\hal\gemeenschappelijk\third_party\freertos-addons-1.1.0\c++\source\include\mutex.hpp **** /**
  67:c:\users\niels\documents\github\dsp\software\stm32basis\hal\gemeenschappelijk\third_party\freertos-addons-1.1.0\c++\source\include\mutex.hpp ****  *  Base wrapper class around FreeRTOS's implementation of mutexes.
  68:c:\users\niels\documents\github\dsp\software\stm32basis\hal\gemeenschappelijk\third_party\freertos-addons-1.1.0\c++\source\include\mutex.hpp ****  *
  69:c:\users\niels\documents\github\dsp\software\stm32basis\hal\gemeenschappelijk\third_party\freertos-addons-1.1.0\c++\source\include\mutex.hpp ****  *  By definition, Mutexes can @em NOT be used from ISR contexts.
  70:c:\users\niels\documents\github\dsp\software\stm32basis\hal\gemeenschappelijk\third_party\freertos-addons-1.1.0\c++\source\include\mutex.hpp ****  *
  71:c:\users\niels\documents\github\dsp\software\stm32basis\hal\gemeenschappelijk\third_party\freertos-addons-1.1.0\c++\source\include\mutex.hpp ****  *  @note It is expected that an application will instantiate one of the
  72:c:\users\niels\documents\github\dsp\software\stm32basis\hal\gemeenschappelijk\third_party\freertos-addons-1.1.0\c++\source\include\mutex.hpp ****  *        derived classes and use that object for synchronization. It is
  73:c:\users\niels\documents\github\dsp\software\stm32basis\hal\gemeenschappelijk\third_party\freertos-addons-1.1.0\c++\source\include\mutex.hpp ****  *        not expected that a user or application will derive from these
  74:c:\users\niels\documents\github\dsp\software\stm32basis\hal\gemeenschappelijk\third_party\freertos-addons-1.1.0\c++\source\include\mutex.hpp ****  *        classes.
  75:c:\users\niels\documents\github\dsp\software\stm32basis\hal\gemeenschappelijk\third_party\freertos-addons-1.1.0\c++\source\include\mutex.hpp ****  */
  76:c:\users\niels\documents\github\dsp\software\stm32basis\hal\gemeenschappelijk\third_party\freertos-addons-1.1.0\c++\source\include\mutex.hpp **** class Mutex {
  77:c:\users\niels\documents\github\dsp\software\stm32basis\hal\gemeenschappelijk\third_party\freertos-addons-1.1.0\c++\source\include\mutex.hpp **** 
  78:c:\users\niels\documents\github\dsp\software\stm32basis\hal\gemeenschappelijk\third_party\freertos-addons-1.1.0\c++\source\include\mutex.hpp ****     /////////////////////////////////////////////////////////////////////////
  79:c:\users\niels\documents\github\dsp\software\stm32basis\hal\gemeenschappelijk\third_party\freertos-addons-1.1.0\c++\source\include\mutex.hpp ****     //
  80:c:\users\niels\documents\github\dsp\software\stm32basis\hal\gemeenschappelijk\third_party\freertos-addons-1.1.0\c++\source\include\mutex.hpp ****     //  Public API
  81:c:\users\niels\documents\github\dsp\software\stm32basis\hal\gemeenschappelijk\third_party\freertos-addons-1.1.0\c++\source\include\mutex.hpp ****     //
  82:c:\users\niels\documents\github\dsp\software\stm32basis\hal\gemeenschappelijk\third_party\freertos-addons-1.1.0\c++\source\include\mutex.hpp ****     /////////////////////////////////////////////////////////////////////////
  83:c:\users\niels\documents\github\dsp\software\stm32basis\hal\gemeenschappelijk\third_party\freertos-addons-1.1.0\c++\source\include\mutex.hpp ****     public:
ARM GAS   			page 22


  84:c:\users\niels\documents\github\dsp\software\stm32basis\hal\gemeenschappelijk\third_party\freertos-addons-1.1.0\c++\source\include\mutex.hpp ****         /**
  85:c:\users\niels\documents\github\dsp\software\stm32basis\hal\gemeenschappelijk\third_party\freertos-addons-1.1.0\c++\source\include\mutex.hpp ****          *  Lock the Mutex.
  86:c:\users\niels\documents\github\dsp\software\stm32basis\hal\gemeenschappelijk\third_party\freertos-addons-1.1.0\c++\source\include\mutex.hpp ****          *
  87:c:\users\niels\documents\github\dsp\software\stm32basis\hal\gemeenschappelijk\third_party\freertos-addons-1.1.0\c++\source\include\mutex.hpp ****          *  Each type of Mutex implements it's own locking code as per the
  88:c:\users\niels\documents\github\dsp\software\stm32basis\hal\gemeenschappelijk\third_party\freertos-addons-1.1.0\c++\source\include\mutex.hpp ****          *  FreeRTOS API.
  89:c:\users\niels\documents\github\dsp\software\stm32basis\hal\gemeenschappelijk\third_party\freertos-addons-1.1.0\c++\source\include\mutex.hpp ****          *
  90:c:\users\niels\documents\github\dsp\software\stm32basis\hal\gemeenschappelijk\third_party\freertos-addons-1.1.0\c++\source\include\mutex.hpp ****          *  @param Timeout How long to wait to get the Lock until giving up.
  91:c:\users\niels\documents\github\dsp\software\stm32basis\hal\gemeenschappelijk\third_party\freertos-addons-1.1.0\c++\source\include\mutex.hpp ****          *  @return true if the Lock was acquired, false if it timed out.
  92:c:\users\niels\documents\github\dsp\software\stm32basis\hal\gemeenschappelijk\third_party\freertos-addons-1.1.0\c++\source\include\mutex.hpp ****          */
  93:c:\users\niels\documents\github\dsp\software\stm32basis\hal\gemeenschappelijk\third_party\freertos-addons-1.1.0\c++\source\include\mutex.hpp ****         virtual bool Lock(TickType_t Timeout = portMAX_DELAY) = 0;
  94:c:\users\niels\documents\github\dsp\software\stm32basis\hal\gemeenschappelijk\third_party\freertos-addons-1.1.0\c++\source\include\mutex.hpp **** 
  95:c:\users\niels\documents\github\dsp\software\stm32basis\hal\gemeenschappelijk\third_party\freertos-addons-1.1.0\c++\source\include\mutex.hpp ****         /**
  96:c:\users\niels\documents\github\dsp\software\stm32basis\hal\gemeenschappelijk\third_party\freertos-addons-1.1.0\c++\source\include\mutex.hpp ****          *  Unlock the Mutex.
  97:c:\users\niels\documents\github\dsp\software\stm32basis\hal\gemeenschappelijk\third_party\freertos-addons-1.1.0\c++\source\include\mutex.hpp ****          *
  98:c:\users\niels\documents\github\dsp\software\stm32basis\hal\gemeenschappelijk\third_party\freertos-addons-1.1.0\c++\source\include\mutex.hpp ****          *  @return true if the Lock was released, false if it failed. (Hint,
  99:c:\users\niels\documents\github\dsp\software\stm32basis\hal\gemeenschappelijk\third_party\freertos-addons-1.1.0\c++\source\include\mutex.hpp ****          *           if it fails, did you call Lock() first?)
 100:c:\users\niels\documents\github\dsp\software\stm32basis\hal\gemeenschappelijk\third_party\freertos-addons-1.1.0\c++\source\include\mutex.hpp ****          */
 101:c:\users\niels\documents\github\dsp\software\stm32basis\hal\gemeenschappelijk\third_party\freertos-addons-1.1.0\c++\source\include\mutex.hpp ****         virtual bool Unlock() = 0;
 102:c:\users\niels\documents\github\dsp\software\stm32basis\hal\gemeenschappelijk\third_party\freertos-addons-1.1.0\c++\source\include\mutex.hpp **** 
 103:c:\users\niels\documents\github\dsp\software\stm32basis\hal\gemeenschappelijk\third_party\freertos-addons-1.1.0\c++\source\include\mutex.hpp ****         /**
 104:c:\users\niels\documents\github\dsp\software\stm32basis\hal\gemeenschappelijk\third_party\freertos-addons-1.1.0\c++\source\include\mutex.hpp ****          *  Our destructor
 105:c:\users\niels\documents\github\dsp\software\stm32basis\hal\gemeenschappelijk\third_party\freertos-addons-1.1.0\c++\source\include\mutex.hpp ****          */
 106:c:\users\niels\documents\github\dsp\software\stm32basis\hal\gemeenschappelijk\third_party\freertos-addons-1.1.0\c++\source\include\mutex.hpp ****         virtual ~Mutex();
 107:c:\users\niels\documents\github\dsp\software\stm32basis\hal\gemeenschappelijk\third_party\freertos-addons-1.1.0\c++\source\include\mutex.hpp **** 
 108:c:\users\niels\documents\github\dsp\software\stm32basis\hal\gemeenschappelijk\third_party\freertos-addons-1.1.0\c++\source\include\mutex.hpp ****     /////////////////////////////////////////////////////////////////////////
 109:c:\users\niels\documents\github\dsp\software\stm32basis\hal\gemeenschappelijk\third_party\freertos-addons-1.1.0\c++\source\include\mutex.hpp ****     //
 110:c:\users\niels\documents\github\dsp\software\stm32basis\hal\gemeenschappelijk\third_party\freertos-addons-1.1.0\c++\source\include\mutex.hpp ****     //  Protected API
 111:c:\users\niels\documents\github\dsp\software\stm32basis\hal\gemeenschappelijk\third_party\freertos-addons-1.1.0\c++\source\include\mutex.hpp ****     //  Not intended for use by application code.
 112:c:\users\niels\documents\github\dsp\software\stm32basis\hal\gemeenschappelijk\third_party\freertos-addons-1.1.0\c++\source\include\mutex.hpp ****     //
 113:c:\users\niels\documents\github\dsp\software\stm32basis\hal\gemeenschappelijk\third_party\freertos-addons-1.1.0\c++\source\include\mutex.hpp ****     /////////////////////////////////////////////////////////////////////////
 114:c:\users\niels\documents\github\dsp\software\stm32basis\hal\gemeenschappelijk\third_party\freertos-addons-1.1.0\c++\source\include\mutex.hpp ****     protected:
 115:c:\users\niels\documents\github\dsp\software\stm32basis\hal\gemeenschappelijk\third_party\freertos-addons-1.1.0\c++\source\include\mutex.hpp ****         /**
 116:c:\users\niels\documents\github\dsp\software\stm32basis\hal\gemeenschappelijk\third_party\freertos-addons-1.1.0\c++\source\include\mutex.hpp ****          *  FreeRTOS semaphore handle.
 117:c:\users\niels\documents\github\dsp\software\stm32basis\hal\gemeenschappelijk\third_party\freertos-addons-1.1.0\c++\source\include\mutex.hpp ****          */
 118:c:\users\niels\documents\github\dsp\software\stm32basis\hal\gemeenschappelijk\third_party\freertos-addons-1.1.0\c++\source\include\mutex.hpp ****         SemaphoreHandle_t handle;
 119:c:\users\niels\documents\github\dsp\software\stm32basis\hal\gemeenschappelijk\third_party\freertos-addons-1.1.0\c++\source\include\mutex.hpp **** 
 120:c:\users\niels\documents\github\dsp\software\stm32basis\hal\gemeenschappelijk\third_party\freertos-addons-1.1.0\c++\source\include\mutex.hpp ****         /**
 121:c:\users\niels\documents\github\dsp\software\stm32basis\hal\gemeenschappelijk\third_party\freertos-addons-1.1.0\c++\source\include\mutex.hpp ****          *  This constructor should not be public.
 122:c:\users\niels\documents\github\dsp\software\stm32basis\hal\gemeenschappelijk\third_party\freertos-addons-1.1.0\c++\source\include\mutex.hpp ****          */
 123:c:\users\niels\documents\github\dsp\software\stm32basis\hal\gemeenschappelijk\third_party\freertos-addons-1.1.0\c++\source\include\mutex.hpp ****         Mutex();
 124:c:\users\niels\documents\github\dsp\software\stm32basis\hal\gemeenschappelijk\third_party\freertos-addons-1.1.0\c++\source\include\mutex.hpp **** };
 125:c:\users\niels\documents\github\dsp\software\stm32basis\hal\gemeenschappelijk\third_party\freertos-addons-1.1.0\c++\source\include\mutex.hpp **** 
 126:c:\users\niels\documents\github\dsp\software\stm32basis\hal\gemeenschappelijk\third_party\freertos-addons-1.1.0\c++\source\include\mutex.hpp **** 
 127:c:\users\niels\documents\github\dsp\software\stm32basis\hal\gemeenschappelijk\third_party\freertos-addons-1.1.0\c++\source\include\mutex.hpp **** /**
 128:c:\users\niels\documents\github\dsp\software\stm32basis\hal\gemeenschappelijk\third_party\freertos-addons-1.1.0\c++\source\include\mutex.hpp ****  *  Standard usage Mutex.
 129:c:\users\niels\documents\github\dsp\software\stm32basis\hal\gemeenschappelijk\third_party\freertos-addons-1.1.0\c++\source\include\mutex.hpp ****  *  By default calls to Lock these objects block forever, but this can be
 130:c:\users\niels\documents\github\dsp\software\stm32basis\hal\gemeenschappelijk\third_party\freertos-addons-1.1.0\c++\source\include\mutex.hpp ****  *  changed by simply passing in a argument to the Lock() method.
 131:c:\users\niels\documents\github\dsp\software\stm32basis\hal\gemeenschappelijk\third_party\freertos-addons-1.1.0\c++\source\include\mutex.hpp ****  *  These objects are not recursively acquirable. Calling Lock() twice from
 132:c:\users\niels\documents\github\dsp\software\stm32basis\hal\gemeenschappelijk\third_party\freertos-addons-1.1.0\c++\source\include\mutex.hpp ****  *  the same Thread (i.e. task) will deadlock.
 133:c:\users\niels\documents\github\dsp\software\stm32basis\hal\gemeenschappelijk\third_party\freertos-addons-1.1.0\c++\source\include\mutex.hpp ****  *
 134:c:\users\niels\documents\github\dsp\software\stm32basis\hal\gemeenschappelijk\third_party\freertos-addons-1.1.0\c++\source\include\mutex.hpp ****  *  @note Standard mutexes use less resources than recursive mutexes. You
 135:c:\users\niels\documents\github\dsp\software\stm32basis\hal\gemeenschappelijk\third_party\freertos-addons-1.1.0\c++\source\include\mutex.hpp ****  *        should typically use this type of Mutex, unless you have a strong
 136:c:\users\niels\documents\github\dsp\software\stm32basis\hal\gemeenschappelijk\third_party\freertos-addons-1.1.0\c++\source\include\mutex.hpp ****  *        need for a MutexRecursive mutex.
 137:c:\users\niels\documents\github\dsp\software\stm32basis\hal\gemeenschappelijk\third_party\freertos-addons-1.1.0\c++\source\include\mutex.hpp ****  */
 138:c:\users\niels\documents\github\dsp\software\stm32basis\hal\gemeenschappelijk\third_party\freertos-addons-1.1.0\c++\source\include\mutex.hpp **** class MutexStandard : public Mutex {
 521              	 .loc 4 138 7
 522              	 .cfi_startproc
ARM GAS   			page 23


 523              	 
 524              	 
 525 0000 80B5     	 push {r7,lr}
 526              	 .cfi_def_cfa_offset 8
 527              	 .cfi_offset 7,-8
 528              	 .cfi_offset 14,-4
 529 0002 82B0     	 sub sp,sp,#8
 530              	 .cfi_def_cfa_offset 16
 531 0004 00AF     	 add r7,sp,#0
 532              	 .cfi_def_cfa_register 7
 533 0006 7860     	 str r0,[r7,#4]
 534              	.LBB11:
 535              	 .loc 4 138 7
 536 0008 054A     	 ldr r2,.L31
 537 000a 7B68     	 ldr r3,[r7,#4]
 538 000c 1A60     	 str r2,[r3]
 539 000e 7B68     	 ldr r3,[r7,#4]
 540 0010 1846     	 mov r0,r3
 541 0012 FFF7FEFF 	 bl _ZN12cpp_freertos5MutexD2Ev
 542              	.LBE11:
 543 0016 7B68     	 ldr r3,[r7,#4]
 544 0018 1846     	 mov r0,r3
 545 001a 0837     	 adds r7,r7,#8
 546              	 .cfi_def_cfa_offset 8
 547 001c BD46     	 mov sp,r7
 548              	 .cfi_def_cfa_register 13
 549              	 
 550 001e 80BD     	 pop {r7,pc}
 551              	.L32:
 552              	 .align 2
 553              	.L31:
 554 0020 08000000 	 .word _ZTVN12cpp_freertos13MutexStandardE+8
 555              	 .cfi_endproc
 556              	.LFE1535:
 557              	 .size _ZN12cpp_freertos13MutexStandardD2Ev,.-_ZN12cpp_freertos13MutexStandardD2Ev
 558              	 .weak _ZN12cpp_freertos13MutexStandardD1Ev
 559              	 .thumb_set _ZN12cpp_freertos13MutexStandardD1Ev,_ZN12cpp_freertos13MutexStandardD2Ev
 560              	 .section .text._ZN12cpp_freertos13MutexStandardD0Ev,"axG",%progbits,_ZN12cpp_freertos13MutexStandardD5Ev,comdat
 561              	 .align 1
 562              	 .weak _ZN12cpp_freertos13MutexStandardD0Ev
 563              	 .syntax unified
 564              	 .thumb
 565              	 .thumb_func
 566              	 .type _ZN12cpp_freertos13MutexStandardD0Ev,%function
 567              	_ZN12cpp_freertos13MutexStandardD0Ev:
 568              	.LFB1537:
 569              	 .loc 4 138 7
 570              	 .cfi_startproc
 571              	 
 572              	 
 573 0000 80B5     	 push {r7,lr}
 574              	 .cfi_def_cfa_offset 8
 575              	 .cfi_offset 7,-8
 576              	 .cfi_offset 14,-4
 577 0002 82B0     	 sub sp,sp,#8
 578              	 .cfi_def_cfa_offset 16
 579 0004 00AF     	 add r7,sp,#0
ARM GAS   			page 24


 580              	 .cfi_def_cfa_register 7
 581 0006 7860     	 str r0,[r7,#4]
 582              	 .loc 4 138 7
 583 0008 7868     	 ldr r0,[r7,#4]
 584 000a FFF7FEFF 	 bl _ZN12cpp_freertos13MutexStandardD1Ev
 585 000e 0821     	 movs r1,#8
 586 0010 7868     	 ldr r0,[r7,#4]
 587 0012 FFF7FEFF 	 bl _ZdlPvj
 588 0016 7B68     	 ldr r3,[r7,#4]
 589 0018 1846     	 mov r0,r3
 590 001a 0837     	 adds r7,r7,#8
 591              	 .cfi_def_cfa_offset 8
 592 001c BD46     	 mov sp,r7
 593              	 .cfi_def_cfa_register 13
 594              	 
 595 001e 80BD     	 pop {r7,pc}
 596              	 .cfi_endproc
 597              	.LFE1537:
 598              	 .size _ZN12cpp_freertos13MutexStandardD0Ev,.-_ZN12cpp_freertos13MutexStandardD0Ev
 599              	 .section .text._Z41__static_initialization_and_destruction_0ii,"ax",%progbits
 600              	 .align 1
 601              	 .syntax unified
 602              	 .thumb
 603              	 .thumb_func
 604              	 .type _Z41__static_initialization_and_destruction_0ii,%function
 605              	_Z41__static_initialization_and_destruction_0ii:
 606              	.LFB1533:
 136:C:\Users\niels\Documents\GitHub\DSP\software\STM32Basis\HAL\gemeenschappelijk\Third_Party\freertos-addons-1.1.0\c++\Source\cthread.cpp ****                     "if INCLUDE_vTaskDelete is not defined.");
 137:C:\Users\niels\Documents\GitHub\DSP\software\STM32Basis\HAL\gemeenschappelijk\Third_Party\freertos-addons-1.1.0\c++\Source\cthread.cpp **** #endif
 138:C:\Users\niels\Documents\GitHub\DSP\software\STM32Basis\HAL\gemeenschappelijk\Third_Party\freertos-addons-1.1.0\c++\Source\cthread.cpp **** }
 607              	 .loc 2 138 1
 608              	 .cfi_startproc
 609              	 
 610              	 
 611 0000 80B5     	 push {r7,lr}
 612              	 .cfi_def_cfa_offset 8
 613              	 .cfi_offset 7,-8
 614              	 .cfi_offset 14,-4
 615 0002 82B0     	 sub sp,sp,#8
 616              	 .cfi_def_cfa_offset 16
 617 0004 00AF     	 add r7,sp,#0
 618              	 .cfi_def_cfa_register 7
 619 0006 7860     	 str r0,[r7,#4]
 620 0008 3960     	 str r1,[r7]
 621              	 .loc 2 138 1
 622 000a 7B68     	 ldr r3,[r7,#4]
 623 000c 012B     	 cmp r3,#1
 624 000e 0CD1     	 bne .L37
 625              	 .loc 2 138 1 is_stmt 0 discriminator 1
 626 0010 3B68     	 ldr r3,[r7]
 627 0012 4FF6FF72 	 movw r2,#65535
 628 0016 9342     	 cmp r3,r2
 629 0018 07D1     	 bne .L37
  29:C:\Users\niels\Documents\GitHub\DSP\software\STM32Basis\HAL\gemeenschappelijk\Third_Party\freertos-addons-1.1.0\c++\Source\cthread.cpp **** 
 630              	 .loc 2 29 23 is_stmt 1
 631 001a 0648     	 ldr r0,.L38
 632 001c FFF7FEFF 	 bl _ZN12cpp_freertos13MutexStandardC1Ev
ARM GAS   			page 25


  29:C:\Users\niels\Documents\GitHub\DSP\software\STM32Basis\HAL\gemeenschappelijk\Third_Party\freertos-addons-1.1.0\c++\Source\cthread.cpp **** 
 633              	 .loc 2 29 15
 634 0020 054A     	 ldr r2,.L38+4
 635 0022 0649     	 ldr r1,.L38+8
 636 0024 0348     	 ldr r0,.L38
 637 0026 FFF7FEFF 	 bl __aeabi_atexit
 638              	.L37:
 639              	 .loc 2 138 1
 640 002a 00BF     	 nop
 641 002c 0837     	 adds r7,r7,#8
 642              	 .cfi_def_cfa_offset 8
 643 002e BD46     	 mov sp,r7
 644              	 .cfi_def_cfa_register 13
 645              	 
 646 0030 80BD     	 pop {r7,pc}
 647              	.L39:
 648 0032 00BF     	 .align 2
 649              	.L38:
 650 0034 00000000 	 .word _ZN12cpp_freertos6Thread14StartGuardLockE
 651 0038 00000000 	 .word __dso_handle
 652 003c 00000000 	 .word _ZN12cpp_freertos13MutexStandardD1Ev
 653              	 .cfi_endproc
 654              	.LFE1533:
 655              	 .size _Z41__static_initialization_and_destruction_0ii,.-_Z41__static_initialization_and_destruction_0ii
 656              	 .section .text._GLOBAL__sub_I__ZN12cpp_freertos6Thread15SchedulerActiveE,"ax",%progbits
 657              	 .align 1
 658              	 .syntax unified
 659              	 .thumb
 660              	 .thumb_func
 661              	 .type _GLOBAL__sub_I__ZN12cpp_freertos6Thread15SchedulerActiveE,%function
 662              	_GLOBAL__sub_I__ZN12cpp_freertos6Thread15SchedulerActiveE:
 663              	.LFB1538:
 664              	 .loc 2 138 1
 665              	 .cfi_startproc
 666              	 
 667              	 
 668 0000 80B5     	 push {r7,lr}
 669              	 .cfi_def_cfa_offset 8
 670              	 .cfi_offset 7,-8
 671              	 .cfi_offset 14,-4
 672 0002 00AF     	 add r7,sp,#0
 673              	 .cfi_def_cfa_register 7
 674              	 .loc 2 138 1
 675 0004 4FF6FF71 	 movw r1,#65535
 676 0008 0120     	 movs r0,#1
 677 000a FFF7FEFF 	 bl _Z41__static_initialization_and_destruction_0ii
 678 000e 80BD     	 pop {r7,pc}
 679              	 .cfi_endproc
 680              	.LFE1538:
 681              	 .size _GLOBAL__sub_I__ZN12cpp_freertos6Thread15SchedulerActiveE,.-_GLOBAL__sub_I__ZN12cpp_freertos6Thread15SchedulerActiveE
 682              	 .section .init_array,"aw",%init_array
 683              	 .align 2
 684 0000 00000000 	 .word _GLOBAL__sub_I__ZN12cpp_freertos6Thread15SchedulerActiveE(target1)
 685              	 .text
 686              	.Letext0:
 687              	 .file 5 "c:\\progra~2\\gnuarm~1\\102021~1.10\\arm-none-eabi\\include\\c++\\10.3.1\\bits\\basic_string.h"
 688              	 .file 6 "c:\\progra~2\\gnuarm~1\\102021~1.10\\arm-none-eabi\\include\\c++\\10.3.1\\bits\\basic_string.tcc"
ARM GAS   			page 26


 689              	 .file 7 "c:\\progra~2\\gnuarm~1\\102021~1.10\\arm-none-eabi\\include\\c++\\10.3.1\\bits\\exception_ptr.h"
 690              	 .file 8 "c:\\progra~2\\gnuarm~1\\102021~1.10\\arm-none-eabi\\include\\c++\\10.3.1\\arm-none-eabi\\thumb\\v7e-m+fp\\hard\\bits\\c++config.h"
 691              	 .file 9 "c:\\progra~2\\gnuarm~1\\102021~1.10\\arm-none-eabi\\include\\c++\\10.3.1\\bits\\cpp_type_traits.h"
 692              	 .file 10 "c:\\progra~2\\gnuarm~1\\102021~1.10\\arm-none-eabi\\include\\c++\\10.3.1\\bits\\stl_pair.h"
 693              	 .file 11 "c:\\progra~2\\gnuarm~1\\102021~1.10\\arm-none-eabi\\include\\c++\\10.3.1\\bits\\stl_iterator_base_types.h"
 694              	 .file 12 "c:\\progra~2\\gnuarm~1\\102021~1.10\\arm-none-eabi\\include\\c++\\10.3.1\\type_traits"
 695              	 .file 13 "c:\\progra~2\\gnuarm~1\\102021~1.10\\arm-none-eabi\\include\\c++\\10.3.1\\debug\\debug.h"
 696              	 .file 14 "c:\\progra~2\\gnuarm~1\\102021~1.10\\arm-none-eabi\\include\\c++\\10.3.1\\cwchar"
 697              	 .file 15 "c:\\progra~2\\gnuarm~1\\102021~1.10\\arm-none-eabi\\include\\c++\\10.3.1\\bits\\char_traits.h"
 698              	 .file 16 "c:\\progra~2\\gnuarm~1\\102021~1.10\\arm-none-eabi\\include\\c++\\10.3.1\\cstdint"
 699              	 .file 17 "c:\\progra~2\\gnuarm~1\\102021~1.10\\arm-none-eabi\\include\\c++\\10.3.1\\bits\\allocator.h"
 700              	 .file 18 "c:\\progra~2\\gnuarm~1\\102021~1.10\\arm-none-eabi\\include\\c++\\10.3.1\\clocale"
 701              	 .file 19 "c:\\progra~2\\gnuarm~1\\102021~1.10\\arm-none-eabi\\include\\c++\\10.3.1\\cstdlib"
 702              	 .file 20 "c:\\progra~2\\gnuarm~1\\102021~1.10\\arm-none-eabi\\include\\c++\\10.3.1\\cstdio"
 703              	 .file 21 "c:\\progra~2\\gnuarm~1\\102021~1.10\\arm-none-eabi\\include\\c++\\10.3.1\\bits\\alloc_traits.h"
 704              	 .file 22 "c:\\progra~2\\gnuarm~1\\102021~1.10\\arm-none-eabi\\include\\c++\\10.3.1\\initializer_list"
 705              	 .file 23 "c:\\progra~2\\gnuarm~1\\102021~1.10\\arm-none-eabi\\include\\c++\\10.3.1\\bits\\stringfwd.h"
 706              	 .file 24 "c:\\progra~2\\gnuarm~1\\102021~1.10\\arm-none-eabi\\include\\c++\\10.3.1\\bits\\stl_iterator_base_funcs.h"
 707              	 .file 25 "c:\\progra~2\\gnuarm~1\\102021~1.10\\arm-none-eabi\\include\\c++\\10.3.1\\bits\\move.h"
 708              	 .file 26 "c:\\progra~2\\gnuarm~1\\102021~1.10\\arm-none-eabi\\include\\c++\\10.3.1\\bits\\predefined_ops.h"
 709              	 .file 27 "c:\\progra~2\\gnuarm~1\\102021~1.10\\arm-none-eabi\\include\\c++\\10.3.1\\ext\\new_allocator.h"
 710              	 .file 28 "c:\\progra~2\\gnuarm~1\\102021~1.10\\arm-none-eabi\\include\\c++\\10.3.1\\ext\\alloc_traits.h"
 711              	 .file 29 "c:\\progra~2\\gnuarm~1\\102021~1.10\\arm-none-eabi\\include\\c++\\10.3.1\\bits\\stl_iterator.h"
 712              	 .file 30 "c:\\progra~2\\gnuarm~1\\102021~1.10\\arm-none-eabi\\include\\c++\\10.3.1\\ext\\type_traits.h"
 713              	 .file 31 "c:\\progra~2\\gnuarm~1\\102021~1.10\\lib\\gcc\\arm-none-eabi\\10.3.1\\include\\stddef.h"
 714              	 .file 32 "c:\\progra~2\\gnuarm~1\\102021~1.10\\arm-none-eabi\\include\\machine\\_default_types.h"
 715              	 .file 33 "c:\\progra~2\\gnuarm~1\\102021~1.10\\arm-none-eabi\\include\\sys\\_types.h"
 716              	 .file 34 "c:\\progra~2\\gnuarm~1\\102021~1.10\\arm-none-eabi\\include\\sys\\reent.h"
 717              	 .file 35 "c:\\progra~2\\gnuarm~1\\102021~1.10\\arm-none-eabi\\include\\sys\\lock.h"
 718              	 .file 36 "c:\\progra~2\\gnuarm~1\\102021~1.10\\lib\\gcc\\arm-none-eabi\\10.3.1\\include\\stdarg.h"
 719              	 .file 37 "c:\\progra~2\\gnuarm~1\\102021~1.10\\arm-none-eabi\\include\\wchar.h"
 720              	 .file 38 "c:\\progra~2\\gnuarm~1\\102021~1.10\\arm-none-eabi\\include\\sys\\_stdint.h"
 721              	 .file 39 "c:\\progra~2\\gnuarm~1\\102021~1.10\\arm-none-eabi\\include\\stdint.h"
 722              	 .file 40 "c:\\progra~2\\gnuarm~1\\102021~1.10\\arm-none-eabi\\include\\locale.h"
 723              	 .file 41 "c:\\progra~2\\gnuarm~1\\102021~1.10\\arm-none-eabi\\include\\stdlib.h"
 724              	 .file 42 "c:\\progra~2\\gnuarm~1\\102021~1.10\\arm-none-eabi\\include\\stdio.h"
 725              	 .file 43 "c:\\users\\niels\\documents\\github\\dsp\\software\\stm32basis\\hal\\gemeenschappelijk\\third_party\\freertos\\source\\include\\task.h"
 726              	 .file 44 "c:\\users\\niels\\documents\\github\\dsp\\software\\stm32basis\\hal\\gemeenschappelijk\\third_party\\freertos-addons-1.1.0\\c++\\source\\include\\thread.hpp"
 727              	 .file 45 "<built-in>"