ARM GAS   			page 1


   1              	 .cpu cortex-m4
   2              	 .arch armv7e-m
   3              	 .fpu fpv4-sp-d16
   4              	 .eabi_attribute 27,1
   5              	 .eabi_attribute 28,1
   6              	 .eabi_attribute 20,1
   7              	 .eabi_attribute 21,1
   8              	 .eabi_attribute 23,3
   9              	 .eabi_attribute 24,1
  10              	 .eabi_attribute 25,1
  11              	 .eabi_attribute 26,1
  12              	 .eabi_attribute 30,6
  13              	 .eabi_attribute 34,0
  14              	 .eabi_attribute 18,4
  15              	 .file "ctimer.cpp"
  16              	 .text
  17              	.Ltext0:
  18              	 .cfi_sections .debug_frame
  19              	 .section .rodata._ZStL19piecewise_construct,"a"
  20              	 .align 2
  21              	 .type _ZStL19piecewise_construct,%object
  22              	 .size _ZStL19piecewise_construct,1
  23              	_ZStL19piecewise_construct:
  24 0000 00       	 .space 1
  25              	 .section .text._ZL20__gthread_key_deletei,"ax",%progbits
  26              	 .align 1
  27              	 .syntax unified
  28              	 .thumb
  29              	 .thumb_func
  30              	 .type _ZL20__gthread_key_deletei,%function
  31              	_ZL20__gthread_key_deletei:
  32              	.LFB652:
  33              	 .file 1 "c:\\progra~2\\gnuarm~1\\102021~1.10\\arm-none-eabi\\include\\c++\\10.3.1\\arm-none-eabi\\thumb\\v7e-m+fp\\hard\\bits\\gthr-default.h"
   1:c:\progra~2\gnuarm~1\102021~1.10\arm-none-eabi\include\c++\10.3.1\arm-none-eabi\thumb\v7e-m+fp\hard\bits\gthr-default.h **** /* Threads compatibility routines for libgcc2 and libobjc.  */
   2:c:\progra~2\gnuarm~1\102021~1.10\arm-none-eabi\include\c++\10.3.1\arm-none-eabi\thumb\v7e-m+fp\hard\bits\gthr-default.h **** /* Compile this one with gcc.  */
   3:c:\progra~2\gnuarm~1\102021~1.10\arm-none-eabi\include\c++\10.3.1\arm-none-eabi\thumb\v7e-m+fp\hard\bits\gthr-default.h **** /* Copyright (C) 1997-2020 Free Software Foundation, Inc.
   4:c:\progra~2\gnuarm~1\102021~1.10\arm-none-eabi\include\c++\10.3.1\arm-none-eabi\thumb\v7e-m+fp\hard\bits\gthr-default.h **** 
   5:c:\progra~2\gnuarm~1\102021~1.10\arm-none-eabi\include\c++\10.3.1\arm-none-eabi\thumb\v7e-m+fp\hard\bits\gthr-default.h **** This file is part of GCC.
   6:c:\progra~2\gnuarm~1\102021~1.10\arm-none-eabi\include\c++\10.3.1\arm-none-eabi\thumb\v7e-m+fp\hard\bits\gthr-default.h **** 
   7:c:\progra~2\gnuarm~1\102021~1.10\arm-none-eabi\include\c++\10.3.1\arm-none-eabi\thumb\v7e-m+fp\hard\bits\gthr-default.h **** GCC is free software; you can redistribute it and/or modify it under
   8:c:\progra~2\gnuarm~1\102021~1.10\arm-none-eabi\include\c++\10.3.1\arm-none-eabi\thumb\v7e-m+fp\hard\bits\gthr-default.h **** the terms of the GNU General Public License as published by the Free
   9:c:\progra~2\gnuarm~1\102021~1.10\arm-none-eabi\include\c++\10.3.1\arm-none-eabi\thumb\v7e-m+fp\hard\bits\gthr-default.h **** Software Foundation; either version 3, or (at your option) any later
  10:c:\progra~2\gnuarm~1\102021~1.10\arm-none-eabi\include\c++\10.3.1\arm-none-eabi\thumb\v7e-m+fp\hard\bits\gthr-default.h **** version.
  11:c:\progra~2\gnuarm~1\102021~1.10\arm-none-eabi\include\c++\10.3.1\arm-none-eabi\thumb\v7e-m+fp\hard\bits\gthr-default.h **** 
  12:c:\progra~2\gnuarm~1\102021~1.10\arm-none-eabi\include\c++\10.3.1\arm-none-eabi\thumb\v7e-m+fp\hard\bits\gthr-default.h **** GCC is distributed in the hope that it will be useful, but WITHOUT ANY
  13:c:\progra~2\gnuarm~1\102021~1.10\arm-none-eabi\include\c++\10.3.1\arm-none-eabi\thumb\v7e-m+fp\hard\bits\gthr-default.h **** WARRANTY; without even the implied warranty of MERCHANTABILITY or
  14:c:\progra~2\gnuarm~1\102021~1.10\arm-none-eabi\include\c++\10.3.1\arm-none-eabi\thumb\v7e-m+fp\hard\bits\gthr-default.h **** FITNESS FOR A PARTICULAR PURPOSE.  See the GNU General Public License
  15:c:\progra~2\gnuarm~1\102021~1.10\arm-none-eabi\include\c++\10.3.1\arm-none-eabi\thumb\v7e-m+fp\hard\bits\gthr-default.h **** for more details.
  16:c:\progra~2\gnuarm~1\102021~1.10\arm-none-eabi\include\c++\10.3.1\arm-none-eabi\thumb\v7e-m+fp\hard\bits\gthr-default.h **** 
  17:c:\progra~2\gnuarm~1\102021~1.10\arm-none-eabi\include\c++\10.3.1\arm-none-eabi\thumb\v7e-m+fp\hard\bits\gthr-default.h **** Under Section 7 of GPL version 3, you are granted additional
  18:c:\progra~2\gnuarm~1\102021~1.10\arm-none-eabi\include\c++\10.3.1\arm-none-eabi\thumb\v7e-m+fp\hard\bits\gthr-default.h **** permissions described in the GCC Runtime Library Exception, version
  19:c:\progra~2\gnuarm~1\102021~1.10\arm-none-eabi\include\c++\10.3.1\arm-none-eabi\thumb\v7e-m+fp\hard\bits\gthr-default.h **** 3.1, as published by the Free Software Foundation.
  20:c:\progra~2\gnuarm~1\102021~1.10\arm-none-eabi\include\c++\10.3.1\arm-none-eabi\thumb\v7e-m+fp\hard\bits\gthr-default.h **** 
  21:c:\progra~2\gnuarm~1\102021~1.10\arm-none-eabi\include\c++\10.3.1\arm-none-eabi\thumb\v7e-m+fp\hard\bits\gthr-default.h **** You should have received a copy of the GNU General Public License and
  22:c:\progra~2\gnuarm~1\102021~1.10\arm-none-eabi\include\c++\10.3.1\arm-none-eabi\thumb\v7e-m+fp\hard\bits\gthr-default.h **** a copy of the GCC Runtime Library Exception along with this program;
  23:c:\progra~2\gnuarm~1\102021~1.10\arm-none-eabi\include\c++\10.3.1\arm-none-eabi\thumb\v7e-m+fp\hard\bits\gthr-default.h **** see the files COPYING3 and COPYING.RUNTIME respectively.  If not, see
  24:c:\progra~2\gnuarm~1\102021~1.10\arm-none-eabi\include\c++\10.3.1\arm-none-eabi\thumb\v7e-m+fp\hard\bits\gthr-default.h **** <http://www.gnu.org/licenses/>.  */
ARM GAS   			page 2


  25:c:\progra~2\gnuarm~1\102021~1.10\arm-none-eabi\include\c++\10.3.1\arm-none-eabi\thumb\v7e-m+fp\hard\bits\gthr-default.h **** 
  26:c:\progra~2\gnuarm~1\102021~1.10\arm-none-eabi\include\c++\10.3.1\arm-none-eabi\thumb\v7e-m+fp\hard\bits\gthr-default.h **** #ifndef _GLIBCXX_GCC_GTHR_SINGLE_H
  27:c:\progra~2\gnuarm~1\102021~1.10\arm-none-eabi\include\c++\10.3.1\arm-none-eabi\thumb\v7e-m+fp\hard\bits\gthr-default.h **** #define _GLIBCXX_GCC_GTHR_SINGLE_H
  28:c:\progra~2\gnuarm~1\102021~1.10\arm-none-eabi\include\c++\10.3.1\arm-none-eabi\thumb\v7e-m+fp\hard\bits\gthr-default.h **** 
  29:c:\progra~2\gnuarm~1\102021~1.10\arm-none-eabi\include\c++\10.3.1\arm-none-eabi\thumb\v7e-m+fp\hard\bits\gthr-default.h **** /* Just provide compatibility for mutex handling.  */
  30:c:\progra~2\gnuarm~1\102021~1.10\arm-none-eabi\include\c++\10.3.1\arm-none-eabi\thumb\v7e-m+fp\hard\bits\gthr-default.h **** 
  31:c:\progra~2\gnuarm~1\102021~1.10\arm-none-eabi\include\c++\10.3.1\arm-none-eabi\thumb\v7e-m+fp\hard\bits\gthr-default.h **** typedef int __gthread_key_t;
  32:c:\progra~2\gnuarm~1\102021~1.10\arm-none-eabi\include\c++\10.3.1\arm-none-eabi\thumb\v7e-m+fp\hard\bits\gthr-default.h **** typedef int __gthread_once_t;
  33:c:\progra~2\gnuarm~1\102021~1.10\arm-none-eabi\include\c++\10.3.1\arm-none-eabi\thumb\v7e-m+fp\hard\bits\gthr-default.h **** typedef int __gthread_mutex_t;
  34:c:\progra~2\gnuarm~1\102021~1.10\arm-none-eabi\include\c++\10.3.1\arm-none-eabi\thumb\v7e-m+fp\hard\bits\gthr-default.h **** typedef int __gthread_recursive_mutex_t;
  35:c:\progra~2\gnuarm~1\102021~1.10\arm-none-eabi\include\c++\10.3.1\arm-none-eabi\thumb\v7e-m+fp\hard\bits\gthr-default.h **** 
  36:c:\progra~2\gnuarm~1\102021~1.10\arm-none-eabi\include\c++\10.3.1\arm-none-eabi\thumb\v7e-m+fp\hard\bits\gthr-default.h **** #define __GTHREAD_ONCE_INIT 0
  37:c:\progra~2\gnuarm~1\102021~1.10\arm-none-eabi\include\c++\10.3.1\arm-none-eabi\thumb\v7e-m+fp\hard\bits\gthr-default.h **** #define __GTHREAD_MUTEX_INIT 0
  38:c:\progra~2\gnuarm~1\102021~1.10\arm-none-eabi\include\c++\10.3.1\arm-none-eabi\thumb\v7e-m+fp\hard\bits\gthr-default.h **** #define __GTHREAD_MUTEX_INIT_FUNCTION(mx) do {} while (0)
  39:c:\progra~2\gnuarm~1\102021~1.10\arm-none-eabi\include\c++\10.3.1\arm-none-eabi\thumb\v7e-m+fp\hard\bits\gthr-default.h **** #define __GTHREAD_RECURSIVE_MUTEX_INIT 0
  40:c:\progra~2\gnuarm~1\102021~1.10\arm-none-eabi\include\c++\10.3.1\arm-none-eabi\thumb\v7e-m+fp\hard\bits\gthr-default.h **** 
  41:c:\progra~2\gnuarm~1\102021~1.10\arm-none-eabi\include\c++\10.3.1\arm-none-eabi\thumb\v7e-m+fp\hard\bits\gthr-default.h **** #define _GLIBCXX_UNUSED __attribute__((__unused__))
  42:c:\progra~2\gnuarm~1\102021~1.10\arm-none-eabi\include\c++\10.3.1\arm-none-eabi\thumb\v7e-m+fp\hard\bits\gthr-default.h **** 
  43:c:\progra~2\gnuarm~1\102021~1.10\arm-none-eabi\include\c++\10.3.1\arm-none-eabi\thumb\v7e-m+fp\hard\bits\gthr-default.h **** #ifdef _LIBOBJC
  44:c:\progra~2\gnuarm~1\102021~1.10\arm-none-eabi\include\c++\10.3.1\arm-none-eabi\thumb\v7e-m+fp\hard\bits\gthr-default.h **** 
  45:c:\progra~2\gnuarm~1\102021~1.10\arm-none-eabi\include\c++\10.3.1\arm-none-eabi\thumb\v7e-m+fp\hard\bits\gthr-default.h **** /* Thread local storage for a single thread */
  46:c:\progra~2\gnuarm~1\102021~1.10\arm-none-eabi\include\c++\10.3.1\arm-none-eabi\thumb\v7e-m+fp\hard\bits\gthr-default.h **** static void *thread_local_storage = NULL;
  47:c:\progra~2\gnuarm~1\102021~1.10\arm-none-eabi\include\c++\10.3.1\arm-none-eabi\thumb\v7e-m+fp\hard\bits\gthr-default.h **** 
  48:c:\progra~2\gnuarm~1\102021~1.10\arm-none-eabi\include\c++\10.3.1\arm-none-eabi\thumb\v7e-m+fp\hard\bits\gthr-default.h **** /* Backend initialization functions */
  49:c:\progra~2\gnuarm~1\102021~1.10\arm-none-eabi\include\c++\10.3.1\arm-none-eabi\thumb\v7e-m+fp\hard\bits\gthr-default.h **** 
  50:c:\progra~2\gnuarm~1\102021~1.10\arm-none-eabi\include\c++\10.3.1\arm-none-eabi\thumb\v7e-m+fp\hard\bits\gthr-default.h **** /* Initialize the threads subsystem.  */
  51:c:\progra~2\gnuarm~1\102021~1.10\arm-none-eabi\include\c++\10.3.1\arm-none-eabi\thumb\v7e-m+fp\hard\bits\gthr-default.h **** static inline int
  52:c:\progra~2\gnuarm~1\102021~1.10\arm-none-eabi\include\c++\10.3.1\arm-none-eabi\thumb\v7e-m+fp\hard\bits\gthr-default.h **** __gthread_objc_init_thread_system (void)
  53:c:\progra~2\gnuarm~1\102021~1.10\arm-none-eabi\include\c++\10.3.1\arm-none-eabi\thumb\v7e-m+fp\hard\bits\gthr-default.h **** {
  54:c:\progra~2\gnuarm~1\102021~1.10\arm-none-eabi\include\c++\10.3.1\arm-none-eabi\thumb\v7e-m+fp\hard\bits\gthr-default.h ****   /* No thread support available */
  55:c:\progra~2\gnuarm~1\102021~1.10\arm-none-eabi\include\c++\10.3.1\arm-none-eabi\thumb\v7e-m+fp\hard\bits\gthr-default.h ****   return -1;
  56:c:\progra~2\gnuarm~1\102021~1.10\arm-none-eabi\include\c++\10.3.1\arm-none-eabi\thumb\v7e-m+fp\hard\bits\gthr-default.h **** }
  57:c:\progra~2\gnuarm~1\102021~1.10\arm-none-eabi\include\c++\10.3.1\arm-none-eabi\thumb\v7e-m+fp\hard\bits\gthr-default.h **** 
  58:c:\progra~2\gnuarm~1\102021~1.10\arm-none-eabi\include\c++\10.3.1\arm-none-eabi\thumb\v7e-m+fp\hard\bits\gthr-default.h **** /* Close the threads subsystem.  */
  59:c:\progra~2\gnuarm~1\102021~1.10\arm-none-eabi\include\c++\10.3.1\arm-none-eabi\thumb\v7e-m+fp\hard\bits\gthr-default.h **** static inline int
  60:c:\progra~2\gnuarm~1\102021~1.10\arm-none-eabi\include\c++\10.3.1\arm-none-eabi\thumb\v7e-m+fp\hard\bits\gthr-default.h **** __gthread_objc_close_thread_system (void)
  61:c:\progra~2\gnuarm~1\102021~1.10\arm-none-eabi\include\c++\10.3.1\arm-none-eabi\thumb\v7e-m+fp\hard\bits\gthr-default.h **** {
  62:c:\progra~2\gnuarm~1\102021~1.10\arm-none-eabi\include\c++\10.3.1\arm-none-eabi\thumb\v7e-m+fp\hard\bits\gthr-default.h ****   /* No thread support available */
  63:c:\progra~2\gnuarm~1\102021~1.10\arm-none-eabi\include\c++\10.3.1\arm-none-eabi\thumb\v7e-m+fp\hard\bits\gthr-default.h ****   return -1;
  64:c:\progra~2\gnuarm~1\102021~1.10\arm-none-eabi\include\c++\10.3.1\arm-none-eabi\thumb\v7e-m+fp\hard\bits\gthr-default.h **** }
  65:c:\progra~2\gnuarm~1\102021~1.10\arm-none-eabi\include\c++\10.3.1\arm-none-eabi\thumb\v7e-m+fp\hard\bits\gthr-default.h **** 
  66:c:\progra~2\gnuarm~1\102021~1.10\arm-none-eabi\include\c++\10.3.1\arm-none-eabi\thumb\v7e-m+fp\hard\bits\gthr-default.h **** /* Backend thread functions */
  67:c:\progra~2\gnuarm~1\102021~1.10\arm-none-eabi\include\c++\10.3.1\arm-none-eabi\thumb\v7e-m+fp\hard\bits\gthr-default.h **** 
  68:c:\progra~2\gnuarm~1\102021~1.10\arm-none-eabi\include\c++\10.3.1\arm-none-eabi\thumb\v7e-m+fp\hard\bits\gthr-default.h **** /* Create a new thread of execution.  */
  69:c:\progra~2\gnuarm~1\102021~1.10\arm-none-eabi\include\c++\10.3.1\arm-none-eabi\thumb\v7e-m+fp\hard\bits\gthr-default.h **** static inline objc_thread_t
  70:c:\progra~2\gnuarm~1\102021~1.10\arm-none-eabi\include\c++\10.3.1\arm-none-eabi\thumb\v7e-m+fp\hard\bits\gthr-default.h **** __gthread_objc_thread_detach (void (* func)(void *), void * arg _GLIBCXX_UNUSED)
  71:c:\progra~2\gnuarm~1\102021~1.10\arm-none-eabi\include\c++\10.3.1\arm-none-eabi\thumb\v7e-m+fp\hard\bits\gthr-default.h **** {
  72:c:\progra~2\gnuarm~1\102021~1.10\arm-none-eabi\include\c++\10.3.1\arm-none-eabi\thumb\v7e-m+fp\hard\bits\gthr-default.h ****   /* No thread support available */
  73:c:\progra~2\gnuarm~1\102021~1.10\arm-none-eabi\include\c++\10.3.1\arm-none-eabi\thumb\v7e-m+fp\hard\bits\gthr-default.h ****   return NULL;
  74:c:\progra~2\gnuarm~1\102021~1.10\arm-none-eabi\include\c++\10.3.1\arm-none-eabi\thumb\v7e-m+fp\hard\bits\gthr-default.h **** }
  75:c:\progra~2\gnuarm~1\102021~1.10\arm-none-eabi\include\c++\10.3.1\arm-none-eabi\thumb\v7e-m+fp\hard\bits\gthr-default.h **** 
  76:c:\progra~2\gnuarm~1\102021~1.10\arm-none-eabi\include\c++\10.3.1\arm-none-eabi\thumb\v7e-m+fp\hard\bits\gthr-default.h **** /* Set the current thread's priority.  */
  77:c:\progra~2\gnuarm~1\102021~1.10\arm-none-eabi\include\c++\10.3.1\arm-none-eabi\thumb\v7e-m+fp\hard\bits\gthr-default.h **** static inline int
  78:c:\progra~2\gnuarm~1\102021~1.10\arm-none-eabi\include\c++\10.3.1\arm-none-eabi\thumb\v7e-m+fp\hard\bits\gthr-default.h **** __gthread_objc_thread_set_priority (int priority _GLIBCXX_UNUSED)
  79:c:\progra~2\gnuarm~1\102021~1.10\arm-none-eabi\include\c++\10.3.1\arm-none-eabi\thumb\v7e-m+fp\hard\bits\gthr-default.h **** {
  80:c:\progra~2\gnuarm~1\102021~1.10\arm-none-eabi\include\c++\10.3.1\arm-none-eabi\thumb\v7e-m+fp\hard\bits\gthr-default.h ****   /* No thread support available */
  81:c:\progra~2\gnuarm~1\102021~1.10\arm-none-eabi\include\c++\10.3.1\arm-none-eabi\thumb\v7e-m+fp\hard\bits\gthr-default.h ****   return -1;
ARM GAS   			page 3


  82:c:\progra~2\gnuarm~1\102021~1.10\arm-none-eabi\include\c++\10.3.1\arm-none-eabi\thumb\v7e-m+fp\hard\bits\gthr-default.h **** }
  83:c:\progra~2\gnuarm~1\102021~1.10\arm-none-eabi\include\c++\10.3.1\arm-none-eabi\thumb\v7e-m+fp\hard\bits\gthr-default.h **** 
  84:c:\progra~2\gnuarm~1\102021~1.10\arm-none-eabi\include\c++\10.3.1\arm-none-eabi\thumb\v7e-m+fp\hard\bits\gthr-default.h **** /* Return the current thread's priority.  */
  85:c:\progra~2\gnuarm~1\102021~1.10\arm-none-eabi\include\c++\10.3.1\arm-none-eabi\thumb\v7e-m+fp\hard\bits\gthr-default.h **** static inline int
  86:c:\progra~2\gnuarm~1\102021~1.10\arm-none-eabi\include\c++\10.3.1\arm-none-eabi\thumb\v7e-m+fp\hard\bits\gthr-default.h **** __gthread_objc_thread_get_priority (void)
  87:c:\progra~2\gnuarm~1\102021~1.10\arm-none-eabi\include\c++\10.3.1\arm-none-eabi\thumb\v7e-m+fp\hard\bits\gthr-default.h **** {
  88:c:\progra~2\gnuarm~1\102021~1.10\arm-none-eabi\include\c++\10.3.1\arm-none-eabi\thumb\v7e-m+fp\hard\bits\gthr-default.h ****   return OBJC_THREAD_INTERACTIVE_PRIORITY;
  89:c:\progra~2\gnuarm~1\102021~1.10\arm-none-eabi\include\c++\10.3.1\arm-none-eabi\thumb\v7e-m+fp\hard\bits\gthr-default.h **** }
  90:c:\progra~2\gnuarm~1\102021~1.10\arm-none-eabi\include\c++\10.3.1\arm-none-eabi\thumb\v7e-m+fp\hard\bits\gthr-default.h **** 
  91:c:\progra~2\gnuarm~1\102021~1.10\arm-none-eabi\include\c++\10.3.1\arm-none-eabi\thumb\v7e-m+fp\hard\bits\gthr-default.h **** /* Yield our process time to another thread.  */
  92:c:\progra~2\gnuarm~1\102021~1.10\arm-none-eabi\include\c++\10.3.1\arm-none-eabi\thumb\v7e-m+fp\hard\bits\gthr-default.h **** static inline void
  93:c:\progra~2\gnuarm~1\102021~1.10\arm-none-eabi\include\c++\10.3.1\arm-none-eabi\thumb\v7e-m+fp\hard\bits\gthr-default.h **** __gthread_objc_thread_yield (void)
  94:c:\progra~2\gnuarm~1\102021~1.10\arm-none-eabi\include\c++\10.3.1\arm-none-eabi\thumb\v7e-m+fp\hard\bits\gthr-default.h **** {
  95:c:\progra~2\gnuarm~1\102021~1.10\arm-none-eabi\include\c++\10.3.1\arm-none-eabi\thumb\v7e-m+fp\hard\bits\gthr-default.h ****   return;
  96:c:\progra~2\gnuarm~1\102021~1.10\arm-none-eabi\include\c++\10.3.1\arm-none-eabi\thumb\v7e-m+fp\hard\bits\gthr-default.h **** }
  97:c:\progra~2\gnuarm~1\102021~1.10\arm-none-eabi\include\c++\10.3.1\arm-none-eabi\thumb\v7e-m+fp\hard\bits\gthr-default.h **** 
  98:c:\progra~2\gnuarm~1\102021~1.10\arm-none-eabi\include\c++\10.3.1\arm-none-eabi\thumb\v7e-m+fp\hard\bits\gthr-default.h **** /* Terminate the current thread.  */
  99:c:\progra~2\gnuarm~1\102021~1.10\arm-none-eabi\include\c++\10.3.1\arm-none-eabi\thumb\v7e-m+fp\hard\bits\gthr-default.h **** static inline int
 100:c:\progra~2\gnuarm~1\102021~1.10\arm-none-eabi\include\c++\10.3.1\arm-none-eabi\thumb\v7e-m+fp\hard\bits\gthr-default.h **** __gthread_objc_thread_exit (void)
 101:c:\progra~2\gnuarm~1\102021~1.10\arm-none-eabi\include\c++\10.3.1\arm-none-eabi\thumb\v7e-m+fp\hard\bits\gthr-default.h **** {
 102:c:\progra~2\gnuarm~1\102021~1.10\arm-none-eabi\include\c++\10.3.1\arm-none-eabi\thumb\v7e-m+fp\hard\bits\gthr-default.h ****   /* No thread support available */
 103:c:\progra~2\gnuarm~1\102021~1.10\arm-none-eabi\include\c++\10.3.1\arm-none-eabi\thumb\v7e-m+fp\hard\bits\gthr-default.h ****   /* Should we really exit the program */
 104:c:\progra~2\gnuarm~1\102021~1.10\arm-none-eabi\include\c++\10.3.1\arm-none-eabi\thumb\v7e-m+fp\hard\bits\gthr-default.h ****   /* exit (&__objc_thread_exit_status); */
 105:c:\progra~2\gnuarm~1\102021~1.10\arm-none-eabi\include\c++\10.3.1\arm-none-eabi\thumb\v7e-m+fp\hard\bits\gthr-default.h ****   return -1;
 106:c:\progra~2\gnuarm~1\102021~1.10\arm-none-eabi\include\c++\10.3.1\arm-none-eabi\thumb\v7e-m+fp\hard\bits\gthr-default.h **** }
 107:c:\progra~2\gnuarm~1\102021~1.10\arm-none-eabi\include\c++\10.3.1\arm-none-eabi\thumb\v7e-m+fp\hard\bits\gthr-default.h **** 
 108:c:\progra~2\gnuarm~1\102021~1.10\arm-none-eabi\include\c++\10.3.1\arm-none-eabi\thumb\v7e-m+fp\hard\bits\gthr-default.h **** /* Returns an integer value which uniquely describes a thread.  */
 109:c:\progra~2\gnuarm~1\102021~1.10\arm-none-eabi\include\c++\10.3.1\arm-none-eabi\thumb\v7e-m+fp\hard\bits\gthr-default.h **** static inline objc_thread_t
 110:c:\progra~2\gnuarm~1\102021~1.10\arm-none-eabi\include\c++\10.3.1\arm-none-eabi\thumb\v7e-m+fp\hard\bits\gthr-default.h **** __gthread_objc_thread_id (void)
 111:c:\progra~2\gnuarm~1\102021~1.10\arm-none-eabi\include\c++\10.3.1\arm-none-eabi\thumb\v7e-m+fp\hard\bits\gthr-default.h **** {
 112:c:\progra~2\gnuarm~1\102021~1.10\arm-none-eabi\include\c++\10.3.1\arm-none-eabi\thumb\v7e-m+fp\hard\bits\gthr-default.h ****   /* No thread support, use 1.  */
 113:c:\progra~2\gnuarm~1\102021~1.10\arm-none-eabi\include\c++\10.3.1\arm-none-eabi\thumb\v7e-m+fp\hard\bits\gthr-default.h ****   return (objc_thread_t) 1;
 114:c:\progra~2\gnuarm~1\102021~1.10\arm-none-eabi\include\c++\10.3.1\arm-none-eabi\thumb\v7e-m+fp\hard\bits\gthr-default.h **** }
 115:c:\progra~2\gnuarm~1\102021~1.10\arm-none-eabi\include\c++\10.3.1\arm-none-eabi\thumb\v7e-m+fp\hard\bits\gthr-default.h **** 
 116:c:\progra~2\gnuarm~1\102021~1.10\arm-none-eabi\include\c++\10.3.1\arm-none-eabi\thumb\v7e-m+fp\hard\bits\gthr-default.h **** /* Sets the thread's local storage pointer.  */
 117:c:\progra~2\gnuarm~1\102021~1.10\arm-none-eabi\include\c++\10.3.1\arm-none-eabi\thumb\v7e-m+fp\hard\bits\gthr-default.h **** static inline int
 118:c:\progra~2\gnuarm~1\102021~1.10\arm-none-eabi\include\c++\10.3.1\arm-none-eabi\thumb\v7e-m+fp\hard\bits\gthr-default.h **** __gthread_objc_thread_set_data (void *value)
 119:c:\progra~2\gnuarm~1\102021~1.10\arm-none-eabi\include\c++\10.3.1\arm-none-eabi\thumb\v7e-m+fp\hard\bits\gthr-default.h **** {
 120:c:\progra~2\gnuarm~1\102021~1.10\arm-none-eabi\include\c++\10.3.1\arm-none-eabi\thumb\v7e-m+fp\hard\bits\gthr-default.h ****   thread_local_storage = value;
 121:c:\progra~2\gnuarm~1\102021~1.10\arm-none-eabi\include\c++\10.3.1\arm-none-eabi\thumb\v7e-m+fp\hard\bits\gthr-default.h ****   return 0;
 122:c:\progra~2\gnuarm~1\102021~1.10\arm-none-eabi\include\c++\10.3.1\arm-none-eabi\thumb\v7e-m+fp\hard\bits\gthr-default.h **** }
 123:c:\progra~2\gnuarm~1\102021~1.10\arm-none-eabi\include\c++\10.3.1\arm-none-eabi\thumb\v7e-m+fp\hard\bits\gthr-default.h **** 
 124:c:\progra~2\gnuarm~1\102021~1.10\arm-none-eabi\include\c++\10.3.1\arm-none-eabi\thumb\v7e-m+fp\hard\bits\gthr-default.h **** /* Returns the thread's local storage pointer.  */
 125:c:\progra~2\gnuarm~1\102021~1.10\arm-none-eabi\include\c++\10.3.1\arm-none-eabi\thumb\v7e-m+fp\hard\bits\gthr-default.h **** static inline void *
 126:c:\progra~2\gnuarm~1\102021~1.10\arm-none-eabi\include\c++\10.3.1\arm-none-eabi\thumb\v7e-m+fp\hard\bits\gthr-default.h **** __gthread_objc_thread_get_data (void)
 127:c:\progra~2\gnuarm~1\102021~1.10\arm-none-eabi\include\c++\10.3.1\arm-none-eabi\thumb\v7e-m+fp\hard\bits\gthr-default.h **** {
 128:c:\progra~2\gnuarm~1\102021~1.10\arm-none-eabi\include\c++\10.3.1\arm-none-eabi\thumb\v7e-m+fp\hard\bits\gthr-default.h ****   return thread_local_storage;
 129:c:\progra~2\gnuarm~1\102021~1.10\arm-none-eabi\include\c++\10.3.1\arm-none-eabi\thumb\v7e-m+fp\hard\bits\gthr-default.h **** }
 130:c:\progra~2\gnuarm~1\102021~1.10\arm-none-eabi\include\c++\10.3.1\arm-none-eabi\thumb\v7e-m+fp\hard\bits\gthr-default.h **** 
 131:c:\progra~2\gnuarm~1\102021~1.10\arm-none-eabi\include\c++\10.3.1\arm-none-eabi\thumb\v7e-m+fp\hard\bits\gthr-default.h **** /* Backend mutex functions */
 132:c:\progra~2\gnuarm~1\102021~1.10\arm-none-eabi\include\c++\10.3.1\arm-none-eabi\thumb\v7e-m+fp\hard\bits\gthr-default.h **** 
 133:c:\progra~2\gnuarm~1\102021~1.10\arm-none-eabi\include\c++\10.3.1\arm-none-eabi\thumb\v7e-m+fp\hard\bits\gthr-default.h **** /* Allocate a mutex.  */
 134:c:\progra~2\gnuarm~1\102021~1.10\arm-none-eabi\include\c++\10.3.1\arm-none-eabi\thumb\v7e-m+fp\hard\bits\gthr-default.h **** static inline int
 135:c:\progra~2\gnuarm~1\102021~1.10\arm-none-eabi\include\c++\10.3.1\arm-none-eabi\thumb\v7e-m+fp\hard\bits\gthr-default.h **** __gthread_objc_mutex_allocate (objc_mutex_t mutex _GLIBCXX_UNUSED)
 136:c:\progra~2\gnuarm~1\102021~1.10\arm-none-eabi\include\c++\10.3.1\arm-none-eabi\thumb\v7e-m+fp\hard\bits\gthr-default.h **** {
 137:c:\progra~2\gnuarm~1\102021~1.10\arm-none-eabi\include\c++\10.3.1\arm-none-eabi\thumb\v7e-m+fp\hard\bits\gthr-default.h ****   return 0;
 138:c:\progra~2\gnuarm~1\102021~1.10\arm-none-eabi\include\c++\10.3.1\arm-none-eabi\thumb\v7e-m+fp\hard\bits\gthr-default.h **** }
ARM GAS   			page 4


 139:c:\progra~2\gnuarm~1\102021~1.10\arm-none-eabi\include\c++\10.3.1\arm-none-eabi\thumb\v7e-m+fp\hard\bits\gthr-default.h **** 
 140:c:\progra~2\gnuarm~1\102021~1.10\arm-none-eabi\include\c++\10.3.1\arm-none-eabi\thumb\v7e-m+fp\hard\bits\gthr-default.h **** /* Deallocate a mutex.  */
 141:c:\progra~2\gnuarm~1\102021~1.10\arm-none-eabi\include\c++\10.3.1\arm-none-eabi\thumb\v7e-m+fp\hard\bits\gthr-default.h **** static inline int
 142:c:\progra~2\gnuarm~1\102021~1.10\arm-none-eabi\include\c++\10.3.1\arm-none-eabi\thumb\v7e-m+fp\hard\bits\gthr-default.h **** __gthread_objc_mutex_deallocate (objc_mutex_t mutex _GLIBCXX_UNUSED)
 143:c:\progra~2\gnuarm~1\102021~1.10\arm-none-eabi\include\c++\10.3.1\arm-none-eabi\thumb\v7e-m+fp\hard\bits\gthr-default.h **** {
 144:c:\progra~2\gnuarm~1\102021~1.10\arm-none-eabi\include\c++\10.3.1\arm-none-eabi\thumb\v7e-m+fp\hard\bits\gthr-default.h ****   return 0;
 145:c:\progra~2\gnuarm~1\102021~1.10\arm-none-eabi\include\c++\10.3.1\arm-none-eabi\thumb\v7e-m+fp\hard\bits\gthr-default.h **** }
 146:c:\progra~2\gnuarm~1\102021~1.10\arm-none-eabi\include\c++\10.3.1\arm-none-eabi\thumb\v7e-m+fp\hard\bits\gthr-default.h **** 
 147:c:\progra~2\gnuarm~1\102021~1.10\arm-none-eabi\include\c++\10.3.1\arm-none-eabi\thumb\v7e-m+fp\hard\bits\gthr-default.h **** /* Grab a lock on a mutex.  */
 148:c:\progra~2\gnuarm~1\102021~1.10\arm-none-eabi\include\c++\10.3.1\arm-none-eabi\thumb\v7e-m+fp\hard\bits\gthr-default.h **** static inline int
 149:c:\progra~2\gnuarm~1\102021~1.10\arm-none-eabi\include\c++\10.3.1\arm-none-eabi\thumb\v7e-m+fp\hard\bits\gthr-default.h **** __gthread_objc_mutex_lock (objc_mutex_t mutex _GLIBCXX_UNUSED)
 150:c:\progra~2\gnuarm~1\102021~1.10\arm-none-eabi\include\c++\10.3.1\arm-none-eabi\thumb\v7e-m+fp\hard\bits\gthr-default.h **** {
 151:c:\progra~2\gnuarm~1\102021~1.10\arm-none-eabi\include\c++\10.3.1\arm-none-eabi\thumb\v7e-m+fp\hard\bits\gthr-default.h ****   /* There can only be one thread, so we always get the lock */
 152:c:\progra~2\gnuarm~1\102021~1.10\arm-none-eabi\include\c++\10.3.1\arm-none-eabi\thumb\v7e-m+fp\hard\bits\gthr-default.h ****   return 0;
 153:c:\progra~2\gnuarm~1\102021~1.10\arm-none-eabi\include\c++\10.3.1\arm-none-eabi\thumb\v7e-m+fp\hard\bits\gthr-default.h **** }
 154:c:\progra~2\gnuarm~1\102021~1.10\arm-none-eabi\include\c++\10.3.1\arm-none-eabi\thumb\v7e-m+fp\hard\bits\gthr-default.h **** 
 155:c:\progra~2\gnuarm~1\102021~1.10\arm-none-eabi\include\c++\10.3.1\arm-none-eabi\thumb\v7e-m+fp\hard\bits\gthr-default.h **** /* Try to grab a lock on a mutex.  */
 156:c:\progra~2\gnuarm~1\102021~1.10\arm-none-eabi\include\c++\10.3.1\arm-none-eabi\thumb\v7e-m+fp\hard\bits\gthr-default.h **** static inline int
 157:c:\progra~2\gnuarm~1\102021~1.10\arm-none-eabi\include\c++\10.3.1\arm-none-eabi\thumb\v7e-m+fp\hard\bits\gthr-default.h **** __gthread_objc_mutex_trylock (objc_mutex_t mutex _GLIBCXX_UNUSED)
 158:c:\progra~2\gnuarm~1\102021~1.10\arm-none-eabi\include\c++\10.3.1\arm-none-eabi\thumb\v7e-m+fp\hard\bits\gthr-default.h **** {
 159:c:\progra~2\gnuarm~1\102021~1.10\arm-none-eabi\include\c++\10.3.1\arm-none-eabi\thumb\v7e-m+fp\hard\bits\gthr-default.h ****   /* There can only be one thread, so we always get the lock */
 160:c:\progra~2\gnuarm~1\102021~1.10\arm-none-eabi\include\c++\10.3.1\arm-none-eabi\thumb\v7e-m+fp\hard\bits\gthr-default.h ****   return 0;
 161:c:\progra~2\gnuarm~1\102021~1.10\arm-none-eabi\include\c++\10.3.1\arm-none-eabi\thumb\v7e-m+fp\hard\bits\gthr-default.h **** }
 162:c:\progra~2\gnuarm~1\102021~1.10\arm-none-eabi\include\c++\10.3.1\arm-none-eabi\thumb\v7e-m+fp\hard\bits\gthr-default.h **** 
 163:c:\progra~2\gnuarm~1\102021~1.10\arm-none-eabi\include\c++\10.3.1\arm-none-eabi\thumb\v7e-m+fp\hard\bits\gthr-default.h **** /* Unlock the mutex */
 164:c:\progra~2\gnuarm~1\102021~1.10\arm-none-eabi\include\c++\10.3.1\arm-none-eabi\thumb\v7e-m+fp\hard\bits\gthr-default.h **** static inline int
 165:c:\progra~2\gnuarm~1\102021~1.10\arm-none-eabi\include\c++\10.3.1\arm-none-eabi\thumb\v7e-m+fp\hard\bits\gthr-default.h **** __gthread_objc_mutex_unlock (objc_mutex_t mutex _GLIBCXX_UNUSED)
 166:c:\progra~2\gnuarm~1\102021~1.10\arm-none-eabi\include\c++\10.3.1\arm-none-eabi\thumb\v7e-m+fp\hard\bits\gthr-default.h **** {
 167:c:\progra~2\gnuarm~1\102021~1.10\arm-none-eabi\include\c++\10.3.1\arm-none-eabi\thumb\v7e-m+fp\hard\bits\gthr-default.h ****   return 0;
 168:c:\progra~2\gnuarm~1\102021~1.10\arm-none-eabi\include\c++\10.3.1\arm-none-eabi\thumb\v7e-m+fp\hard\bits\gthr-default.h **** }
 169:c:\progra~2\gnuarm~1\102021~1.10\arm-none-eabi\include\c++\10.3.1\arm-none-eabi\thumb\v7e-m+fp\hard\bits\gthr-default.h **** 
 170:c:\progra~2\gnuarm~1\102021~1.10\arm-none-eabi\include\c++\10.3.1\arm-none-eabi\thumb\v7e-m+fp\hard\bits\gthr-default.h **** /* Backend condition mutex functions */
 171:c:\progra~2\gnuarm~1\102021~1.10\arm-none-eabi\include\c++\10.3.1\arm-none-eabi\thumb\v7e-m+fp\hard\bits\gthr-default.h **** 
 172:c:\progra~2\gnuarm~1\102021~1.10\arm-none-eabi\include\c++\10.3.1\arm-none-eabi\thumb\v7e-m+fp\hard\bits\gthr-default.h **** /* Allocate a condition.  */
 173:c:\progra~2\gnuarm~1\102021~1.10\arm-none-eabi\include\c++\10.3.1\arm-none-eabi\thumb\v7e-m+fp\hard\bits\gthr-default.h **** static inline int
 174:c:\progra~2\gnuarm~1\102021~1.10\arm-none-eabi\include\c++\10.3.1\arm-none-eabi\thumb\v7e-m+fp\hard\bits\gthr-default.h **** __gthread_objc_condition_allocate (objc_condition_t condition _GLIBCXX_UNUSED)
 175:c:\progra~2\gnuarm~1\102021~1.10\arm-none-eabi\include\c++\10.3.1\arm-none-eabi\thumb\v7e-m+fp\hard\bits\gthr-default.h **** {
 176:c:\progra~2\gnuarm~1\102021~1.10\arm-none-eabi\include\c++\10.3.1\arm-none-eabi\thumb\v7e-m+fp\hard\bits\gthr-default.h ****   return 0;
 177:c:\progra~2\gnuarm~1\102021~1.10\arm-none-eabi\include\c++\10.3.1\arm-none-eabi\thumb\v7e-m+fp\hard\bits\gthr-default.h **** }
 178:c:\progra~2\gnuarm~1\102021~1.10\arm-none-eabi\include\c++\10.3.1\arm-none-eabi\thumb\v7e-m+fp\hard\bits\gthr-default.h **** 
 179:c:\progra~2\gnuarm~1\102021~1.10\arm-none-eabi\include\c++\10.3.1\arm-none-eabi\thumb\v7e-m+fp\hard\bits\gthr-default.h **** /* Deallocate a condition.  */
 180:c:\progra~2\gnuarm~1\102021~1.10\arm-none-eabi\include\c++\10.3.1\arm-none-eabi\thumb\v7e-m+fp\hard\bits\gthr-default.h **** static inline int
 181:c:\progra~2\gnuarm~1\102021~1.10\arm-none-eabi\include\c++\10.3.1\arm-none-eabi\thumb\v7e-m+fp\hard\bits\gthr-default.h **** __gthread_objc_condition_deallocate (objc_condition_t condition _GLIBCXX_UNUSED)
 182:c:\progra~2\gnuarm~1\102021~1.10\arm-none-eabi\include\c++\10.3.1\arm-none-eabi\thumb\v7e-m+fp\hard\bits\gthr-default.h **** {
 183:c:\progra~2\gnuarm~1\102021~1.10\arm-none-eabi\include\c++\10.3.1\arm-none-eabi\thumb\v7e-m+fp\hard\bits\gthr-default.h ****   return 0;
 184:c:\progra~2\gnuarm~1\102021~1.10\arm-none-eabi\include\c++\10.3.1\arm-none-eabi\thumb\v7e-m+fp\hard\bits\gthr-default.h **** }
 185:c:\progra~2\gnuarm~1\102021~1.10\arm-none-eabi\include\c++\10.3.1\arm-none-eabi\thumb\v7e-m+fp\hard\bits\gthr-default.h **** 
 186:c:\progra~2\gnuarm~1\102021~1.10\arm-none-eabi\include\c++\10.3.1\arm-none-eabi\thumb\v7e-m+fp\hard\bits\gthr-default.h **** /* Wait on the condition */
 187:c:\progra~2\gnuarm~1\102021~1.10\arm-none-eabi\include\c++\10.3.1\arm-none-eabi\thumb\v7e-m+fp\hard\bits\gthr-default.h **** static inline int
 188:c:\progra~2\gnuarm~1\102021~1.10\arm-none-eabi\include\c++\10.3.1\arm-none-eabi\thumb\v7e-m+fp\hard\bits\gthr-default.h **** __gthread_objc_condition_wait (objc_condition_t condition _GLIBCXX_UNUSED,
 189:c:\progra~2\gnuarm~1\102021~1.10\arm-none-eabi\include\c++\10.3.1\arm-none-eabi\thumb\v7e-m+fp\hard\bits\gthr-default.h **** 			       objc_mutex_t mutex _GLIBCXX_UNUSED)
 190:c:\progra~2\gnuarm~1\102021~1.10\arm-none-eabi\include\c++\10.3.1\arm-none-eabi\thumb\v7e-m+fp\hard\bits\gthr-default.h **** {
 191:c:\progra~2\gnuarm~1\102021~1.10\arm-none-eabi\include\c++\10.3.1\arm-none-eabi\thumb\v7e-m+fp\hard\bits\gthr-default.h ****   return 0;
 192:c:\progra~2\gnuarm~1\102021~1.10\arm-none-eabi\include\c++\10.3.1\arm-none-eabi\thumb\v7e-m+fp\hard\bits\gthr-default.h **** }
 193:c:\progra~2\gnuarm~1\102021~1.10\arm-none-eabi\include\c++\10.3.1\arm-none-eabi\thumb\v7e-m+fp\hard\bits\gthr-default.h **** 
 194:c:\progra~2\gnuarm~1\102021~1.10\arm-none-eabi\include\c++\10.3.1\arm-none-eabi\thumb\v7e-m+fp\hard\bits\gthr-default.h **** /* Wake up all threads waiting on this condition.  */
 195:c:\progra~2\gnuarm~1\102021~1.10\arm-none-eabi\include\c++\10.3.1\arm-none-eabi\thumb\v7e-m+fp\hard\bits\gthr-default.h **** static inline int
ARM GAS   			page 5


 196:c:\progra~2\gnuarm~1\102021~1.10\arm-none-eabi\include\c++\10.3.1\arm-none-eabi\thumb\v7e-m+fp\hard\bits\gthr-default.h **** __gthread_objc_condition_broadcast (objc_condition_t condition _GLIBCXX_UNUSED)
 197:c:\progra~2\gnuarm~1\102021~1.10\arm-none-eabi\include\c++\10.3.1\arm-none-eabi\thumb\v7e-m+fp\hard\bits\gthr-default.h **** {
 198:c:\progra~2\gnuarm~1\102021~1.10\arm-none-eabi\include\c++\10.3.1\arm-none-eabi\thumb\v7e-m+fp\hard\bits\gthr-default.h ****   return 0;
 199:c:\progra~2\gnuarm~1\102021~1.10\arm-none-eabi\include\c++\10.3.1\arm-none-eabi\thumb\v7e-m+fp\hard\bits\gthr-default.h **** }
 200:c:\progra~2\gnuarm~1\102021~1.10\arm-none-eabi\include\c++\10.3.1\arm-none-eabi\thumb\v7e-m+fp\hard\bits\gthr-default.h **** 
 201:c:\progra~2\gnuarm~1\102021~1.10\arm-none-eabi\include\c++\10.3.1\arm-none-eabi\thumb\v7e-m+fp\hard\bits\gthr-default.h **** /* Wake up one thread waiting on this condition.  */
 202:c:\progra~2\gnuarm~1\102021~1.10\arm-none-eabi\include\c++\10.3.1\arm-none-eabi\thumb\v7e-m+fp\hard\bits\gthr-default.h **** static inline int
 203:c:\progra~2\gnuarm~1\102021~1.10\arm-none-eabi\include\c++\10.3.1\arm-none-eabi\thumb\v7e-m+fp\hard\bits\gthr-default.h **** __gthread_objc_condition_signal (objc_condition_t condition _GLIBCXX_UNUSED)
 204:c:\progra~2\gnuarm~1\102021~1.10\arm-none-eabi\include\c++\10.3.1\arm-none-eabi\thumb\v7e-m+fp\hard\bits\gthr-default.h **** {
 205:c:\progra~2\gnuarm~1\102021~1.10\arm-none-eabi\include\c++\10.3.1\arm-none-eabi\thumb\v7e-m+fp\hard\bits\gthr-default.h ****   return 0;
 206:c:\progra~2\gnuarm~1\102021~1.10\arm-none-eabi\include\c++\10.3.1\arm-none-eabi\thumb\v7e-m+fp\hard\bits\gthr-default.h **** }
 207:c:\progra~2\gnuarm~1\102021~1.10\arm-none-eabi\include\c++\10.3.1\arm-none-eabi\thumb\v7e-m+fp\hard\bits\gthr-default.h **** 
 208:c:\progra~2\gnuarm~1\102021~1.10\arm-none-eabi\include\c++\10.3.1\arm-none-eabi\thumb\v7e-m+fp\hard\bits\gthr-default.h **** #else /* _LIBOBJC */
 209:c:\progra~2\gnuarm~1\102021~1.10\arm-none-eabi\include\c++\10.3.1\arm-none-eabi\thumb\v7e-m+fp\hard\bits\gthr-default.h **** 
 210:c:\progra~2\gnuarm~1\102021~1.10\arm-none-eabi\include\c++\10.3.1\arm-none-eabi\thumb\v7e-m+fp\hard\bits\gthr-default.h **** static inline int
 211:c:\progra~2\gnuarm~1\102021~1.10\arm-none-eabi\include\c++\10.3.1\arm-none-eabi\thumb\v7e-m+fp\hard\bits\gthr-default.h **** __gthread_active_p (void)
 212:c:\progra~2\gnuarm~1\102021~1.10\arm-none-eabi\include\c++\10.3.1\arm-none-eabi\thumb\v7e-m+fp\hard\bits\gthr-default.h **** {
 213:c:\progra~2\gnuarm~1\102021~1.10\arm-none-eabi\include\c++\10.3.1\arm-none-eabi\thumb\v7e-m+fp\hard\bits\gthr-default.h ****   return 0;
 214:c:\progra~2\gnuarm~1\102021~1.10\arm-none-eabi\include\c++\10.3.1\arm-none-eabi\thumb\v7e-m+fp\hard\bits\gthr-default.h **** }
 215:c:\progra~2\gnuarm~1\102021~1.10\arm-none-eabi\include\c++\10.3.1\arm-none-eabi\thumb\v7e-m+fp\hard\bits\gthr-default.h **** 
 216:c:\progra~2\gnuarm~1\102021~1.10\arm-none-eabi\include\c++\10.3.1\arm-none-eabi\thumb\v7e-m+fp\hard\bits\gthr-default.h **** static inline int
 217:c:\progra~2\gnuarm~1\102021~1.10\arm-none-eabi\include\c++\10.3.1\arm-none-eabi\thumb\v7e-m+fp\hard\bits\gthr-default.h **** __gthread_once (__gthread_once_t *__once _GLIBCXX_UNUSED, void (*__func) (void) _GLIBCXX_UNUSED)
 218:c:\progra~2\gnuarm~1\102021~1.10\arm-none-eabi\include\c++\10.3.1\arm-none-eabi\thumb\v7e-m+fp\hard\bits\gthr-default.h **** {
 219:c:\progra~2\gnuarm~1\102021~1.10\arm-none-eabi\include\c++\10.3.1\arm-none-eabi\thumb\v7e-m+fp\hard\bits\gthr-default.h ****   return 0;
 220:c:\progra~2\gnuarm~1\102021~1.10\arm-none-eabi\include\c++\10.3.1\arm-none-eabi\thumb\v7e-m+fp\hard\bits\gthr-default.h **** }
 221:c:\progra~2\gnuarm~1\102021~1.10\arm-none-eabi\include\c++\10.3.1\arm-none-eabi\thumb\v7e-m+fp\hard\bits\gthr-default.h **** 
 222:c:\progra~2\gnuarm~1\102021~1.10\arm-none-eabi\include\c++\10.3.1\arm-none-eabi\thumb\v7e-m+fp\hard\bits\gthr-default.h **** static inline int _GLIBCXX_UNUSED
 223:c:\progra~2\gnuarm~1\102021~1.10\arm-none-eabi\include\c++\10.3.1\arm-none-eabi\thumb\v7e-m+fp\hard\bits\gthr-default.h **** __gthread_key_create (__gthread_key_t *__key _GLIBCXX_UNUSED, void (*__func) (void *) _GLIBCXX_UNUS
 224:c:\progra~2\gnuarm~1\102021~1.10\arm-none-eabi\include\c++\10.3.1\arm-none-eabi\thumb\v7e-m+fp\hard\bits\gthr-default.h **** {
 225:c:\progra~2\gnuarm~1\102021~1.10\arm-none-eabi\include\c++\10.3.1\arm-none-eabi\thumb\v7e-m+fp\hard\bits\gthr-default.h ****   return 0;
 226:c:\progra~2\gnuarm~1\102021~1.10\arm-none-eabi\include\c++\10.3.1\arm-none-eabi\thumb\v7e-m+fp\hard\bits\gthr-default.h **** }
 227:c:\progra~2\gnuarm~1\102021~1.10\arm-none-eabi\include\c++\10.3.1\arm-none-eabi\thumb\v7e-m+fp\hard\bits\gthr-default.h **** 
 228:c:\progra~2\gnuarm~1\102021~1.10\arm-none-eabi\include\c++\10.3.1\arm-none-eabi\thumb\v7e-m+fp\hard\bits\gthr-default.h **** static int _GLIBCXX_UNUSED
 229:c:\progra~2\gnuarm~1\102021~1.10\arm-none-eabi\include\c++\10.3.1\arm-none-eabi\thumb\v7e-m+fp\hard\bits\gthr-default.h **** __gthread_key_delete (__gthread_key_t __key _GLIBCXX_UNUSED)
 230:c:\progra~2\gnuarm~1\102021~1.10\arm-none-eabi\include\c++\10.3.1\arm-none-eabi\thumb\v7e-m+fp\hard\bits\gthr-default.h **** {
  34              	 .loc 1 230 1
  35              	 .cfi_startproc
  36              	 
  37              	 
  38              	 
  39 0000 80B4     	 push {r7}
  40              	 .cfi_def_cfa_offset 4
  41              	 .cfi_offset 7,-4
  42 0002 83B0     	 sub sp,sp,#12
  43              	 .cfi_def_cfa_offset 16
  44 0004 00AF     	 add r7,sp,#0
  45              	 .cfi_def_cfa_register 7
  46 0006 7860     	 str r0,[r7,#4]
 231:c:\progra~2\gnuarm~1\102021~1.10\arm-none-eabi\include\c++\10.3.1\arm-none-eabi\thumb\v7e-m+fp\hard\bits\gthr-default.h ****   return 0;
  47              	 .loc 1 231 10
  48 0008 0023     	 movs r3,#0
 232:c:\progra~2\gnuarm~1\102021~1.10\arm-none-eabi\include\c++\10.3.1\arm-none-eabi\thumb\v7e-m+fp\hard\bits\gthr-default.h **** }
  49              	 .loc 1 232 1
  50 000a 1846     	 mov r0,r3
  51 000c 0C37     	 adds r7,r7,#12
  52              	 .cfi_def_cfa_offset 4
  53 000e BD46     	 mov sp,r7
ARM GAS   			page 6


  54              	 .cfi_def_cfa_register 13
  55              	 
  56 0010 5DF8047B 	 ldr r7,[sp],#4
  57              	 .cfi_restore 7
  58              	 .cfi_def_cfa_offset 0
  59 0014 7047     	 bx lr
  60              	 .cfi_endproc
  61              	.LFE652:
  62              	 .size _ZL20__gthread_key_deletei,.-_ZL20__gthread_key_deletei
  63              	 .section .rodata
  64              	 .align 2
  65              	.LC0:
  66 0000 68616E64 	 .ascii "handle != NULL\000"
  66      6C652021 
  66      3D204E55 
  66      4C4C00
  67 000f 00       	 .align 2
  68              	.LC1:
  69 0010 6370705F 	 .ascii "cpp_freertos::Timer::Timer(const char*, TickType_t,"
  69      66726565 
  69      72746F73 
  69      3A3A5469 
  69      6D65723A 
  70 0043 20626F6F 	 .ascii " bool)\000"
  70      6C2900
  71 004a 0000     	 .align 2
  72              	.LC2:
  73 004c 433A5C55 	 .ascii "C:\\Users\\niels\\Documents\\Elektrotechniek\\Jaar "
  73      73657273 
  73      5C6E6965 
  73      6C735C44 
  73      6F63756D 
  74 007a 335C6473 	 .ascii "3\\dspl\\software\\STM32Basis\\HAL\\gemeenschappeli"
  74      706C5C73 
  74      6F667477 
  74      6172655C 
  74      53544D33 
  75 00a8 6A6B5C54 	 .ascii "jk\\Third_Party\\freertos-addons-1.1.0\\c++\\Source"
  75      68697264 
  75      5F506172 
  75      74795C66 
  75      72656572 
  76 00d7 5C637469 	 .ascii "\\ctimer.cpp\000"
  76      6D65722E 
  76      63707000 
  77              	 .section .text._ZN12cpp_freertos5TimerC2EPKcmb,"ax",%progbits
  78              	 .align 1
  79              	 .global _ZN12cpp_freertos5TimerC2EPKcmb
  80              	 .syntax unified
  81              	 .thumb
  82              	 .thumb_func
  83              	 .type _ZN12cpp_freertos5TimerC2EPKcmb,%function
  84              	_ZN12cpp_freertos5TimerC2EPKcmb:
  85              	.LFB1030:
  86              	 .file 2 "C:\\Users\\niels\\Documents\\Elektrotechniek\\Jaar 3\\dspl\\software\\STM32Basis\\HAL\\gemeenschappelijk\\Third_Party\\freertos-addons-1.1.0\\c++\\Source\\ctimer.cpp"
   1:C:\Users\niels\Documents\Elektrotechniek\Jaar 3\dspl\software\STM32Basis\HAL\gemeenschappelijk\Third_Party\freertos-addons-1.1.0\c++\Source\ctimer.cpp **** /****************************************************************************
   2:C:\Users\niels\Documents\Elektrotechniek\Jaar 3\dspl\software\STM32Basis\HAL\gemeenschappelijk\Third_Party\freertos-addons-1.1.0\c++\Source\ctimer.cpp ****  *
ARM GAS   			page 7


   3:C:\Users\niels\Documents\Elektrotechniek\Jaar 3\dspl\software\STM32Basis\HAL\gemeenschappelijk\Third_Party\freertos-addons-1.1.0\c++\Source\ctimer.cpp ****  *  Copyright (c) 2016, Michael Becker (michael.f.becker@gmail.com)
   4:C:\Users\niels\Documents\Elektrotechniek\Jaar 3\dspl\software\STM32Basis\HAL\gemeenschappelijk\Third_Party\freertos-addons-1.1.0\c++\Source\ctimer.cpp ****  *
   5:C:\Users\niels\Documents\Elektrotechniek\Jaar 3\dspl\software\STM32Basis\HAL\gemeenschappelijk\Third_Party\freertos-addons-1.1.0\c++\Source\ctimer.cpp ****  *  This file is part of the FreeRTOS C++ Wrappers project.
   6:C:\Users\niels\Documents\Elektrotechniek\Jaar 3\dspl\software\STM32Basis\HAL\gemeenschappelijk\Third_Party\freertos-addons-1.1.0\c++\Source\ctimer.cpp ****  *
   7:C:\Users\niels\Documents\Elektrotechniek\Jaar 3\dspl\software\STM32Basis\HAL\gemeenschappelijk\Third_Party\freertos-addons-1.1.0\c++\Source\ctimer.cpp ****  *  The FreeRTOS C++ Wrappers project is free software: you can redistribute
   8:C:\Users\niels\Documents\Elektrotechniek\Jaar 3\dspl\software\STM32Basis\HAL\gemeenschappelijk\Third_Party\freertos-addons-1.1.0\c++\Source\ctimer.cpp ****  *  it and/or modify it under the terms of the GNU General Public License as
   9:C:\Users\niels\Documents\Elektrotechniek\Jaar 3\dspl\software\STM32Basis\HAL\gemeenschappelijk\Third_Party\freertos-addons-1.1.0\c++\Source\ctimer.cpp ****  *  published by the Free Software Foundation, either version 2
  10:C:\Users\niels\Documents\Elektrotechniek\Jaar 3\dspl\software\STM32Basis\HAL\gemeenschappelijk\Third_Party\freertos-addons-1.1.0\c++\Source\ctimer.cpp ****  *  of the License, or (at your option) any later version.
  11:C:\Users\niels\Documents\Elektrotechniek\Jaar 3\dspl\software\STM32Basis\HAL\gemeenschappelijk\Third_Party\freertos-addons-1.1.0\c++\Source\ctimer.cpp ****  *
  12:C:\Users\niels\Documents\Elektrotechniek\Jaar 3\dspl\software\STM32Basis\HAL\gemeenschappelijk\Third_Party\freertos-addons-1.1.0\c++\Source\ctimer.cpp ****  *  The FreeRTOS C++ Wrappers project is distributed in the hope that it will
  13:C:\Users\niels\Documents\Elektrotechniek\Jaar 3\dspl\software\STM32Basis\HAL\gemeenschappelijk\Third_Party\freertos-addons-1.1.0\c++\Source\ctimer.cpp ****  *  be useful, but WITHOUT ANY WARRANTY; without even the implied warranty of
  14:C:\Users\niels\Documents\Elektrotechniek\Jaar 3\dspl\software\STM32Basis\HAL\gemeenschappelijk\Third_Party\freertos-addons-1.1.0\c++\Source\ctimer.cpp ****  *  MERCHANTABILITY or FITNESS FOR A PARTICULAR PURPOSE.  See the
  15:C:\Users\niels\Documents\Elektrotechniek\Jaar 3\dspl\software\STM32Basis\HAL\gemeenschappelijk\Third_Party\freertos-addons-1.1.0\c++\Source\ctimer.cpp ****  *  GNU General Public License for more details.
  16:C:\Users\niels\Documents\Elektrotechniek\Jaar 3\dspl\software\STM32Basis\HAL\gemeenschappelijk\Third_Party\freertos-addons-1.1.0\c++\Source\ctimer.cpp ****  *
  17:C:\Users\niels\Documents\Elektrotechniek\Jaar 3\dspl\software\STM32Basis\HAL\gemeenschappelijk\Third_Party\freertos-addons-1.1.0\c++\Source\ctimer.cpp ****  *  You should have received a copy of the GNU General Public License
  18:C:\Users\niels\Documents\Elektrotechniek\Jaar 3\dspl\software\STM32Basis\HAL\gemeenschappelijk\Third_Party\freertos-addons-1.1.0\c++\Source\ctimer.cpp ****  *  along with the FreeRTOS C++ Wrappers project.
  19:C:\Users\niels\Documents\Elektrotechniek\Jaar 3\dspl\software\STM32Basis\HAL\gemeenschappelijk\Third_Party\freertos-addons-1.1.0\c++\Source\ctimer.cpp ****  *  If not, see <http://www.gnu.org/licenses/>.
  20:C:\Users\niels\Documents\Elektrotechniek\Jaar 3\dspl\software\STM32Basis\HAL\gemeenschappelijk\Third_Party\freertos-addons-1.1.0\c++\Source\ctimer.cpp ****  *
  21:C:\Users\niels\Documents\Elektrotechniek\Jaar 3\dspl\software\STM32Basis\HAL\gemeenschappelijk\Third_Party\freertos-addons-1.1.0\c++\Source\ctimer.cpp ****  ***************************************************************************/
  22:C:\Users\niels\Documents\Elektrotechniek\Jaar 3\dspl\software\STM32Basis\HAL\gemeenschappelijk\Third_Party\freertos-addons-1.1.0\c++\Source\ctimer.cpp **** #include <assert.h>
  23:C:\Users\niels\Documents\Elektrotechniek\Jaar 3\dspl\software\STM32Basis\HAL\gemeenschappelijk\Third_Party\freertos-addons-1.1.0\c++\Source\ctimer.cpp **** #include "timer.hpp"
  24:C:\Users\niels\Documents\Elektrotechniek\Jaar 3\dspl\software\STM32Basis\HAL\gemeenschappelijk\Third_Party\freertos-addons-1.1.0\c++\Source\ctimer.cpp **** 
  25:C:\Users\niels\Documents\Elektrotechniek\Jaar 3\dspl\software\STM32Basis\HAL\gemeenschappelijk\Third_Party\freertos-addons-1.1.0\c++\Source\ctimer.cpp **** 
  26:C:\Users\niels\Documents\Elektrotechniek\Jaar 3\dspl\software\STM32Basis\HAL\gemeenschappelijk\Third_Party\freertos-addons-1.1.0\c++\Source\ctimer.cpp **** using namespace cpp_freertos;
  27:C:\Users\niels\Documents\Elektrotechniek\Jaar 3\dspl\software\STM32Basis\HAL\gemeenschappelijk\Third_Party\freertos-addons-1.1.0\c++\Source\ctimer.cpp **** 
  28:C:\Users\niels\Documents\Elektrotechniek\Jaar 3\dspl\software\STM32Basis\HAL\gemeenschappelijk\Third_Party\freertos-addons-1.1.0\c++\Source\ctimer.cpp **** 
  29:C:\Users\niels\Documents\Elektrotechniek\Jaar 3\dspl\software\STM32Basis\HAL\gemeenschappelijk\Third_Party\freertos-addons-1.1.0\c++\Source\ctimer.cpp **** Timer::Timer(   const char * const TimerName,
  87              	 .loc 2 29 1
  88              	 .cfi_startproc
  89              	 
  90              	 
  91 0000 80B5     	 push {r7,lr}
  92              	 .cfi_def_cfa_offset 8
  93              	 .cfi_offset 7,-8
  94              	 .cfi_offset 14,-4
  95 0002 86B0     	 sub sp,sp,#24
  96              	 .cfi_def_cfa_offset 32
  97 0004 02AF     	 add r7,sp,#8
  98              	 .cfi_def_cfa 7,24
  99 0006 F860     	 str r0,[r7,#12]
 100 0008 B960     	 str r1,[r7,#8]
 101 000a 7A60     	 str r2,[r7,#4]
 102 000c FB70     	 strb r3,[r7,#3]
 103              	.LBB2:
  30:C:\Users\niels\Documents\Elektrotechniek\Jaar 3\dspl\software\STM32Basis\HAL\gemeenschappelijk\Third_Party\freertos-addons-1.1.0\c++\Source\ctimer.cpp ****                 TickType_t PeriodInTicks,
  31:C:\Users\niels\Documents\Elektrotechniek\Jaar 3\dspl\software\STM32Basis\HAL\gemeenschappelijk\Third_Party\freertos-addons-1.1.0\c++\Source\ctimer.cpp ****                 bool Periodic
  32:C:\Users\niels\Documents\Elektrotechniek\Jaar 3\dspl\software\STM32Basis\HAL\gemeenschappelijk\Third_Party\freertos-addons-1.1.0\c++\Source\ctimer.cpp ****                 )
 104              	 .loc 2 32 17
 105 000e 114A     	 ldr r2,.L8
 106 0010 FB68     	 ldr r3,[r7,#12]
 107 0012 1A60     	 str r2,[r3]
  33:C:\Users\niels\Documents\Elektrotechniek\Jaar 3\dspl\software\STM32Basis\HAL\gemeenschappelijk\Third_Party\freertos-addons-1.1.0\c++\Source\ctimer.cpp **** {
  34:C:\Users\niels\Documents\Elektrotechniek\Jaar 3\dspl\software\STM32Basis\HAL\gemeenschappelijk\Third_Party\freertos-addons-1.1.0\c++\Source\ctimer.cpp ****     handle = xTimerCreate(  TimerName,
 108              	 .loc 2 34 26
 109 0014 FB78     	 ldrb r3,[r7,#3]
 110 0016 002B     	 cmp r3,#0
 111 0018 01D0     	 beq .L4
ARM GAS   			page 8


 112              	 .loc 2 34 26 is_stmt 0 discriminator 1
 113 001a 0122     	 movs r2,#1
 114 001c 00E0     	 b .L5
 115              	.L4:
 116              	 .loc 2 34 26 discriminator 2
 117 001e 0022     	 movs r2,#0
 118              	.L5:
 119              	 .loc 2 34 26 discriminator 4
 120 0020 0D4B     	 ldr r3,.L8+4
 121 0022 0093     	 str r3,[sp]
 122 0024 FB68     	 ldr r3,[r7,#12]
 123 0026 7968     	 ldr r1,[r7,#4]
 124 0028 B868     	 ldr r0,[r7,#8]
 125 002a FFF7FEFF 	 bl xTimerCreate
 126 002e 0246     	 mov r2,r0
 127              	 .loc 2 34 12 is_stmt 1 discriminator 4
 128 0030 FB68     	 ldr r3,[r7,#12]
 129 0032 5A60     	 str r2,[r3,#4]
  35:C:\Users\niels\Documents\Elektrotechniek\Jaar 3\dspl\software\STM32Basis\HAL\gemeenschappelijk\Third_Party\freertos-addons-1.1.0\c++\Source\ctimer.cpp ****                             PeriodInTicks,
  36:C:\Users\niels\Documents\Elektrotechniek\Jaar 3\dspl\software\STM32Basis\HAL\gemeenschappelijk\Third_Party\freertos-addons-1.1.0\c++\Source\ctimer.cpp ****                             Periodic ? pdTRUE : pdFALSE,
  37:C:\Users\niels\Documents\Elektrotechniek\Jaar 3\dspl\software\STM32Basis\HAL\gemeenschappelijk\Third_Party\freertos-addons-1.1.0\c++\Source\ctimer.cpp ****                             this,
  38:C:\Users\niels\Documents\Elektrotechniek\Jaar 3\dspl\software\STM32Basis\HAL\gemeenschappelijk\Third_Party\freertos-addons-1.1.0\c++\Source\ctimer.cpp ****                             TimerCallbackFunctionAdapter);
  39:C:\Users\niels\Documents\Elektrotechniek\Jaar 3\dspl\software\STM32Basis\HAL\gemeenschappelijk\Third_Party\freertos-addons-1.1.0\c++\Source\ctimer.cpp **** 
  40:C:\Users\niels\Documents\Elektrotechniek\Jaar 3\dspl\software\STM32Basis\HAL\gemeenschappelijk\Third_Party\freertos-addons-1.1.0\c++\Source\ctimer.cpp ****     assert(handle != NULL);
 130              	 .loc 2 40 5 discriminator 4
 131 0034 FB68     	 ldr r3,[r7,#12]
 132 0036 5B68     	 ldr r3,[r3,#4]
 133 0038 002B     	 cmp r3,#0
 134 003a 05D1     	 bne .L6
 135              	 .loc 2 40 5 is_stmt 0 discriminator 1
 136 003c 074B     	 ldr r3,.L8+8
 137 003e 084A     	 ldr r2,.L8+12
 138 0040 2821     	 movs r1,#40
 139 0042 0848     	 ldr r0,.L8+16
 140 0044 FFF7FEFF 	 bl __assert_func
 141              	.L6:
 142              	.LBE2:
  41:C:\Users\niels\Documents\Elektrotechniek\Jaar 3\dspl\software\STM32Basis\HAL\gemeenschappelijk\Third_Party\freertos-addons-1.1.0\c++\Source\ctimer.cpp **** }
 143              	 .loc 2 41 1 is_stmt 1
 144 0048 FB68     	 ldr r3,[r7,#12]
 145 004a 1846     	 mov r0,r3
 146 004c 1037     	 adds r7,r7,#16
 147              	 .cfi_def_cfa_offset 8
 148 004e BD46     	 mov sp,r7
 149              	 .cfi_def_cfa_register 13
 150              	 
 151 0050 80BD     	 pop {r7,pc}
 152              	.L9:
 153 0052 00BF     	 .align 2
 154              	.L8:
 155 0054 08000000 	 .word _ZTVN12cpp_freertos5TimerE+8
 156 0058 00000000 	 .word _ZN12cpp_freertos5Timer28TimerCallbackFunctionAdapterEPv
 157 005c 00000000 	 .word .LC0
 158 0060 10000000 	 .word .LC1
 159 0064 4C000000 	 .word .LC2
 160              	 .cfi_endproc
 161              	.LFE1030:
ARM GAS   			page 9


 162              	 .size _ZN12cpp_freertos5TimerC2EPKcmb,.-_ZN12cpp_freertos5TimerC2EPKcmb
 163              	 .global _ZN12cpp_freertos5TimerC1EPKcmb
 164              	 .thumb_set _ZN12cpp_freertos5TimerC1EPKcmb,_ZN12cpp_freertos5TimerC2EPKcmb
 165              	 .section .rodata
 166 00e3 00       	 .align 2
 167              	.LC3:
 168 00e4 44656661 	 .ascii "Default\000"
 168      756C7400 
 169              	 .align 2
 170              	.LC4:
 171 00ec 6370705F 	 .ascii "cpp_freertos::Timer::Timer(TickType_t, bool)\000"
 171      66726565 
 171      72746F73 
 171      3A3A5469 
 171      6D65723A 
 172              	 .section .text._ZN12cpp_freertos5TimerC2Emb,"ax",%progbits
 173              	 .align 1
 174              	 .global _ZN12cpp_freertos5TimerC2Emb
 175              	 .syntax unified
 176              	 .thumb
 177              	 .thumb_func
 178              	 .type _ZN12cpp_freertos5TimerC2Emb,%function
 179              	_ZN12cpp_freertos5TimerC2Emb:
 180              	.LFB1033:
  42:C:\Users\niels\Documents\Elektrotechniek\Jaar 3\dspl\software\STM32Basis\HAL\gemeenschappelijk\Third_Party\freertos-addons-1.1.0\c++\Source\ctimer.cpp **** 
  43:C:\Users\niels\Documents\Elektrotechniek\Jaar 3\dspl\software\STM32Basis\HAL\gemeenschappelijk\Third_Party\freertos-addons-1.1.0\c++\Source\ctimer.cpp **** 
  44:C:\Users\niels\Documents\Elektrotechniek\Jaar 3\dspl\software\STM32Basis\HAL\gemeenschappelijk\Third_Party\freertos-addons-1.1.0\c++\Source\ctimer.cpp **** Timer::Timer(   TickType_t PeriodInTicks,
 181              	 .loc 2 44 1
 182              	 .cfi_startproc
 183              	 
 184              	 
 185 0000 80B5     	 push {r7,lr}
 186              	 .cfi_def_cfa_offset 8
 187              	 .cfi_offset 7,-8
 188              	 .cfi_offset 14,-4
 189 0002 86B0     	 sub sp,sp,#24
 190              	 .cfi_def_cfa_offset 32
 191 0004 02AF     	 add r7,sp,#8
 192              	 .cfi_def_cfa 7,24
 193 0006 F860     	 str r0,[r7,#12]
 194 0008 B960     	 str r1,[r7,#8]
 195 000a 1346     	 mov r3,r2
 196 000c FB71     	 strb r3,[r7,#7]
 197              	.LBB3:
  45:C:\Users\niels\Documents\Elektrotechniek\Jaar 3\dspl\software\STM32Basis\HAL\gemeenschappelijk\Third_Party\freertos-addons-1.1.0\c++\Source\ctimer.cpp ****                 bool Periodic
  46:C:\Users\niels\Documents\Elektrotechniek\Jaar 3\dspl\software\STM32Basis\HAL\gemeenschappelijk\Third_Party\freertos-addons-1.1.0\c++\Source\ctimer.cpp ****                 )
 198              	 .loc 2 46 17
 199 000e 114A     	 ldr r2,.L15
 200 0010 FB68     	 ldr r3,[r7,#12]
 201 0012 1A60     	 str r2,[r3]
  47:C:\Users\niels\Documents\Elektrotechniek\Jaar 3\dspl\software\STM32Basis\HAL\gemeenschappelijk\Third_Party\freertos-addons-1.1.0\c++\Source\ctimer.cpp **** {
  48:C:\Users\niels\Documents\Elektrotechniek\Jaar 3\dspl\software\STM32Basis\HAL\gemeenschappelijk\Third_Party\freertos-addons-1.1.0\c++\Source\ctimer.cpp ****     handle = xTimerCreate(  "Default",
 202              	 .loc 2 48 26
 203 0014 FB79     	 ldrb r3,[r7,#7]
 204 0016 002B     	 cmp r3,#0
 205 0018 01D0     	 beq .L11
 206              	 .loc 2 48 26 is_stmt 0 discriminator 1
ARM GAS   			page 10


 207 001a 0122     	 movs r2,#1
 208 001c 00E0     	 b .L12
 209              	.L11:
 210              	 .loc 2 48 26 discriminator 2
 211 001e 0022     	 movs r2,#0
 212              	.L12:
 213              	 .loc 2 48 26 discriminator 4
 214 0020 0D4B     	 ldr r3,.L15+4
 215 0022 0093     	 str r3,[sp]
 216 0024 FB68     	 ldr r3,[r7,#12]
 217 0026 B968     	 ldr r1,[r7,#8]
 218 0028 0C48     	 ldr r0,.L15+8
 219 002a FFF7FEFF 	 bl xTimerCreate
 220 002e 0246     	 mov r2,r0
 221              	 .loc 2 48 12 is_stmt 1 discriminator 4
 222 0030 FB68     	 ldr r3,[r7,#12]
 223 0032 5A60     	 str r2,[r3,#4]
  49:C:\Users\niels\Documents\Elektrotechniek\Jaar 3\dspl\software\STM32Basis\HAL\gemeenschappelijk\Third_Party\freertos-addons-1.1.0\c++\Source\ctimer.cpp ****                             PeriodInTicks,
  50:C:\Users\niels\Documents\Elektrotechniek\Jaar 3\dspl\software\STM32Basis\HAL\gemeenschappelijk\Third_Party\freertos-addons-1.1.0\c++\Source\ctimer.cpp ****                             Periodic ? pdTRUE : pdFALSE,
  51:C:\Users\niels\Documents\Elektrotechniek\Jaar 3\dspl\software\STM32Basis\HAL\gemeenschappelijk\Third_Party\freertos-addons-1.1.0\c++\Source\ctimer.cpp ****                             this,
  52:C:\Users\niels\Documents\Elektrotechniek\Jaar 3\dspl\software\STM32Basis\HAL\gemeenschappelijk\Third_Party\freertos-addons-1.1.0\c++\Source\ctimer.cpp ****                             TimerCallbackFunctionAdapter);
  53:C:\Users\niels\Documents\Elektrotechniek\Jaar 3\dspl\software\STM32Basis\HAL\gemeenschappelijk\Third_Party\freertos-addons-1.1.0\c++\Source\ctimer.cpp **** 
  54:C:\Users\niels\Documents\Elektrotechniek\Jaar 3\dspl\software\STM32Basis\HAL\gemeenschappelijk\Third_Party\freertos-addons-1.1.0\c++\Source\ctimer.cpp ****     assert(handle != NULL);
 224              	 .loc 2 54 5 discriminator 4
 225 0034 FB68     	 ldr r3,[r7,#12]
 226 0036 5B68     	 ldr r3,[r3,#4]
 227 0038 002B     	 cmp r3,#0
 228 003a 05D1     	 bne .L13
 229              	 .loc 2 54 5 is_stmt 0 discriminator 1
 230 003c 084B     	 ldr r3,.L15+12
 231 003e 094A     	 ldr r2,.L15+16
 232 0040 3621     	 movs r1,#54
 233 0042 0948     	 ldr r0,.L15+20
 234 0044 FFF7FEFF 	 bl __assert_func
 235              	.L13:
 236              	.LBE3:
  55:C:\Users\niels\Documents\Elektrotechniek\Jaar 3\dspl\software\STM32Basis\HAL\gemeenschappelijk\Third_Party\freertos-addons-1.1.0\c++\Source\ctimer.cpp **** }
 237              	 .loc 2 55 1 is_stmt 1
 238 0048 FB68     	 ldr r3,[r7,#12]
 239 004a 1846     	 mov r0,r3
 240 004c 1037     	 adds r7,r7,#16
 241              	 .cfi_def_cfa_offset 8
 242 004e BD46     	 mov sp,r7
 243              	 .cfi_def_cfa_register 13
 244              	 
 245 0050 80BD     	 pop {r7,pc}
 246              	.L16:
 247 0052 00BF     	 .align 2
 248              	.L15:
 249 0054 08000000 	 .word _ZTVN12cpp_freertos5TimerE+8
 250 0058 00000000 	 .word _ZN12cpp_freertos5Timer28TimerCallbackFunctionAdapterEPv
 251 005c E4000000 	 .word .LC3
 252 0060 00000000 	 .word .LC0
 253 0064 EC000000 	 .word .LC4
 254 0068 4C000000 	 .word .LC2
 255              	 .cfi_endproc
 256              	.LFE1033:
ARM GAS   			page 11


 257              	 .size _ZN12cpp_freertos5TimerC2Emb,.-_ZN12cpp_freertos5TimerC2Emb
 258              	 .global _ZN12cpp_freertos5TimerC1Emb
 259              	 .thumb_set _ZN12cpp_freertos5TimerC1Emb,_ZN12cpp_freertos5TimerC2Emb
 260              	 .section .text._ZN12cpp_freertos5TimerD2Ev,"ax",%progbits
 261              	 .align 1
 262              	 .global _ZN12cpp_freertos5TimerD2Ev
 263              	 .syntax unified
 264              	 .thumb
 265              	 .thumb_func
 266              	 .type _ZN12cpp_freertos5TimerD2Ev,%function
 267              	_ZN12cpp_freertos5TimerD2Ev:
 268              	.LFB1036:
  56:C:\Users\niels\Documents\Elektrotechniek\Jaar 3\dspl\software\STM32Basis\HAL\gemeenschappelijk\Third_Party\freertos-addons-1.1.0\c++\Source\ctimer.cpp **** 
  57:C:\Users\niels\Documents\Elektrotechniek\Jaar 3\dspl\software\STM32Basis\HAL\gemeenschappelijk\Third_Party\freertos-addons-1.1.0\c++\Source\ctimer.cpp **** 
  58:C:\Users\niels\Documents\Elektrotechniek\Jaar 3\dspl\software\STM32Basis\HAL\gemeenschappelijk\Third_Party\freertos-addons-1.1.0\c++\Source\ctimer.cpp **** Timer::~Timer()
 269              	 .loc 2 58 1
 270              	 .cfi_startproc
 271              	 
 272              	 
 273 0000 80B5     	 push {r7,lr}
 274              	 .cfi_def_cfa_offset 8
 275              	 .cfi_offset 7,-8
 276              	 .cfi_offset 14,-4
 277 0002 84B0     	 sub sp,sp,#16
 278              	 .cfi_def_cfa_offset 24
 279 0004 02AF     	 add r7,sp,#8
 280              	 .cfi_def_cfa 7,16
 281 0006 7860     	 str r0,[r7,#4]
 282              	.LBB4:
 283              	 .loc 2 58 15
 284 0008 084A     	 ldr r2,.L19
 285 000a 7B68     	 ldr r3,[r7,#4]
 286 000c 1A60     	 str r2,[r3]
  59:C:\Users\niels\Documents\Elektrotechniek\Jaar 3\dspl\software\STM32Basis\HAL\gemeenschappelijk\Third_Party\freertos-addons-1.1.0\c++\Source\ctimer.cpp **** {
  60:C:\Users\niels\Documents\Elektrotechniek\Jaar 3\dspl\software\STM32Basis\HAL\gemeenschappelijk\Third_Party\freertos-addons-1.1.0\c++\Source\ctimer.cpp ****     xTimerDelete(handle, portMAX_DELAY);
 287              	 .loc 2 60 5
 288 000e 7B68     	 ldr r3,[r7,#4]
 289 0010 5868     	 ldr r0,[r3,#4]
 290 0012 4FF0FF33 	 mov r3,#-1
 291 0016 0093     	 str r3,[sp]
 292 0018 0023     	 movs r3,#0
 293 001a 0022     	 movs r2,#0
 294 001c 0521     	 movs r1,#5
 295 001e FFF7FEFF 	 bl xTimerGenericCommand
 296              	.LBE4:
  61:C:\Users\niels\Documents\Elektrotechniek\Jaar 3\dspl\software\STM32Basis\HAL\gemeenschappelijk\Third_Party\freertos-addons-1.1.0\c++\Source\ctimer.cpp **** }
 297              	 .loc 2 61 1
 298 0022 7B68     	 ldr r3,[r7,#4]
 299 0024 1846     	 mov r0,r3
 300 0026 0837     	 adds r7,r7,#8
 301              	 .cfi_def_cfa_offset 8
 302 0028 BD46     	 mov sp,r7
 303              	 .cfi_def_cfa_register 13
 304              	 
 305 002a 80BD     	 pop {r7,pc}
 306              	.L20:
 307              	 .align 2
ARM GAS   			page 12


 308              	.L19:
 309 002c 08000000 	 .word _ZTVN12cpp_freertos5TimerE+8
 310              	 .cfi_endproc
 311              	.LFE1036:
 312              	 .size _ZN12cpp_freertos5TimerD2Ev,.-_ZN12cpp_freertos5TimerD2Ev
 313              	 .global _ZN12cpp_freertos5TimerD1Ev
 314              	 .thumb_set _ZN12cpp_freertos5TimerD1Ev,_ZN12cpp_freertos5TimerD2Ev
 315              	 .section .text._ZN12cpp_freertos5TimerD0Ev,"ax",%progbits
 316              	 .align 1
 317              	 .global _ZN12cpp_freertos5TimerD0Ev
 318              	 .syntax unified
 319              	 .thumb
 320              	 .thumb_func
 321              	 .type _ZN12cpp_freertos5TimerD0Ev,%function
 322              	_ZN12cpp_freertos5TimerD0Ev:
 323              	.LFB1038:
  58:C:\Users\niels\Documents\Elektrotechniek\Jaar 3\dspl\software\STM32Basis\HAL\gemeenschappelijk\Third_Party\freertos-addons-1.1.0\c++\Source\ctimer.cpp **** {
 324              	 .loc 2 58 1
 325              	 .cfi_startproc
 326              	 
 327              	 
 328 0000 80B5     	 push {r7,lr}
 329              	 .cfi_def_cfa_offset 8
 330              	 .cfi_offset 7,-8
 331              	 .cfi_offset 14,-4
 332 0002 82B0     	 sub sp,sp,#8
 333              	 .cfi_def_cfa_offset 16
 334 0004 00AF     	 add r7,sp,#0
 335              	 .cfi_def_cfa_register 7
 336 0006 7860     	 str r0,[r7,#4]
 337              	 .loc 2 61 1
 338 0008 7868     	 ldr r0,[r7,#4]
 339 000a FFF7FEFF 	 bl _ZN12cpp_freertos5TimerD1Ev
 340 000e 0821     	 movs r1,#8
 341 0010 7868     	 ldr r0,[r7,#4]
 342 0012 FFF7FEFF 	 bl _ZdlPvj
 343 0016 7B68     	 ldr r3,[r7,#4]
 344 0018 1846     	 mov r0,r3
 345 001a 0837     	 adds r7,r7,#8
 346              	 .cfi_def_cfa_offset 8
 347 001c BD46     	 mov sp,r7
 348              	 .cfi_def_cfa_register 13
 349              	 
 350 001e 80BD     	 pop {r7,pc}
 351              	 .cfi_endproc
 352              	.LFE1038:
 353              	 .size _ZN12cpp_freertos5TimerD0Ev,.-_ZN12cpp_freertos5TimerD0Ev
 354              	 .section .text._ZN12cpp_freertos5Timer8IsActiveEv,"ax",%progbits
 355              	 .align 1
 356              	 .global _ZN12cpp_freertos5Timer8IsActiveEv
 357              	 .syntax unified
 358              	 .thumb
 359              	 .thumb_func
 360              	 .type _ZN12cpp_freertos5Timer8IsActiveEv,%function
 361              	_ZN12cpp_freertos5Timer8IsActiveEv:
 362              	.LFB1039:
  62:C:\Users\niels\Documents\Elektrotechniek\Jaar 3\dspl\software\STM32Basis\HAL\gemeenschappelijk\Third_Party\freertos-addons-1.1.0\c++\Source\ctimer.cpp **** 
ARM GAS   			page 13


  63:C:\Users\niels\Documents\Elektrotechniek\Jaar 3\dspl\software\STM32Basis\HAL\gemeenschappelijk\Third_Party\freertos-addons-1.1.0\c++\Source\ctimer.cpp **** 
  64:C:\Users\niels\Documents\Elektrotechniek\Jaar 3\dspl\software\STM32Basis\HAL\gemeenschappelijk\Third_Party\freertos-addons-1.1.0\c++\Source\ctimer.cpp **** bool Timer::IsActive()
  65:C:\Users\niels\Documents\Elektrotechniek\Jaar 3\dspl\software\STM32Basis\HAL\gemeenschappelijk\Third_Party\freertos-addons-1.1.0\c++\Source\ctimer.cpp **** {
 363              	 .loc 2 65 1
 364              	 .cfi_startproc
 365              	 
 366              	 
 367 0000 80B5     	 push {r7,lr}
 368              	 .cfi_def_cfa_offset 8
 369              	 .cfi_offset 7,-8
 370              	 .cfi_offset 14,-4
 371 0002 82B0     	 sub sp,sp,#8
 372              	 .cfi_def_cfa_offset 16
 373 0004 00AF     	 add r7,sp,#0
 374              	 .cfi_def_cfa_register 7
 375 0006 7860     	 str r0,[r7,#4]
  66:C:\Users\niels\Documents\Elektrotechniek\Jaar 3\dspl\software\STM32Basis\HAL\gemeenschappelijk\Third_Party\freertos-addons-1.1.0\c++\Source\ctimer.cpp ****     return xTimerIsTimerActive(handle) == pdFALSE ? false : true;
 376              	 .loc 2 66 31
 377 0008 7B68     	 ldr r3,[r7,#4]
 378 000a 5B68     	 ldr r3,[r3,#4]
 379 000c 1846     	 mov r0,r3
 380 000e FFF7FEFF 	 bl xTimerIsTimerActive
 381 0012 0346     	 mov r3,r0
 382              	 .loc 2 66 61
 383 0014 002B     	 cmp r3,#0
 384 0016 14BF     	 ite ne
 385 0018 0123     	 movne r3,#1
 386 001a 0023     	 moveq r3,#0
 387 001c DBB2     	 uxtb r3,r3
  67:C:\Users\niels\Documents\Elektrotechniek\Jaar 3\dspl\software\STM32Basis\HAL\gemeenschappelijk\Third_Party\freertos-addons-1.1.0\c++\Source\ctimer.cpp **** }
 388              	 .loc 2 67 1
 389 001e 1846     	 mov r0,r3
 390 0020 0837     	 adds r7,r7,#8
 391              	 .cfi_def_cfa_offset 8
 392 0022 BD46     	 mov sp,r7
 393              	 .cfi_def_cfa_register 13
 394              	 
 395 0024 80BD     	 pop {r7,pc}
 396              	 .cfi_endproc
 397              	.LFE1039:
 398              	 .size _ZN12cpp_freertos5Timer8IsActiveEv,.-_ZN12cpp_freertos5Timer8IsActiveEv
 399              	 .section .text._ZN12cpp_freertos5Timer5StartEm,"ax",%progbits
 400              	 .align 1
 401              	 .global _ZN12cpp_freertos5Timer5StartEm
 402              	 .syntax unified
 403              	 .thumb
 404              	 .thumb_func
 405              	 .type _ZN12cpp_freertos5Timer5StartEm,%function
 406              	_ZN12cpp_freertos5Timer5StartEm:
 407              	.LFB1040:
  68:C:\Users\niels\Documents\Elektrotechniek\Jaar 3\dspl\software\STM32Basis\HAL\gemeenschappelijk\Third_Party\freertos-addons-1.1.0\c++\Source\ctimer.cpp **** 
  69:C:\Users\niels\Documents\Elektrotechniek\Jaar 3\dspl\software\STM32Basis\HAL\gemeenschappelijk\Third_Party\freertos-addons-1.1.0\c++\Source\ctimer.cpp **** 
  70:C:\Users\niels\Documents\Elektrotechniek\Jaar 3\dspl\software\STM32Basis\HAL\gemeenschappelijk\Third_Party\freertos-addons-1.1.0\c++\Source\ctimer.cpp **** bool Timer::Start(TickType_t CmdTimeout)
  71:C:\Users\niels\Documents\Elektrotechniek\Jaar 3\dspl\software\STM32Basis\HAL\gemeenschappelijk\Third_Party\freertos-addons-1.1.0\c++\Source\ctimer.cpp **** {
 408              	 .loc 2 71 1
 409              	 .cfi_startproc
 410              	 
ARM GAS   			page 14


 411              	 
 412 0000 90B5     	 push {r4,r7,lr}
 413              	 .cfi_def_cfa_offset 12
 414              	 .cfi_offset 4,-12
 415              	 .cfi_offset 7,-8
 416              	 .cfi_offset 14,-4
 417 0002 85B0     	 sub sp,sp,#20
 418              	 .cfi_def_cfa_offset 32
 419 0004 02AF     	 add r7,sp,#8
 420              	 .cfi_def_cfa 7,24
 421 0006 7860     	 str r0,[r7,#4]
 422 0008 3960     	 str r1,[r7]
  72:C:\Users\niels\Documents\Elektrotechniek\Jaar 3\dspl\software\STM32Basis\HAL\gemeenschappelijk\Third_Party\freertos-addons-1.1.0\c++\Source\ctimer.cpp ****     return xTimerStart(handle, CmdTimeout) == pdFALSE ? false : true;
 423              	 .loc 2 72 12
 424 000a 7B68     	 ldr r3,[r7,#4]
 425 000c 5C68     	 ldr r4,[r3,#4]
 426 000e FFF7FEFF 	 bl xTaskGetTickCount
 427 0012 0246     	 mov r2,r0
 428 0014 3B68     	 ldr r3,[r7]
 429 0016 0093     	 str r3,[sp]
 430 0018 0023     	 movs r3,#0
 431 001a 0121     	 movs r1,#1
 432 001c 2046     	 mov r0,r4
 433 001e FFF7FEFF 	 bl xTimerGenericCommand
 434 0022 0346     	 mov r3,r0
 435              	 .loc 2 72 65
 436 0024 002B     	 cmp r3,#0
 437 0026 14BF     	 ite ne
 438 0028 0123     	 movne r3,#1
 439 002a 0023     	 moveq r3,#0
 440 002c DBB2     	 uxtb r3,r3
  73:C:\Users\niels\Documents\Elektrotechniek\Jaar 3\dspl\software\STM32Basis\HAL\gemeenschappelijk\Third_Party\freertos-addons-1.1.0\c++\Source\ctimer.cpp **** }
 441              	 .loc 2 73 1
 442 002e 1846     	 mov r0,r3
 443 0030 0C37     	 adds r7,r7,#12
 444              	 .cfi_def_cfa_offset 12
 445 0032 BD46     	 mov sp,r7
 446              	 .cfi_def_cfa_register 13
 447              	 
 448 0034 90BD     	 pop {r4,r7,pc}
 449              	 .cfi_endproc
 450              	.LFE1040:
 451              	 .size _ZN12cpp_freertos5Timer5StartEm,.-_ZN12cpp_freertos5Timer5StartEm
 452              	 .section .text._ZN12cpp_freertos5Timer12StartFromISREPl,"ax",%progbits
 453              	 .align 1
 454              	 .global _ZN12cpp_freertos5Timer12StartFromISREPl
 455              	 .syntax unified
 456              	 .thumb
 457              	 .thumb_func
 458              	 .type _ZN12cpp_freertos5Timer12StartFromISREPl,%function
 459              	_ZN12cpp_freertos5Timer12StartFromISREPl:
 460              	.LFB1041:
  74:C:\Users\niels\Documents\Elektrotechniek\Jaar 3\dspl\software\STM32Basis\HAL\gemeenschappelijk\Third_Party\freertos-addons-1.1.0\c++\Source\ctimer.cpp **** 
  75:C:\Users\niels\Documents\Elektrotechniek\Jaar 3\dspl\software\STM32Basis\HAL\gemeenschappelijk\Third_Party\freertos-addons-1.1.0\c++\Source\ctimer.cpp **** 
  76:C:\Users\niels\Documents\Elektrotechniek\Jaar 3\dspl\software\STM32Basis\HAL\gemeenschappelijk\Third_Party\freertos-addons-1.1.0\c++\Source\ctimer.cpp **** bool Timer::StartFromISR(BaseType_t *pxHigherPriorityTaskWoken)
  77:C:\Users\niels\Documents\Elektrotechniek\Jaar 3\dspl\software\STM32Basis\HAL\gemeenschappelijk\Third_Party\freertos-addons-1.1.0\c++\Source\ctimer.cpp **** {
 461              	 .loc 2 77 1
ARM GAS   			page 15


 462              	 .cfi_startproc
 463              	 
 464              	 
 465 0000 90B5     	 push {r4,r7,lr}
 466              	 .cfi_def_cfa_offset 12
 467              	 .cfi_offset 4,-12
 468              	 .cfi_offset 7,-8
 469              	 .cfi_offset 14,-4
 470 0002 85B0     	 sub sp,sp,#20
 471              	 .cfi_def_cfa_offset 32
 472 0004 02AF     	 add r7,sp,#8
 473              	 .cfi_def_cfa 7,24
 474 0006 7860     	 str r0,[r7,#4]
 475 0008 3960     	 str r1,[r7]
  78:C:\Users\niels\Documents\Elektrotechniek\Jaar 3\dspl\software\STM32Basis\HAL\gemeenschappelijk\Third_Party\freertos-addons-1.1.0\c++\Source\ctimer.cpp ****     return xTimerStartFromISR(handle, pxHigherPriorityTaskWoken) == pdFALSE
 476              	 .loc 2 78 12
 477 000a 7B68     	 ldr r3,[r7,#4]
 478 000c 5C68     	 ldr r4,[r3,#4]
 479 000e FFF7FEFF 	 bl xTaskGetTickCountFromISR
 480 0012 0246     	 mov r2,r0
 481 0014 0023     	 movs r3,#0
 482 0016 0093     	 str r3,[sp]
 483 0018 3B68     	 ldr r3,[r7]
 484 001a 0621     	 movs r1,#6
 485 001c 2046     	 mov r0,r4
 486 001e FFF7FEFF 	 bl xTimerGenericCommand
 487 0022 0346     	 mov r3,r0
  79:C:\Users\niels\Documents\Elektrotechniek\Jaar 3\dspl\software\STM32Basis\HAL\gemeenschappelijk\Third_Party\freertos-addons-1.1.0\c++\Source\ctimer.cpp ****             ? false : true;
 488              	 .loc 2 79 23
 489 0024 002B     	 cmp r3,#0
 490 0026 14BF     	 ite ne
 491 0028 0123     	 movne r3,#1
 492 002a 0023     	 moveq r3,#0
 493 002c DBB2     	 uxtb r3,r3
  80:C:\Users\niels\Documents\Elektrotechniek\Jaar 3\dspl\software\STM32Basis\HAL\gemeenschappelijk\Third_Party\freertos-addons-1.1.0\c++\Source\ctimer.cpp **** }
 494              	 .loc 2 80 1
 495 002e 1846     	 mov r0,r3
 496 0030 0C37     	 adds r7,r7,#12
 497              	 .cfi_def_cfa_offset 12
 498 0032 BD46     	 mov sp,r7
 499              	 .cfi_def_cfa_register 13
 500              	 
 501 0034 90BD     	 pop {r4,r7,pc}
 502              	 .cfi_endproc
 503              	.LFE1041:
 504              	 .size _ZN12cpp_freertos5Timer12StartFromISREPl,.-_ZN12cpp_freertos5Timer12StartFromISREPl
 505              	 .section .text._ZN12cpp_freertos5Timer4StopEm,"ax",%progbits
 506              	 .align 1
 507              	 .global _ZN12cpp_freertos5Timer4StopEm
 508              	 .syntax unified
 509              	 .thumb
 510              	 .thumb_func
 511              	 .type _ZN12cpp_freertos5Timer4StopEm,%function
 512              	_ZN12cpp_freertos5Timer4StopEm:
 513              	.LFB1042:
  81:C:\Users\niels\Documents\Elektrotechniek\Jaar 3\dspl\software\STM32Basis\HAL\gemeenschappelijk\Third_Party\freertos-addons-1.1.0\c++\Source\ctimer.cpp **** 
  82:C:\Users\niels\Documents\Elektrotechniek\Jaar 3\dspl\software\STM32Basis\HAL\gemeenschappelijk\Third_Party\freertos-addons-1.1.0\c++\Source\ctimer.cpp **** 
ARM GAS   			page 16


  83:C:\Users\niels\Documents\Elektrotechniek\Jaar 3\dspl\software\STM32Basis\HAL\gemeenschappelijk\Third_Party\freertos-addons-1.1.0\c++\Source\ctimer.cpp **** bool Timer::Stop(TickType_t CmdTimeout)
  84:C:\Users\niels\Documents\Elektrotechniek\Jaar 3\dspl\software\STM32Basis\HAL\gemeenschappelijk\Third_Party\freertos-addons-1.1.0\c++\Source\ctimer.cpp **** {
 514              	 .loc 2 84 1
 515              	 .cfi_startproc
 516              	 
 517              	 
 518 0000 80B5     	 push {r7,lr}
 519              	 .cfi_def_cfa_offset 8
 520              	 .cfi_offset 7,-8
 521              	 .cfi_offset 14,-4
 522 0002 84B0     	 sub sp,sp,#16
 523              	 .cfi_def_cfa_offset 24
 524 0004 02AF     	 add r7,sp,#8
 525              	 .cfi_def_cfa 7,16
 526 0006 7860     	 str r0,[r7,#4]
 527 0008 3960     	 str r1,[r7]
  85:C:\Users\niels\Documents\Elektrotechniek\Jaar 3\dspl\software\STM32Basis\HAL\gemeenschappelijk\Third_Party\freertos-addons-1.1.0\c++\Source\ctimer.cpp ****     return xTimerStop(handle, CmdTimeout) == pdFALSE ? false : true;
 528              	 .loc 2 85 12
 529 000a 7B68     	 ldr r3,[r7,#4]
 530 000c 5868     	 ldr r0,[r3,#4]
 531 000e 3B68     	 ldr r3,[r7]
 532 0010 0093     	 str r3,[sp]
 533 0012 0023     	 movs r3,#0
 534 0014 0022     	 movs r2,#0
 535 0016 0321     	 movs r1,#3
 536 0018 FFF7FEFF 	 bl xTimerGenericCommand
 537 001c 0346     	 mov r3,r0
 538              	 .loc 2 85 64
 539 001e 002B     	 cmp r3,#0
 540 0020 14BF     	 ite ne
 541 0022 0123     	 movne r3,#1
 542 0024 0023     	 moveq r3,#0
 543 0026 DBB2     	 uxtb r3,r3
  86:C:\Users\niels\Documents\Elektrotechniek\Jaar 3\dspl\software\STM32Basis\HAL\gemeenschappelijk\Third_Party\freertos-addons-1.1.0\c++\Source\ctimer.cpp **** }
 544              	 .loc 2 86 1
 545 0028 1846     	 mov r0,r3
 546 002a 0837     	 adds r7,r7,#8
 547              	 .cfi_def_cfa_offset 8
 548 002c BD46     	 mov sp,r7
 549              	 .cfi_def_cfa_register 13
 550              	 
 551 002e 80BD     	 pop {r7,pc}
 552              	 .cfi_endproc
 553              	.LFE1042:
 554              	 .size _ZN12cpp_freertos5Timer4StopEm,.-_ZN12cpp_freertos5Timer4StopEm
 555              	 .section .text._ZN12cpp_freertos5Timer11StopFromISREPl,"ax",%progbits
 556              	 .align 1
 557              	 .global _ZN12cpp_freertos5Timer11StopFromISREPl
 558              	 .syntax unified
 559              	 .thumb
 560              	 .thumb_func
 561              	 .type _ZN12cpp_freertos5Timer11StopFromISREPl,%function
 562              	_ZN12cpp_freertos5Timer11StopFromISREPl:
 563              	.LFB1043:
  87:C:\Users\niels\Documents\Elektrotechniek\Jaar 3\dspl\software\STM32Basis\HAL\gemeenschappelijk\Third_Party\freertos-addons-1.1.0\c++\Source\ctimer.cpp **** 
  88:C:\Users\niels\Documents\Elektrotechniek\Jaar 3\dspl\software\STM32Basis\HAL\gemeenschappelijk\Third_Party\freertos-addons-1.1.0\c++\Source\ctimer.cpp **** 
  89:C:\Users\niels\Documents\Elektrotechniek\Jaar 3\dspl\software\STM32Basis\HAL\gemeenschappelijk\Third_Party\freertos-addons-1.1.0\c++\Source\ctimer.cpp **** bool Timer::StopFromISR(BaseType_t *pxHigherPriorityTaskWoken)
ARM GAS   			page 17


  90:C:\Users\niels\Documents\Elektrotechniek\Jaar 3\dspl\software\STM32Basis\HAL\gemeenschappelijk\Third_Party\freertos-addons-1.1.0\c++\Source\ctimer.cpp **** {
 564              	 .loc 2 90 1
 565              	 .cfi_startproc
 566              	 
 567              	 
 568 0000 80B5     	 push {r7,lr}
 569              	 .cfi_def_cfa_offset 8
 570              	 .cfi_offset 7,-8
 571              	 .cfi_offset 14,-4
 572 0002 84B0     	 sub sp,sp,#16
 573              	 .cfi_def_cfa_offset 24
 574 0004 02AF     	 add r7,sp,#8
 575              	 .cfi_def_cfa 7,16
 576 0006 7860     	 str r0,[r7,#4]
 577 0008 3960     	 str r1,[r7]
  91:C:\Users\niels\Documents\Elektrotechniek\Jaar 3\dspl\software\STM32Basis\HAL\gemeenschappelijk\Third_Party\freertos-addons-1.1.0\c++\Source\ctimer.cpp ****     return xTimerStopFromISR(handle, pxHigherPriorityTaskWoken) == pdFALSE
 578              	 .loc 2 91 12
 579 000a 7B68     	 ldr r3,[r7,#4]
 580 000c 5868     	 ldr r0,[r3,#4]
 581 000e 0023     	 movs r3,#0
 582 0010 0093     	 str r3,[sp]
 583 0012 3B68     	 ldr r3,[r7]
 584 0014 0022     	 movs r2,#0
 585 0016 0821     	 movs r1,#8
 586 0018 FFF7FEFF 	 bl xTimerGenericCommand
 587 001c 0346     	 mov r3,r0
  92:C:\Users\niels\Documents\Elektrotechniek\Jaar 3\dspl\software\STM32Basis\HAL\gemeenschappelijk\Third_Party\freertos-addons-1.1.0\c++\Source\ctimer.cpp ****             ? false : true;
 588              	 .loc 2 92 23
 589 001e 002B     	 cmp r3,#0
 590 0020 14BF     	 ite ne
 591 0022 0123     	 movne r3,#1
 592 0024 0023     	 moveq r3,#0
 593 0026 DBB2     	 uxtb r3,r3
  93:C:\Users\niels\Documents\Elektrotechniek\Jaar 3\dspl\software\STM32Basis\HAL\gemeenschappelijk\Third_Party\freertos-addons-1.1.0\c++\Source\ctimer.cpp **** }
 594              	 .loc 2 93 1
 595 0028 1846     	 mov r0,r3
 596 002a 0837     	 adds r7,r7,#8
 597              	 .cfi_def_cfa_offset 8
 598 002c BD46     	 mov sp,r7
 599              	 .cfi_def_cfa_register 13
 600              	 
 601 002e 80BD     	 pop {r7,pc}
 602              	 .cfi_endproc
 603              	.LFE1043:
 604              	 .size _ZN12cpp_freertos5Timer11StopFromISREPl,.-_ZN12cpp_freertos5Timer11StopFromISREPl
 605              	 .section .text._ZN12cpp_freertos5Timer5ResetEm,"ax",%progbits
 606              	 .align 1
 607              	 .global _ZN12cpp_freertos5Timer5ResetEm
 608              	 .syntax unified
 609              	 .thumb
 610              	 .thumb_func
 611              	 .type _ZN12cpp_freertos5Timer5ResetEm,%function
 612              	_ZN12cpp_freertos5Timer5ResetEm:
 613              	.LFB1044:
  94:C:\Users\niels\Documents\Elektrotechniek\Jaar 3\dspl\software\STM32Basis\HAL\gemeenschappelijk\Third_Party\freertos-addons-1.1.0\c++\Source\ctimer.cpp **** 
  95:C:\Users\niels\Documents\Elektrotechniek\Jaar 3\dspl\software\STM32Basis\HAL\gemeenschappelijk\Third_Party\freertos-addons-1.1.0\c++\Source\ctimer.cpp **** 
  96:C:\Users\niels\Documents\Elektrotechniek\Jaar 3\dspl\software\STM32Basis\HAL\gemeenschappelijk\Third_Party\freertos-addons-1.1.0\c++\Source\ctimer.cpp **** bool Timer::Reset(TickType_t CmdTimeout)
ARM GAS   			page 18


  97:C:\Users\niels\Documents\Elektrotechniek\Jaar 3\dspl\software\STM32Basis\HAL\gemeenschappelijk\Third_Party\freertos-addons-1.1.0\c++\Source\ctimer.cpp **** {
 614              	 .loc 2 97 1
 615              	 .cfi_startproc
 616              	 
 617              	 
 618 0000 90B5     	 push {r4,r7,lr}
 619              	 .cfi_def_cfa_offset 12
 620              	 .cfi_offset 4,-12
 621              	 .cfi_offset 7,-8
 622              	 .cfi_offset 14,-4
 623 0002 85B0     	 sub sp,sp,#20
 624              	 .cfi_def_cfa_offset 32
 625 0004 02AF     	 add r7,sp,#8
 626              	 .cfi_def_cfa 7,24
 627 0006 7860     	 str r0,[r7,#4]
 628 0008 3960     	 str r1,[r7]
  98:C:\Users\niels\Documents\Elektrotechniek\Jaar 3\dspl\software\STM32Basis\HAL\gemeenschappelijk\Third_Party\freertos-addons-1.1.0\c++\Source\ctimer.cpp ****     return xTimerReset(handle, CmdTimeout) == pdFALSE ? false : true;
 629              	 .loc 2 98 12
 630 000a 7B68     	 ldr r3,[r7,#4]
 631 000c 5C68     	 ldr r4,[r3,#4]
 632 000e FFF7FEFF 	 bl xTaskGetTickCount
 633 0012 0246     	 mov r2,r0
 634 0014 3B68     	 ldr r3,[r7]
 635 0016 0093     	 str r3,[sp]
 636 0018 0023     	 movs r3,#0
 637 001a 0221     	 movs r1,#2
 638 001c 2046     	 mov r0,r4
 639 001e FFF7FEFF 	 bl xTimerGenericCommand
 640 0022 0346     	 mov r3,r0
 641              	 .loc 2 98 65
 642 0024 002B     	 cmp r3,#0
 643 0026 14BF     	 ite ne
 644 0028 0123     	 movne r3,#1
 645 002a 0023     	 moveq r3,#0
 646 002c DBB2     	 uxtb r3,r3
  99:C:\Users\niels\Documents\Elektrotechniek\Jaar 3\dspl\software\STM32Basis\HAL\gemeenschappelijk\Third_Party\freertos-addons-1.1.0\c++\Source\ctimer.cpp **** }
 647              	 .loc 2 99 1
 648 002e 1846     	 mov r0,r3
 649 0030 0C37     	 adds r7,r7,#12
 650              	 .cfi_def_cfa_offset 12
 651 0032 BD46     	 mov sp,r7
 652              	 .cfi_def_cfa_register 13
 653              	 
 654 0034 90BD     	 pop {r4,r7,pc}
 655              	 .cfi_endproc
 656              	.LFE1044:
 657              	 .size _ZN12cpp_freertos5Timer5ResetEm,.-_ZN12cpp_freertos5Timer5ResetEm
 658              	 .section .text._ZN12cpp_freertos5Timer12ResetFromISREPl,"ax",%progbits
 659              	 .align 1
 660              	 .global _ZN12cpp_freertos5Timer12ResetFromISREPl
 661              	 .syntax unified
 662              	 .thumb
 663              	 .thumb_func
 664              	 .type _ZN12cpp_freertos5Timer12ResetFromISREPl,%function
 665              	_ZN12cpp_freertos5Timer12ResetFromISREPl:
 666              	.LFB1045:
 100:C:\Users\niels\Documents\Elektrotechniek\Jaar 3\dspl\software\STM32Basis\HAL\gemeenschappelijk\Third_Party\freertos-addons-1.1.0\c++\Source\ctimer.cpp **** 
ARM GAS   			page 19


 101:C:\Users\niels\Documents\Elektrotechniek\Jaar 3\dspl\software\STM32Basis\HAL\gemeenschappelijk\Third_Party\freertos-addons-1.1.0\c++\Source\ctimer.cpp **** 
 102:C:\Users\niels\Documents\Elektrotechniek\Jaar 3\dspl\software\STM32Basis\HAL\gemeenschappelijk\Third_Party\freertos-addons-1.1.0\c++\Source\ctimer.cpp **** bool Timer::ResetFromISR(BaseType_t *pxHigherPriorityTaskWoken)
 103:C:\Users\niels\Documents\Elektrotechniek\Jaar 3\dspl\software\STM32Basis\HAL\gemeenschappelijk\Third_Party\freertos-addons-1.1.0\c++\Source\ctimer.cpp **** {
 667              	 .loc 2 103 1
 668              	 .cfi_startproc
 669              	 
 670              	 
 671 0000 90B5     	 push {r4,r7,lr}
 672              	 .cfi_def_cfa_offset 12
 673              	 .cfi_offset 4,-12
 674              	 .cfi_offset 7,-8
 675              	 .cfi_offset 14,-4
 676 0002 85B0     	 sub sp,sp,#20
 677              	 .cfi_def_cfa_offset 32
 678 0004 02AF     	 add r7,sp,#8
 679              	 .cfi_def_cfa 7,24
 680 0006 7860     	 str r0,[r7,#4]
 681 0008 3960     	 str r1,[r7]
 104:C:\Users\niels\Documents\Elektrotechniek\Jaar 3\dspl\software\STM32Basis\HAL\gemeenschappelijk\Third_Party\freertos-addons-1.1.0\c++\Source\ctimer.cpp ****     return xTimerResetFromISR(handle, pxHigherPriorityTaskWoken) == pdFALSE
 682              	 .loc 2 104 12
 683 000a 7B68     	 ldr r3,[r7,#4]
 684 000c 5C68     	 ldr r4,[r3,#4]
 685 000e FFF7FEFF 	 bl xTaskGetTickCountFromISR
 686 0012 0246     	 mov r2,r0
 687 0014 0023     	 movs r3,#0
 688 0016 0093     	 str r3,[sp]
 689 0018 3B68     	 ldr r3,[r7]
 690 001a 0721     	 movs r1,#7
 691 001c 2046     	 mov r0,r4
 692 001e FFF7FEFF 	 bl xTimerGenericCommand
 693 0022 0346     	 mov r3,r0
 105:C:\Users\niels\Documents\Elektrotechniek\Jaar 3\dspl\software\STM32Basis\HAL\gemeenschappelijk\Third_Party\freertos-addons-1.1.0\c++\Source\ctimer.cpp ****             ? false : true;
 694              	 .loc 2 105 23
 695 0024 002B     	 cmp r3,#0
 696 0026 14BF     	 ite ne
 697 0028 0123     	 movne r3,#1
 698 002a 0023     	 moveq r3,#0
 699 002c DBB2     	 uxtb r3,r3
 106:C:\Users\niels\Documents\Elektrotechniek\Jaar 3\dspl\software\STM32Basis\HAL\gemeenschappelijk\Third_Party\freertos-addons-1.1.0\c++\Source\ctimer.cpp **** }
 700              	 .loc 2 106 1
 701 002e 1846     	 mov r0,r3
 702 0030 0C37     	 adds r7,r7,#12
 703              	 .cfi_def_cfa_offset 12
 704 0032 BD46     	 mov sp,r7
 705              	 .cfi_def_cfa_register 13
 706              	 
 707 0034 90BD     	 pop {r4,r7,pc}
 708              	 .cfi_endproc
 709              	.LFE1045:
 710              	 .size _ZN12cpp_freertos5Timer12ResetFromISREPl,.-_ZN12cpp_freertos5Timer12ResetFromISREPl
 711              	 .section .text._ZN12cpp_freertos5Timer9SetPeriodEmm,"ax",%progbits
 712              	 .align 1
 713              	 .global _ZN12cpp_freertos5Timer9SetPeriodEmm
 714              	 .syntax unified
 715              	 .thumb
 716              	 .thumb_func
 717              	 .type _ZN12cpp_freertos5Timer9SetPeriodEmm,%function
ARM GAS   			page 20


 718              	_ZN12cpp_freertos5Timer9SetPeriodEmm:
 719              	.LFB1046:
 107:C:\Users\niels\Documents\Elektrotechniek\Jaar 3\dspl\software\STM32Basis\HAL\gemeenschappelijk\Third_Party\freertos-addons-1.1.0\c++\Source\ctimer.cpp **** 
 108:C:\Users\niels\Documents\Elektrotechniek\Jaar 3\dspl\software\STM32Basis\HAL\gemeenschappelijk\Third_Party\freertos-addons-1.1.0\c++\Source\ctimer.cpp **** 
 109:C:\Users\niels\Documents\Elektrotechniek\Jaar 3\dspl\software\STM32Basis\HAL\gemeenschappelijk\Third_Party\freertos-addons-1.1.0\c++\Source\ctimer.cpp **** bool Timer::SetPeriod(  TickType_t NewPeriod,
 110:C:\Users\niels\Documents\Elektrotechniek\Jaar 3\dspl\software\STM32Basis\HAL\gemeenschappelijk\Third_Party\freertos-addons-1.1.0\c++\Source\ctimer.cpp ****                         TickType_t CmdTimeout)
 111:C:\Users\niels\Documents\Elektrotechniek\Jaar 3\dspl\software\STM32Basis\HAL\gemeenschappelijk\Third_Party\freertos-addons-1.1.0\c++\Source\ctimer.cpp **** {
 720              	 .loc 2 111 1
 721              	 .cfi_startproc
 722              	 
 723              	 
 724 0000 80B5     	 push {r7,lr}
 725              	 .cfi_def_cfa_offset 8
 726              	 .cfi_offset 7,-8
 727              	 .cfi_offset 14,-4
 728 0002 86B0     	 sub sp,sp,#24
 729              	 .cfi_def_cfa_offset 32
 730 0004 02AF     	 add r7,sp,#8
 731              	 .cfi_def_cfa 7,24
 732 0006 F860     	 str r0,[r7,#12]
 733 0008 B960     	 str r1,[r7,#8]
 734 000a 7A60     	 str r2,[r7,#4]
 112:C:\Users\niels\Documents\Elektrotechniek\Jaar 3\dspl\software\STM32Basis\HAL\gemeenschappelijk\Third_Party\freertos-addons-1.1.0\c++\Source\ctimer.cpp ****     return xTimerChangePeriod(handle, NewPeriod, CmdTimeout) == pdFALSE
 735              	 .loc 2 112 12
 736 000c FB68     	 ldr r3,[r7,#12]
 737 000e 5868     	 ldr r0,[r3,#4]
 738 0010 7B68     	 ldr r3,[r7,#4]
 739 0012 0093     	 str r3,[sp]
 740 0014 0023     	 movs r3,#0
 741 0016 BA68     	 ldr r2,[r7,#8]
 742 0018 0421     	 movs r1,#4
 743 001a FFF7FEFF 	 bl xTimerGenericCommand
 744 001e 0346     	 mov r3,r0
 113:C:\Users\niels\Documents\Elektrotechniek\Jaar 3\dspl\software\STM32Basis\HAL\gemeenschappelijk\Third_Party\freertos-addons-1.1.0\c++\Source\ctimer.cpp ****             ? false : true;
 745              	 .loc 2 113 23
 746 0020 002B     	 cmp r3,#0
 747 0022 14BF     	 ite ne
 748 0024 0123     	 movne r3,#1
 749 0026 0023     	 moveq r3,#0
 750 0028 DBB2     	 uxtb r3,r3
 114:C:\Users\niels\Documents\Elektrotechniek\Jaar 3\dspl\software\STM32Basis\HAL\gemeenschappelijk\Third_Party\freertos-addons-1.1.0\c++\Source\ctimer.cpp **** }
 751              	 .loc 2 114 1
 752 002a 1846     	 mov r0,r3
 753 002c 1037     	 adds r7,r7,#16
 754              	 .cfi_def_cfa_offset 8
 755 002e BD46     	 mov sp,r7
 756              	 .cfi_def_cfa_register 13
 757              	 
 758 0030 80BD     	 pop {r7,pc}
 759              	 .cfi_endproc
 760              	.LFE1046:
 761              	 .size _ZN12cpp_freertos5Timer9SetPeriodEmm,.-_ZN12cpp_freertos5Timer9SetPeriodEmm
 762              	 .section .text._ZN12cpp_freertos5Timer16SetPeriodFromISREmPl,"ax",%progbits
 763              	 .align 1
 764              	 .global _ZN12cpp_freertos5Timer16SetPeriodFromISREmPl
 765              	 .syntax unified
 766              	 .thumb
ARM GAS   			page 21


 767              	 .thumb_func
 768              	 .type _ZN12cpp_freertos5Timer16SetPeriodFromISREmPl,%function
 769              	_ZN12cpp_freertos5Timer16SetPeriodFromISREmPl:
 770              	.LFB1047:
 115:C:\Users\niels\Documents\Elektrotechniek\Jaar 3\dspl\software\STM32Basis\HAL\gemeenschappelijk\Third_Party\freertos-addons-1.1.0\c++\Source\ctimer.cpp **** 
 116:C:\Users\niels\Documents\Elektrotechniek\Jaar 3\dspl\software\STM32Basis\HAL\gemeenschappelijk\Third_Party\freertos-addons-1.1.0\c++\Source\ctimer.cpp **** 
 117:C:\Users\niels\Documents\Elektrotechniek\Jaar 3\dspl\software\STM32Basis\HAL\gemeenschappelijk\Third_Party\freertos-addons-1.1.0\c++\Source\ctimer.cpp **** bool Timer::SetPeriodFromISR(   TickType_t NewPeriod,
 118:C:\Users\niels\Documents\Elektrotechniek\Jaar 3\dspl\software\STM32Basis\HAL\gemeenschappelijk\Third_Party\freertos-addons-1.1.0\c++\Source\ctimer.cpp ****                                 BaseType_t *pxHigherPriorityTaskWoken)
 119:C:\Users\niels\Documents\Elektrotechniek\Jaar 3\dspl\software\STM32Basis\HAL\gemeenschappelijk\Third_Party\freertos-addons-1.1.0\c++\Source\ctimer.cpp **** {
 771              	 .loc 2 119 1
 772              	 .cfi_startproc
 773              	 
 774              	 
 775 0000 80B5     	 push {r7,lr}
 776              	 .cfi_def_cfa_offset 8
 777              	 .cfi_offset 7,-8
 778              	 .cfi_offset 14,-4
 779 0002 86B0     	 sub sp,sp,#24
 780              	 .cfi_def_cfa_offset 32
 781 0004 02AF     	 add r7,sp,#8
 782              	 .cfi_def_cfa 7,24
 783 0006 F860     	 str r0,[r7,#12]
 784 0008 B960     	 str r1,[r7,#8]
 785 000a 7A60     	 str r2,[r7,#4]
 120:C:\Users\niels\Documents\Elektrotechniek\Jaar 3\dspl\software\STM32Basis\HAL\gemeenschappelijk\Third_Party\freertos-addons-1.1.0\c++\Source\ctimer.cpp ****     return xTimerChangePeriodFromISR(   handle, NewPeriod,
 786              	 .loc 2 120 12
 787 000c FB68     	 ldr r3,[r7,#12]
 788 000e 5868     	 ldr r0,[r3,#4]
 789 0010 0023     	 movs r3,#0
 790 0012 0093     	 str r3,[sp]
 791 0014 7B68     	 ldr r3,[r7,#4]
 792 0016 BA68     	 ldr r2,[r7,#8]
 793 0018 0921     	 movs r1,#9
 794 001a FFF7FEFF 	 bl xTimerGenericCommand
 795 001e 0346     	 mov r3,r0
 121:C:\Users\niels\Documents\Elektrotechniek\Jaar 3\dspl\software\STM32Basis\HAL\gemeenschappelijk\Third_Party\freertos-addons-1.1.0\c++\Source\ctimer.cpp ****                                         pxHigherPriorityTaskWoken) == pdFALSE
 122:C:\Users\niels\Documents\Elektrotechniek\Jaar 3\dspl\software\STM32Basis\HAL\gemeenschappelijk\Third_Party\freertos-addons-1.1.0\c++\Source\ctimer.cpp ****             ? false : true;
 796              	 .loc 2 122 23
 797 0020 002B     	 cmp r3,#0
 798 0022 14BF     	 ite ne
 799 0024 0123     	 movne r3,#1
 800 0026 0023     	 moveq r3,#0
 801 0028 DBB2     	 uxtb r3,r3
 123:C:\Users\niels\Documents\Elektrotechniek\Jaar 3\dspl\software\STM32Basis\HAL\gemeenschappelijk\Third_Party\freertos-addons-1.1.0\c++\Source\ctimer.cpp **** }
 802              	 .loc 2 123 1
 803 002a 1846     	 mov r0,r3
 804 002c 1037     	 adds r7,r7,#16
 805              	 .cfi_def_cfa_offset 8
 806 002e BD46     	 mov sp,r7
 807              	 .cfi_def_cfa_register 13
 808              	 
 809 0030 80BD     	 pop {r7,pc}
 810              	 .cfi_endproc
 811              	.LFE1047:
 812              	 .size _ZN12cpp_freertos5Timer16SetPeriodFromISREmPl,.-_ZN12cpp_freertos5Timer16SetPeriodFromISREmPl
 813              	 .section .text._ZN12cpp_freertos5Timer28TimerCallbackFunctionAdapterEPv,"ax",%progbits
 814              	 .align 1
ARM GAS   			page 22


 815              	 .global _ZN12cpp_freertos5Timer28TimerCallbackFunctionAdapterEPv
 816              	 .syntax unified
 817              	 .thumb
 818              	 .thumb_func
 819              	 .type _ZN12cpp_freertos5Timer28TimerCallbackFunctionAdapterEPv,%function
 820              	_ZN12cpp_freertos5Timer28TimerCallbackFunctionAdapterEPv:
 821              	.LFB1048:
 124:C:\Users\niels\Documents\Elektrotechniek\Jaar 3\dspl\software\STM32Basis\HAL\gemeenschappelijk\Third_Party\freertos-addons-1.1.0\c++\Source\ctimer.cpp **** 
 125:C:\Users\niels\Documents\Elektrotechniek\Jaar 3\dspl\software\STM32Basis\HAL\gemeenschappelijk\Third_Party\freertos-addons-1.1.0\c++\Source\ctimer.cpp **** 
 126:C:\Users\niels\Documents\Elektrotechniek\Jaar 3\dspl\software\STM32Basis\HAL\gemeenschappelijk\Third_Party\freertos-addons-1.1.0\c++\Source\ctimer.cpp **** #if (INCLUDE_xTimerGetTimerDaemonTaskHandle == 1)
 127:C:\Users\niels\Documents\Elektrotechniek\Jaar 3\dspl\software\STM32Basis\HAL\gemeenschappelijk\Third_Party\freertos-addons-1.1.0\c++\Source\ctimer.cpp **** 
 128:C:\Users\niels\Documents\Elektrotechniek\Jaar 3\dspl\software\STM32Basis\HAL\gemeenschappelijk\Third_Party\freertos-addons-1.1.0\c++\Source\ctimer.cpp **** TaskHandle_t Timer::GetTimerDaemonHandle()
 129:C:\Users\niels\Documents\Elektrotechniek\Jaar 3\dspl\software\STM32Basis\HAL\gemeenschappelijk\Third_Party\freertos-addons-1.1.0\c++\Source\ctimer.cpp **** {
 130:C:\Users\niels\Documents\Elektrotechniek\Jaar 3\dspl\software\STM32Basis\HAL\gemeenschappelijk\Third_Party\freertos-addons-1.1.0\c++\Source\ctimer.cpp ****     return xTimerGetTimerDaemonTaskHandle();
 131:C:\Users\niels\Documents\Elektrotechniek\Jaar 3\dspl\software\STM32Basis\HAL\gemeenschappelijk\Third_Party\freertos-addons-1.1.0\c++\Source\ctimer.cpp **** }
 132:C:\Users\niels\Documents\Elektrotechniek\Jaar 3\dspl\software\STM32Basis\HAL\gemeenschappelijk\Third_Party\freertos-addons-1.1.0\c++\Source\ctimer.cpp **** 
 133:C:\Users\niels\Documents\Elektrotechniek\Jaar 3\dspl\software\STM32Basis\HAL\gemeenschappelijk\Third_Party\freertos-addons-1.1.0\c++\Source\ctimer.cpp **** #endif
 134:C:\Users\niels\Documents\Elektrotechniek\Jaar 3\dspl\software\STM32Basis\HAL\gemeenschappelijk\Third_Party\freertos-addons-1.1.0\c++\Source\ctimer.cpp **** 
 135:C:\Users\niels\Documents\Elektrotechniek\Jaar 3\dspl\software\STM32Basis\HAL\gemeenschappelijk\Third_Party\freertos-addons-1.1.0\c++\Source\ctimer.cpp **** 
 136:C:\Users\niels\Documents\Elektrotechniek\Jaar 3\dspl\software\STM32Basis\HAL\gemeenschappelijk\Third_Party\freertos-addons-1.1.0\c++\Source\ctimer.cpp **** void Timer::TimerCallbackFunctionAdapter(TimerHandle_t xTimer)
 137:C:\Users\niels\Documents\Elektrotechniek\Jaar 3\dspl\software\STM32Basis\HAL\gemeenschappelijk\Third_Party\freertos-addons-1.1.0\c++\Source\ctimer.cpp **** {
 822              	 .loc 2 137 1
 823              	 .cfi_startproc
 824              	 
 825              	 
 826 0000 80B5     	 push {r7,lr}
 827              	 .cfi_def_cfa_offset 8
 828              	 .cfi_offset 7,-8
 829              	 .cfi_offset 14,-4
 830 0002 84B0     	 sub sp,sp,#16
 831              	 .cfi_def_cfa_offset 24
 832 0004 00AF     	 add r7,sp,#0
 833              	 .cfi_def_cfa_register 7
 834 0006 7860     	 str r0,[r7,#4]
 138:C:\Users\niels\Documents\Elektrotechniek\Jaar 3\dspl\software\STM32Basis\HAL\gemeenschappelijk\Third_Party\freertos-addons-1.1.0\c++\Source\ctimer.cpp ****     Timer *timer = static_cast<Timer *>(pvTimerGetTimerID(xTimer));
 835              	 .loc 2 138 58
 836 0008 7868     	 ldr r0,[r7,#4]
 837 000a FFF7FEFF 	 bl pvTimerGetTimerID
 838 000e F860     	 str r0,[r7,#12]
 139:C:\Users\niels\Documents\Elektrotechniek\Jaar 3\dspl\software\STM32Basis\HAL\gemeenschappelijk\Third_Party\freertos-addons-1.1.0\c++\Source\ctimer.cpp ****     timer->Run();
 839              	 .loc 2 139 16
 840 0010 FB68     	 ldr r3,[r7,#12]
 841 0012 1B68     	 ldr r3,[r3]
 842 0014 0833     	 adds r3,r3,#8
 843 0016 1B68     	 ldr r3,[r3]
 844              	 .loc 2 139 15
 845 0018 F868     	 ldr r0,[r7,#12]
 846 001a 9847     	 blx r3
 847              	.LVL0:
 140:C:\Users\niels\Documents\Elektrotechniek\Jaar 3\dspl\software\STM32Basis\HAL\gemeenschappelijk\Third_Party\freertos-addons-1.1.0\c++\Source\ctimer.cpp **** }
 848              	 .loc 2 140 1
 849 001c 00BF     	 nop
 850 001e 1037     	 adds r7,r7,#16
 851              	 .cfi_def_cfa_offset 8
 852 0020 BD46     	 mov sp,r7
 853              	 .cfi_def_cfa_register 13
 854              	 
ARM GAS   			page 23


 855 0022 80BD     	 pop {r7,pc}
 856              	 .cfi_endproc
 857              	.LFE1048:
 858              	 .size _ZN12cpp_freertos5Timer28TimerCallbackFunctionAdapterEPv,.-_ZN12cpp_freertos5Timer28TimerCallbackFunctionAdapterEPv
 859              	 .global _ZTVN12cpp_freertos5TimerE
 860              	 .section .rodata._ZTVN12cpp_freertos5TimerE,"a"
 861              	 .align 2
 862              	 .type _ZTVN12cpp_freertos5TimerE,%object
 863              	 .size _ZTVN12cpp_freertos5TimerE,20
 864              	_ZTVN12cpp_freertos5TimerE:
 865 0000 00000000 	 .word 0
 866 0004 00000000 	 .word 0
 867 0008 00000000 	 .word 0
 868 000c 00000000 	 .word 0
 869 0010 00000000 	 .word __cxa_pure_virtual
 870              	 .text
 871              	.Letext0:
 872              	 .file 3 "c:\\progra~2\\gnuarm~1\\102021~1.10\\arm-none-eabi\\include\\c++\\10.3.1\\bits\\exception_ptr.h"
 873              	 .file 4 "c:\\progra~2\\gnuarm~1\\102021~1.10\\arm-none-eabi\\include\\c++\\10.3.1\\bits\\cpp_type_traits.h"
 874              	 .file 5 "c:\\progra~2\\gnuarm~1\\102021~1.10\\arm-none-eabi\\include\\c++\\10.3.1\\bits\\stl_pair.h"
 875              	 .file 6 "c:\\progra~2\\gnuarm~1\\102021~1.10\\arm-none-eabi\\include\\c++\\10.3.1\\type_traits"
 876              	 .file 7 "c:\\progra~2\\gnuarm~1\\102021~1.10\\arm-none-eabi\\include\\c++\\10.3.1\\debug\\debug.h"
 877              	 .file 8 "c:\\progra~2\\gnuarm~1\\102021~1.10\\arm-none-eabi\\include\\c++\\10.3.1\\cwchar"
 878              	 .file 9 "c:\\progra~2\\gnuarm~1\\102021~1.10\\arm-none-eabi\\include\\c++\\10.3.1\\cstdint"
 879              	 .file 10 "c:\\progra~2\\gnuarm~1\\102021~1.10\\arm-none-eabi\\include\\c++\\10.3.1\\clocale"
 880              	 .file 11 "c:\\progra~2\\gnuarm~1\\102021~1.10\\arm-none-eabi\\include\\c++\\10.3.1\\cstdlib"
 881              	 .file 12 "c:\\progra~2\\gnuarm~1\\102021~1.10\\arm-none-eabi\\include\\c++\\10.3.1\\cstdio"
 882              	 .file 13 "c:\\progra~2\\gnuarm~1\\102021~1.10\\arm-none-eabi\\include\\c++\\10.3.1\\arm-none-eabi\\thumb\\v7e-m+fp\\hard\\bits\\c++config.h"
 883              	 .file 14 "c:\\progra~2\\gnuarm~1\\102021~1.10\\arm-none-eabi\\include\\c++\\10.3.1\\bits\\basic_string.h"
 884              	 .file 15 "c:\\progra~2\\gnuarm~1\\102021~1.10\\arm-none-eabi\\include\\c++\\10.3.1\\bits\\predefined_ops.h"
 885              	 .file 16 "c:\\progra~2\\gnuarm~1\\102021~1.10\\lib\\gcc\\arm-none-eabi\\10.3.1\\include\\stddef.h"
 886              	 .file 17 "c:\\progra~2\\gnuarm~1\\102021~1.10\\arm-none-eabi\\include\\machine\\_default_types.h"
 887              	 .file 18 "c:\\progra~2\\gnuarm~1\\102021~1.10\\arm-none-eabi\\include\\sys\\_types.h"
 888              	 .file 19 "c:\\progra~2\\gnuarm~1\\102021~1.10\\arm-none-eabi\\include\\sys\\reent.h"
 889              	 .file 20 "c:\\progra~2\\gnuarm~1\\102021~1.10\\arm-none-eabi\\include\\sys\\lock.h"
 890              	 .file 21 "c:\\progra~2\\gnuarm~1\\102021~1.10\\lib\\gcc\\arm-none-eabi\\10.3.1\\include\\stdarg.h"
 891              	 .file 22 "c:\\progra~2\\gnuarm~1\\102021~1.10\\arm-none-eabi\\include\\wchar.h"
 892              	 .file 23 "c:\\progra~2\\gnuarm~1\\102021~1.10\\arm-none-eabi\\include\\sys\\_stdint.h"
 893              	 .file 24 "c:\\progra~2\\gnuarm~1\\102021~1.10\\arm-none-eabi\\include\\stdint.h"
 894              	 .file 25 "c:\\progra~2\\gnuarm~1\\102021~1.10\\arm-none-eabi\\include\\locale.h"
 895              	 .file 26 "c:\\progra~2\\gnuarm~1\\102021~1.10\\arm-none-eabi\\include\\stdlib.h"
 896              	 .file 27 "c:\\progra~2\\gnuarm~1\\102021~1.10\\arm-none-eabi\\include\\stdio.h"
 897              	 .file 28 "c:\\users\\niels\\docume~1\\elektr~1\\jaar3~1\\dspl\\software\\stm32b~1\\hal\\gemeen~1\\third_~1\\freertos\\source\\portable\\gcc\\arm_cm4f\\portmacro.h"
 898              	 .file 29 "c:\\users\\niels\\docume~1\\elektr~1\\jaar3~1\\dspl\\software\\stm32b~1\\hal\\gemeen~1\\third_~1\\freertos\\source\\include\\timers.h"
 899              	 .file 30 "c:\\users\\niels\\docume~1\\elektr~1\\jaar3~1\\dspl\\software\\stm32b~1\\hal\\gemeen~1\\third_~1\\freert~1.0\\c__~1\\source\\include\\timer.hpp"
 900              	 .file 31 "<built-in>"