ARM GAS   			page 1


   1              	 .cpu cortex-m4
   2              	 .arch armv7e-m
   3              	 .fpu fpv4-sp-d16
   4              	 .eabi_attribute 27,1
   5              	 .eabi_attribute 28,1
   6              	 .eabi_attribute 20,1
   7              	 .eabi_attribute 21,1
   8              	 .eabi_attribute 23,3
   9              	 .eabi_attribute 24,1
  10              	 .eabi_attribute 25,1
  11              	 .eabi_attribute 26,1
  12              	 .eabi_attribute 30,6
  13              	 .eabi_attribute 34,0
  14              	 .eabi_attribute 18,4
  15              	 .file "cworkqueue.cpp"
  16              	 .text
  17              	.Ltext0:
  18              	 .cfi_sections .debug_frame
  19              	 .section .rodata._ZStL19piecewise_construct,"a"
  20              	 .align 2
  21              	 .type _ZStL19piecewise_construct,%object
  22              	 .size _ZStL19piecewise_construct,1
  23              	_ZStL19piecewise_construct:
  24 0000 00       	 .space 1
  25              	 .section .text._ZL20__gthread_key_deletei,"ax",%progbits
  26              	 .align 1
  27              	 .syntax unified
  28              	 .thumb
  29              	 .thumb_func
  30              	 .type _ZL20__gthread_key_deletei,%function
  31              	_ZL20__gthread_key_deletei:
  32              	.LFB652:
  33              	 .file 1 "c:\\progra~2\\gnuarm~1\\102021~1.10\\arm-none-eabi\\include\\c++\\10.3.1\\arm-none-eabi\\thumb\\v7e-m+fp\\hard\\bits\\gthr-default.h"
   1:c:\progra~2\gnuarm~1\102021~1.10\arm-none-eabi\include\c++\10.3.1\arm-none-eabi\thumb\v7e-m+fp\hard\bits\gthr-default.h **** /* Threads compatibility routines for libgcc2 and libobjc.  */
   2:c:\progra~2\gnuarm~1\102021~1.10\arm-none-eabi\include\c++\10.3.1\arm-none-eabi\thumb\v7e-m+fp\hard\bits\gthr-default.h **** /* Compile this one with gcc.  */
   3:c:\progra~2\gnuarm~1\102021~1.10\arm-none-eabi\include\c++\10.3.1\arm-none-eabi\thumb\v7e-m+fp\hard\bits\gthr-default.h **** /* Copyright (C) 1997-2020 Free Software Foundation, Inc.
   4:c:\progra~2\gnuarm~1\102021~1.10\arm-none-eabi\include\c++\10.3.1\arm-none-eabi\thumb\v7e-m+fp\hard\bits\gthr-default.h **** 
   5:c:\progra~2\gnuarm~1\102021~1.10\arm-none-eabi\include\c++\10.3.1\arm-none-eabi\thumb\v7e-m+fp\hard\bits\gthr-default.h **** This file is part of GCC.
   6:c:\progra~2\gnuarm~1\102021~1.10\arm-none-eabi\include\c++\10.3.1\arm-none-eabi\thumb\v7e-m+fp\hard\bits\gthr-default.h **** 
   7:c:\progra~2\gnuarm~1\102021~1.10\arm-none-eabi\include\c++\10.3.1\arm-none-eabi\thumb\v7e-m+fp\hard\bits\gthr-default.h **** GCC is free software; you can redistribute it and/or modify it under
   8:c:\progra~2\gnuarm~1\102021~1.10\arm-none-eabi\include\c++\10.3.1\arm-none-eabi\thumb\v7e-m+fp\hard\bits\gthr-default.h **** the terms of the GNU General Public License as published by the Free
   9:c:\progra~2\gnuarm~1\102021~1.10\arm-none-eabi\include\c++\10.3.1\arm-none-eabi\thumb\v7e-m+fp\hard\bits\gthr-default.h **** Software Foundation; either version 3, or (at your option) any later
  10:c:\progra~2\gnuarm~1\102021~1.10\arm-none-eabi\include\c++\10.3.1\arm-none-eabi\thumb\v7e-m+fp\hard\bits\gthr-default.h **** version.
  11:c:\progra~2\gnuarm~1\102021~1.10\arm-none-eabi\include\c++\10.3.1\arm-none-eabi\thumb\v7e-m+fp\hard\bits\gthr-default.h **** 
  12:c:\progra~2\gnuarm~1\102021~1.10\arm-none-eabi\include\c++\10.3.1\arm-none-eabi\thumb\v7e-m+fp\hard\bits\gthr-default.h **** GCC is distributed in the hope that it will be useful, but WITHOUT ANY
  13:c:\progra~2\gnuarm~1\102021~1.10\arm-none-eabi\include\c++\10.3.1\arm-none-eabi\thumb\v7e-m+fp\hard\bits\gthr-default.h **** WARRANTY; without even the implied warranty of MERCHANTABILITY or
  14:c:\progra~2\gnuarm~1\102021~1.10\arm-none-eabi\include\c++\10.3.1\arm-none-eabi\thumb\v7e-m+fp\hard\bits\gthr-default.h **** FITNESS FOR A PARTICULAR PURPOSE.  See the GNU General Public License
  15:c:\progra~2\gnuarm~1\102021~1.10\arm-none-eabi\include\c++\10.3.1\arm-none-eabi\thumb\v7e-m+fp\hard\bits\gthr-default.h **** for more details.
  16:c:\progra~2\gnuarm~1\102021~1.10\arm-none-eabi\include\c++\10.3.1\arm-none-eabi\thumb\v7e-m+fp\hard\bits\gthr-default.h **** 
  17:c:\progra~2\gnuarm~1\102021~1.10\arm-none-eabi\include\c++\10.3.1\arm-none-eabi\thumb\v7e-m+fp\hard\bits\gthr-default.h **** Under Section 7 of GPL version 3, you are granted additional
  18:c:\progra~2\gnuarm~1\102021~1.10\arm-none-eabi\include\c++\10.3.1\arm-none-eabi\thumb\v7e-m+fp\hard\bits\gthr-default.h **** permissions described in the GCC Runtime Library Exception, version
  19:c:\progra~2\gnuarm~1\102021~1.10\arm-none-eabi\include\c++\10.3.1\arm-none-eabi\thumb\v7e-m+fp\hard\bits\gthr-default.h **** 3.1, as published by the Free Software Foundation.
  20:c:\progra~2\gnuarm~1\102021~1.10\arm-none-eabi\include\c++\10.3.1\arm-none-eabi\thumb\v7e-m+fp\hard\bits\gthr-default.h **** 
  21:c:\progra~2\gnuarm~1\102021~1.10\arm-none-eabi\include\c++\10.3.1\arm-none-eabi\thumb\v7e-m+fp\hard\bits\gthr-default.h **** You should have received a copy of the GNU General Public License and
  22:c:\progra~2\gnuarm~1\102021~1.10\arm-none-eabi\include\c++\10.3.1\arm-none-eabi\thumb\v7e-m+fp\hard\bits\gthr-default.h **** a copy of the GCC Runtime Library Exception along with this program;
  23:c:\progra~2\gnuarm~1\102021~1.10\arm-none-eabi\include\c++\10.3.1\arm-none-eabi\thumb\v7e-m+fp\hard\bits\gthr-default.h **** see the files COPYING3 and COPYING.RUNTIME respectively.  If not, see
  24:c:\progra~2\gnuarm~1\102021~1.10\arm-none-eabi\include\c++\10.3.1\arm-none-eabi\thumb\v7e-m+fp\hard\bits\gthr-default.h **** <http://www.gnu.org/licenses/>.  */
ARM GAS   			page 2


  25:c:\progra~2\gnuarm~1\102021~1.10\arm-none-eabi\include\c++\10.3.1\arm-none-eabi\thumb\v7e-m+fp\hard\bits\gthr-default.h **** 
  26:c:\progra~2\gnuarm~1\102021~1.10\arm-none-eabi\include\c++\10.3.1\arm-none-eabi\thumb\v7e-m+fp\hard\bits\gthr-default.h **** #ifndef _GLIBCXX_GCC_GTHR_SINGLE_H
  27:c:\progra~2\gnuarm~1\102021~1.10\arm-none-eabi\include\c++\10.3.1\arm-none-eabi\thumb\v7e-m+fp\hard\bits\gthr-default.h **** #define _GLIBCXX_GCC_GTHR_SINGLE_H
  28:c:\progra~2\gnuarm~1\102021~1.10\arm-none-eabi\include\c++\10.3.1\arm-none-eabi\thumb\v7e-m+fp\hard\bits\gthr-default.h **** 
  29:c:\progra~2\gnuarm~1\102021~1.10\arm-none-eabi\include\c++\10.3.1\arm-none-eabi\thumb\v7e-m+fp\hard\bits\gthr-default.h **** /* Just provide compatibility for mutex handling.  */
  30:c:\progra~2\gnuarm~1\102021~1.10\arm-none-eabi\include\c++\10.3.1\arm-none-eabi\thumb\v7e-m+fp\hard\bits\gthr-default.h **** 
  31:c:\progra~2\gnuarm~1\102021~1.10\arm-none-eabi\include\c++\10.3.1\arm-none-eabi\thumb\v7e-m+fp\hard\bits\gthr-default.h **** typedef int __gthread_key_t;
  32:c:\progra~2\gnuarm~1\102021~1.10\arm-none-eabi\include\c++\10.3.1\arm-none-eabi\thumb\v7e-m+fp\hard\bits\gthr-default.h **** typedef int __gthread_once_t;
  33:c:\progra~2\gnuarm~1\102021~1.10\arm-none-eabi\include\c++\10.3.1\arm-none-eabi\thumb\v7e-m+fp\hard\bits\gthr-default.h **** typedef int __gthread_mutex_t;
  34:c:\progra~2\gnuarm~1\102021~1.10\arm-none-eabi\include\c++\10.3.1\arm-none-eabi\thumb\v7e-m+fp\hard\bits\gthr-default.h **** typedef int __gthread_recursive_mutex_t;
  35:c:\progra~2\gnuarm~1\102021~1.10\arm-none-eabi\include\c++\10.3.1\arm-none-eabi\thumb\v7e-m+fp\hard\bits\gthr-default.h **** 
  36:c:\progra~2\gnuarm~1\102021~1.10\arm-none-eabi\include\c++\10.3.1\arm-none-eabi\thumb\v7e-m+fp\hard\bits\gthr-default.h **** #define __GTHREAD_ONCE_INIT 0
  37:c:\progra~2\gnuarm~1\102021~1.10\arm-none-eabi\include\c++\10.3.1\arm-none-eabi\thumb\v7e-m+fp\hard\bits\gthr-default.h **** #define __GTHREAD_MUTEX_INIT 0
  38:c:\progra~2\gnuarm~1\102021~1.10\arm-none-eabi\include\c++\10.3.1\arm-none-eabi\thumb\v7e-m+fp\hard\bits\gthr-default.h **** #define __GTHREAD_MUTEX_INIT_FUNCTION(mx) do {} while (0)
  39:c:\progra~2\gnuarm~1\102021~1.10\arm-none-eabi\include\c++\10.3.1\arm-none-eabi\thumb\v7e-m+fp\hard\bits\gthr-default.h **** #define __GTHREAD_RECURSIVE_MUTEX_INIT 0
  40:c:\progra~2\gnuarm~1\102021~1.10\arm-none-eabi\include\c++\10.3.1\arm-none-eabi\thumb\v7e-m+fp\hard\bits\gthr-default.h **** 
  41:c:\progra~2\gnuarm~1\102021~1.10\arm-none-eabi\include\c++\10.3.1\arm-none-eabi\thumb\v7e-m+fp\hard\bits\gthr-default.h **** #define _GLIBCXX_UNUSED __attribute__((__unused__))
  42:c:\progra~2\gnuarm~1\102021~1.10\arm-none-eabi\include\c++\10.3.1\arm-none-eabi\thumb\v7e-m+fp\hard\bits\gthr-default.h **** 
  43:c:\progra~2\gnuarm~1\102021~1.10\arm-none-eabi\include\c++\10.3.1\arm-none-eabi\thumb\v7e-m+fp\hard\bits\gthr-default.h **** #ifdef _LIBOBJC
  44:c:\progra~2\gnuarm~1\102021~1.10\arm-none-eabi\include\c++\10.3.1\arm-none-eabi\thumb\v7e-m+fp\hard\bits\gthr-default.h **** 
  45:c:\progra~2\gnuarm~1\102021~1.10\arm-none-eabi\include\c++\10.3.1\arm-none-eabi\thumb\v7e-m+fp\hard\bits\gthr-default.h **** /* Thread local storage for a single thread */
  46:c:\progra~2\gnuarm~1\102021~1.10\arm-none-eabi\include\c++\10.3.1\arm-none-eabi\thumb\v7e-m+fp\hard\bits\gthr-default.h **** static void *thread_local_storage = NULL;
  47:c:\progra~2\gnuarm~1\102021~1.10\arm-none-eabi\include\c++\10.3.1\arm-none-eabi\thumb\v7e-m+fp\hard\bits\gthr-default.h **** 
  48:c:\progra~2\gnuarm~1\102021~1.10\arm-none-eabi\include\c++\10.3.1\arm-none-eabi\thumb\v7e-m+fp\hard\bits\gthr-default.h **** /* Backend initialization functions */
  49:c:\progra~2\gnuarm~1\102021~1.10\arm-none-eabi\include\c++\10.3.1\arm-none-eabi\thumb\v7e-m+fp\hard\bits\gthr-default.h **** 
  50:c:\progra~2\gnuarm~1\102021~1.10\arm-none-eabi\include\c++\10.3.1\arm-none-eabi\thumb\v7e-m+fp\hard\bits\gthr-default.h **** /* Initialize the threads subsystem.  */
  51:c:\progra~2\gnuarm~1\102021~1.10\arm-none-eabi\include\c++\10.3.1\arm-none-eabi\thumb\v7e-m+fp\hard\bits\gthr-default.h **** static inline int
  52:c:\progra~2\gnuarm~1\102021~1.10\arm-none-eabi\include\c++\10.3.1\arm-none-eabi\thumb\v7e-m+fp\hard\bits\gthr-default.h **** __gthread_objc_init_thread_system (void)
  53:c:\progra~2\gnuarm~1\102021~1.10\arm-none-eabi\include\c++\10.3.1\arm-none-eabi\thumb\v7e-m+fp\hard\bits\gthr-default.h **** {
  54:c:\progra~2\gnuarm~1\102021~1.10\arm-none-eabi\include\c++\10.3.1\arm-none-eabi\thumb\v7e-m+fp\hard\bits\gthr-default.h ****   /* No thread support available */
  55:c:\progra~2\gnuarm~1\102021~1.10\arm-none-eabi\include\c++\10.3.1\arm-none-eabi\thumb\v7e-m+fp\hard\bits\gthr-default.h ****   return -1;
  56:c:\progra~2\gnuarm~1\102021~1.10\arm-none-eabi\include\c++\10.3.1\arm-none-eabi\thumb\v7e-m+fp\hard\bits\gthr-default.h **** }
  57:c:\progra~2\gnuarm~1\102021~1.10\arm-none-eabi\include\c++\10.3.1\arm-none-eabi\thumb\v7e-m+fp\hard\bits\gthr-default.h **** 
  58:c:\progra~2\gnuarm~1\102021~1.10\arm-none-eabi\include\c++\10.3.1\arm-none-eabi\thumb\v7e-m+fp\hard\bits\gthr-default.h **** /* Close the threads subsystem.  */
  59:c:\progra~2\gnuarm~1\102021~1.10\arm-none-eabi\include\c++\10.3.1\arm-none-eabi\thumb\v7e-m+fp\hard\bits\gthr-default.h **** static inline int
  60:c:\progra~2\gnuarm~1\102021~1.10\arm-none-eabi\include\c++\10.3.1\arm-none-eabi\thumb\v7e-m+fp\hard\bits\gthr-default.h **** __gthread_objc_close_thread_system (void)
  61:c:\progra~2\gnuarm~1\102021~1.10\arm-none-eabi\include\c++\10.3.1\arm-none-eabi\thumb\v7e-m+fp\hard\bits\gthr-default.h **** {
  62:c:\progra~2\gnuarm~1\102021~1.10\arm-none-eabi\include\c++\10.3.1\arm-none-eabi\thumb\v7e-m+fp\hard\bits\gthr-default.h ****   /* No thread support available */
  63:c:\progra~2\gnuarm~1\102021~1.10\arm-none-eabi\include\c++\10.3.1\arm-none-eabi\thumb\v7e-m+fp\hard\bits\gthr-default.h ****   return -1;
  64:c:\progra~2\gnuarm~1\102021~1.10\arm-none-eabi\include\c++\10.3.1\arm-none-eabi\thumb\v7e-m+fp\hard\bits\gthr-default.h **** }
  65:c:\progra~2\gnuarm~1\102021~1.10\arm-none-eabi\include\c++\10.3.1\arm-none-eabi\thumb\v7e-m+fp\hard\bits\gthr-default.h **** 
  66:c:\progra~2\gnuarm~1\102021~1.10\arm-none-eabi\include\c++\10.3.1\arm-none-eabi\thumb\v7e-m+fp\hard\bits\gthr-default.h **** /* Backend thread functions */
  67:c:\progra~2\gnuarm~1\102021~1.10\arm-none-eabi\include\c++\10.3.1\arm-none-eabi\thumb\v7e-m+fp\hard\bits\gthr-default.h **** 
  68:c:\progra~2\gnuarm~1\102021~1.10\arm-none-eabi\include\c++\10.3.1\arm-none-eabi\thumb\v7e-m+fp\hard\bits\gthr-default.h **** /* Create a new thread of execution.  */
  69:c:\progra~2\gnuarm~1\102021~1.10\arm-none-eabi\include\c++\10.3.1\arm-none-eabi\thumb\v7e-m+fp\hard\bits\gthr-default.h **** static inline objc_thread_t
  70:c:\progra~2\gnuarm~1\102021~1.10\arm-none-eabi\include\c++\10.3.1\arm-none-eabi\thumb\v7e-m+fp\hard\bits\gthr-default.h **** __gthread_objc_thread_detach (void (* func)(void *), void * arg _GLIBCXX_UNUSED)
  71:c:\progra~2\gnuarm~1\102021~1.10\arm-none-eabi\include\c++\10.3.1\arm-none-eabi\thumb\v7e-m+fp\hard\bits\gthr-default.h **** {
  72:c:\progra~2\gnuarm~1\102021~1.10\arm-none-eabi\include\c++\10.3.1\arm-none-eabi\thumb\v7e-m+fp\hard\bits\gthr-default.h ****   /* No thread support available */
  73:c:\progra~2\gnuarm~1\102021~1.10\arm-none-eabi\include\c++\10.3.1\arm-none-eabi\thumb\v7e-m+fp\hard\bits\gthr-default.h ****   return NULL;
  74:c:\progra~2\gnuarm~1\102021~1.10\arm-none-eabi\include\c++\10.3.1\arm-none-eabi\thumb\v7e-m+fp\hard\bits\gthr-default.h **** }
  75:c:\progra~2\gnuarm~1\102021~1.10\arm-none-eabi\include\c++\10.3.1\arm-none-eabi\thumb\v7e-m+fp\hard\bits\gthr-default.h **** 
  76:c:\progra~2\gnuarm~1\102021~1.10\arm-none-eabi\include\c++\10.3.1\arm-none-eabi\thumb\v7e-m+fp\hard\bits\gthr-default.h **** /* Set the current thread's priority.  */
  77:c:\progra~2\gnuarm~1\102021~1.10\arm-none-eabi\include\c++\10.3.1\arm-none-eabi\thumb\v7e-m+fp\hard\bits\gthr-default.h **** static inline int
  78:c:\progra~2\gnuarm~1\102021~1.10\arm-none-eabi\include\c++\10.3.1\arm-none-eabi\thumb\v7e-m+fp\hard\bits\gthr-default.h **** __gthread_objc_thread_set_priority (int priority _GLIBCXX_UNUSED)
  79:c:\progra~2\gnuarm~1\102021~1.10\arm-none-eabi\include\c++\10.3.1\arm-none-eabi\thumb\v7e-m+fp\hard\bits\gthr-default.h **** {
  80:c:\progra~2\gnuarm~1\102021~1.10\arm-none-eabi\include\c++\10.3.1\arm-none-eabi\thumb\v7e-m+fp\hard\bits\gthr-default.h ****   /* No thread support available */
  81:c:\progra~2\gnuarm~1\102021~1.10\arm-none-eabi\include\c++\10.3.1\arm-none-eabi\thumb\v7e-m+fp\hard\bits\gthr-default.h ****   return -1;
ARM GAS   			page 3


  82:c:\progra~2\gnuarm~1\102021~1.10\arm-none-eabi\include\c++\10.3.1\arm-none-eabi\thumb\v7e-m+fp\hard\bits\gthr-default.h **** }
  83:c:\progra~2\gnuarm~1\102021~1.10\arm-none-eabi\include\c++\10.3.1\arm-none-eabi\thumb\v7e-m+fp\hard\bits\gthr-default.h **** 
  84:c:\progra~2\gnuarm~1\102021~1.10\arm-none-eabi\include\c++\10.3.1\arm-none-eabi\thumb\v7e-m+fp\hard\bits\gthr-default.h **** /* Return the current thread's priority.  */
  85:c:\progra~2\gnuarm~1\102021~1.10\arm-none-eabi\include\c++\10.3.1\arm-none-eabi\thumb\v7e-m+fp\hard\bits\gthr-default.h **** static inline int
  86:c:\progra~2\gnuarm~1\102021~1.10\arm-none-eabi\include\c++\10.3.1\arm-none-eabi\thumb\v7e-m+fp\hard\bits\gthr-default.h **** __gthread_objc_thread_get_priority (void)
  87:c:\progra~2\gnuarm~1\102021~1.10\arm-none-eabi\include\c++\10.3.1\arm-none-eabi\thumb\v7e-m+fp\hard\bits\gthr-default.h **** {
  88:c:\progra~2\gnuarm~1\102021~1.10\arm-none-eabi\include\c++\10.3.1\arm-none-eabi\thumb\v7e-m+fp\hard\bits\gthr-default.h ****   return OBJC_THREAD_INTERACTIVE_PRIORITY;
  89:c:\progra~2\gnuarm~1\102021~1.10\arm-none-eabi\include\c++\10.3.1\arm-none-eabi\thumb\v7e-m+fp\hard\bits\gthr-default.h **** }
  90:c:\progra~2\gnuarm~1\102021~1.10\arm-none-eabi\include\c++\10.3.1\arm-none-eabi\thumb\v7e-m+fp\hard\bits\gthr-default.h **** 
  91:c:\progra~2\gnuarm~1\102021~1.10\arm-none-eabi\include\c++\10.3.1\arm-none-eabi\thumb\v7e-m+fp\hard\bits\gthr-default.h **** /* Yield our process time to another thread.  */
  92:c:\progra~2\gnuarm~1\102021~1.10\arm-none-eabi\include\c++\10.3.1\arm-none-eabi\thumb\v7e-m+fp\hard\bits\gthr-default.h **** static inline void
  93:c:\progra~2\gnuarm~1\102021~1.10\arm-none-eabi\include\c++\10.3.1\arm-none-eabi\thumb\v7e-m+fp\hard\bits\gthr-default.h **** __gthread_objc_thread_yield (void)
  94:c:\progra~2\gnuarm~1\102021~1.10\arm-none-eabi\include\c++\10.3.1\arm-none-eabi\thumb\v7e-m+fp\hard\bits\gthr-default.h **** {
  95:c:\progra~2\gnuarm~1\102021~1.10\arm-none-eabi\include\c++\10.3.1\arm-none-eabi\thumb\v7e-m+fp\hard\bits\gthr-default.h ****   return;
  96:c:\progra~2\gnuarm~1\102021~1.10\arm-none-eabi\include\c++\10.3.1\arm-none-eabi\thumb\v7e-m+fp\hard\bits\gthr-default.h **** }
  97:c:\progra~2\gnuarm~1\102021~1.10\arm-none-eabi\include\c++\10.3.1\arm-none-eabi\thumb\v7e-m+fp\hard\bits\gthr-default.h **** 
  98:c:\progra~2\gnuarm~1\102021~1.10\arm-none-eabi\include\c++\10.3.1\arm-none-eabi\thumb\v7e-m+fp\hard\bits\gthr-default.h **** /* Terminate the current thread.  */
  99:c:\progra~2\gnuarm~1\102021~1.10\arm-none-eabi\include\c++\10.3.1\arm-none-eabi\thumb\v7e-m+fp\hard\bits\gthr-default.h **** static inline int
 100:c:\progra~2\gnuarm~1\102021~1.10\arm-none-eabi\include\c++\10.3.1\arm-none-eabi\thumb\v7e-m+fp\hard\bits\gthr-default.h **** __gthread_objc_thread_exit (void)
 101:c:\progra~2\gnuarm~1\102021~1.10\arm-none-eabi\include\c++\10.3.1\arm-none-eabi\thumb\v7e-m+fp\hard\bits\gthr-default.h **** {
 102:c:\progra~2\gnuarm~1\102021~1.10\arm-none-eabi\include\c++\10.3.1\arm-none-eabi\thumb\v7e-m+fp\hard\bits\gthr-default.h ****   /* No thread support available */
 103:c:\progra~2\gnuarm~1\102021~1.10\arm-none-eabi\include\c++\10.3.1\arm-none-eabi\thumb\v7e-m+fp\hard\bits\gthr-default.h ****   /* Should we really exit the program */
 104:c:\progra~2\gnuarm~1\102021~1.10\arm-none-eabi\include\c++\10.3.1\arm-none-eabi\thumb\v7e-m+fp\hard\bits\gthr-default.h ****   /* exit (&__objc_thread_exit_status); */
 105:c:\progra~2\gnuarm~1\102021~1.10\arm-none-eabi\include\c++\10.3.1\arm-none-eabi\thumb\v7e-m+fp\hard\bits\gthr-default.h ****   return -1;
 106:c:\progra~2\gnuarm~1\102021~1.10\arm-none-eabi\include\c++\10.3.1\arm-none-eabi\thumb\v7e-m+fp\hard\bits\gthr-default.h **** }
 107:c:\progra~2\gnuarm~1\102021~1.10\arm-none-eabi\include\c++\10.3.1\arm-none-eabi\thumb\v7e-m+fp\hard\bits\gthr-default.h **** 
 108:c:\progra~2\gnuarm~1\102021~1.10\arm-none-eabi\include\c++\10.3.1\arm-none-eabi\thumb\v7e-m+fp\hard\bits\gthr-default.h **** /* Returns an integer value which uniquely describes a thread.  */
 109:c:\progra~2\gnuarm~1\102021~1.10\arm-none-eabi\include\c++\10.3.1\arm-none-eabi\thumb\v7e-m+fp\hard\bits\gthr-default.h **** static inline objc_thread_t
 110:c:\progra~2\gnuarm~1\102021~1.10\arm-none-eabi\include\c++\10.3.1\arm-none-eabi\thumb\v7e-m+fp\hard\bits\gthr-default.h **** __gthread_objc_thread_id (void)
 111:c:\progra~2\gnuarm~1\102021~1.10\arm-none-eabi\include\c++\10.3.1\arm-none-eabi\thumb\v7e-m+fp\hard\bits\gthr-default.h **** {
 112:c:\progra~2\gnuarm~1\102021~1.10\arm-none-eabi\include\c++\10.3.1\arm-none-eabi\thumb\v7e-m+fp\hard\bits\gthr-default.h ****   /* No thread support, use 1.  */
 113:c:\progra~2\gnuarm~1\102021~1.10\arm-none-eabi\include\c++\10.3.1\arm-none-eabi\thumb\v7e-m+fp\hard\bits\gthr-default.h ****   return (objc_thread_t) 1;
 114:c:\progra~2\gnuarm~1\102021~1.10\arm-none-eabi\include\c++\10.3.1\arm-none-eabi\thumb\v7e-m+fp\hard\bits\gthr-default.h **** }
 115:c:\progra~2\gnuarm~1\102021~1.10\arm-none-eabi\include\c++\10.3.1\arm-none-eabi\thumb\v7e-m+fp\hard\bits\gthr-default.h **** 
 116:c:\progra~2\gnuarm~1\102021~1.10\arm-none-eabi\include\c++\10.3.1\arm-none-eabi\thumb\v7e-m+fp\hard\bits\gthr-default.h **** /* Sets the thread's local storage pointer.  */
 117:c:\progra~2\gnuarm~1\102021~1.10\arm-none-eabi\include\c++\10.3.1\arm-none-eabi\thumb\v7e-m+fp\hard\bits\gthr-default.h **** static inline int
 118:c:\progra~2\gnuarm~1\102021~1.10\arm-none-eabi\include\c++\10.3.1\arm-none-eabi\thumb\v7e-m+fp\hard\bits\gthr-default.h **** __gthread_objc_thread_set_data (void *value)
 119:c:\progra~2\gnuarm~1\102021~1.10\arm-none-eabi\include\c++\10.3.1\arm-none-eabi\thumb\v7e-m+fp\hard\bits\gthr-default.h **** {
 120:c:\progra~2\gnuarm~1\102021~1.10\arm-none-eabi\include\c++\10.3.1\arm-none-eabi\thumb\v7e-m+fp\hard\bits\gthr-default.h ****   thread_local_storage = value;
 121:c:\progra~2\gnuarm~1\102021~1.10\arm-none-eabi\include\c++\10.3.1\arm-none-eabi\thumb\v7e-m+fp\hard\bits\gthr-default.h ****   return 0;
 122:c:\progra~2\gnuarm~1\102021~1.10\arm-none-eabi\include\c++\10.3.1\arm-none-eabi\thumb\v7e-m+fp\hard\bits\gthr-default.h **** }
 123:c:\progra~2\gnuarm~1\102021~1.10\arm-none-eabi\include\c++\10.3.1\arm-none-eabi\thumb\v7e-m+fp\hard\bits\gthr-default.h **** 
 124:c:\progra~2\gnuarm~1\102021~1.10\arm-none-eabi\include\c++\10.3.1\arm-none-eabi\thumb\v7e-m+fp\hard\bits\gthr-default.h **** /* Returns the thread's local storage pointer.  */
 125:c:\progra~2\gnuarm~1\102021~1.10\arm-none-eabi\include\c++\10.3.1\arm-none-eabi\thumb\v7e-m+fp\hard\bits\gthr-default.h **** static inline void *
 126:c:\progra~2\gnuarm~1\102021~1.10\arm-none-eabi\include\c++\10.3.1\arm-none-eabi\thumb\v7e-m+fp\hard\bits\gthr-default.h **** __gthread_objc_thread_get_data (void)
 127:c:\progra~2\gnuarm~1\102021~1.10\arm-none-eabi\include\c++\10.3.1\arm-none-eabi\thumb\v7e-m+fp\hard\bits\gthr-default.h **** {
 128:c:\progra~2\gnuarm~1\102021~1.10\arm-none-eabi\include\c++\10.3.1\arm-none-eabi\thumb\v7e-m+fp\hard\bits\gthr-default.h ****   return thread_local_storage;
 129:c:\progra~2\gnuarm~1\102021~1.10\arm-none-eabi\include\c++\10.3.1\arm-none-eabi\thumb\v7e-m+fp\hard\bits\gthr-default.h **** }
 130:c:\progra~2\gnuarm~1\102021~1.10\arm-none-eabi\include\c++\10.3.1\arm-none-eabi\thumb\v7e-m+fp\hard\bits\gthr-default.h **** 
 131:c:\progra~2\gnuarm~1\102021~1.10\arm-none-eabi\include\c++\10.3.1\arm-none-eabi\thumb\v7e-m+fp\hard\bits\gthr-default.h **** /* Backend mutex functions */
 132:c:\progra~2\gnuarm~1\102021~1.10\arm-none-eabi\include\c++\10.3.1\arm-none-eabi\thumb\v7e-m+fp\hard\bits\gthr-default.h **** 
 133:c:\progra~2\gnuarm~1\102021~1.10\arm-none-eabi\include\c++\10.3.1\arm-none-eabi\thumb\v7e-m+fp\hard\bits\gthr-default.h **** /* Allocate a mutex.  */
 134:c:\progra~2\gnuarm~1\102021~1.10\arm-none-eabi\include\c++\10.3.1\arm-none-eabi\thumb\v7e-m+fp\hard\bits\gthr-default.h **** static inline int
 135:c:\progra~2\gnuarm~1\102021~1.10\arm-none-eabi\include\c++\10.3.1\arm-none-eabi\thumb\v7e-m+fp\hard\bits\gthr-default.h **** __gthread_objc_mutex_allocate (objc_mutex_t mutex _GLIBCXX_UNUSED)
 136:c:\progra~2\gnuarm~1\102021~1.10\arm-none-eabi\include\c++\10.3.1\arm-none-eabi\thumb\v7e-m+fp\hard\bits\gthr-default.h **** {
 137:c:\progra~2\gnuarm~1\102021~1.10\arm-none-eabi\include\c++\10.3.1\arm-none-eabi\thumb\v7e-m+fp\hard\bits\gthr-default.h ****   return 0;
 138:c:\progra~2\gnuarm~1\102021~1.10\arm-none-eabi\include\c++\10.3.1\arm-none-eabi\thumb\v7e-m+fp\hard\bits\gthr-default.h **** }
ARM GAS   			page 4


 139:c:\progra~2\gnuarm~1\102021~1.10\arm-none-eabi\include\c++\10.3.1\arm-none-eabi\thumb\v7e-m+fp\hard\bits\gthr-default.h **** 
 140:c:\progra~2\gnuarm~1\102021~1.10\arm-none-eabi\include\c++\10.3.1\arm-none-eabi\thumb\v7e-m+fp\hard\bits\gthr-default.h **** /* Deallocate a mutex.  */
 141:c:\progra~2\gnuarm~1\102021~1.10\arm-none-eabi\include\c++\10.3.1\arm-none-eabi\thumb\v7e-m+fp\hard\bits\gthr-default.h **** static inline int
 142:c:\progra~2\gnuarm~1\102021~1.10\arm-none-eabi\include\c++\10.3.1\arm-none-eabi\thumb\v7e-m+fp\hard\bits\gthr-default.h **** __gthread_objc_mutex_deallocate (objc_mutex_t mutex _GLIBCXX_UNUSED)
 143:c:\progra~2\gnuarm~1\102021~1.10\arm-none-eabi\include\c++\10.3.1\arm-none-eabi\thumb\v7e-m+fp\hard\bits\gthr-default.h **** {
 144:c:\progra~2\gnuarm~1\102021~1.10\arm-none-eabi\include\c++\10.3.1\arm-none-eabi\thumb\v7e-m+fp\hard\bits\gthr-default.h ****   return 0;
 145:c:\progra~2\gnuarm~1\102021~1.10\arm-none-eabi\include\c++\10.3.1\arm-none-eabi\thumb\v7e-m+fp\hard\bits\gthr-default.h **** }
 146:c:\progra~2\gnuarm~1\102021~1.10\arm-none-eabi\include\c++\10.3.1\arm-none-eabi\thumb\v7e-m+fp\hard\bits\gthr-default.h **** 
 147:c:\progra~2\gnuarm~1\102021~1.10\arm-none-eabi\include\c++\10.3.1\arm-none-eabi\thumb\v7e-m+fp\hard\bits\gthr-default.h **** /* Grab a lock on a mutex.  */
 148:c:\progra~2\gnuarm~1\102021~1.10\arm-none-eabi\include\c++\10.3.1\arm-none-eabi\thumb\v7e-m+fp\hard\bits\gthr-default.h **** static inline int
 149:c:\progra~2\gnuarm~1\102021~1.10\arm-none-eabi\include\c++\10.3.1\arm-none-eabi\thumb\v7e-m+fp\hard\bits\gthr-default.h **** __gthread_objc_mutex_lock (objc_mutex_t mutex _GLIBCXX_UNUSED)
 150:c:\progra~2\gnuarm~1\102021~1.10\arm-none-eabi\include\c++\10.3.1\arm-none-eabi\thumb\v7e-m+fp\hard\bits\gthr-default.h **** {
 151:c:\progra~2\gnuarm~1\102021~1.10\arm-none-eabi\include\c++\10.3.1\arm-none-eabi\thumb\v7e-m+fp\hard\bits\gthr-default.h ****   /* There can only be one thread, so we always get the lock */
 152:c:\progra~2\gnuarm~1\102021~1.10\arm-none-eabi\include\c++\10.3.1\arm-none-eabi\thumb\v7e-m+fp\hard\bits\gthr-default.h ****   return 0;
 153:c:\progra~2\gnuarm~1\102021~1.10\arm-none-eabi\include\c++\10.3.1\arm-none-eabi\thumb\v7e-m+fp\hard\bits\gthr-default.h **** }
 154:c:\progra~2\gnuarm~1\102021~1.10\arm-none-eabi\include\c++\10.3.1\arm-none-eabi\thumb\v7e-m+fp\hard\bits\gthr-default.h **** 
 155:c:\progra~2\gnuarm~1\102021~1.10\arm-none-eabi\include\c++\10.3.1\arm-none-eabi\thumb\v7e-m+fp\hard\bits\gthr-default.h **** /* Try to grab a lock on a mutex.  */
 156:c:\progra~2\gnuarm~1\102021~1.10\arm-none-eabi\include\c++\10.3.1\arm-none-eabi\thumb\v7e-m+fp\hard\bits\gthr-default.h **** static inline int
 157:c:\progra~2\gnuarm~1\102021~1.10\arm-none-eabi\include\c++\10.3.1\arm-none-eabi\thumb\v7e-m+fp\hard\bits\gthr-default.h **** __gthread_objc_mutex_trylock (objc_mutex_t mutex _GLIBCXX_UNUSED)
 158:c:\progra~2\gnuarm~1\102021~1.10\arm-none-eabi\include\c++\10.3.1\arm-none-eabi\thumb\v7e-m+fp\hard\bits\gthr-default.h **** {
 159:c:\progra~2\gnuarm~1\102021~1.10\arm-none-eabi\include\c++\10.3.1\arm-none-eabi\thumb\v7e-m+fp\hard\bits\gthr-default.h ****   /* There can only be one thread, so we always get the lock */
 160:c:\progra~2\gnuarm~1\102021~1.10\arm-none-eabi\include\c++\10.3.1\arm-none-eabi\thumb\v7e-m+fp\hard\bits\gthr-default.h ****   return 0;
 161:c:\progra~2\gnuarm~1\102021~1.10\arm-none-eabi\include\c++\10.3.1\arm-none-eabi\thumb\v7e-m+fp\hard\bits\gthr-default.h **** }
 162:c:\progra~2\gnuarm~1\102021~1.10\arm-none-eabi\include\c++\10.3.1\arm-none-eabi\thumb\v7e-m+fp\hard\bits\gthr-default.h **** 
 163:c:\progra~2\gnuarm~1\102021~1.10\arm-none-eabi\include\c++\10.3.1\arm-none-eabi\thumb\v7e-m+fp\hard\bits\gthr-default.h **** /* Unlock the mutex */
 164:c:\progra~2\gnuarm~1\102021~1.10\arm-none-eabi\include\c++\10.3.1\arm-none-eabi\thumb\v7e-m+fp\hard\bits\gthr-default.h **** static inline int
 165:c:\progra~2\gnuarm~1\102021~1.10\arm-none-eabi\include\c++\10.3.1\arm-none-eabi\thumb\v7e-m+fp\hard\bits\gthr-default.h **** __gthread_objc_mutex_unlock (objc_mutex_t mutex _GLIBCXX_UNUSED)
 166:c:\progra~2\gnuarm~1\102021~1.10\arm-none-eabi\include\c++\10.3.1\arm-none-eabi\thumb\v7e-m+fp\hard\bits\gthr-default.h **** {
 167:c:\progra~2\gnuarm~1\102021~1.10\arm-none-eabi\include\c++\10.3.1\arm-none-eabi\thumb\v7e-m+fp\hard\bits\gthr-default.h ****   return 0;
 168:c:\progra~2\gnuarm~1\102021~1.10\arm-none-eabi\include\c++\10.3.1\arm-none-eabi\thumb\v7e-m+fp\hard\bits\gthr-default.h **** }
 169:c:\progra~2\gnuarm~1\102021~1.10\arm-none-eabi\include\c++\10.3.1\arm-none-eabi\thumb\v7e-m+fp\hard\bits\gthr-default.h **** 
 170:c:\progra~2\gnuarm~1\102021~1.10\arm-none-eabi\include\c++\10.3.1\arm-none-eabi\thumb\v7e-m+fp\hard\bits\gthr-default.h **** /* Backend condition mutex functions */
 171:c:\progra~2\gnuarm~1\102021~1.10\arm-none-eabi\include\c++\10.3.1\arm-none-eabi\thumb\v7e-m+fp\hard\bits\gthr-default.h **** 
 172:c:\progra~2\gnuarm~1\102021~1.10\arm-none-eabi\include\c++\10.3.1\arm-none-eabi\thumb\v7e-m+fp\hard\bits\gthr-default.h **** /* Allocate a condition.  */
 173:c:\progra~2\gnuarm~1\102021~1.10\arm-none-eabi\include\c++\10.3.1\arm-none-eabi\thumb\v7e-m+fp\hard\bits\gthr-default.h **** static inline int
 174:c:\progra~2\gnuarm~1\102021~1.10\arm-none-eabi\include\c++\10.3.1\arm-none-eabi\thumb\v7e-m+fp\hard\bits\gthr-default.h **** __gthread_objc_condition_allocate (objc_condition_t condition _GLIBCXX_UNUSED)
 175:c:\progra~2\gnuarm~1\102021~1.10\arm-none-eabi\include\c++\10.3.1\arm-none-eabi\thumb\v7e-m+fp\hard\bits\gthr-default.h **** {
 176:c:\progra~2\gnuarm~1\102021~1.10\arm-none-eabi\include\c++\10.3.1\arm-none-eabi\thumb\v7e-m+fp\hard\bits\gthr-default.h ****   return 0;
 177:c:\progra~2\gnuarm~1\102021~1.10\arm-none-eabi\include\c++\10.3.1\arm-none-eabi\thumb\v7e-m+fp\hard\bits\gthr-default.h **** }
 178:c:\progra~2\gnuarm~1\102021~1.10\arm-none-eabi\include\c++\10.3.1\arm-none-eabi\thumb\v7e-m+fp\hard\bits\gthr-default.h **** 
 179:c:\progra~2\gnuarm~1\102021~1.10\arm-none-eabi\include\c++\10.3.1\arm-none-eabi\thumb\v7e-m+fp\hard\bits\gthr-default.h **** /* Deallocate a condition.  */
 180:c:\progra~2\gnuarm~1\102021~1.10\arm-none-eabi\include\c++\10.3.1\arm-none-eabi\thumb\v7e-m+fp\hard\bits\gthr-default.h **** static inline int
 181:c:\progra~2\gnuarm~1\102021~1.10\arm-none-eabi\include\c++\10.3.1\arm-none-eabi\thumb\v7e-m+fp\hard\bits\gthr-default.h **** __gthread_objc_condition_deallocate (objc_condition_t condition _GLIBCXX_UNUSED)
 182:c:\progra~2\gnuarm~1\102021~1.10\arm-none-eabi\include\c++\10.3.1\arm-none-eabi\thumb\v7e-m+fp\hard\bits\gthr-default.h **** {
 183:c:\progra~2\gnuarm~1\102021~1.10\arm-none-eabi\include\c++\10.3.1\arm-none-eabi\thumb\v7e-m+fp\hard\bits\gthr-default.h ****   return 0;
 184:c:\progra~2\gnuarm~1\102021~1.10\arm-none-eabi\include\c++\10.3.1\arm-none-eabi\thumb\v7e-m+fp\hard\bits\gthr-default.h **** }
 185:c:\progra~2\gnuarm~1\102021~1.10\arm-none-eabi\include\c++\10.3.1\arm-none-eabi\thumb\v7e-m+fp\hard\bits\gthr-default.h **** 
 186:c:\progra~2\gnuarm~1\102021~1.10\arm-none-eabi\include\c++\10.3.1\arm-none-eabi\thumb\v7e-m+fp\hard\bits\gthr-default.h **** /* Wait on the condition */
 187:c:\progra~2\gnuarm~1\102021~1.10\arm-none-eabi\include\c++\10.3.1\arm-none-eabi\thumb\v7e-m+fp\hard\bits\gthr-default.h **** static inline int
 188:c:\progra~2\gnuarm~1\102021~1.10\arm-none-eabi\include\c++\10.3.1\arm-none-eabi\thumb\v7e-m+fp\hard\bits\gthr-default.h **** __gthread_objc_condition_wait (objc_condition_t condition _GLIBCXX_UNUSED,
 189:c:\progra~2\gnuarm~1\102021~1.10\arm-none-eabi\include\c++\10.3.1\arm-none-eabi\thumb\v7e-m+fp\hard\bits\gthr-default.h **** 			       objc_mutex_t mutex _GLIBCXX_UNUSED)
 190:c:\progra~2\gnuarm~1\102021~1.10\arm-none-eabi\include\c++\10.3.1\arm-none-eabi\thumb\v7e-m+fp\hard\bits\gthr-default.h **** {
 191:c:\progra~2\gnuarm~1\102021~1.10\arm-none-eabi\include\c++\10.3.1\arm-none-eabi\thumb\v7e-m+fp\hard\bits\gthr-default.h ****   return 0;
 192:c:\progra~2\gnuarm~1\102021~1.10\arm-none-eabi\include\c++\10.3.1\arm-none-eabi\thumb\v7e-m+fp\hard\bits\gthr-default.h **** }
 193:c:\progra~2\gnuarm~1\102021~1.10\arm-none-eabi\include\c++\10.3.1\arm-none-eabi\thumb\v7e-m+fp\hard\bits\gthr-default.h **** 
 194:c:\progra~2\gnuarm~1\102021~1.10\arm-none-eabi\include\c++\10.3.1\arm-none-eabi\thumb\v7e-m+fp\hard\bits\gthr-default.h **** /* Wake up all threads waiting on this condition.  */
 195:c:\progra~2\gnuarm~1\102021~1.10\arm-none-eabi\include\c++\10.3.1\arm-none-eabi\thumb\v7e-m+fp\hard\bits\gthr-default.h **** static inline int
ARM GAS   			page 5


 196:c:\progra~2\gnuarm~1\102021~1.10\arm-none-eabi\include\c++\10.3.1\arm-none-eabi\thumb\v7e-m+fp\hard\bits\gthr-default.h **** __gthread_objc_condition_broadcast (objc_condition_t condition _GLIBCXX_UNUSED)
 197:c:\progra~2\gnuarm~1\102021~1.10\arm-none-eabi\include\c++\10.3.1\arm-none-eabi\thumb\v7e-m+fp\hard\bits\gthr-default.h **** {
 198:c:\progra~2\gnuarm~1\102021~1.10\arm-none-eabi\include\c++\10.3.1\arm-none-eabi\thumb\v7e-m+fp\hard\bits\gthr-default.h ****   return 0;
 199:c:\progra~2\gnuarm~1\102021~1.10\arm-none-eabi\include\c++\10.3.1\arm-none-eabi\thumb\v7e-m+fp\hard\bits\gthr-default.h **** }
 200:c:\progra~2\gnuarm~1\102021~1.10\arm-none-eabi\include\c++\10.3.1\arm-none-eabi\thumb\v7e-m+fp\hard\bits\gthr-default.h **** 
 201:c:\progra~2\gnuarm~1\102021~1.10\arm-none-eabi\include\c++\10.3.1\arm-none-eabi\thumb\v7e-m+fp\hard\bits\gthr-default.h **** /* Wake up one thread waiting on this condition.  */
 202:c:\progra~2\gnuarm~1\102021~1.10\arm-none-eabi\include\c++\10.3.1\arm-none-eabi\thumb\v7e-m+fp\hard\bits\gthr-default.h **** static inline int
 203:c:\progra~2\gnuarm~1\102021~1.10\arm-none-eabi\include\c++\10.3.1\arm-none-eabi\thumb\v7e-m+fp\hard\bits\gthr-default.h **** __gthread_objc_condition_signal (objc_condition_t condition _GLIBCXX_UNUSED)
 204:c:\progra~2\gnuarm~1\102021~1.10\arm-none-eabi\include\c++\10.3.1\arm-none-eabi\thumb\v7e-m+fp\hard\bits\gthr-default.h **** {
 205:c:\progra~2\gnuarm~1\102021~1.10\arm-none-eabi\include\c++\10.3.1\arm-none-eabi\thumb\v7e-m+fp\hard\bits\gthr-default.h ****   return 0;
 206:c:\progra~2\gnuarm~1\102021~1.10\arm-none-eabi\include\c++\10.3.1\arm-none-eabi\thumb\v7e-m+fp\hard\bits\gthr-default.h **** }
 207:c:\progra~2\gnuarm~1\102021~1.10\arm-none-eabi\include\c++\10.3.1\arm-none-eabi\thumb\v7e-m+fp\hard\bits\gthr-default.h **** 
 208:c:\progra~2\gnuarm~1\102021~1.10\arm-none-eabi\include\c++\10.3.1\arm-none-eabi\thumb\v7e-m+fp\hard\bits\gthr-default.h **** #else /* _LIBOBJC */
 209:c:\progra~2\gnuarm~1\102021~1.10\arm-none-eabi\include\c++\10.3.1\arm-none-eabi\thumb\v7e-m+fp\hard\bits\gthr-default.h **** 
 210:c:\progra~2\gnuarm~1\102021~1.10\arm-none-eabi\include\c++\10.3.1\arm-none-eabi\thumb\v7e-m+fp\hard\bits\gthr-default.h **** static inline int
 211:c:\progra~2\gnuarm~1\102021~1.10\arm-none-eabi\include\c++\10.3.1\arm-none-eabi\thumb\v7e-m+fp\hard\bits\gthr-default.h **** __gthread_active_p (void)
 212:c:\progra~2\gnuarm~1\102021~1.10\arm-none-eabi\include\c++\10.3.1\arm-none-eabi\thumb\v7e-m+fp\hard\bits\gthr-default.h **** {
 213:c:\progra~2\gnuarm~1\102021~1.10\arm-none-eabi\include\c++\10.3.1\arm-none-eabi\thumb\v7e-m+fp\hard\bits\gthr-default.h ****   return 0;
 214:c:\progra~2\gnuarm~1\102021~1.10\arm-none-eabi\include\c++\10.3.1\arm-none-eabi\thumb\v7e-m+fp\hard\bits\gthr-default.h **** }
 215:c:\progra~2\gnuarm~1\102021~1.10\arm-none-eabi\include\c++\10.3.1\arm-none-eabi\thumb\v7e-m+fp\hard\bits\gthr-default.h **** 
 216:c:\progra~2\gnuarm~1\102021~1.10\arm-none-eabi\include\c++\10.3.1\arm-none-eabi\thumb\v7e-m+fp\hard\bits\gthr-default.h **** static inline int
 217:c:\progra~2\gnuarm~1\102021~1.10\arm-none-eabi\include\c++\10.3.1\arm-none-eabi\thumb\v7e-m+fp\hard\bits\gthr-default.h **** __gthread_once (__gthread_once_t *__once _GLIBCXX_UNUSED, void (*__func) (void) _GLIBCXX_UNUSED)
 218:c:\progra~2\gnuarm~1\102021~1.10\arm-none-eabi\include\c++\10.3.1\arm-none-eabi\thumb\v7e-m+fp\hard\bits\gthr-default.h **** {
 219:c:\progra~2\gnuarm~1\102021~1.10\arm-none-eabi\include\c++\10.3.1\arm-none-eabi\thumb\v7e-m+fp\hard\bits\gthr-default.h ****   return 0;
 220:c:\progra~2\gnuarm~1\102021~1.10\arm-none-eabi\include\c++\10.3.1\arm-none-eabi\thumb\v7e-m+fp\hard\bits\gthr-default.h **** }
 221:c:\progra~2\gnuarm~1\102021~1.10\arm-none-eabi\include\c++\10.3.1\arm-none-eabi\thumb\v7e-m+fp\hard\bits\gthr-default.h **** 
 222:c:\progra~2\gnuarm~1\102021~1.10\arm-none-eabi\include\c++\10.3.1\arm-none-eabi\thumb\v7e-m+fp\hard\bits\gthr-default.h **** static inline int _GLIBCXX_UNUSED
 223:c:\progra~2\gnuarm~1\102021~1.10\arm-none-eabi\include\c++\10.3.1\arm-none-eabi\thumb\v7e-m+fp\hard\bits\gthr-default.h **** __gthread_key_create (__gthread_key_t *__key _GLIBCXX_UNUSED, void (*__func) (void *) _GLIBCXX_UNUS
 224:c:\progra~2\gnuarm~1\102021~1.10\arm-none-eabi\include\c++\10.3.1\arm-none-eabi\thumb\v7e-m+fp\hard\bits\gthr-default.h **** {
 225:c:\progra~2\gnuarm~1\102021~1.10\arm-none-eabi\include\c++\10.3.1\arm-none-eabi\thumb\v7e-m+fp\hard\bits\gthr-default.h ****   return 0;
 226:c:\progra~2\gnuarm~1\102021~1.10\arm-none-eabi\include\c++\10.3.1\arm-none-eabi\thumb\v7e-m+fp\hard\bits\gthr-default.h **** }
 227:c:\progra~2\gnuarm~1\102021~1.10\arm-none-eabi\include\c++\10.3.1\arm-none-eabi\thumb\v7e-m+fp\hard\bits\gthr-default.h **** 
 228:c:\progra~2\gnuarm~1\102021~1.10\arm-none-eabi\include\c++\10.3.1\arm-none-eabi\thumb\v7e-m+fp\hard\bits\gthr-default.h **** static int _GLIBCXX_UNUSED
 229:c:\progra~2\gnuarm~1\102021~1.10\arm-none-eabi\include\c++\10.3.1\arm-none-eabi\thumb\v7e-m+fp\hard\bits\gthr-default.h **** __gthread_key_delete (__gthread_key_t __key _GLIBCXX_UNUSED)
 230:c:\progra~2\gnuarm~1\102021~1.10\arm-none-eabi\include\c++\10.3.1\arm-none-eabi\thumb\v7e-m+fp\hard\bits\gthr-default.h **** {
  34              	 .loc 1 230 1
  35              	 .cfi_startproc
  36              	 
  37              	 
  38              	 
  39 0000 80B4     	 push {r7}
  40              	 .cfi_def_cfa_offset 4
  41              	 .cfi_offset 7,-4
  42 0002 83B0     	 sub sp,sp,#12
  43              	 .cfi_def_cfa_offset 16
  44 0004 00AF     	 add r7,sp,#0
  45              	 .cfi_def_cfa_register 7
  46 0006 7860     	 str r0,[r7,#4]
 231:c:\progra~2\gnuarm~1\102021~1.10\arm-none-eabi\include\c++\10.3.1\arm-none-eabi\thumb\v7e-m+fp\hard\bits\gthr-default.h ****   return 0;
  47              	 .loc 1 231 10
  48 0008 0023     	 movs r3,#0
 232:c:\progra~2\gnuarm~1\102021~1.10\arm-none-eabi\include\c++\10.3.1\arm-none-eabi\thumb\v7e-m+fp\hard\bits\gthr-default.h **** }
  49              	 .loc 1 232 1
  50 000a 1846     	 mov r0,r3
  51 000c 0C37     	 adds r7,r7,#12
  52              	 .cfi_def_cfa_offset 4
  53 000e BD46     	 mov sp,r7
ARM GAS   			page 6


  54              	 .cfi_def_cfa_register 13
  55              	 
  56 0010 5DF8047B 	 ldr r7,[sp],#4
  57              	 .cfi_restore 7
  58              	 .cfi_def_cfa_offset 0
  59 0014 7047     	 bx lr
  60              	 .cfi_endproc
  61              	.LFE652:
  62              	 .size _ZL20__gthread_key_deletei,.-_ZL20__gthread_key_deletei
  63              	 .section .text._ZN12cpp_freertos8WorkItemC2Eb,"ax",%progbits
  64              	 .align 1
  65              	 .global _ZN12cpp_freertos8WorkItemC2Eb
  66              	 .syntax unified
  67              	 .thumb
  68              	 .thumb_func
  69              	 .type _ZN12cpp_freertos8WorkItemC2Eb,%function
  70              	_ZN12cpp_freertos8WorkItemC2Eb:
  71              	.LFB1056:
  72              	 .file 2 "C:\\Users\\niels\\Documents\\Elektrotechniek\\Jaar 3\\dspl\\software\\STM32Basis\\HAL\\gemeenschappelijk\\Third_Party\\freertos-addons-1.1.0\\c++\\Source\\cworkqueue.cpp"
   1:C:\Users\niels\Documents\Elektrotechniek\Jaar 3\dspl\software\STM32Basis\HAL\gemeenschappelijk\Third_Party\freertos-addons-1.1.0\c++\Source\cworkqueue.cpp **** /****************************************************************************
   2:C:\Users\niels\Documents\Elektrotechniek\Jaar 3\dspl\software\STM32Basis\HAL\gemeenschappelijk\Third_Party\freertos-addons-1.1.0\c++\Source\cworkqueue.cpp ****  *
   3:C:\Users\niels\Documents\Elektrotechniek\Jaar 3\dspl\software\STM32Basis\HAL\gemeenschappelijk\Third_Party\freertos-addons-1.1.0\c++\Source\cworkqueue.cpp ****  *  Copyright (c) 2016, Michael Becker (michael.f.becker@gmail.com)
   4:C:\Users\niels\Documents\Elektrotechniek\Jaar 3\dspl\software\STM32Basis\HAL\gemeenschappelijk\Third_Party\freertos-addons-1.1.0\c++\Source\cworkqueue.cpp ****  *
   5:C:\Users\niels\Documents\Elektrotechniek\Jaar 3\dspl\software\STM32Basis\HAL\gemeenschappelijk\Third_Party\freertos-addons-1.1.0\c++\Source\cworkqueue.cpp ****  *  This file is part of the FreeRTOS C++ Wrappers project.
   6:C:\Users\niels\Documents\Elektrotechniek\Jaar 3\dspl\software\STM32Basis\HAL\gemeenschappelijk\Third_Party\freertos-addons-1.1.0\c++\Source\cworkqueue.cpp ****  *
   7:C:\Users\niels\Documents\Elektrotechniek\Jaar 3\dspl\software\STM32Basis\HAL\gemeenschappelijk\Third_Party\freertos-addons-1.1.0\c++\Source\cworkqueue.cpp ****  *  The FreeRTOS C++ Wrappers project is free software: you can redistribute
   8:C:\Users\niels\Documents\Elektrotechniek\Jaar 3\dspl\software\STM32Basis\HAL\gemeenschappelijk\Third_Party\freertos-addons-1.1.0\c++\Source\cworkqueue.cpp ****  *  it and/or modify it under the terms of the GNU General Public License as
   9:C:\Users\niels\Documents\Elektrotechniek\Jaar 3\dspl\software\STM32Basis\HAL\gemeenschappelijk\Third_Party\freertos-addons-1.1.0\c++\Source\cworkqueue.cpp ****  *  published by the Free Software Foundation, either version 2
  10:C:\Users\niels\Documents\Elektrotechniek\Jaar 3\dspl\software\STM32Basis\HAL\gemeenschappelijk\Third_Party\freertos-addons-1.1.0\c++\Source\cworkqueue.cpp ****  *  of the License, or (at your option) any later version.
  11:C:\Users\niels\Documents\Elektrotechniek\Jaar 3\dspl\software\STM32Basis\HAL\gemeenschappelijk\Third_Party\freertos-addons-1.1.0\c++\Source\cworkqueue.cpp ****  *
  12:C:\Users\niels\Documents\Elektrotechniek\Jaar 3\dspl\software\STM32Basis\HAL\gemeenschappelijk\Third_Party\freertos-addons-1.1.0\c++\Source\cworkqueue.cpp ****  *  The FreeRTOS C++ Wrappers project is distributed in the hope that it will
  13:C:\Users\niels\Documents\Elektrotechniek\Jaar 3\dspl\software\STM32Basis\HAL\gemeenschappelijk\Third_Party\freertos-addons-1.1.0\c++\Source\cworkqueue.cpp ****  *  be useful, but WITHOUT ANY WARRANTY; without even the implied warranty of
  14:C:\Users\niels\Documents\Elektrotechniek\Jaar 3\dspl\software\STM32Basis\HAL\gemeenschappelijk\Third_Party\freertos-addons-1.1.0\c++\Source\cworkqueue.cpp ****  *  MERCHANTABILITY or FITNESS FOR A PARTICULAR PURPOSE.  See the
  15:C:\Users\niels\Documents\Elektrotechniek\Jaar 3\dspl\software\STM32Basis\HAL\gemeenschappelijk\Third_Party\freertos-addons-1.1.0\c++\Source\cworkqueue.cpp ****  *  GNU General Public License for more details.
  16:C:\Users\niels\Documents\Elektrotechniek\Jaar 3\dspl\software\STM32Basis\HAL\gemeenschappelijk\Third_Party\freertos-addons-1.1.0\c++\Source\cworkqueue.cpp ****  *
  17:C:\Users\niels\Documents\Elektrotechniek\Jaar 3\dspl\software\STM32Basis\HAL\gemeenschappelijk\Third_Party\freertos-addons-1.1.0\c++\Source\cworkqueue.cpp ****  *  You should have received a copy of the GNU General Public License
  18:C:\Users\niels\Documents\Elektrotechniek\Jaar 3\dspl\software\STM32Basis\HAL\gemeenschappelijk\Third_Party\freertos-addons-1.1.0\c++\Source\cworkqueue.cpp ****  *  along with the FreeRTOS C++ Wrappers project.
  19:C:\Users\niels\Documents\Elektrotechniek\Jaar 3\dspl\software\STM32Basis\HAL\gemeenschappelijk\Third_Party\freertos-addons-1.1.0\c++\Source\cworkqueue.cpp ****  *  If not, see <http://www.gnu.org/licenses/>.
  20:C:\Users\niels\Documents\Elektrotechniek\Jaar 3\dspl\software\STM32Basis\HAL\gemeenschappelijk\Third_Party\freertos-addons-1.1.0\c++\Source\cworkqueue.cpp ****  *
  21:C:\Users\niels\Documents\Elektrotechniek\Jaar 3\dspl\software\STM32Basis\HAL\gemeenschappelijk\Third_Party\freertos-addons-1.1.0\c++\Source\cworkqueue.cpp ****  ***************************************************************************/
  22:C:\Users\niels\Documents\Elektrotechniek\Jaar 3\dspl\software\STM32Basis\HAL\gemeenschappelijk\Third_Party\freertos-addons-1.1.0\c++\Source\cworkqueue.cpp **** #include "workqueue.hpp"
  23:C:\Users\niels\Documents\Elektrotechniek\Jaar 3\dspl\software\STM32Basis\HAL\gemeenschappelijk\Third_Party\freertos-addons-1.1.0\c++\Source\cworkqueue.cpp **** 
  24:C:\Users\niels\Documents\Elektrotechniek\Jaar 3\dspl\software\STM32Basis\HAL\gemeenschappelijk\Third_Party\freertos-addons-1.1.0\c++\Source\cworkqueue.cpp **** 
  25:C:\Users\niels\Documents\Elektrotechniek\Jaar 3\dspl\software\STM32Basis\HAL\gemeenschappelijk\Third_Party\freertos-addons-1.1.0\c++\Source\cworkqueue.cpp **** using namespace cpp_freertos;
  26:C:\Users\niels\Documents\Elektrotechniek\Jaar 3\dspl\software\STM32Basis\HAL\gemeenschappelijk\Third_Party\freertos-addons-1.1.0\c++\Source\cworkqueue.cpp **** 
  27:C:\Users\niels\Documents\Elektrotechniek\Jaar 3\dspl\software\STM32Basis\HAL\gemeenschappelijk\Third_Party\freertos-addons-1.1.0\c++\Source\cworkqueue.cpp **** 
  28:C:\Users\niels\Documents\Elektrotechniek\Jaar 3\dspl\software\STM32Basis\HAL\gemeenschappelijk\Third_Party\freertos-addons-1.1.0\c++\Source\cworkqueue.cpp **** WorkItem::WorkItem(bool freeAfterComplete)
  73              	 .loc 2 28 1
  74              	 .cfi_startproc
  75              	 
  76              	 
  77              	 
  78 0000 80B4     	 push {r7}
  79              	 .cfi_def_cfa_offset 4
  80              	 .cfi_offset 7,-4
  81 0002 83B0     	 sub sp,sp,#12
  82              	 .cfi_def_cfa_offset 16
ARM GAS   			page 7


  83 0004 00AF     	 add r7,sp,#0
  84              	 .cfi_def_cfa_register 7
  85 0006 7860     	 str r0,[r7,#4]
  86 0008 0B46     	 mov r3,r1
  87 000a FB70     	 strb r3,[r7,#3]
  88              	.LBB2:
  29:C:\Users\niels\Documents\Elektrotechniek\Jaar 3\dspl\software\STM32Basis\HAL\gemeenschappelijk\Third_Party\freertos-addons-1.1.0\c++\Source\cworkqueue.cpp ****     : FreeItemAfterCompleted(freeAfterComplete)
  89              	 .loc 2 29 47
  90 000c 064A     	 ldr r2,.L5
  91 000e 7B68     	 ldr r3,[r7,#4]
  92 0010 1A60     	 str r2,[r3]
  93 0012 7B68     	 ldr r3,[r7,#4]
  94 0014 FA78     	 ldrb r2,[r7,#3]
  95 0016 1A71     	 strb r2,[r3,#4]
  96              	.LBE2:
  30:C:\Users\niels\Documents\Elektrotechniek\Jaar 3\dspl\software\STM32Basis\HAL\gemeenschappelijk\Third_Party\freertos-addons-1.1.0\c++\Source\cworkqueue.cpp **** {
  31:C:\Users\niels\Documents\Elektrotechniek\Jaar 3\dspl\software\STM32Basis\HAL\gemeenschappelijk\Third_Party\freertos-addons-1.1.0\c++\Source\cworkqueue.cpp **** }
  97              	 .loc 2 31 1
  98 0018 7B68     	 ldr r3,[r7,#4]
  99 001a 1846     	 mov r0,r3
 100 001c 0C37     	 adds r7,r7,#12
 101              	 .cfi_def_cfa_offset 4
 102 001e BD46     	 mov sp,r7
 103              	 .cfi_def_cfa_register 13
 104              	 
 105 0020 5DF8047B 	 ldr r7,[sp],#4
 106              	 .cfi_restore 7
 107              	 .cfi_def_cfa_offset 0
 108 0024 7047     	 bx lr
 109              	.L6:
 110 0026 00BF     	 .align 2
 111              	.L5:
 112 0028 08000000 	 .word _ZTVN12cpp_freertos8WorkItemE+8
 113              	 .cfi_endproc
 114              	.LFE1056:
 115              	 .size _ZN12cpp_freertos8WorkItemC2Eb,.-_ZN12cpp_freertos8WorkItemC2Eb
 116              	 .global _ZN12cpp_freertos8WorkItemC1Eb
 117              	 .thumb_set _ZN12cpp_freertos8WorkItemC1Eb,_ZN12cpp_freertos8WorkItemC2Eb
 118              	 .section .text._ZN12cpp_freertos8WorkItemD2Ev,"ax",%progbits
 119              	 .align 1
 120              	 .global _ZN12cpp_freertos8WorkItemD2Ev
 121              	 .syntax unified
 122              	 .thumb
 123              	 .thumb_func
 124              	 .type _ZN12cpp_freertos8WorkItemD2Ev,%function
 125              	_ZN12cpp_freertos8WorkItemD2Ev:
 126              	.LFB1059:
  32:C:\Users\niels\Documents\Elektrotechniek\Jaar 3\dspl\software\STM32Basis\HAL\gemeenschappelijk\Third_Party\freertos-addons-1.1.0\c++\Source\cworkqueue.cpp **** 
  33:C:\Users\niels\Documents\Elektrotechniek\Jaar 3\dspl\software\STM32Basis\HAL\gemeenschappelijk\Third_Party\freertos-addons-1.1.0\c++\Source\cworkqueue.cpp **** 
  34:C:\Users\niels\Documents\Elektrotechniek\Jaar 3\dspl\software\STM32Basis\HAL\gemeenschappelijk\Third_Party\freertos-addons-1.1.0\c++\Source\cworkqueue.cpp **** WorkItem::~WorkItem()
 127              	 .loc 2 34 1
 128              	 .cfi_startproc
 129              	 
 130              	 
 131              	 
 132 0000 80B4     	 push {r7}
 133              	 .cfi_def_cfa_offset 4
ARM GAS   			page 8


 134              	 .cfi_offset 7,-4
 135 0002 83B0     	 sub sp,sp,#12
 136              	 .cfi_def_cfa_offset 16
 137 0004 00AF     	 add r7,sp,#0
 138              	 .cfi_def_cfa_register 7
 139 0006 7860     	 str r0,[r7,#4]
 140              	.LBB3:
 141              	 .loc 2 34 21
 142 0008 044A     	 ldr r2,.L9
 143 000a 7B68     	 ldr r3,[r7,#4]
 144 000c 1A60     	 str r2,[r3]
 145              	.LBE3:
  35:C:\Users\niels\Documents\Elektrotechniek\Jaar 3\dspl\software\STM32Basis\HAL\gemeenschappelijk\Third_Party\freertos-addons-1.1.0\c++\Source\cworkqueue.cpp **** {
  36:C:\Users\niels\Documents\Elektrotechniek\Jaar 3\dspl\software\STM32Basis\HAL\gemeenschappelijk\Third_Party\freertos-addons-1.1.0\c++\Source\cworkqueue.cpp **** }
 146              	 .loc 2 36 1
 147 000e 7B68     	 ldr r3,[r7,#4]
 148 0010 1846     	 mov r0,r3
 149 0012 0C37     	 adds r7,r7,#12
 150              	 .cfi_def_cfa_offset 4
 151 0014 BD46     	 mov sp,r7
 152              	 .cfi_def_cfa_register 13
 153              	 
 154 0016 5DF8047B 	 ldr r7,[sp],#4
 155              	 .cfi_restore 7
 156              	 .cfi_def_cfa_offset 0
 157 001a 7047     	 bx lr
 158              	.L10:
 159              	 .align 2
 160              	.L9:
 161 001c 08000000 	 .word _ZTVN12cpp_freertos8WorkItemE+8
 162              	 .cfi_endproc
 163              	.LFE1059:
 164              	 .size _ZN12cpp_freertos8WorkItemD2Ev,.-_ZN12cpp_freertos8WorkItemD2Ev
 165              	 .global _ZN12cpp_freertos8WorkItemD1Ev
 166              	 .thumb_set _ZN12cpp_freertos8WorkItemD1Ev,_ZN12cpp_freertos8WorkItemD2Ev
 167              	 .section .text._ZN12cpp_freertos8WorkItemD0Ev,"ax",%progbits
 168              	 .align 1
 169              	 .global _ZN12cpp_freertos8WorkItemD0Ev
 170              	 .syntax unified
 171              	 .thumb
 172              	 .thumb_func
 173              	 .type _ZN12cpp_freertos8WorkItemD0Ev,%function
 174              	_ZN12cpp_freertos8WorkItemD0Ev:
 175              	.LFB1061:
  34:C:\Users\niels\Documents\Elektrotechniek\Jaar 3\dspl\software\STM32Basis\HAL\gemeenschappelijk\Third_Party\freertos-addons-1.1.0\c++\Source\cworkqueue.cpp **** {
 176              	 .loc 2 34 1
 177              	 .cfi_startproc
 178              	 
 179              	 
 180 0000 80B5     	 push {r7,lr}
 181              	 .cfi_def_cfa_offset 8
 182              	 .cfi_offset 7,-8
 183              	 .cfi_offset 14,-4
 184 0002 82B0     	 sub sp,sp,#8
 185              	 .cfi_def_cfa_offset 16
 186 0004 00AF     	 add r7,sp,#0
 187              	 .cfi_def_cfa_register 7
ARM GAS   			page 9


 188 0006 7860     	 str r0,[r7,#4]
 189              	 .loc 2 36 1
 190 0008 7868     	 ldr r0,[r7,#4]
 191 000a FFF7FEFF 	 bl _ZN12cpp_freertos8WorkItemD1Ev
 192 000e 0821     	 movs r1,#8
 193 0010 7868     	 ldr r0,[r7,#4]
 194 0012 FFF7FEFF 	 bl _ZdlPvj
 195 0016 7B68     	 ldr r3,[r7,#4]
 196 0018 1846     	 mov r0,r3
 197 001a 0837     	 adds r7,r7,#8
 198              	 .cfi_def_cfa_offset 8
 199 001c BD46     	 mov sp,r7
 200              	 .cfi_def_cfa_register 13
 201              	 
 202 001e 80BD     	 pop {r7,pc}
 203              	 .cfi_endproc
 204              	.LFE1061:
 205              	 .size _ZN12cpp_freertos8WorkItemD0Ev,.-_ZN12cpp_freertos8WorkItemD0Ev
 206              	 .section .text._ZN12cpp_freertos8WorkItem12FreeAfterRunEv,"ax",%progbits
 207              	 .align 1
 208              	 .global _ZN12cpp_freertos8WorkItem12FreeAfterRunEv
 209              	 .syntax unified
 210              	 .thumb
 211              	 .thumb_func
 212              	 .type _ZN12cpp_freertos8WorkItem12FreeAfterRunEv,%function
 213              	_ZN12cpp_freertos8WorkItem12FreeAfterRunEv:
 214              	.LFB1062:
  37:C:\Users\niels\Documents\Elektrotechniek\Jaar 3\dspl\software\STM32Basis\HAL\gemeenschappelijk\Third_Party\freertos-addons-1.1.0\c++\Source\cworkqueue.cpp **** 
  38:C:\Users\niels\Documents\Elektrotechniek\Jaar 3\dspl\software\STM32Basis\HAL\gemeenschappelijk\Third_Party\freertos-addons-1.1.0\c++\Source\cworkqueue.cpp **** 
  39:C:\Users\niels\Documents\Elektrotechniek\Jaar 3\dspl\software\STM32Basis\HAL\gemeenschappelijk\Third_Party\freertos-addons-1.1.0\c++\Source\cworkqueue.cpp **** bool WorkItem::FreeAfterRun()
  40:C:\Users\niels\Documents\Elektrotechniek\Jaar 3\dspl\software\STM32Basis\HAL\gemeenschappelijk\Third_Party\freertos-addons-1.1.0\c++\Source\cworkqueue.cpp **** {
 215              	 .loc 2 40 1
 216              	 .cfi_startproc
 217              	 
 218              	 
 219              	 
 220 0000 80B4     	 push {r7}
 221              	 .cfi_def_cfa_offset 4
 222              	 .cfi_offset 7,-4
 223 0002 83B0     	 sub sp,sp,#12
 224              	 .cfi_def_cfa_offset 16
 225 0004 00AF     	 add r7,sp,#0
 226              	 .cfi_def_cfa_register 7
 227 0006 7860     	 str r0,[r7,#4]
  41:C:\Users\niels\Documents\Elektrotechniek\Jaar 3\dspl\software\STM32Basis\HAL\gemeenschappelijk\Third_Party\freertos-addons-1.1.0\c++\Source\cworkqueue.cpp ****     return FreeItemAfterCompleted;
 228              	 .loc 2 41 12
 229 0008 7B68     	 ldr r3,[r7,#4]
 230 000a 1B79     	 ldrb r3,[r3,#4]
  42:C:\Users\niels\Documents\Elektrotechniek\Jaar 3\dspl\software\STM32Basis\HAL\gemeenschappelijk\Third_Party\freertos-addons-1.1.0\c++\Source\cworkqueue.cpp **** }
 231              	 .loc 2 42 1
 232 000c 1846     	 mov r0,r3
 233 000e 0C37     	 adds r7,r7,#12
 234              	 .cfi_def_cfa_offset 4
 235 0010 BD46     	 mov sp,r7
 236              	 .cfi_def_cfa_register 13
 237              	 
 238 0012 5DF8047B 	 ldr r7,[sp],#4
ARM GAS   			page 10


 239              	 .cfi_restore 7
 240              	 .cfi_def_cfa_offset 0
 241 0016 7047     	 bx lr
 242              	 .cfi_endproc
 243              	.LFE1062:
 244              	 .size _ZN12cpp_freertos8WorkItem12FreeAfterRunEv,.-_ZN12cpp_freertos8WorkItem12FreeAfterRunEv
 245              	 .section .text._ZN12cpp_freertos9WorkQueueC2EPKctmm,"ax",%progbits
 246              	 .align 1
 247              	 .global _ZN12cpp_freertos9WorkQueueC2EPKctmm
 248              	 .syntax unified
 249              	 .thumb
 250              	 .thumb_func
 251              	 .type _ZN12cpp_freertos9WorkQueueC2EPKctmm,%function
 252              	_ZN12cpp_freertos9WorkQueueC2EPKctmm:
 253              	.LFB1064:
  43:C:\Users\niels\Documents\Elektrotechniek\Jaar 3\dspl\software\STM32Basis\HAL\gemeenschappelijk\Third_Party\freertos-addons-1.1.0\c++\Source\cworkqueue.cpp **** 
  44:C:\Users\niels\Documents\Elektrotechniek\Jaar 3\dspl\software\STM32Basis\HAL\gemeenschappelijk\Third_Party\freertos-addons-1.1.0\c++\Source\cworkqueue.cpp **** 
  45:C:\Users\niels\Documents\Elektrotechniek\Jaar 3\dspl\software\STM32Basis\HAL\gemeenschappelijk\Third_Party\freertos-addons-1.1.0\c++\Source\cworkqueue.cpp **** WorkQueue::WorkQueue(   const char * const Name,
 254              	 .loc 2 45 1
 255              	 .cfi_startproc
 256              	 
 257              	 
 258 0000 90B5     	 push {r4,r7,lr}
 259              	 .cfi_def_cfa_offset 12
 260              	 .cfi_offset 4,-12
 261              	 .cfi_offset 7,-8
 262              	 .cfi_offset 14,-4
 263 0002 87B0     	 sub sp,sp,#28
 264              	 .cfi_def_cfa_offset 40
 265 0004 02AF     	 add r7,sp,#8
 266              	 .cfi_def_cfa 7,32
 267 0006 F860     	 str r0,[r7,#12]
 268 0008 B960     	 str r1,[r7,#8]
 269 000a 3B60     	 str r3,[r7]
 270 000c 1346     	 mov r3,r2
 271 000e FB80     	 strh r3,[r7,#6]
 272              	.LBB4:
  46:C:\Users\niels\Documents\Elektrotechniek\Jaar 3\dspl\software\STM32Basis\HAL\gemeenschappelijk\Third_Party\freertos-addons-1.1.0\c++\Source\cworkqueue.cpp ****                         uint16_t StackDepth,
  47:C:\Users\niels\Documents\Elektrotechniek\Jaar 3\dspl\software\STM32Basis\HAL\gemeenschappelijk\Third_Party\freertos-addons-1.1.0\c++\Source\cworkqueue.cpp ****                         UBaseType_t Priority,
  48:C:\Users\niels\Documents\Elektrotechniek\Jaar 3\dspl\software\STM32Basis\HAL\gemeenschappelijk\Third_Party\freertos-addons-1.1.0\c++\Source\cworkqueue.cpp ****                         UBaseType_t maxWorkItems)
  49:C:\Users\niels\Documents\Elektrotechniek\Jaar 3\dspl\software\STM32Basis\HAL\gemeenschappelijk\Third_Party\freertos-addons-1.1.0\c++\Source\cworkqueue.cpp **** {
  50:C:\Users\niels\Documents\Elektrotechniek\Jaar 3\dspl\software\STM32Basis\HAL\gemeenschappelijk\Third_Party\freertos-addons-1.1.0\c++\Source\cworkqueue.cpp ****     //
  51:C:\Users\niels\Documents\Elektrotechniek\Jaar 3\dspl\software\STM32Basis\HAL\gemeenschappelijk\Third_Party\freertos-addons-1.1.0\c++\Source\cworkqueue.cpp ****     //  Build the Queue first, since the Thread is going to access 
  52:C:\Users\niels\Documents\Elektrotechniek\Jaar 3\dspl\software\STM32Basis\HAL\gemeenschappelijk\Third_Party\freertos-addons-1.1.0\c++\Source\cworkqueue.cpp ****     //  it as soon as it can, maybe before we leave this ctor.
  53:C:\Users\niels\Documents\Elektrotechniek\Jaar 3\dspl\software\STM32Basis\HAL\gemeenschappelijk\Third_Party\freertos-addons-1.1.0\c++\Source\cworkqueue.cpp ****     //
  54:C:\Users\niels\Documents\Elektrotechniek\Jaar 3\dspl\software\STM32Basis\HAL\gemeenschappelijk\Third_Party\freertos-addons-1.1.0\c++\Source\cworkqueue.cpp ****     WorkItemQueue = new Queue(maxWorkItems, sizeof(WorkItem *));
 273              	 .loc 2 54 63
 274 0010 0820     	 movs r0,#8
 275 0012 FFF7FEFF 	 bl _Znwj
 276 0016 0346     	 mov r3,r0
 277 0018 1C46     	 mov r4,r3
 278 001a 0422     	 movs r2,#4
 279 001c 396A     	 ldr r1,[r7,#32]
 280 001e 2046     	 mov r0,r4
 281 0020 FFF7FEFF 	 bl _ZN12cpp_freertos5QueueC1Emm
 282              	 .loc 2 54 19
 283 0024 FB68     	 ldr r3,[r7,#12]
ARM GAS   			page 11


 284 0026 5C60     	 str r4,[r3,#4]
  55:C:\Users\niels\Documents\Elektrotechniek\Jaar 3\dspl\software\STM32Basis\HAL\gemeenschappelijk\Third_Party\freertos-addons-1.1.0\c++\Source\cworkqueue.cpp ****     ThreadComplete = new BinarySemaphore();
 285              	 .loc 2 55 42
 286 0028 0820     	 movs r0,#8
 287 002a FFF7FEFF 	 bl _Znwj
 288 002e 0346     	 mov r3,r0
 289 0030 1C46     	 mov r4,r3
 290              	 .loc 2 55 20
 291 0032 0021     	 movs r1,#0
 292 0034 2046     	 mov r0,r4
 293 0036 FFF7FEFF 	 bl _ZN12cpp_freertos15BinarySemaphoreC1Eb
 294 003a FB68     	 ldr r3,[r7,#12]
 295 003c 9C60     	 str r4,[r3,#8]
  56:C:\Users\niels\Documents\Elektrotechniek\Jaar 3\dspl\software\STM32Basis\HAL\gemeenschappelijk\Third_Party\freertos-addons-1.1.0\c++\Source\cworkqueue.cpp ****     WorkerThread = new CWorkerThread(Name, StackDepth, Priority, this);
 296              	 .loc 2 56 70
 297 003e 3020     	 movs r0,#48
 298 0040 FFF7FEFF 	 bl _Znwj
 299 0044 0346     	 mov r3,r0
 300 0046 1C46     	 mov r4,r3
 301 0048 FA88     	 ldrh r2,[r7,#6]
 302 004a FB68     	 ldr r3,[r7,#12]
 303 004c 0093     	 str r3,[sp]
 304 004e 3B68     	 ldr r3,[r7]
 305 0050 B968     	 ldr r1,[r7,#8]
 306 0052 2046     	 mov r0,r4
 307 0054 FFF7FEFF 	 bl _ZN12cpp_freertos9WorkQueue13CWorkerThreadC1EPKctmPS0_
 308              	 .loc 2 56 18
 309 0058 FB68     	 ldr r3,[r7,#12]
 310 005a 1C60     	 str r4,[r3]
  57:C:\Users\niels\Documents\Elektrotechniek\Jaar 3\dspl\software\STM32Basis\HAL\gemeenschappelijk\Third_Party\freertos-addons-1.1.0\c++\Source\cworkqueue.cpp ****     //
  58:C:\Users\niels\Documents\Elektrotechniek\Jaar 3\dspl\software\STM32Basis\HAL\gemeenschappelijk\Third_Party\freertos-addons-1.1.0\c++\Source\cworkqueue.cpp ****     //  Our ctor chain is complete, we can start.
  59:C:\Users\niels\Documents\Elektrotechniek\Jaar 3\dspl\software\STM32Basis\HAL\gemeenschappelijk\Third_Party\freertos-addons-1.1.0\c++\Source\cworkqueue.cpp ****     //
  60:C:\Users\niels\Documents\Elektrotechniek\Jaar 3\dspl\software\STM32Basis\HAL\gemeenschappelijk\Third_Party\freertos-addons-1.1.0\c++\Source\cworkqueue.cpp ****     WorkerThread->Start();
 311              	 .loc 2 60 5
 312 005c FB68     	 ldr r3,[r7,#12]
 313 005e 1B68     	 ldr r3,[r3]
 314              	 .loc 2 60 24
 315 0060 1846     	 mov r0,r3
 316 0062 FFF7FEFF 	 bl _ZN12cpp_freertos6Thread5StartEv
 317              	.LBE4:
  61:C:\Users\niels\Documents\Elektrotechniek\Jaar 3\dspl\software\STM32Basis\HAL\gemeenschappelijk\Third_Party\freertos-addons-1.1.0\c++\Source\cworkqueue.cpp **** }
 318              	 .loc 2 61 1
 319 0066 FB68     	 ldr r3,[r7,#12]
 320 0068 1846     	 mov r0,r3
 321 006a 1437     	 adds r7,r7,#20
 322              	 .cfi_def_cfa_offset 12
 323 006c BD46     	 mov sp,r7
 324              	 .cfi_def_cfa_register 13
 325              	 
 326 006e 90BD     	 pop {r4,r7,pc}
 327              	 .cfi_endproc
 328              	.LFE1064:
 329              	 .size _ZN12cpp_freertos9WorkQueueC2EPKctmm,.-_ZN12cpp_freertos9WorkQueueC2EPKctmm
 330              	 .global _ZN12cpp_freertos9WorkQueueC1EPKctmm
 331              	 .thumb_set _ZN12cpp_freertos9WorkQueueC1EPKctmm,_ZN12cpp_freertos9WorkQueueC2EPKctmm
 332              	 .section .text._ZN12cpp_freertos9WorkQueueC2Etmm,"ax",%progbits
 333              	 .align 1
ARM GAS   			page 12


 334              	 .global _ZN12cpp_freertos9WorkQueueC2Etmm
 335              	 .syntax unified
 336              	 .thumb
 337              	 .thumb_func
 338              	 .type _ZN12cpp_freertos9WorkQueueC2Etmm,%function
 339              	_ZN12cpp_freertos9WorkQueueC2Etmm:
 340              	.LFB1067:
  62:C:\Users\niels\Documents\Elektrotechniek\Jaar 3\dspl\software\STM32Basis\HAL\gemeenschappelijk\Third_Party\freertos-addons-1.1.0\c++\Source\cworkqueue.cpp **** 
  63:C:\Users\niels\Documents\Elektrotechniek\Jaar 3\dspl\software\STM32Basis\HAL\gemeenschappelijk\Third_Party\freertos-addons-1.1.0\c++\Source\cworkqueue.cpp **** 
  64:C:\Users\niels\Documents\Elektrotechniek\Jaar 3\dspl\software\STM32Basis\HAL\gemeenschappelijk\Third_Party\freertos-addons-1.1.0\c++\Source\cworkqueue.cpp **** WorkQueue::WorkQueue(   uint16_t StackDepth,
 341              	 .loc 2 64 1
 342              	 .cfi_startproc
 343              	 
 344              	 
 345 0000 90B5     	 push {r4,r7,lr}
 346              	 .cfi_def_cfa_offset 12
 347              	 .cfi_offset 4,-12
 348              	 .cfi_offset 7,-8
 349              	 .cfi_offset 14,-4
 350 0002 85B0     	 sub sp,sp,#20
 351              	 .cfi_def_cfa_offset 32
 352 0004 00AF     	 add r7,sp,#0
 353              	 .cfi_def_cfa_register 7
 354 0006 F860     	 str r0,[r7,#12]
 355 0008 7A60     	 str r2,[r7,#4]
 356 000a 3B60     	 str r3,[r7]
 357 000c 0B46     	 mov r3,r1
 358 000e 7B81     	 strh r3,[r7,#10]
 359              	.LBB5:
  65:C:\Users\niels\Documents\Elektrotechniek\Jaar 3\dspl\software\STM32Basis\HAL\gemeenschappelijk\Third_Party\freertos-addons-1.1.0\c++\Source\cworkqueue.cpp ****                         UBaseType_t Priority,
  66:C:\Users\niels\Documents\Elektrotechniek\Jaar 3\dspl\software\STM32Basis\HAL\gemeenschappelijk\Third_Party\freertos-addons-1.1.0\c++\Source\cworkqueue.cpp ****                         UBaseType_t maxWorkItems)
  67:C:\Users\niels\Documents\Elektrotechniek\Jaar 3\dspl\software\STM32Basis\HAL\gemeenschappelijk\Third_Party\freertos-addons-1.1.0\c++\Source\cworkqueue.cpp **** {
  68:C:\Users\niels\Documents\Elektrotechniek\Jaar 3\dspl\software\STM32Basis\HAL\gemeenschappelijk\Third_Party\freertos-addons-1.1.0\c++\Source\cworkqueue.cpp ****     //
  69:C:\Users\niels\Documents\Elektrotechniek\Jaar 3\dspl\software\STM32Basis\HAL\gemeenschappelijk\Third_Party\freertos-addons-1.1.0\c++\Source\cworkqueue.cpp ****     //  Build the Queue first, since the Thread is going to access 
  70:C:\Users\niels\Documents\Elektrotechniek\Jaar 3\dspl\software\STM32Basis\HAL\gemeenschappelijk\Third_Party\freertos-addons-1.1.0\c++\Source\cworkqueue.cpp ****     //  it as soon as it can, maybe before we leave this ctor.
  71:C:\Users\niels\Documents\Elektrotechniek\Jaar 3\dspl\software\STM32Basis\HAL\gemeenschappelijk\Third_Party\freertos-addons-1.1.0\c++\Source\cworkqueue.cpp ****     //
  72:C:\Users\niels\Documents\Elektrotechniek\Jaar 3\dspl\software\STM32Basis\HAL\gemeenschappelijk\Third_Party\freertos-addons-1.1.0\c++\Source\cworkqueue.cpp ****     WorkItemQueue = new Queue(maxWorkItems, sizeof(WorkItem *));
 360              	 .loc 2 72 63
 361 0010 0820     	 movs r0,#8
 362 0012 FFF7FEFF 	 bl _Znwj
 363 0016 0346     	 mov r3,r0
 364 0018 1C46     	 mov r4,r3
 365 001a 0422     	 movs r2,#4
 366 001c 3968     	 ldr r1,[r7]
 367 001e 2046     	 mov r0,r4
 368 0020 FFF7FEFF 	 bl _ZN12cpp_freertos5QueueC1Emm
 369              	 .loc 2 72 19
 370 0024 FB68     	 ldr r3,[r7,#12]
 371 0026 5C60     	 str r4,[r3,#4]
  73:C:\Users\niels\Documents\Elektrotechniek\Jaar 3\dspl\software\STM32Basis\HAL\gemeenschappelijk\Third_Party\freertos-addons-1.1.0\c++\Source\cworkqueue.cpp ****     ThreadComplete = new BinarySemaphore();
 372              	 .loc 2 73 42
 373 0028 0820     	 movs r0,#8
 374 002a FFF7FEFF 	 bl _Znwj
 375 002e 0346     	 mov r3,r0
 376 0030 1C46     	 mov r4,r3
 377              	 .loc 2 73 20
 378 0032 0021     	 movs r1,#0
ARM GAS   			page 13


 379 0034 2046     	 mov r0,r4
 380 0036 FFF7FEFF 	 bl _ZN12cpp_freertos15BinarySemaphoreC1Eb
 381 003a FB68     	 ldr r3,[r7,#12]
 382 003c 9C60     	 str r4,[r3,#8]
  74:C:\Users\niels\Documents\Elektrotechniek\Jaar 3\dspl\software\STM32Basis\HAL\gemeenschappelijk\Third_Party\freertos-addons-1.1.0\c++\Source\cworkqueue.cpp ****     WorkerThread = new CWorkerThread(StackDepth, Priority, this);
 383              	 .loc 2 74 64
 384 003e 3020     	 movs r0,#48
 385 0040 FFF7FEFF 	 bl _Znwj
 386 0044 0346     	 mov r3,r0
 387 0046 1C46     	 mov r4,r3
 388 0048 7989     	 ldrh r1,[r7,#10]
 389 004a FB68     	 ldr r3,[r7,#12]
 390 004c 7A68     	 ldr r2,[r7,#4]
 391 004e 2046     	 mov r0,r4
 392 0050 FFF7FEFF 	 bl _ZN12cpp_freertos9WorkQueue13CWorkerThreadC1EtmPS0_
 393              	 .loc 2 74 18
 394 0054 FB68     	 ldr r3,[r7,#12]
 395 0056 1C60     	 str r4,[r3]
  75:C:\Users\niels\Documents\Elektrotechniek\Jaar 3\dspl\software\STM32Basis\HAL\gemeenschappelijk\Third_Party\freertos-addons-1.1.0\c++\Source\cworkqueue.cpp ****     //
  76:C:\Users\niels\Documents\Elektrotechniek\Jaar 3\dspl\software\STM32Basis\HAL\gemeenschappelijk\Third_Party\freertos-addons-1.1.0\c++\Source\cworkqueue.cpp ****     //  Our ctor chain is complete, we can start.
  77:C:\Users\niels\Documents\Elektrotechniek\Jaar 3\dspl\software\STM32Basis\HAL\gemeenschappelijk\Third_Party\freertos-addons-1.1.0\c++\Source\cworkqueue.cpp ****     //
  78:C:\Users\niels\Documents\Elektrotechniek\Jaar 3\dspl\software\STM32Basis\HAL\gemeenschappelijk\Third_Party\freertos-addons-1.1.0\c++\Source\cworkqueue.cpp ****     WorkerThread->Start();
 396              	 .loc 2 78 5
 397 0058 FB68     	 ldr r3,[r7,#12]
 398 005a 1B68     	 ldr r3,[r3]
 399              	 .loc 2 78 24
 400 005c 1846     	 mov r0,r3
 401 005e FFF7FEFF 	 bl _ZN12cpp_freertos6Thread5StartEv
 402              	.LBE5:
  79:C:\Users\niels\Documents\Elektrotechniek\Jaar 3\dspl\software\STM32Basis\HAL\gemeenschappelijk\Third_Party\freertos-addons-1.1.0\c++\Source\cworkqueue.cpp **** }
 403              	 .loc 2 79 1
 404 0062 FB68     	 ldr r3,[r7,#12]
 405 0064 1846     	 mov r0,r3
 406 0066 1437     	 adds r7,r7,#20
 407              	 .cfi_def_cfa_offset 12
 408 0068 BD46     	 mov sp,r7
 409              	 .cfi_def_cfa_register 13
 410              	 
 411 006a 90BD     	 pop {r4,r7,pc}
 412              	 .cfi_endproc
 413              	.LFE1067:
 414              	 .size _ZN12cpp_freertos9WorkQueueC2Etmm,.-_ZN12cpp_freertos9WorkQueueC2Etmm
 415              	 .global _ZN12cpp_freertos9WorkQueueC1Etmm
 416              	 .thumb_set _ZN12cpp_freertos9WorkQueueC1Etmm,_ZN12cpp_freertos9WorkQueueC2Etmm
 417              	 .section .text._ZN12cpp_freertos9WorkQueueD2Ev,"ax",%progbits
 418              	 .align 1
 419              	 .global _ZN12cpp_freertos9WorkQueueD2Ev
 420              	 .syntax unified
 421              	 .thumb
 422              	 .thumb_func
 423              	 .type _ZN12cpp_freertos9WorkQueueD2Ev,%function
 424              	_ZN12cpp_freertos9WorkQueueD2Ev:
 425              	.LFB1070:
  80:C:\Users\niels\Documents\Elektrotechniek\Jaar 3\dspl\software\STM32Basis\HAL\gemeenschappelijk\Third_Party\freertos-addons-1.1.0\c++\Source\cworkqueue.cpp **** 
  81:C:\Users\niels\Documents\Elektrotechniek\Jaar 3\dspl\software\STM32Basis\HAL\gemeenschappelijk\Third_Party\freertos-addons-1.1.0\c++\Source\cworkqueue.cpp **** 
  82:C:\Users\niels\Documents\Elektrotechniek\Jaar 3\dspl\software\STM32Basis\HAL\gemeenschappelijk\Third_Party\freertos-addons-1.1.0\c++\Source\cworkqueue.cpp **** WorkQueue::~WorkQueue()
 426              	 .loc 2 82 1
ARM GAS   			page 14


 427              	 .cfi_startproc
 428              	 
 429              	 
 430 0000 80B5     	 push {r7,lr}
 431              	 .cfi_def_cfa_offset 8
 432              	 .cfi_offset 7,-8
 433              	 .cfi_offset 14,-4
 434 0002 84B0     	 sub sp,sp,#16
 435              	 .cfi_def_cfa_offset 24
 436 0004 00AF     	 add r7,sp,#0
 437              	 .cfi_def_cfa_register 7
 438 0006 7860     	 str r0,[r7,#4]
 439              	.LBB6:
 440              	.LBB7:
  83:C:\Users\niels\Documents\Elektrotechniek\Jaar 3\dspl\software\STM32Basis\HAL\gemeenschappelijk\Third_Party\freertos-addons-1.1.0\c++\Source\cworkqueue.cpp **** {
  84:C:\Users\niels\Documents\Elektrotechniek\Jaar 3\dspl\software\STM32Basis\HAL\gemeenschappelijk\Third_Party\freertos-addons-1.1.0\c++\Source\cworkqueue.cpp ****     //
  85:C:\Users\niels\Documents\Elektrotechniek\Jaar 3\dspl\software\STM32Basis\HAL\gemeenschappelijk\Third_Party\freertos-addons-1.1.0\c++\Source\cworkqueue.cpp ****     //  This dtor is tricky, because of the multiple objects in 
  86:C:\Users\niels\Documents\Elektrotechniek\Jaar 3\dspl\software\STM32Basis\HAL\gemeenschappelijk\Third_Party\freertos-addons-1.1.0\c++\Source\cworkqueue.cpp ****     //  play, and the multithreaded nature of this specific object.
  87:C:\Users\niels\Documents\Elektrotechniek\Jaar 3\dspl\software\STM32Basis\HAL\gemeenschappelijk\Third_Party\freertos-addons-1.1.0\c++\Source\cworkqueue.cpp ****     //
  88:C:\Users\niels\Documents\Elektrotechniek\Jaar 3\dspl\software\STM32Basis\HAL\gemeenschappelijk\Third_Party\freertos-addons-1.1.0\c++\Source\cworkqueue.cpp **** 
  89:C:\Users\niels\Documents\Elektrotechniek\Jaar 3\dspl\software\STM32Basis\HAL\gemeenschappelijk\Third_Party\freertos-addons-1.1.0\c++\Source\cworkqueue.cpp ****     //
  90:C:\Users\niels\Documents\Elektrotechniek\Jaar 3\dspl\software\STM32Basis\HAL\gemeenschappelijk\Third_Party\freertos-addons-1.1.0\c++\Source\cworkqueue.cpp ****     //  Note that we cannot flush the queue. If there are items 
  91:C:\Users\niels\Documents\Elektrotechniek\Jaar 3\dspl\software\STM32Basis\HAL\gemeenschappelijk\Third_Party\freertos-addons-1.1.0\c++\Source\cworkqueue.cpp ****     //  in the queue maked freeAfterComplete, we would leak the 
  92:C:\Users\niels\Documents\Elektrotechniek\Jaar 3\dspl\software\STM32Basis\HAL\gemeenschappelijk\Third_Party\freertos-addons-1.1.0\c++\Source\cworkqueue.cpp ****     //  memory. 
  93:C:\Users\niels\Documents\Elektrotechniek\Jaar 3\dspl\software\STM32Basis\HAL\gemeenschappelijk\Third_Party\freertos-addons-1.1.0\c++\Source\cworkqueue.cpp ****     //
  94:C:\Users\niels\Documents\Elektrotechniek\Jaar 3\dspl\software\STM32Basis\HAL\gemeenschappelijk\Third_Party\freertos-addons-1.1.0\c++\Source\cworkqueue.cpp **** 
  95:C:\Users\niels\Documents\Elektrotechniek\Jaar 3\dspl\software\STM32Basis\HAL\gemeenschappelijk\Third_Party\freertos-addons-1.1.0\c++\Source\cworkqueue.cpp ****     //
  96:C:\Users\niels\Documents\Elektrotechniek\Jaar 3\dspl\software\STM32Basis\HAL\gemeenschappelijk\Third_Party\freertos-addons-1.1.0\c++\Source\cworkqueue.cpp ****     //  Send a message that it's time to cleanup.
  97:C:\Users\niels\Documents\Elektrotechniek\Jaar 3\dspl\software\STM32Basis\HAL\gemeenschappelijk\Third_Party\freertos-addons-1.1.0\c++\Source\cworkqueue.cpp ****     //
  98:C:\Users\niels\Documents\Elektrotechniek\Jaar 3\dspl\software\STM32Basis\HAL\gemeenschappelijk\Third_Party\freertos-addons-1.1.0\c++\Source\cworkqueue.cpp ****     WorkItem *work = NULL;
 441              	 .loc 2 98 15
 442 0008 0023     	 movs r3,#0
 443 000a FB60     	 str r3,[r7,#12]
  99:C:\Users\niels\Documents\Elektrotechniek\Jaar 3\dspl\software\STM32Basis\HAL\gemeenschappelijk\Third_Party\freertos-addons-1.1.0\c++\Source\cworkqueue.cpp ****     WorkItemQueue->Enqueue(&work);
 444              	 .loc 2 99 5
 445 000c 7B68     	 ldr r3,[r7,#4]
 446 000e 5A68     	 ldr r2,[r3,#4]
 447 0010 7B68     	 ldr r3,[r7,#4]
 448 0012 5B68     	 ldr r3,[r3,#4]
 449              	 .loc 2 99 33
 450 0014 1B68     	 ldr r3,[r3]
 451 0016 0833     	 adds r3,r3,#8
 452 0018 1B68     	 ldr r3,[r3]
 453              	 .loc 2 99 27
 454 001a 07F10C01 	 add r1,r7,#12
 455 001e 1046     	 mov r0,r2
 456 0020 9847     	 blx r3
 457              	.LVL0:
 100:C:\Users\niels\Documents\Elektrotechniek\Jaar 3\dspl\software\STM32Basis\HAL\gemeenschappelijk\Third_Party\freertos-addons-1.1.0\c++\Source\cworkqueue.cpp **** 
 101:C:\Users\niels\Documents\Elektrotechniek\Jaar 3\dspl\software\STM32Basis\HAL\gemeenschappelijk\Third_Party\freertos-addons-1.1.0\c++\Source\cworkqueue.cpp ****     //
 102:C:\Users\niels\Documents\Elektrotechniek\Jaar 3\dspl\software\STM32Basis\HAL\gemeenschappelijk\Third_Party\freertos-addons-1.1.0\c++\Source\cworkqueue.cpp ****     //  Wait until the thread has run enough to signal that it's done.
 103:C:\Users\niels\Documents\Elektrotechniek\Jaar 3\dspl\software\STM32Basis\HAL\gemeenschappelijk\Third_Party\freertos-addons-1.1.0\c++\Source\cworkqueue.cpp ****     //
 104:C:\Users\niels\Documents\Elektrotechniek\Jaar 3\dspl\software\STM32Basis\HAL\gemeenschappelijk\Third_Party\freertos-addons-1.1.0\c++\Source\cworkqueue.cpp ****     ThreadComplete->Take();
 458              	 .loc 2 104 5
 459 0022 7B68     	 ldr r3,[r7,#4]
 460 0024 9B68     	 ldr r3,[r3,#8]
 461              	 .loc 2 104 25
ARM GAS   			page 15


 462 0026 4FF0FF31 	 mov r1,#-1
 463 002a 1846     	 mov r0,r3
 464 002c FFF7FEFF 	 bl _ZN12cpp_freertos9Semaphore4TakeEm
 105:C:\Users\niels\Documents\Elektrotechniek\Jaar 3\dspl\software\STM32Basis\HAL\gemeenschappelijk\Third_Party\freertos-addons-1.1.0\c++\Source\cworkqueue.cpp **** 
 106:C:\Users\niels\Documents\Elektrotechniek\Jaar 3\dspl\software\STM32Basis\HAL\gemeenschappelijk\Third_Party\freertos-addons-1.1.0\c++\Source\cworkqueue.cpp ****     //
 107:C:\Users\niels\Documents\Elektrotechniek\Jaar 3\dspl\software\STM32Basis\HAL\gemeenschappelijk\Third_Party\freertos-addons-1.1.0\c++\Source\cworkqueue.cpp ****     //  Then delete the queue and thread. Order doesn't matter here.
 108:C:\Users\niels\Documents\Elektrotechniek\Jaar 3\dspl\software\STM32Basis\HAL\gemeenschappelijk\Third_Party\freertos-addons-1.1.0\c++\Source\cworkqueue.cpp ****     //
 109:C:\Users\niels\Documents\Elektrotechniek\Jaar 3\dspl\software\STM32Basis\HAL\gemeenschappelijk\Third_Party\freertos-addons-1.1.0\c++\Source\cworkqueue.cpp ****     delete WorkItemQueue;
 465              	 .loc 2 109 12
 466 0030 7B68     	 ldr r3,[r7,#4]
 467 0032 5B68     	 ldr r3,[r3,#4]
 468              	 .loc 2 109 5
 469 0034 002B     	 cmp r3,#0
 470 0036 04D0     	 beq .L20
 471              	 .loc 2 109 12 discriminator 1
 472 0038 1A68     	 ldr r2,[r3]
 473 003a 0432     	 adds r2,r2,#4
 474 003c 1268     	 ldr r2,[r2]
 475 003e 1846     	 mov r0,r3
 476 0040 9047     	 blx r2
 477              	.LVL1:
 478              	.L20:
 110:C:\Users\niels\Documents\Elektrotechniek\Jaar 3\dspl\software\STM32Basis\HAL\gemeenschappelijk\Third_Party\freertos-addons-1.1.0\c++\Source\cworkqueue.cpp **** #if (INCLUDE_vTaskDelete == 1)
 111:C:\Users\niels\Documents\Elektrotechniek\Jaar 3\dspl\software\STM32Basis\HAL\gemeenschappelijk\Third_Party\freertos-addons-1.1.0\c++\Source\cworkqueue.cpp ****     delete WorkerThread;
 112:C:\Users\niels\Documents\Elektrotechniek\Jaar 3\dspl\software\STM32Basis\HAL\gemeenschappelijk\Third_Party\freertos-addons-1.1.0\c++\Source\cworkqueue.cpp **** #endif
 113:C:\Users\niels\Documents\Elektrotechniek\Jaar 3\dspl\software\STM32Basis\HAL\gemeenschappelijk\Third_Party\freertos-addons-1.1.0\c++\Source\cworkqueue.cpp ****     delete ThreadComplete;
 479              	 .loc 2 113 12
 480 0042 7B68     	 ldr r3,[r7,#4]
 481 0044 9B68     	 ldr r3,[r3,#8]
 482              	 .loc 2 113 5
 483 0046 002B     	 cmp r3,#0
 484 0048 04D0     	 beq .L21
 485              	 .loc 2 113 12 discriminator 1
 486 004a 1A68     	 ldr r2,[r3]
 487 004c 0432     	 adds r2,r2,#4
 488 004e 1268     	 ldr r2,[r2]
 489 0050 1846     	 mov r0,r3
 490 0052 9047     	 blx r2
 491              	.LVL2:
 492              	.L21:
 493              	.LBE7:
 494              	.LBE6:
 114:C:\Users\niels\Documents\Elektrotechniek\Jaar 3\dspl\software\STM32Basis\HAL\gemeenschappelijk\Third_Party\freertos-addons-1.1.0\c++\Source\cworkqueue.cpp **** }
 495              	 .loc 2 114 1
 496 0054 7B68     	 ldr r3,[r7,#4]
 497 0056 1846     	 mov r0,r3
 498 0058 1037     	 adds r7,r7,#16
 499              	 .cfi_def_cfa_offset 8
 500 005a BD46     	 mov sp,r7
 501              	 .cfi_def_cfa_register 13
 502              	 
 503 005c 80BD     	 pop {r7,pc}
 504              	 .cfi_endproc
 505              	.LFE1070:
 506              	 .size _ZN12cpp_freertos9WorkQueueD2Ev,.-_ZN12cpp_freertos9WorkQueueD2Ev
 507              	 .global _ZN12cpp_freertos9WorkQueueD1Ev
 508              	 .thumb_set _ZN12cpp_freertos9WorkQueueD1Ev,_ZN12cpp_freertos9WorkQueueD2Ev
ARM GAS   			page 16


 509              	 .section .text._ZN12cpp_freertos9WorkQueue9QueueWorkEPNS_8WorkItemE,"ax",%progbits
 510              	 .align 1
 511              	 .global _ZN12cpp_freertos9WorkQueue9QueueWorkEPNS_8WorkItemE
 512              	 .syntax unified
 513              	 .thumb
 514              	 .thumb_func
 515              	 .type _ZN12cpp_freertos9WorkQueue9QueueWorkEPNS_8WorkItemE,%function
 516              	_ZN12cpp_freertos9WorkQueue9QueueWorkEPNS_8WorkItemE:
 517              	.LFB1072:
 115:C:\Users\niels\Documents\Elektrotechniek\Jaar 3\dspl\software\STM32Basis\HAL\gemeenschappelijk\Third_Party\freertos-addons-1.1.0\c++\Source\cworkqueue.cpp **** 
 116:C:\Users\niels\Documents\Elektrotechniek\Jaar 3\dspl\software\STM32Basis\HAL\gemeenschappelijk\Third_Party\freertos-addons-1.1.0\c++\Source\cworkqueue.cpp **** 
 117:C:\Users\niels\Documents\Elektrotechniek\Jaar 3\dspl\software\STM32Basis\HAL\gemeenschappelijk\Third_Party\freertos-addons-1.1.0\c++\Source\cworkqueue.cpp **** bool WorkQueue::QueueWork(WorkItem *work)
 118:C:\Users\niels\Documents\Elektrotechniek\Jaar 3\dspl\software\STM32Basis\HAL\gemeenschappelijk\Third_Party\freertos-addons-1.1.0\c++\Source\cworkqueue.cpp **** {
 518              	 .loc 2 118 1
 519              	 .cfi_startproc
 520              	 
 521              	 
 522 0000 80B5     	 push {r7,lr}
 523              	 .cfi_def_cfa_offset 8
 524              	 .cfi_offset 7,-8
 525              	 .cfi_offset 14,-4
 526 0002 82B0     	 sub sp,sp,#8
 527              	 .cfi_def_cfa_offset 16
 528 0004 00AF     	 add r7,sp,#0
 529              	 .cfi_def_cfa_register 7
 530 0006 7860     	 str r0,[r7,#4]
 531 0008 3960     	 str r1,[r7]
 119:C:\Users\niels\Documents\Elektrotechniek\Jaar 3\dspl\software\STM32Basis\HAL\gemeenschappelijk\Third_Party\freertos-addons-1.1.0\c++\Source\cworkqueue.cpp ****     return WorkItemQueue->Enqueue(&work);
 532              	 .loc 2 119 12
 533 000a 7B68     	 ldr r3,[r7,#4]
 534 000c 5A68     	 ldr r2,[r3,#4]
 535 000e 7B68     	 ldr r3,[r7,#4]
 536 0010 5B68     	 ldr r3,[r3,#4]
 537              	 .loc 2 119 40
 538 0012 1B68     	 ldr r3,[r3]
 539 0014 0833     	 adds r3,r3,#8
 540 0016 1B68     	 ldr r3,[r3]
 541              	 .loc 2 119 34
 542 0018 3946     	 mov r1,r7
 543 001a 1046     	 mov r0,r2
 544 001c 9847     	 blx r3
 545              	.LVL3:
 546 001e 0346     	 mov r3,r0
 120:C:\Users\niels\Documents\Elektrotechniek\Jaar 3\dspl\software\STM32Basis\HAL\gemeenschappelijk\Third_Party\freertos-addons-1.1.0\c++\Source\cworkqueue.cpp **** }
 547              	 .loc 2 120 1
 548 0020 1846     	 mov r0,r3
 549 0022 0837     	 adds r7,r7,#8
 550              	 .cfi_def_cfa_offset 8
 551 0024 BD46     	 mov sp,r7
 552              	 .cfi_def_cfa_register 13
 553              	 
 554 0026 80BD     	 pop {r7,pc}
 555              	 .cfi_endproc
 556              	.LFE1072:
 557              	 .size _ZN12cpp_freertos9WorkQueue9QueueWorkEPNS_8WorkItemE,.-_ZN12cpp_freertos9WorkQueue9QueueWorkEPNS_8WorkItemE
 558              	 .section .text._ZN12cpp_freertos9WorkQueue13CWorkerThreadC2EPKctmPS0_,"ax",%progbits
 559              	 .align 1
ARM GAS   			page 17


 560              	 .global _ZN12cpp_freertos9WorkQueue13CWorkerThreadC2EPKctmPS0_
 561              	 .syntax unified
 562              	 .thumb
 563              	 .thumb_func
 564              	 .type _ZN12cpp_freertos9WorkQueue13CWorkerThreadC2EPKctmPS0_,%function
 565              	_ZN12cpp_freertos9WorkQueue13CWorkerThreadC2EPKctmPS0_:
 566              	.LFB1074:
 121:C:\Users\niels\Documents\Elektrotechniek\Jaar 3\dspl\software\STM32Basis\HAL\gemeenschappelijk\Third_Party\freertos-addons-1.1.0\c++\Source\cworkqueue.cpp **** 
 122:C:\Users\niels\Documents\Elektrotechniek\Jaar 3\dspl\software\STM32Basis\HAL\gemeenschappelijk\Third_Party\freertos-addons-1.1.0\c++\Source\cworkqueue.cpp **** 
 123:C:\Users\niels\Documents\Elektrotechniek\Jaar 3\dspl\software\STM32Basis\HAL\gemeenschappelijk\Third_Party\freertos-addons-1.1.0\c++\Source\cworkqueue.cpp **** WorkQueue::CWorkerThread::CWorkerThread(const char * const naam,
 567              	 .loc 2 123 1
 568              	 .cfi_startproc
 569              	 
 570              	 
 571 0000 90B5     	 push {r4,r7,lr}
 572              	 .cfi_def_cfa_offset 12
 573              	 .cfi_offset 4,-12
 574              	 .cfi_offset 7,-8
 575              	 .cfi_offset 14,-4
 576 0002 8DB0     	 sub sp,sp,#52
 577              	 .cfi_def_cfa_offset 64
 578 0004 00AF     	 add r7,sp,#0
 579              	 .cfi_def_cfa_register 7
 580 0006 F860     	 str r0,[r7,#12]
 581 0008 B960     	 str r1,[r7,#8]
 582 000a 3B60     	 str r3,[r7]
 583 000c 1346     	 mov r3,r2
 584 000e FB80     	 strh r3,[r7,#6]
 585              	.LBB8:
 124:C:\Users\niels\Documents\Elektrotechniek\Jaar 3\dspl\software\STM32Basis\HAL\gemeenschappelijk\Third_Party\freertos-addons-1.1.0\c++\Source\cworkqueue.cpp ****                                         uint16_t SD,
 125:C:\Users\niels\Documents\Elektrotechniek\Jaar 3\dspl\software\STM32Basis\HAL\gemeenschappelijk\Third_Party\freertos-addons-1.1.0\c++\Source\cworkqueue.cpp ****                                         UBaseType_t Prio,
 126:C:\Users\niels\Documents\Elektrotechniek\Jaar 3\dspl\software\STM32Basis\HAL\gemeenschappelijk\Third_Party\freertos-addons-1.1.0\c++\Source\cworkqueue.cpp ****                                         WorkQueue *Parent)
 127:C:\Users\niels\Documents\Elektrotechniek\Jaar 3\dspl\software\STM32Basis\HAL\gemeenschappelijk\Third_Party\freertos-addons-1.1.0\c++\Source\cworkqueue.cpp ****     : Thread(naam, SD, Prio), ParentWorkQueue(Parent)
 586              	 .loc 2 127 53
 587 0010 FC68     	 ldr r4,[r7,#12]
 588 0012 07F12C03 	 add r3,r7,#44
 589 0016 1846     	 mov r0,r3
 590 0018 FFF7FEFF 	 bl _ZNSaIcEC1Ev
 591 001c 07F12C02 	 add r2,r7,#44
 592 0020 07F11403 	 add r3,r7,#20
 593 0024 B968     	 ldr r1,[r7,#8]
 594 0026 1846     	 mov r0,r3
 595 0028 FFF7FEFF 	 bl _ZNSt7__cxx1112basic_stringIcSt11char_traitsIcESaIcEEC1EPKcRKS3_
 596 002c FA88     	 ldrh r2,[r7,#6]
 597 002e 07F11401 	 add r1,r7,#20
 598 0032 3B68     	 ldr r3,[r7]
 599 0034 2046     	 mov r0,r4
 600 0036 FFF7FEFF 	 bl _ZN12cpp_freertos6ThreadC2ERKNSt7__cxx1112basic_stringIcSt11char_traitsIcESaIcEEEtm
 601 003a 07F11403 	 add r3,r7,#20
 602 003e 1846     	 mov r0,r3
 603 0040 FFF7FEFF 	 bl _ZNSt7__cxx1112basic_stringIcSt11char_traitsIcESaIcEED1Ev
 604 0044 07F12C03 	 add r3,r7,#44
 605 0048 1846     	 mov r0,r3
 606 004a FFF7FEFF 	 bl _ZNSaIcED1Ev
 607 004e 054A     	 ldr r2,.L27
 608 0050 FB68     	 ldr r3,[r7,#12]
 609 0052 1A60     	 str r2,[r3]
ARM GAS   			page 18


 610 0054 FB68     	 ldr r3,[r7,#12]
 611 0056 3A6C     	 ldr r2,[r7,#64]
 612 0058 DA62     	 str r2,[r3,#44]
 613              	.LBE8:
 128:C:\Users\niels\Documents\Elektrotechniek\Jaar 3\dspl\software\STM32Basis\HAL\gemeenschappelijk\Third_Party\freertos-addons-1.1.0\c++\Source\cworkqueue.cpp **** {
 129:C:\Users\niels\Documents\Elektrotechniek\Jaar 3\dspl\software\STM32Basis\HAL\gemeenschappelijk\Third_Party\freertos-addons-1.1.0\c++\Source\cworkqueue.cpp **** }
 614              	 .loc 2 129 1
 615 005a FB68     	 ldr r3,[r7,#12]
 616 005c 1846     	 mov r0,r3
 617 005e 3437     	 adds r7,r7,#52
 618              	 .cfi_def_cfa_offset 12
 619 0060 BD46     	 mov sp,r7
 620              	 .cfi_def_cfa_register 13
 621              	 
 622 0062 90BD     	 pop {r4,r7,pc}
 623              	.L28:
 624              	 .align 2
 625              	.L27:
 626 0064 08000000 	 .word _ZTVN12cpp_freertos9WorkQueue13CWorkerThreadE+8
 627              	 .cfi_endproc
 628              	.LFE1074:
 629              	 .size _ZN12cpp_freertos9WorkQueue13CWorkerThreadC2EPKctmPS0_,.-_ZN12cpp_freertos9WorkQueue13CWorkerThreadC2EPKctmPS0_
 630              	 .global _ZN12cpp_freertos9WorkQueue13CWorkerThreadC1EPKctmPS0_
 631              	 .thumb_set _ZN12cpp_freertos9WorkQueue13CWorkerThreadC1EPKctmPS0_,_ZN12cpp_freertos9WorkQueue13CWorkerThreadC2EPKctmPS0_
 632              	 .section .text._ZN12cpp_freertos9WorkQueue13CWorkerThreadC2EtmPS0_,"ax",%progbits
 633              	 .align 1
 634              	 .global _ZN12cpp_freertos9WorkQueue13CWorkerThreadC2EtmPS0_
 635              	 .syntax unified
 636              	 .thumb
 637              	 .thumb_func
 638              	 .type _ZN12cpp_freertos9WorkQueue13CWorkerThreadC2EtmPS0_,%function
 639              	_ZN12cpp_freertos9WorkQueue13CWorkerThreadC2EtmPS0_:
 640              	.LFB1077:
 130:C:\Users\niels\Documents\Elektrotechniek\Jaar 3\dspl\software\STM32Basis\HAL\gemeenschappelijk\Third_Party\freertos-addons-1.1.0\c++\Source\cworkqueue.cpp **** 
 131:C:\Users\niels\Documents\Elektrotechniek\Jaar 3\dspl\software\STM32Basis\HAL\gemeenschappelijk\Third_Party\freertos-addons-1.1.0\c++\Source\cworkqueue.cpp **** 
 132:C:\Users\niels\Documents\Elektrotechniek\Jaar 3\dspl\software\STM32Basis\HAL\gemeenschappelijk\Third_Party\freertos-addons-1.1.0\c++\Source\cworkqueue.cpp **** WorkQueue::CWorkerThread::CWorkerThread(uint16_t SD,
 641              	 .loc 2 132 1
 642              	 .cfi_startproc
 643              	 
 644              	 
 645 0000 80B5     	 push {r7,lr}
 646              	 .cfi_def_cfa_offset 8
 647              	 .cfi_offset 7,-8
 648              	 .cfi_offset 14,-4
 649 0002 84B0     	 sub sp,sp,#16
 650              	 .cfi_def_cfa_offset 24
 651 0004 00AF     	 add r7,sp,#0
 652              	 .cfi_def_cfa_register 7
 653 0006 F860     	 str r0,[r7,#12]
 654 0008 7A60     	 str r2,[r7,#4]
 655 000a 3B60     	 str r3,[r7]
 656 000c 0B46     	 mov r3,r1
 657 000e 7B81     	 strh r3,[r7,#10]
 658              	.LBB9:
 133:C:\Users\niels\Documents\Elektrotechniek\Jaar 3\dspl\software\STM32Basis\HAL\gemeenschappelijk\Third_Party\freertos-addons-1.1.0\c++\Source\cworkqueue.cpp ****                                         UBaseType_t Prio,
 134:C:\Users\niels\Documents\Elektrotechniek\Jaar 3\dspl\software\STM32Basis\HAL\gemeenschappelijk\Third_Party\freertos-addons-1.1.0\c++\Source\cworkqueue.cpp ****                                         WorkQueue *Parent)
 135:C:\Users\niels\Documents\Elektrotechniek\Jaar 3\dspl\software\STM32Basis\HAL\gemeenschappelijk\Third_Party\freertos-addons-1.1.0\c++\Source\cworkqueue.cpp ****     : Thread(SD, Prio), ParentWorkQueue(Parent)
ARM GAS   			page 19


 659              	 .loc 2 135 47
 660 0010 FB68     	 ldr r3,[r7,#12]
 661 0012 7989     	 ldrh r1,[r7,#10]
 662 0014 7A68     	 ldr r2,[r7,#4]
 663 0016 1846     	 mov r0,r3
 664 0018 FFF7FEFF 	 bl _ZN12cpp_freertos6ThreadC2Etm
 665 001c 054A     	 ldr r2,.L31
 666 001e FB68     	 ldr r3,[r7,#12]
 667 0020 1A60     	 str r2,[r3]
 668 0022 FB68     	 ldr r3,[r7,#12]
 669 0024 3A68     	 ldr r2,[r7]
 670 0026 DA62     	 str r2,[r3,#44]
 671              	.LBE9:
 136:C:\Users\niels\Documents\Elektrotechniek\Jaar 3\dspl\software\STM32Basis\HAL\gemeenschappelijk\Third_Party\freertos-addons-1.1.0\c++\Source\cworkqueue.cpp **** {
 137:C:\Users\niels\Documents\Elektrotechniek\Jaar 3\dspl\software\STM32Basis\HAL\gemeenschappelijk\Third_Party\freertos-addons-1.1.0\c++\Source\cworkqueue.cpp **** }
 672              	 .loc 2 137 1
 673 0028 FB68     	 ldr r3,[r7,#12]
 674 002a 1846     	 mov r0,r3
 675 002c 1037     	 adds r7,r7,#16
 676              	 .cfi_def_cfa_offset 8
 677 002e BD46     	 mov sp,r7
 678              	 .cfi_def_cfa_register 13
 679              	 
 680 0030 80BD     	 pop {r7,pc}
 681              	.L32:
 682 0032 00BF     	 .align 2
 683              	.L31:
 684 0034 08000000 	 .word _ZTVN12cpp_freertos9WorkQueue13CWorkerThreadE+8
 685              	 .cfi_endproc
 686              	.LFE1077:
 687              	 .size _ZN12cpp_freertos9WorkQueue13CWorkerThreadC2EtmPS0_,.-_ZN12cpp_freertos9WorkQueue13CWorkerThreadC2EtmPS0_
 688              	 .global _ZN12cpp_freertos9WorkQueue13CWorkerThreadC1EtmPS0_
 689              	 .thumb_set _ZN12cpp_freertos9WorkQueue13CWorkerThreadC1EtmPS0_,_ZN12cpp_freertos9WorkQueue13CWorkerThreadC2EtmPS0_
 690              	 .section .text._ZN12cpp_freertos9WorkQueue13CWorkerThread3RunEv,"ax",%progbits
 691              	 .align 1
 692              	 .global _ZN12cpp_freertos9WorkQueue13CWorkerThread3RunEv
 693              	 .syntax unified
 694              	 .thumb
 695              	 .thumb_func
 696              	 .type _ZN12cpp_freertos9WorkQueue13CWorkerThread3RunEv,%function
 697              	_ZN12cpp_freertos9WorkQueue13CWorkerThread3RunEv:
 698              	.LFB1079:
 138:C:\Users\niels\Documents\Elektrotechniek\Jaar 3\dspl\software\STM32Basis\HAL\gemeenschappelijk\Third_Party\freertos-addons-1.1.0\c++\Source\cworkqueue.cpp **** 
 139:C:\Users\niels\Documents\Elektrotechniek\Jaar 3\dspl\software\STM32Basis\HAL\gemeenschappelijk\Third_Party\freertos-addons-1.1.0\c++\Source\cworkqueue.cpp **** #if (INCLUDE_vTaskDelete == 1)
 140:C:\Users\niels\Documents\Elektrotechniek\Jaar 3\dspl\software\STM32Basis\HAL\gemeenschappelijk\Third_Party\freertos-addons-1.1.0\c++\Source\cworkqueue.cpp **** WorkQueue::CWorkerThread::~CWorkerThread()
 141:C:\Users\niels\Documents\Elektrotechniek\Jaar 3\dspl\software\STM32Basis\HAL\gemeenschappelijk\Third_Party\freertos-addons-1.1.0\c++\Source\cworkqueue.cpp **** {
 142:C:\Users\niels\Documents\Elektrotechniek\Jaar 3\dspl\software\STM32Basis\HAL\gemeenschappelijk\Third_Party\freertos-addons-1.1.0\c++\Source\cworkqueue.cpp **** }
 143:C:\Users\niels\Documents\Elektrotechniek\Jaar 3\dspl\software\STM32Basis\HAL\gemeenschappelijk\Third_Party\freertos-addons-1.1.0\c++\Source\cworkqueue.cpp **** #endif
 144:C:\Users\niels\Documents\Elektrotechniek\Jaar 3\dspl\software\STM32Basis\HAL\gemeenschappelijk\Third_Party\freertos-addons-1.1.0\c++\Source\cworkqueue.cpp **** 
 145:C:\Users\niels\Documents\Elektrotechniek\Jaar 3\dspl\software\STM32Basis\HAL\gemeenschappelijk\Third_Party\freertos-addons-1.1.0\c++\Source\cworkqueue.cpp **** void WorkQueue::CWorkerThread::Run()
 146:C:\Users\niels\Documents\Elektrotechniek\Jaar 3\dspl\software\STM32Basis\HAL\gemeenschappelijk\Third_Party\freertos-addons-1.1.0\c++\Source\cworkqueue.cpp **** {
 699              	 .loc 2 146 1
 700              	 .cfi_startproc
 701              	 
 702              	 
 703 0000 80B5     	 push {r7,lr}
 704              	 .cfi_def_cfa_offset 8
ARM GAS   			page 20


 705              	 .cfi_offset 7,-8
 706              	 .cfi_offset 14,-4
 707 0002 84B0     	 sub sp,sp,#16
 708              	 .cfi_def_cfa_offset 24
 709 0004 00AF     	 add r7,sp,#0
 710              	 .cfi_def_cfa_register 7
 711 0006 7860     	 str r0,[r7,#4]
 712              	.L36:
 713              	.LBB10:
 147:C:\Users\niels\Documents\Elektrotechniek\Jaar 3\dspl\software\STM32Basis\HAL\gemeenschappelijk\Third_Party\freertos-addons-1.1.0\c++\Source\cworkqueue.cpp ****     while (true) {
 148:C:\Users\niels\Documents\Elektrotechniek\Jaar 3\dspl\software\STM32Basis\HAL\gemeenschappelijk\Third_Party\freertos-addons-1.1.0\c++\Source\cworkqueue.cpp **** 
 149:C:\Users\niels\Documents\Elektrotechniek\Jaar 3\dspl\software\STM32Basis\HAL\gemeenschappelijk\Third_Party\freertos-addons-1.1.0\c++\Source\cworkqueue.cpp ****         WorkItem *work;
 150:C:\Users\niels\Documents\Elektrotechniek\Jaar 3\dspl\software\STM32Basis\HAL\gemeenschappelijk\Third_Party\freertos-addons-1.1.0\c++\Source\cworkqueue.cpp **** 
 151:C:\Users\niels\Documents\Elektrotechniek\Jaar 3\dspl\software\STM32Basis\HAL\gemeenschappelijk\Third_Party\freertos-addons-1.1.0\c++\Source\cworkqueue.cpp ****         //
 152:C:\Users\niels\Documents\Elektrotechniek\Jaar 3\dspl\software\STM32Basis\HAL\gemeenschappelijk\Third_Party\freertos-addons-1.1.0\c++\Source\cworkqueue.cpp ****         //  Wait forever for work.
 153:C:\Users\niels\Documents\Elektrotechniek\Jaar 3\dspl\software\STM32Basis\HAL\gemeenschappelijk\Third_Party\freertos-addons-1.1.0\c++\Source\cworkqueue.cpp ****         //
 154:C:\Users\niels\Documents\Elektrotechniek\Jaar 3\dspl\software\STM32Basis\HAL\gemeenschappelijk\Third_Party\freertos-addons-1.1.0\c++\Source\cworkqueue.cpp ****         ParentWorkQueue->WorkItemQueue->Dequeue(&work);
 714              	 .loc 2 154 9
 715 0008 7B68     	 ldr r3,[r7,#4]
 716 000a DB6A     	 ldr r3,[r3,#44]
 717              	 .loc 2 154 26
 718 000c 5B68     	 ldr r3,[r3,#4]
 719              	 .loc 2 154 48
 720 000e 07F10C01 	 add r1,r7,#12
 721 0012 4FF0FF32 	 mov r2,#-1
 722 0016 1846     	 mov r0,r3
 723 0018 FFF7FEFF 	 bl _ZN12cpp_freertos5Queue7DequeueEPvm
 155:C:\Users\niels\Documents\Elektrotechniek\Jaar 3\dspl\software\STM32Basis\HAL\gemeenschappelijk\Third_Party\freertos-addons-1.1.0\c++\Source\cworkqueue.cpp **** 
 156:C:\Users\niels\Documents\Elektrotechniek\Jaar 3\dspl\software\STM32Basis\HAL\gemeenschappelijk\Third_Party\freertos-addons-1.1.0\c++\Source\cworkqueue.cpp ****         //
 157:C:\Users\niels\Documents\Elektrotechniek\Jaar 3\dspl\software\STM32Basis\HAL\gemeenschappelijk\Third_Party\freertos-addons-1.1.0\c++\Source\cworkqueue.cpp ****         //  If we dequeue a NULL item, its our sign to exit.
 158:C:\Users\niels\Documents\Elektrotechniek\Jaar 3\dspl\software\STM32Basis\HAL\gemeenschappelijk\Third_Party\freertos-addons-1.1.0\c++\Source\cworkqueue.cpp ****         //  We are being deconstructed.
 159:C:\Users\niels\Documents\Elektrotechniek\Jaar 3\dspl\software\STM32Basis\HAL\gemeenschappelijk\Third_Party\freertos-addons-1.1.0\c++\Source\cworkqueue.cpp ****         //
 160:C:\Users\niels\Documents\Elektrotechniek\Jaar 3\dspl\software\STM32Basis\HAL\gemeenschappelijk\Third_Party\freertos-addons-1.1.0\c++\Source\cworkqueue.cpp ****         if (work == NULL) {
 724              	 .loc 2 160 18
 725 001c FB68     	 ldr r3,[r7,#12]
 726              	 .loc 2 160 9
 727 001e 002B     	 cmp r3,#0
 728 0020 06D1     	 bne .L34
 729              	.LBE10:
 161:C:\Users\niels\Documents\Elektrotechniek\Jaar 3\dspl\software\STM32Basis\HAL\gemeenschappelijk\Third_Party\freertos-addons-1.1.0\c++\Source\cworkqueue.cpp ****             //
 162:C:\Users\niels\Documents\Elektrotechniek\Jaar 3\dspl\software\STM32Basis\HAL\gemeenschappelijk\Third_Party\freertos-addons-1.1.0\c++\Source\cworkqueue.cpp ****             //  Exit the task loop.
 163:C:\Users\niels\Documents\Elektrotechniek\Jaar 3\dspl\software\STM32Basis\HAL\gemeenschappelijk\Third_Party\freertos-addons-1.1.0\c++\Source\cworkqueue.cpp ****             //
 164:C:\Users\niels\Documents\Elektrotechniek\Jaar 3\dspl\software\STM32Basis\HAL\gemeenschappelijk\Third_Party\freertos-addons-1.1.0\c++\Source\cworkqueue.cpp ****             break;
 165:C:\Users\niels\Documents\Elektrotechniek\Jaar 3\dspl\software\STM32Basis\HAL\gemeenschappelijk\Third_Party\freertos-addons-1.1.0\c++\Source\cworkqueue.cpp ****         }
 166:C:\Users\niels\Documents\Elektrotechniek\Jaar 3\dspl\software\STM32Basis\HAL\gemeenschappelijk\Third_Party\freertos-addons-1.1.0\c++\Source\cworkqueue.cpp **** 
 167:C:\Users\niels\Documents\Elektrotechniek\Jaar 3\dspl\software\STM32Basis\HAL\gemeenschappelijk\Third_Party\freertos-addons-1.1.0\c++\Source\cworkqueue.cpp ****         //
 168:C:\Users\niels\Documents\Elektrotechniek\Jaar 3\dspl\software\STM32Basis\HAL\gemeenschappelijk\Third_Party\freertos-addons-1.1.0\c++\Source\cworkqueue.cpp ****         //  Else we have an item, run it.
 169:C:\Users\niels\Documents\Elektrotechniek\Jaar 3\dspl\software\STM32Basis\HAL\gemeenschappelijk\Third_Party\freertos-addons-1.1.0\c++\Source\cworkqueue.cpp ****         //
 170:C:\Users\niels\Documents\Elektrotechniek\Jaar 3\dspl\software\STM32Basis\HAL\gemeenschappelijk\Third_Party\freertos-addons-1.1.0\c++\Source\cworkqueue.cpp ****         work->Run();
 171:C:\Users\niels\Documents\Elektrotechniek\Jaar 3\dspl\software\STM32Basis\HAL\gemeenschappelijk\Third_Party\freertos-addons-1.1.0\c++\Source\cworkqueue.cpp **** 
 172:C:\Users\niels\Documents\Elektrotechniek\Jaar 3\dspl\software\STM32Basis\HAL\gemeenschappelijk\Third_Party\freertos-addons-1.1.0\c++\Source\cworkqueue.cpp ****         //
 173:C:\Users\niels\Documents\Elektrotechniek\Jaar 3\dspl\software\STM32Basis\HAL\gemeenschappelijk\Third_Party\freertos-addons-1.1.0\c++\Source\cworkqueue.cpp ****         //  If this was a dynamic, fire and forget item and we were 
 174:C:\Users\niels\Documents\Elektrotechniek\Jaar 3\dspl\software\STM32Basis\HAL\gemeenschappelijk\Third_Party\freertos-addons-1.1.0\c++\Source\cworkqueue.cpp ****         //  requested to clean it up, do so.
 175:C:\Users\niels\Documents\Elektrotechniek\Jaar 3\dspl\software\STM32Basis\HAL\gemeenschappelijk\Third_Party\freertos-addons-1.1.0\c++\Source\cworkqueue.cpp ****         //
 176:C:\Users\niels\Documents\Elektrotechniek\Jaar 3\dspl\software\STM32Basis\HAL\gemeenschappelijk\Third_Party\freertos-addons-1.1.0\c++\Source\cworkqueue.cpp ****         if (work->FreeAfterRun()) {
 177:C:\Users\niels\Documents\Elektrotechniek\Jaar 3\dspl\software\STM32Basis\HAL\gemeenschappelijk\Third_Party\freertos-addons-1.1.0\c++\Source\cworkqueue.cpp ****             delete work;
 178:C:\Users\niels\Documents\Elektrotechniek\Jaar 3\dspl\software\STM32Basis\HAL\gemeenschappelijk\Third_Party\freertos-addons-1.1.0\c++\Source\cworkqueue.cpp ****         }
ARM GAS   			page 21


 179:C:\Users\niels\Documents\Elektrotechniek\Jaar 3\dspl\software\STM32Basis\HAL\gemeenschappelijk\Third_Party\freertos-addons-1.1.0\c++\Source\cworkqueue.cpp ****     }
 180:C:\Users\niels\Documents\Elektrotechniek\Jaar 3\dspl\software\STM32Basis\HAL\gemeenschappelijk\Third_Party\freertos-addons-1.1.0\c++\Source\cworkqueue.cpp **** 
 181:C:\Users\niels\Documents\Elektrotechniek\Jaar 3\dspl\software\STM32Basis\HAL\gemeenschappelijk\Third_Party\freertos-addons-1.1.0\c++\Source\cworkqueue.cpp ****     //
 182:C:\Users\niels\Documents\Elektrotechniek\Jaar 3\dspl\software\STM32Basis\HAL\gemeenschappelijk\Third_Party\freertos-addons-1.1.0\c++\Source\cworkqueue.cpp ****     //  Signal the dtor that the thread is exiting.
 183:C:\Users\niels\Documents\Elektrotechniek\Jaar 3\dspl\software\STM32Basis\HAL\gemeenschappelijk\Third_Party\freertos-addons-1.1.0\c++\Source\cworkqueue.cpp ****     //
 184:C:\Users\niels\Documents\Elektrotechniek\Jaar 3\dspl\software\STM32Basis\HAL\gemeenschappelijk\Third_Party\freertos-addons-1.1.0\c++\Source\cworkqueue.cpp ****     ParentWorkQueue->ThreadComplete->Give();
 730              	 .loc 2 184 5
 731 0022 7B68     	 ldr r3,[r7,#4]
 732 0024 DB6A     	 ldr r3,[r3,#44]
 733              	 .loc 2 184 22
 734 0026 9B68     	 ldr r3,[r3,#8]
 735              	 .loc 2 184 42
 736 0028 1846     	 mov r0,r3
 737 002a FFF7FEFF 	 bl _ZN12cpp_freertos9Semaphore4GiveEv
 185:C:\Users\niels\Documents\Elektrotechniek\Jaar 3\dspl\software\STM32Basis\HAL\gemeenschappelijk\Third_Party\freertos-addons-1.1.0\c++\Source\cworkqueue.cpp **** }
 738              	 .loc 2 185 1
 739 002e 16E0     	 b .L37
 740              	.L34:
 741              	.LBB11:
 170:C:\Users\niels\Documents\Elektrotechniek\Jaar 3\dspl\software\STM32Basis\HAL\gemeenschappelijk\Third_Party\freertos-addons-1.1.0\c++\Source\cworkqueue.cpp **** 
 742              	 .loc 2 170 18
 743 0030 FA68     	 ldr r2,[r7,#12]
 170:C:\Users\niels\Documents\Elektrotechniek\Jaar 3\dspl\software\STM32Basis\HAL\gemeenschappelijk\Third_Party\freertos-addons-1.1.0\c++\Source\cworkqueue.cpp **** 
 744              	 .loc 2 170 19
 745 0032 FB68     	 ldr r3,[r7,#12]
 746 0034 1B68     	 ldr r3,[r3]
 747 0036 0833     	 adds r3,r3,#8
 748 0038 1B68     	 ldr r3,[r3]
 170:C:\Users\niels\Documents\Elektrotechniek\Jaar 3\dspl\software\STM32Basis\HAL\gemeenschappelijk\Third_Party\freertos-addons-1.1.0\c++\Source\cworkqueue.cpp **** 
 749              	 .loc 2 170 18
 750 003a 1046     	 mov r0,r2
 751 003c 9847     	 blx r3
 752              	.LVL4:
 176:C:\Users\niels\Documents\Elektrotechniek\Jaar 3\dspl\software\STM32Basis\HAL\gemeenschappelijk\Third_Party\freertos-addons-1.1.0\c++\Source\cworkqueue.cpp ****             delete work;
 753              	 .loc 2 176 31
 754 003e FB68     	 ldr r3,[r7,#12]
 755 0040 1846     	 mov r0,r3
 756 0042 FFF7FEFF 	 bl _ZN12cpp_freertos8WorkItem12FreeAfterRunEv
 757 0046 0346     	 mov r3,r0
 176:C:\Users\niels\Documents\Elektrotechniek\Jaar 3\dspl\software\STM32Basis\HAL\gemeenschappelijk\Third_Party\freertos-addons-1.1.0\c++\Source\cworkqueue.cpp ****             delete work;
 758              	 .loc 2 176 9
 759 0048 002B     	 cmp r3,#0
 760 004a DDD0     	 beq .L36
 177:C:\Users\niels\Documents\Elektrotechniek\Jaar 3\dspl\software\STM32Basis\HAL\gemeenschappelijk\Third_Party\freertos-addons-1.1.0\c++\Source\cworkqueue.cpp ****         }
 761              	 .loc 2 177 20
 762 004c FB68     	 ldr r3,[r7,#12]
 177:C:\Users\niels\Documents\Elektrotechniek\Jaar 3\dspl\software\STM32Basis\HAL\gemeenschappelijk\Third_Party\freertos-addons-1.1.0\c++\Source\cworkqueue.cpp ****         }
 763              	 .loc 2 177 13
 764 004e 002B     	 cmp r3,#0
 765 0050 DAD0     	 beq .L36
 177:C:\Users\niels\Documents\Elektrotechniek\Jaar 3\dspl\software\STM32Basis\HAL\gemeenschappelijk\Third_Party\freertos-addons-1.1.0\c++\Source\cworkqueue.cpp ****         }
 766              	 .loc 2 177 20 discriminator 1
 767 0052 1A68     	 ldr r2,[r3]
 768 0054 0432     	 adds r2,r2,#4
 769 0056 1268     	 ldr r2,[r2]
 770 0058 1846     	 mov r0,r3
 771 005a 9047     	 blx r2
ARM GAS   			page 22


 772              	.LVL5:
 773              	.LBE11:
 179:C:\Users\niels\Documents\Elektrotechniek\Jaar 3\dspl\software\STM32Basis\HAL\gemeenschappelijk\Third_Party\freertos-addons-1.1.0\c++\Source\cworkqueue.cpp **** 
 774              	 .loc 2 179 5 discriminator 1
 775 005c D4E7     	 b .L36
 776              	.L37:
 777              	 .loc 2 185 1
 778 005e 1037     	 adds r7,r7,#16
 779              	 .cfi_def_cfa_offset 8
 780 0060 BD46     	 mov sp,r7
 781              	 .cfi_def_cfa_register 13
 782              	 
 783 0062 80BD     	 pop {r7,pc}
 784              	 .cfi_endproc
 785              	.LFE1079:
 786              	 .size _ZN12cpp_freertos9WorkQueue13CWorkerThread3RunEv,.-_ZN12cpp_freertos9WorkQueue13CWorkerThread3RunEv
 787              	 .global _ZTVN12cpp_freertos9WorkQueue13CWorkerThreadE
 788              	 .section .rodata._ZTVN12cpp_freertos9WorkQueue13CWorkerThreadE,"a"
 789              	 .align 2
 790              	 .type _ZTVN12cpp_freertos9WorkQueue13CWorkerThreadE,%object
 791              	 .size _ZTVN12cpp_freertos9WorkQueue13CWorkerThreadE,20
 792              	_ZTVN12cpp_freertos9WorkQueue13CWorkerThreadE:
 793 0000 00000000 	 .word 0
 794 0004 00000000 	 .word 0
 795 0008 00000000 	 .word _ZN12cpp_freertos9WorkQueue13CWorkerThreadD1Ev
 796 000c 00000000 	 .word _ZN12cpp_freertos9WorkQueue13CWorkerThreadD0Ev
 797 0010 00000000 	 .word _ZN12cpp_freertos9WorkQueue13CWorkerThread3RunEv
 798              	 .section .text._ZN12cpp_freertos9WorkQueue13CWorkerThreadD2Ev,"axG",%progbits,_ZN12cpp_freertos9WorkQueue13CWorkerThreadD5Ev,comdat
 799              	 .align 1
 800              	 .weak _ZN12cpp_freertos9WorkQueue13CWorkerThreadD2Ev
 801              	 .syntax unified
 802              	 .thumb
 803              	 .thumb_func
 804              	 .type _ZN12cpp_freertos9WorkQueue13CWorkerThreadD2Ev,%function
 805              	_ZN12cpp_freertos9WorkQueue13CWorkerThreadD2Ev:
 806              	.LFB1557:
 807              	 .file 3 "c:\\users\\niels\\docume~1\\elektr~1\\jaar3~1\\dspl\\software\\stm32b~1\\hal\\gemeen~1\\third_~1\\freert~1.0\\c__~1\\source\\include\\workqueue.hpp"
   1:c:\users\niels\docume~1\elektr~1\jaar3~1\dspl\software\stm32b~1\hal\gemeen~1\third_~1\freert~1.0\c__~1\source\include\workqueue.hpp **** /****************************************************************************
   2:c:\users\niels\docume~1\elektr~1\jaar3~1\dspl\software\stm32b~1\hal\gemeen~1\third_~1\freert~1.0\c__~1\source\include\workqueue.hpp ****  *
   3:c:\users\niels\docume~1\elektr~1\jaar3~1\dspl\software\stm32b~1\hal\gemeen~1\third_~1\freert~1.0\c__~1\source\include\workqueue.hpp ****  *  Copyright (c) 2016, Michael Becker (michael.f.becker@gmail.com)
   4:c:\users\niels\docume~1\elektr~1\jaar3~1\dspl\software\stm32b~1\hal\gemeen~1\third_~1\freert~1.0\c__~1\source\include\workqueue.hpp ****  *
   5:c:\users\niels\docume~1\elektr~1\jaar3~1\dspl\software\stm32b~1\hal\gemeen~1\third_~1\freert~1.0\c__~1\source\include\workqueue.hpp ****  *  This file is part of the FreeRTOS C++ Wrappers project.
   6:c:\users\niels\docume~1\elektr~1\jaar3~1\dspl\software\stm32b~1\hal\gemeen~1\third_~1\freert~1.0\c__~1\source\include\workqueue.hpp ****  *
   7:c:\users\niels\docume~1\elektr~1\jaar3~1\dspl\software\stm32b~1\hal\gemeen~1\third_~1\freert~1.0\c__~1\source\include\workqueue.hpp ****  *  The FreeRTOS C++ Wrappers project is free software: you can redistribute
   8:c:\users\niels\docume~1\elektr~1\jaar3~1\dspl\software\stm32b~1\hal\gemeen~1\third_~1\freert~1.0\c__~1\source\include\workqueue.hpp ****  *  it and/or modify it under the terms of the GNU General Public License as
   9:c:\users\niels\docume~1\elektr~1\jaar3~1\dspl\software\stm32b~1\hal\gemeen~1\third_~1\freert~1.0\c__~1\source\include\workqueue.hpp ****  *  published by the Free Software Foundation, either version 2
  10:c:\users\niels\docume~1\elektr~1\jaar3~1\dspl\software\stm32b~1\hal\gemeen~1\third_~1\freert~1.0\c__~1\source\include\workqueue.hpp ****  *  of the License, or (at your option) any later version.
  11:c:\users\niels\docume~1\elektr~1\jaar3~1\dspl\software\stm32b~1\hal\gemeen~1\third_~1\freert~1.0\c__~1\source\include\workqueue.hpp ****  *
  12:c:\users\niels\docume~1\elektr~1\jaar3~1\dspl\software\stm32b~1\hal\gemeen~1\third_~1\freert~1.0\c__~1\source\include\workqueue.hpp ****  *  The FreeRTOS C++ Wrappers project is distributed in the hope that it will
  13:c:\users\niels\docume~1\elektr~1\jaar3~1\dspl\software\stm32b~1\hal\gemeen~1\third_~1\freert~1.0\c__~1\source\include\workqueue.hpp ****  *  be useful, but WITHOUT ANY WARRANTY; without even the implied warranty of
  14:c:\users\niels\docume~1\elektr~1\jaar3~1\dspl\software\stm32b~1\hal\gemeen~1\third_~1\freert~1.0\c__~1\source\include\workqueue.hpp ****  *  MERCHANTABILITY or FITNESS FOR A PARTICULAR PURPOSE.  See the
  15:c:\users\niels\docume~1\elektr~1\jaar3~1\dspl\software\stm32b~1\hal\gemeen~1\third_~1\freert~1.0\c__~1\source\include\workqueue.hpp ****  *  GNU General Public License for more details.
  16:c:\users\niels\docume~1\elektr~1\jaar3~1\dspl\software\stm32b~1\hal\gemeen~1\third_~1\freert~1.0\c__~1\source\include\workqueue.hpp ****  *
  17:c:\users\niels\docume~1\elektr~1\jaar3~1\dspl\software\stm32b~1\hal\gemeen~1\third_~1\freert~1.0\c__~1\source\include\workqueue.hpp ****  *  You should have received a copy of the GNU General Public License
  18:c:\users\niels\docume~1\elektr~1\jaar3~1\dspl\software\stm32b~1\hal\gemeen~1\third_~1\freert~1.0\c__~1\source\include\workqueue.hpp ****  *  along with the FreeRTOS C++ Wrappers project.
  19:c:\users\niels\docume~1\elektr~1\jaar3~1\dspl\software\stm32b~1\hal\gemeen~1\third_~1\freert~1.0\c__~1\source\include\workqueue.hpp ****  *  If not, see <http://www.gnu.org/licenses/>.
  20:c:\users\niels\docume~1\elektr~1\jaar3~1\dspl\software\stm32b~1\hal\gemeen~1\third_~1\freert~1.0\c__~1\source\include\workqueue.hpp ****  *
ARM GAS   			page 23


  21:c:\users\niels\docume~1\elektr~1\jaar3~1\dspl\software\stm32b~1\hal\gemeen~1\third_~1\freert~1.0\c__~1\source\include\workqueue.hpp ****  ***************************************************************************/
  22:c:\users\niels\docume~1\elektr~1\jaar3~1\dspl\software\stm32b~1\hal\gemeen~1\third_~1\freert~1.0\c__~1\source\include\workqueue.hpp **** #ifndef WORK_QUEUE_HPP_
  23:c:\users\niels\docume~1\elektr~1\jaar3~1\dspl\software\stm32b~1\hal\gemeen~1\third_~1\freert~1.0\c__~1\source\include\workqueue.hpp **** #define WORK_QUEUE_HPP_
  24:c:\users\niels\docume~1\elektr~1\jaar3~1\dspl\software\stm32b~1\hal\gemeen~1\third_~1\freert~1.0\c__~1\source\include\workqueue.hpp **** 
  25:c:\users\niels\docume~1\elektr~1\jaar3~1\dspl\software\stm32b~1\hal\gemeen~1\third_~1\freert~1.0\c__~1\source\include\workqueue.hpp **** #include "thread.hpp"
  26:c:\users\niels\docume~1\elektr~1\jaar3~1\dspl\software\stm32b~1\hal\gemeen~1\third_~1\freert~1.0\c__~1\source\include\workqueue.hpp **** #include "queue.hpp"
  27:c:\users\niels\docume~1\elektr~1\jaar3~1\dspl\software\stm32b~1\hal\gemeen~1\third_~1\freert~1.0\c__~1\source\include\workqueue.hpp **** #include "semaphore.hpp"
  28:c:\users\niels\docume~1\elektr~1\jaar3~1\dspl\software\stm32b~1\hal\gemeen~1\third_~1\freert~1.0\c__~1\source\include\workqueue.hpp **** 
  29:c:\users\niels\docume~1\elektr~1\jaar3~1\dspl\software\stm32b~1\hal\gemeen~1\third_~1\freert~1.0\c__~1\source\include\workqueue.hpp **** 
  30:c:\users\niels\docume~1\elektr~1\jaar3~1\dspl\software\stm32b~1\hal\gemeen~1\third_~1\freert~1.0\c__~1\source\include\workqueue.hpp **** namespace cpp_freertos {
  31:c:\users\niels\docume~1\elektr~1\jaar3~1\dspl\software\stm32b~1\hal\gemeen~1\third_~1\freert~1.0\c__~1\source\include\workqueue.hpp **** 
  32:c:\users\niels\docume~1\elektr~1\jaar3~1\dspl\software\stm32b~1\hal\gemeen~1\third_~1\freert~1.0\c__~1\source\include\workqueue.hpp **** 
  33:c:\users\niels\docume~1\elektr~1\jaar3~1\dspl\software\stm32b~1\hal\gemeen~1\third_~1\freert~1.0\c__~1\source\include\workqueue.hpp **** #define DEFAULT_MAX_WORK_ITEMS          10
  34:c:\users\niels\docume~1\elektr~1\jaar3~1\dspl\software\stm32b~1\hal\gemeen~1\third_~1\freert~1.0\c__~1\source\include\workqueue.hpp **** #define DEFAULT_WORK_QUEUE_STACK_SIZE   (configMINIMAL_STACK_SIZE * 2)
  35:c:\users\niels\docume~1\elektr~1\jaar3~1\dspl\software\stm32b~1\hal\gemeen~1\third_~1\freert~1.0\c__~1\source\include\workqueue.hpp **** #define DEFAULT_WORK_QUEUE_PRIORITY     (tskIDLE_PRIORITY + 1)
  36:c:\users\niels\docume~1\elektr~1\jaar3~1\dspl\software\stm32b~1\hal\gemeen~1\third_~1\freert~1.0\c__~1\source\include\workqueue.hpp **** 
  37:c:\users\niels\docume~1\elektr~1\jaar3~1\dspl\software\stm32b~1\hal\gemeen~1\third_~1\freert~1.0\c__~1\source\include\workqueue.hpp **** 
  38:c:\users\niels\docume~1\elektr~1\jaar3~1\dspl\software\stm32b~1\hal\gemeen~1\third_~1\freert~1.0\c__~1\source\include\workqueue.hpp **** /**
  39:c:\users\niels\docume~1\elektr~1\jaar3~1\dspl\software\stm32b~1\hal\gemeen~1\third_~1\freert~1.0\c__~1\source\include\workqueue.hpp ****  *  This class encapsulates the idea of a discrete, non-repeating task.
  40:c:\users\niels\docume~1\elektr~1\jaar3~1\dspl\software\stm32b~1\hal\gemeen~1\third_~1\freert~1.0\c__~1\source\include\workqueue.hpp ****  *  Create a WorkItem when there is something you need to do on a different
  41:c:\users\niels\docume~1\elektr~1\jaar3~1\dspl\software\stm32b~1\hal\gemeen~1\third_~1\freert~1.0\c__~1\source\include\workqueue.hpp ****  *  Thread, but doesn't have to happen periodically. This is a great 
  42:c:\users\niels\docume~1\elektr~1\jaar3~1\dspl\software\stm32b~1\hal\gemeen~1\third_~1\freert~1.0\c__~1\source\include\workqueue.hpp ****  *  construct for one off fire and forget tasks.
  43:c:\users\niels\docume~1\elektr~1\jaar3~1\dspl\software\stm32b~1\hal\gemeen~1\third_~1\freert~1.0\c__~1\source\include\workqueue.hpp ****  *
  44:c:\users\niels\docume~1\elektr~1\jaar3~1\dspl\software\stm32b~1\hal\gemeen~1\third_~1\freert~1.0\c__~1\source\include\workqueue.hpp ****  *  This is an abstract base class.
  45:c:\users\niels\docume~1\elektr~1\jaar3~1\dspl\software\stm32b~1\hal\gemeen~1\third_~1\freert~1.0\c__~1\source\include\workqueue.hpp ****  *  To use this, you need to subclass it. All of your WorkItems should
  46:c:\users\niels\docume~1\elektr~1\jaar3~1\dspl\software\stm32b~1\hal\gemeen~1\third_~1\freert~1.0\c__~1\source\include\workqueue.hpp ****  *  be derived from this class. Then implement the virtual Run
  47:c:\users\niels\docume~1\elektr~1\jaar3~1\dspl\software\stm32b~1\hal\gemeen~1\third_~1\freert~1.0\c__~1\source\include\workqueue.hpp ****  *  function. This is a similar design to Java threading.
  48:c:\users\niels\docume~1\elektr~1\jaar3~1\dspl\software\stm32b~1\hal\gemeen~1\third_~1\freert~1.0\c__~1\source\include\workqueue.hpp ****  */
  49:c:\users\niels\docume~1\elektr~1\jaar3~1\dspl\software\stm32b~1\hal\gemeen~1\third_~1\freert~1.0\c__~1\source\include\workqueue.hpp **** class WorkItem {
  50:c:\users\niels\docume~1\elektr~1\jaar3~1\dspl\software\stm32b~1\hal\gemeen~1\third_~1\freert~1.0\c__~1\source\include\workqueue.hpp **** 
  51:c:\users\niels\docume~1\elektr~1\jaar3~1\dspl\software\stm32b~1\hal\gemeen~1\third_~1\freert~1.0\c__~1\source\include\workqueue.hpp ****     /////////////////////////////////////////////////////////////////////////
  52:c:\users\niels\docume~1\elektr~1\jaar3~1\dspl\software\stm32b~1\hal\gemeen~1\third_~1\freert~1.0\c__~1\source\include\workqueue.hpp ****     //
  53:c:\users\niels\docume~1\elektr~1\jaar3~1\dspl\software\stm32b~1\hal\gemeen~1\third_~1\freert~1.0\c__~1\source\include\workqueue.hpp ****     //  Public API
  54:c:\users\niels\docume~1\elektr~1\jaar3~1\dspl\software\stm32b~1\hal\gemeen~1\third_~1\freert~1.0\c__~1\source\include\workqueue.hpp ****     //
  55:c:\users\niels\docume~1\elektr~1\jaar3~1\dspl\software\stm32b~1\hal\gemeen~1\third_~1\freert~1.0\c__~1\source\include\workqueue.hpp ****     /////////////////////////////////////////////////////////////////////////
  56:c:\users\niels\docume~1\elektr~1\jaar3~1\dspl\software\stm32b~1\hal\gemeen~1\third_~1\freert~1.0\c__~1\source\include\workqueue.hpp ****     public:
  57:c:\users\niels\docume~1\elektr~1\jaar3~1\dspl\software\stm32b~1\hal\gemeen~1\third_~1\freert~1.0\c__~1\source\include\workqueue.hpp **** 
  58:c:\users\niels\docume~1\elektr~1\jaar3~1\dspl\software\stm32b~1\hal\gemeen~1\third_~1\freert~1.0\c__~1\source\include\workqueue.hpp ****         /**
  59:c:\users\niels\docume~1\elektr~1\jaar3~1\dspl\software\stm32b~1\hal\gemeen~1\third_~1\freert~1.0\c__~1\source\include\workqueue.hpp ****          *  Our constructor.
  60:c:\users\niels\docume~1\elektr~1\jaar3~1\dspl\software\stm32b~1\hal\gemeen~1\third_~1\freert~1.0\c__~1\source\include\workqueue.hpp ****          *
  61:c:\users\niels\docume~1\elektr~1\jaar3~1\dspl\software\stm32b~1\hal\gemeen~1\third_~1\freert~1.0\c__~1\source\include\workqueue.hpp ****          *  @param freeAfterComplete If you pass in a true, you are 
  62:c:\users\niels\docume~1\elektr~1\jaar3~1\dspl\software\stm32b~1\hal\gemeen~1\third_~1\freert~1.0\c__~1\source\include\workqueue.hpp ****          *  requesing the WorkQueue itself to delete this WorkItem after
  63:c:\users\niels\docume~1\elektr~1\jaar3~1\dspl\software\stm32b~1\hal\gemeen~1\third_~1\freert~1.0\c__~1\source\include\workqueue.hpp ****          *  it has run it. 
  64:c:\users\niels\docume~1\elektr~1\jaar3~1\dspl\software\stm32b~1\hal\gemeen~1\third_~1\freert~1.0\c__~1\source\include\workqueue.hpp ****          *  @note Only set freeAfterComplete = true if:
  65:c:\users\niels\docume~1\elektr~1\jaar3~1\dspl\software\stm32b~1\hal\gemeen~1\third_~1\freert~1.0\c__~1\source\include\workqueue.hpp ****          *  1) You dynamically allocated it (i.e. used "new")
  66:c:\users\niels\docume~1\elektr~1\jaar3~1\dspl\software\stm32b~1\hal\gemeen~1\third_~1\freert~1.0\c__~1\source\include\workqueue.hpp ****          *  2) After you call QueueWork() you promise never to touch 
  67:c:\users\niels\docume~1\elektr~1\jaar3~1\dspl\software\stm32b~1\hal\gemeen~1\third_~1\freert~1.0\c__~1\source\include\workqueue.hpp ****          *     this object again. 
  68:c:\users\niels\docume~1\elektr~1\jaar3~1\dspl\software\stm32b~1\hal\gemeen~1\third_~1\freert~1.0\c__~1\source\include\workqueue.hpp ****          */
  69:c:\users\niels\docume~1\elektr~1\jaar3~1\dspl\software\stm32b~1\hal\gemeen~1\third_~1\freert~1.0\c__~1\source\include\workqueue.hpp ****         WorkItem(bool freeAfterComplete = false);
  70:c:\users\niels\docume~1\elektr~1\jaar3~1\dspl\software\stm32b~1\hal\gemeen~1\third_~1\freert~1.0\c__~1\source\include\workqueue.hpp **** 
  71:c:\users\niels\docume~1\elektr~1\jaar3~1\dspl\software\stm32b~1\hal\gemeen~1\third_~1\freert~1.0\c__~1\source\include\workqueue.hpp ****         /**
  72:c:\users\niels\docume~1\elektr~1\jaar3~1\dspl\software\stm32b~1\hal\gemeen~1\third_~1\freert~1.0\c__~1\source\include\workqueue.hpp ****          *  Our destructor.
  73:c:\users\niels\docume~1\elektr~1\jaar3~1\dspl\software\stm32b~1\hal\gemeen~1\third_~1\freert~1.0\c__~1\source\include\workqueue.hpp ****          */
  74:c:\users\niels\docume~1\elektr~1\jaar3~1\dspl\software\stm32b~1\hal\gemeen~1\third_~1\freert~1.0\c__~1\source\include\workqueue.hpp ****         virtual ~WorkItem();
  75:c:\users\niels\docume~1\elektr~1\jaar3~1\dspl\software\stm32b~1\hal\gemeen~1\third_~1\freert~1.0\c__~1\source\include\workqueue.hpp ****         
  76:c:\users\niels\docume~1\elektr~1\jaar3~1\dspl\software\stm32b~1\hal\gemeen~1\third_~1\freert~1.0\c__~1\source\include\workqueue.hpp ****         /**
  77:c:\users\niels\docume~1\elektr~1\jaar3~1\dspl\software\stm32b~1\hal\gemeen~1\third_~1\freert~1.0\c__~1\source\include\workqueue.hpp ****          *  Allows a client to decide if this WorkItem is marked
ARM GAS   			page 24


  78:c:\users\niels\docume~1\elektr~1\jaar3~1\dspl\software\stm32b~1\hal\gemeen~1\third_~1\freert~1.0\c__~1\source\include\workqueue.hpp ****          *  for automatic deletion.
  79:c:\users\niels\docume~1\elektr~1\jaar3~1\dspl\software\stm32b~1\hal\gemeen~1\third_~1\freert~1.0\c__~1\source\include\workqueue.hpp ****          */
  80:c:\users\niels\docume~1\elektr~1\jaar3~1\dspl\software\stm32b~1\hal\gemeen~1\third_~1\freert~1.0\c__~1\source\include\workqueue.hpp ****         bool FreeAfterRun();
  81:c:\users\niels\docume~1\elektr~1\jaar3~1\dspl\software\stm32b~1\hal\gemeen~1\third_~1\freert~1.0\c__~1\source\include\workqueue.hpp **** 
  82:c:\users\niels\docume~1\elektr~1\jaar3~1\dspl\software\stm32b~1\hal\gemeen~1\third_~1\freert~1.0\c__~1\source\include\workqueue.hpp ****         /**
  83:c:\users\niels\docume~1\elektr~1\jaar3~1\dspl\software\stm32b~1\hal\gemeen~1\third_~1\freert~1.0\c__~1\source\include\workqueue.hpp ****          *  Implementation of your actual WorkItem function.
  84:c:\users\niels\docume~1\elektr~1\jaar3~1\dspl\software\stm32b~1\hal\gemeen~1\third_~1\freert~1.0\c__~1\source\include\workqueue.hpp ****          *  You must override this function.
  85:c:\users\niels\docume~1\elektr~1\jaar3~1\dspl\software\stm32b~1\hal\gemeen~1\third_~1\freert~1.0\c__~1\source\include\workqueue.hpp ****          */
  86:c:\users\niels\docume~1\elektr~1\jaar3~1\dspl\software\stm32b~1\hal\gemeen~1\third_~1\freert~1.0\c__~1\source\include\workqueue.hpp ****         virtual void Run() = 0;
  87:c:\users\niels\docume~1\elektr~1\jaar3~1\dspl\software\stm32b~1\hal\gemeen~1\third_~1\freert~1.0\c__~1\source\include\workqueue.hpp **** 
  88:c:\users\niels\docume~1\elektr~1\jaar3~1\dspl\software\stm32b~1\hal\gemeen~1\third_~1\freert~1.0\c__~1\source\include\workqueue.hpp ****     /////////////////////////////////////////////////////////////////////////
  89:c:\users\niels\docume~1\elektr~1\jaar3~1\dspl\software\stm32b~1\hal\gemeen~1\third_~1\freert~1.0\c__~1\source\include\workqueue.hpp ****     //
  90:c:\users\niels\docume~1\elektr~1\jaar3~1\dspl\software\stm32b~1\hal\gemeen~1\third_~1\freert~1.0\c__~1\source\include\workqueue.hpp ****     //  Private API
  91:c:\users\niels\docume~1\elektr~1\jaar3~1\dspl\software\stm32b~1\hal\gemeen~1\third_~1\freert~1.0\c__~1\source\include\workqueue.hpp ****     //  The internals of this wrapper class.
  92:c:\users\niels\docume~1\elektr~1\jaar3~1\dspl\software\stm32b~1\hal\gemeen~1\third_~1\freert~1.0\c__~1\source\include\workqueue.hpp ****     //
  93:c:\users\niels\docume~1\elektr~1\jaar3~1\dspl\software\stm32b~1\hal\gemeen~1\third_~1\freert~1.0\c__~1\source\include\workqueue.hpp ****     /////////////////////////////////////////////////////////////////////////
  94:c:\users\niels\docume~1\elektr~1\jaar3~1\dspl\software\stm32b~1\hal\gemeen~1\third_~1\freert~1.0\c__~1\source\include\workqueue.hpp ****     private:
  95:c:\users\niels\docume~1\elektr~1\jaar3~1\dspl\software\stm32b~1\hal\gemeen~1\third_~1\freert~1.0\c__~1\source\include\workqueue.hpp ****         /**
  96:c:\users\niels\docume~1\elektr~1\jaar3~1\dspl\software\stm32b~1\hal\gemeen~1\third_~1\freert~1.0\c__~1\source\include\workqueue.hpp ****          *  Designates whether this WorkItem should be deleted 
  97:c:\users\niels\docume~1\elektr~1\jaar3~1\dspl\software\stm32b~1\hal\gemeen~1\third_~1\freert~1.0\c__~1\source\include\workqueue.hpp ****          *  after the WorkQueue has run it.
  98:c:\users\niels\docume~1\elektr~1\jaar3~1\dspl\software\stm32b~1\hal\gemeen~1\third_~1\freert~1.0\c__~1\source\include\workqueue.hpp ****          */
  99:c:\users\niels\docume~1\elektr~1\jaar3~1\dspl\software\stm32b~1\hal\gemeen~1\third_~1\freert~1.0\c__~1\source\include\workqueue.hpp ****         const bool FreeItemAfterCompleted;
 100:c:\users\niels\docume~1\elektr~1\jaar3~1\dspl\software\stm32b~1\hal\gemeen~1\third_~1\freert~1.0\c__~1\source\include\workqueue.hpp **** };
 101:c:\users\niels\docume~1\elektr~1\jaar3~1\dspl\software\stm32b~1\hal\gemeen~1\third_~1\freert~1.0\c__~1\source\include\workqueue.hpp **** 
 102:c:\users\niels\docume~1\elektr~1\jaar3~1\dspl\software\stm32b~1\hal\gemeen~1\third_~1\freert~1.0\c__~1\source\include\workqueue.hpp **** 
 103:c:\users\niels\docume~1\elektr~1\jaar3~1\dspl\software\stm32b~1\hal\gemeen~1\third_~1\freert~1.0\c__~1\source\include\workqueue.hpp **** /**
 104:c:\users\niels\docume~1\elektr~1\jaar3~1\dspl\software\stm32b~1\hal\gemeen~1\third_~1\freert~1.0\c__~1\source\include\workqueue.hpp ****  *  This class is the "engine" for WorkItems. Create one or more WorkQueues
 105:c:\users\niels\docume~1\elektr~1\jaar3~1\dspl\software\stm32b~1\hal\gemeen~1\third_~1\freert~1.0\c__~1\source\include\workqueue.hpp ****  *  to accept WorkItems. WorkQueues pull WorkItems off of a FIFO queue and 
 106:c:\users\niels\docume~1\elektr~1\jaar3~1\dspl\software\stm32b~1\hal\gemeen~1\third_~1\freert~1.0\c__~1\source\include\workqueue.hpp ****  *  run them sequentially.
 107:c:\users\niels\docume~1\elektr~1\jaar3~1\dspl\software\stm32b~1\hal\gemeen~1\third_~1\freert~1.0\c__~1\source\include\workqueue.hpp ****  */
 108:c:\users\niels\docume~1\elektr~1\jaar3~1\dspl\software\stm32b~1\hal\gemeen~1\third_~1\freert~1.0\c__~1\source\include\workqueue.hpp **** class WorkQueue {
 109:c:\users\niels\docume~1\elektr~1\jaar3~1\dspl\software\stm32b~1\hal\gemeen~1\third_~1\freert~1.0\c__~1\source\include\workqueue.hpp **** 
 110:c:\users\niels\docume~1\elektr~1\jaar3~1\dspl\software\stm32b~1\hal\gemeen~1\third_~1\freert~1.0\c__~1\source\include\workqueue.hpp ****     /////////////////////////////////////////////////////////////////////////
 111:c:\users\niels\docume~1\elektr~1\jaar3~1\dspl\software\stm32b~1\hal\gemeen~1\third_~1\freert~1.0\c__~1\source\include\workqueue.hpp ****     //
 112:c:\users\niels\docume~1\elektr~1\jaar3~1\dspl\software\stm32b~1\hal\gemeen~1\third_~1\freert~1.0\c__~1\source\include\workqueue.hpp ****     //  Public API
 113:c:\users\niels\docume~1\elektr~1\jaar3~1\dspl\software\stm32b~1\hal\gemeen~1\third_~1\freert~1.0\c__~1\source\include\workqueue.hpp ****     //
 114:c:\users\niels\docume~1\elektr~1\jaar3~1\dspl\software\stm32b~1\hal\gemeen~1\third_~1\freert~1.0\c__~1\source\include\workqueue.hpp ****     /////////////////////////////////////////////////////////////////////////
 115:c:\users\niels\docume~1\elektr~1\jaar3~1\dspl\software\stm32b~1\hal\gemeen~1\third_~1\freert~1.0\c__~1\source\include\workqueue.hpp ****     public:
 116:c:\users\niels\docume~1\elektr~1\jaar3~1\dspl\software\stm32b~1\hal\gemeen~1\third_~1\freert~1.0\c__~1\source\include\workqueue.hpp ****         /**
 117:c:\users\niels\docume~1\elektr~1\jaar3~1\dspl\software\stm32b~1\hal\gemeen~1\third_~1\freert~1.0\c__~1\source\include\workqueue.hpp ****          *  Constructor to create a named WorkQueue.
 118:c:\users\niels\docume~1\elektr~1\jaar3~1\dspl\software\stm32b~1\hal\gemeen~1\third_~1\freert~1.0\c__~1\source\include\workqueue.hpp ****          *
 119:c:\users\niels\docume~1\elektr~1\jaar3~1\dspl\software\stm32b~1\hal\gemeen~1\third_~1\freert~1.0\c__~1\source\include\workqueue.hpp ****          *  @throws ThreadCreateException, QueueCreateException, 
 120:c:\users\niels\docume~1\elektr~1\jaar3~1\dspl\software\stm32b~1\hal\gemeen~1\third_~1\freert~1.0\c__~1\source\include\workqueue.hpp ****          *          SemaphoreCreateException
 121:c:\users\niels\docume~1\elektr~1\jaar3~1\dspl\software\stm32b~1\hal\gemeen~1\third_~1\freert~1.0\c__~1\source\include\workqueue.hpp ****          *  @param Name Name of the thread internal to the WorkQueue. 
 122:c:\users\niels\docume~1\elektr~1\jaar3~1\dspl\software\stm32b~1\hal\gemeen~1\third_~1\freert~1.0\c__~1\source\include\workqueue.hpp ****          *         Only useful for debugging.
 123:c:\users\niels\docume~1\elektr~1\jaar3~1\dspl\software\stm32b~1\hal\gemeen~1\third_~1\freert~1.0\c__~1\source\include\workqueue.hpp ****          *  @param StackDepth Number of "words" allocated for the Thread stack.
 124:c:\users\niels\docume~1\elektr~1\jaar3~1\dspl\software\stm32b~1\hal\gemeen~1\third_~1\freert~1.0\c__~1\source\include\workqueue.hpp ****          *  @param Priority FreeRTOS priority of this Thread.
 125:c:\users\niels\docume~1\elektr~1\jaar3~1\dspl\software\stm32b~1\hal\gemeen~1\third_~1\freert~1.0\c__~1\source\include\workqueue.hpp ****          *  @param MaxWorkItems Maximum number of WorkItems this WorkQueue can hold.
 126:c:\users\niels\docume~1\elektr~1\jaar3~1\dspl\software\stm32b~1\hal\gemeen~1\third_~1\freert~1.0\c__~1\source\include\workqueue.hpp ****          */
 127:c:\users\niels\docume~1\elektr~1\jaar3~1\dspl\software\stm32b~1\hal\gemeen~1\third_~1\freert~1.0\c__~1\source\include\workqueue.hpp ****         WorkQueue(  const char * const Name,
 128:c:\users\niels\docume~1\elektr~1\jaar3~1\dspl\software\stm32b~1\hal\gemeen~1\third_~1\freert~1.0\c__~1\source\include\workqueue.hpp ****                     uint16_t StackDepth = DEFAULT_WORK_QUEUE_STACK_SIZE,
 129:c:\users\niels\docume~1\elektr~1\jaar3~1\dspl\software\stm32b~1\hal\gemeen~1\third_~1\freert~1.0\c__~1\source\include\workqueue.hpp ****                     UBaseType_t Priority = DEFAULT_WORK_QUEUE_PRIORITY,
 130:c:\users\niels\docume~1\elektr~1\jaar3~1\dspl\software\stm32b~1\hal\gemeen~1\third_~1\freert~1.0\c__~1\source\include\workqueue.hpp ****                     UBaseType_t MaxWorkItems = DEFAULT_MAX_WORK_ITEMS);
 131:c:\users\niels\docume~1\elektr~1\jaar3~1\dspl\software\stm32b~1\hal\gemeen~1\third_~1\freert~1.0\c__~1\source\include\workqueue.hpp **** 
 132:c:\users\niels\docume~1\elektr~1\jaar3~1\dspl\software\stm32b~1\hal\gemeen~1\third_~1\freert~1.0\c__~1\source\include\workqueue.hpp ****         /**
 133:c:\users\niels\docume~1\elektr~1\jaar3~1\dspl\software\stm32b~1\hal\gemeen~1\third_~1\freert~1.0\c__~1\source\include\workqueue.hpp ****          *  Constructor to create an unnamed WorkQueue.
 134:c:\users\niels\docume~1\elektr~1\jaar3~1\dspl\software\stm32b~1\hal\gemeen~1\third_~1\freert~1.0\c__~1\source\include\workqueue.hpp ****          *
ARM GAS   			page 25


 135:c:\users\niels\docume~1\elektr~1\jaar3~1\dspl\software\stm32b~1\hal\gemeen~1\third_~1\freert~1.0\c__~1\source\include\workqueue.hpp ****          *  @throws ThreadCreateException, QueueCreateException, 
 136:c:\users\niels\docume~1\elektr~1\jaar3~1\dspl\software\stm32b~1\hal\gemeen~1\third_~1\freert~1.0\c__~1\source\include\workqueue.hpp ****          *          SemaphoreCreateException
 137:c:\users\niels\docume~1\elektr~1\jaar3~1\dspl\software\stm32b~1\hal\gemeen~1\third_~1\freert~1.0\c__~1\source\include\workqueue.hpp ****          *  @param StackDepth Number of "words" allocated for the Thread stack.
 138:c:\users\niels\docume~1\elektr~1\jaar3~1\dspl\software\stm32b~1\hal\gemeen~1\third_~1\freert~1.0\c__~1\source\include\workqueue.hpp ****          *  @param Priority FreeRTOS priority of this Thread.
 139:c:\users\niels\docume~1\elektr~1\jaar3~1\dspl\software\stm32b~1\hal\gemeen~1\third_~1\freert~1.0\c__~1\source\include\workqueue.hpp ****          *  @param MaxWorkItems Maximum number of WorkItems this WorkQueue can hold.
 140:c:\users\niels\docume~1\elektr~1\jaar3~1\dspl\software\stm32b~1\hal\gemeen~1\third_~1\freert~1.0\c__~1\source\include\workqueue.hpp ****          */
 141:c:\users\niels\docume~1\elektr~1\jaar3~1\dspl\software\stm32b~1\hal\gemeen~1\third_~1\freert~1.0\c__~1\source\include\workqueue.hpp ****         WorkQueue(  uint16_t StackDepth = DEFAULT_WORK_QUEUE_STACK_SIZE,
 142:c:\users\niels\docume~1\elektr~1\jaar3~1\dspl\software\stm32b~1\hal\gemeen~1\third_~1\freert~1.0\c__~1\source\include\workqueue.hpp ****                     UBaseType_t Priority = DEFAULT_WORK_QUEUE_PRIORITY,
 143:c:\users\niels\docume~1\elektr~1\jaar3~1\dspl\software\stm32b~1\hal\gemeen~1\third_~1\freert~1.0\c__~1\source\include\workqueue.hpp ****                     UBaseType_t MaxWorkItems = DEFAULT_MAX_WORK_ITEMS);
 144:c:\users\niels\docume~1\elektr~1\jaar3~1\dspl\software\stm32b~1\hal\gemeen~1\third_~1\freert~1.0\c__~1\source\include\workqueue.hpp **** 
 145:c:\users\niels\docume~1\elektr~1\jaar3~1\dspl\software\stm32b~1\hal\gemeen~1\third_~1\freert~1.0\c__~1\source\include\workqueue.hpp ****         /**
 146:c:\users\niels\docume~1\elektr~1\jaar3~1\dspl\software\stm32b~1\hal\gemeen~1\third_~1\freert~1.0\c__~1\source\include\workqueue.hpp ****          *  Our destructor.
 147:c:\users\niels\docume~1\elektr~1\jaar3~1\dspl\software\stm32b~1\hal\gemeen~1\third_~1\freert~1.0\c__~1\source\include\workqueue.hpp ****          *
 148:c:\users\niels\docume~1\elektr~1\jaar3~1\dspl\software\stm32b~1\hal\gemeen~1\third_~1\freert~1.0\c__~1\source\include\workqueue.hpp ****          *  @note Given the multithreaded nature of this class, the dtor 
 149:c:\users\niels\docume~1\elektr~1\jaar3~1\dspl\software\stm32b~1\hal\gemeen~1\third_~1\freert~1.0\c__~1\source\include\workqueue.hpp ****          *  may block until the underlying Thread has had a chance to 
 150:c:\users\niels\docume~1\elektr~1\jaar3~1\dspl\software\stm32b~1\hal\gemeen~1\third_~1\freert~1.0\c__~1\source\include\workqueue.hpp ****          *  clean up.
 151:c:\users\niels\docume~1\elektr~1\jaar3~1\dspl\software\stm32b~1\hal\gemeen~1\third_~1\freert~1.0\c__~1\source\include\workqueue.hpp ****          */
 152:c:\users\niels\docume~1\elektr~1\jaar3~1\dspl\software\stm32b~1\hal\gemeen~1\third_~1\freert~1.0\c__~1\source\include\workqueue.hpp ****         ~WorkQueue();
 153:c:\users\niels\docume~1\elektr~1\jaar3~1\dspl\software\stm32b~1\hal\gemeen~1\third_~1\freert~1.0\c__~1\source\include\workqueue.hpp **** 
 154:c:\users\niels\docume~1\elektr~1\jaar3~1\dspl\software\stm32b~1\hal\gemeen~1\third_~1\freert~1.0\c__~1\source\include\workqueue.hpp ****         /**
 155:c:\users\niels\docume~1\elektr~1\jaar3~1\dspl\software\stm32b~1\hal\gemeen~1\third_~1\freert~1.0\c__~1\source\include\workqueue.hpp ****          *  Send a WorkItem off to be executed.
 156:c:\users\niels\docume~1\elektr~1\jaar3~1\dspl\software\stm32b~1\hal\gemeen~1\third_~1\freert~1.0\c__~1\source\include\workqueue.hpp ****          *
 157:c:\users\niels\docume~1\elektr~1\jaar3~1\dspl\software\stm32b~1\hal\gemeen~1\third_~1\freert~1.0\c__~1\source\include\workqueue.hpp ****          *  @param work Pointer to a WorkItem.
 158:c:\users\niels\docume~1\elektr~1\jaar3~1\dspl\software\stm32b~1\hal\gemeen~1\third_~1\freert~1.0\c__~1\source\include\workqueue.hpp ****          *  @return true if it was queued, false otherwise.
 159:c:\users\niels\docume~1\elektr~1\jaar3~1\dspl\software\stm32b~1\hal\gemeen~1\third_~1\freert~1.0\c__~1\source\include\workqueue.hpp ****          *  @note This function may block if the WorkQueue is presently full.
 160:c:\users\niels\docume~1\elektr~1\jaar3~1\dspl\software\stm32b~1\hal\gemeen~1\third_~1\freert~1.0\c__~1\source\include\workqueue.hpp ****          */ 
 161:c:\users\niels\docume~1\elektr~1\jaar3~1\dspl\software\stm32b~1\hal\gemeen~1\third_~1\freert~1.0\c__~1\source\include\workqueue.hpp ****         bool QueueWork(WorkItem *work);
 162:c:\users\niels\docume~1\elektr~1\jaar3~1\dspl\software\stm32b~1\hal\gemeen~1\third_~1\freert~1.0\c__~1\source\include\workqueue.hpp **** 
 163:c:\users\niels\docume~1\elektr~1\jaar3~1\dspl\software\stm32b~1\hal\gemeen~1\third_~1\freert~1.0\c__~1\source\include\workqueue.hpp ****     /////////////////////////////////////////////////////////////////////////
 164:c:\users\niels\docume~1\elektr~1\jaar3~1\dspl\software\stm32b~1\hal\gemeen~1\third_~1\freert~1.0\c__~1\source\include\workqueue.hpp ****     //
 165:c:\users\niels\docume~1\elektr~1\jaar3~1\dspl\software\stm32b~1\hal\gemeen~1\third_~1\freert~1.0\c__~1\source\include\workqueue.hpp ****     //  Private API
 166:c:\users\niels\docume~1\elektr~1\jaar3~1\dspl\software\stm32b~1\hal\gemeen~1\third_~1\freert~1.0\c__~1\source\include\workqueue.hpp ****     //  The internals of this class.
 167:c:\users\niels\docume~1\elektr~1\jaar3~1\dspl\software\stm32b~1\hal\gemeen~1\third_~1\freert~1.0\c__~1\source\include\workqueue.hpp ****     //
 168:c:\users\niels\docume~1\elektr~1\jaar3~1\dspl\software\stm32b~1\hal\gemeen~1\third_~1\freert~1.0\c__~1\source\include\workqueue.hpp ****     /////////////////////////////////////////////////////////////////////////
 169:c:\users\niels\docume~1\elektr~1\jaar3~1\dspl\software\stm32b~1\hal\gemeen~1\third_~1\freert~1.0\c__~1\source\include\workqueue.hpp ****     private:
 170:c:\users\niels\docume~1\elektr~1\jaar3~1\dspl\software\stm32b~1\hal\gemeen~1\third_~1\freert~1.0\c__~1\source\include\workqueue.hpp **** 
 171:c:\users\niels\docume~1\elektr~1\jaar3~1\dspl\software\stm32b~1\hal\gemeen~1\third_~1\freert~1.0\c__~1\source\include\workqueue.hpp ****         /**
 172:c:\users\niels\docume~1\elektr~1\jaar3~1\dspl\software\stm32b~1\hal\gemeen~1\third_~1\freert~1.0\c__~1\source\include\workqueue.hpp ****          *  An internal derived Thread class, in which we do our real work.
 173:c:\users\niels\docume~1\elektr~1\jaar3~1\dspl\software\stm32b~1\hal\gemeen~1\third_~1\freert~1.0\c__~1\source\include\workqueue.hpp ****          */
 174:c:\users\niels\docume~1\elektr~1\jaar3~1\dspl\software\stm32b~1\hal\gemeen~1\third_~1\freert~1.0\c__~1\source\include\workqueue.hpp ****         class CWorkerThread : public Thread {
 808              	 .loc 3 174 15
 809              	 .cfi_startproc
 810              	 
 811              	 
 812 0000 80B5     	 push {r7,lr}
 813              	 .cfi_def_cfa_offset 8
 814              	 .cfi_offset 7,-8
 815              	 .cfi_offset 14,-4
 816 0002 82B0     	 sub sp,sp,#8
 817              	 .cfi_def_cfa_offset 16
 818 0004 00AF     	 add r7,sp,#0
 819              	 .cfi_def_cfa_register 7
 820 0006 7860     	 str r0,[r7,#4]
 821              	.LBB12:
 822              	 .loc 3 174 15
 823 0008 054A     	 ldr r2,.L40
 824 000a 7B68     	 ldr r3,[r7,#4]
ARM GAS   			page 26


 825 000c 1A60     	 str r2,[r3]
 826 000e 7B68     	 ldr r3,[r7,#4]
 827 0010 1846     	 mov r0,r3
 828 0012 FFF7FEFF 	 bl _ZN12cpp_freertos6ThreadD2Ev
 829              	.LBE12:
 830 0016 7B68     	 ldr r3,[r7,#4]
 831 0018 1846     	 mov r0,r3
 832 001a 0837     	 adds r7,r7,#8
 833              	 .cfi_def_cfa_offset 8
 834 001c BD46     	 mov sp,r7
 835              	 .cfi_def_cfa_register 13
 836              	 
 837 001e 80BD     	 pop {r7,pc}
 838              	.L41:
 839              	 .align 2
 840              	.L40:
 841 0020 08000000 	 .word _ZTVN12cpp_freertos9WorkQueue13CWorkerThreadE+8
 842              	 .cfi_endproc
 843              	.LFE1557:
 844              	 .size _ZN12cpp_freertos9WorkQueue13CWorkerThreadD2Ev,.-_ZN12cpp_freertos9WorkQueue13CWorkerThreadD2Ev
 845              	 .weak _ZN12cpp_freertos9WorkQueue13CWorkerThreadD1Ev
 846              	 .thumb_set _ZN12cpp_freertos9WorkQueue13CWorkerThreadD1Ev,_ZN12cpp_freertos9WorkQueue13CWorkerThreadD2Ev
 847              	 .section .text._ZN12cpp_freertos9WorkQueue13CWorkerThreadD0Ev,"axG",%progbits,_ZN12cpp_freertos9WorkQueue13CWorkerThreadD5Ev,comdat
 848              	 .align 1
 849              	 .weak _ZN12cpp_freertos9WorkQueue13CWorkerThreadD0Ev
 850              	 .syntax unified
 851              	 .thumb
 852              	 .thumb_func
 853              	 .type _ZN12cpp_freertos9WorkQueue13CWorkerThreadD0Ev,%function
 854              	_ZN12cpp_freertos9WorkQueue13CWorkerThreadD0Ev:
 855              	.LFB1559:
 856              	 .loc 3 174 15
 857              	 .cfi_startproc
 858              	 
 859              	 
 860 0000 80B5     	 push {r7,lr}
 861              	 .cfi_def_cfa_offset 8
 862              	 .cfi_offset 7,-8
 863              	 .cfi_offset 14,-4
 864 0002 82B0     	 sub sp,sp,#8
 865              	 .cfi_def_cfa_offset 16
 866 0004 00AF     	 add r7,sp,#0
 867              	 .cfi_def_cfa_register 7
 868 0006 7860     	 str r0,[r7,#4]
 869              	 .loc 3 174 15
 870 0008 7868     	 ldr r0,[r7,#4]
 871 000a FFF7FEFF 	 bl _ZN12cpp_freertos9WorkQueue13CWorkerThreadD1Ev
 872 000e 3021     	 movs r1,#48
 873 0010 7868     	 ldr r0,[r7,#4]
 874 0012 FFF7FEFF 	 bl _ZdlPvj
 875 0016 7B68     	 ldr r3,[r7,#4]
 876 0018 1846     	 mov r0,r3
 877 001a 0837     	 adds r7,r7,#8
 878              	 .cfi_def_cfa_offset 8
 879 001c BD46     	 mov sp,r7
 880              	 .cfi_def_cfa_register 13
 881              	 
ARM GAS   			page 27


 882 001e 80BD     	 pop {r7,pc}
 883              	 .cfi_endproc
 884              	.LFE1559:
 885              	 .size _ZN12cpp_freertos9WorkQueue13CWorkerThreadD0Ev,.-_ZN12cpp_freertos9WorkQueue13CWorkerThreadD0Ev
 886              	 .global _ZTVN12cpp_freertos8WorkItemE
 887              	 .section .rodata._ZTVN12cpp_freertos8WorkItemE,"a"
 888              	 .align 2
 889              	 .type _ZTVN12cpp_freertos8WorkItemE,%object
 890              	 .size _ZTVN12cpp_freertos8WorkItemE,20
 891              	_ZTVN12cpp_freertos8WorkItemE:
 892 0000 00000000 	 .word 0
 893 0004 00000000 	 .word 0
 894 0008 00000000 	 .word 0
 895 000c 00000000 	 .word 0
 896 0010 00000000 	 .word __cxa_pure_virtual
 897              	 .text
 898              	.Letext0:
 899              	 .file 4 "c:\\progra~2\\gnuarm~1\\102021~1.10\\arm-none-eabi\\include\\c++\\10.3.1\\bits\\basic_string.h"
 900              	 .file 5 "c:\\progra~2\\gnuarm~1\\102021~1.10\\arm-none-eabi\\include\\c++\\10.3.1\\bits\\basic_string.tcc"
 901              	 .file 6 "c:\\progra~2\\gnuarm~1\\102021~1.10\\arm-none-eabi\\include\\c++\\10.3.1\\bits\\exception_ptr.h"
 902              	 .file 7 "c:\\progra~2\\gnuarm~1\\102021~1.10\\arm-none-eabi\\include\\c++\\10.3.1\\arm-none-eabi\\thumb\\v7e-m+fp\\hard\\bits\\c++config.h"
 903              	 .file 8 "c:\\progra~2\\gnuarm~1\\102021~1.10\\arm-none-eabi\\include\\c++\\10.3.1\\bits\\cpp_type_traits.h"
 904              	 .file 9 "c:\\progra~2\\gnuarm~1\\102021~1.10\\arm-none-eabi\\include\\c++\\10.3.1\\bits\\stl_pair.h"
 905              	 .file 10 "c:\\progra~2\\gnuarm~1\\102021~1.10\\arm-none-eabi\\include\\c++\\10.3.1\\bits\\stl_iterator_base_types.h"
 906              	 .file 11 "c:\\progra~2\\gnuarm~1\\102021~1.10\\arm-none-eabi\\include\\c++\\10.3.1\\type_traits"
 907              	 .file 12 "c:\\progra~2\\gnuarm~1\\102021~1.10\\arm-none-eabi\\include\\c++\\10.3.1\\debug\\debug.h"
 908              	 .file 13 "c:\\progra~2\\gnuarm~1\\102021~1.10\\arm-none-eabi\\include\\c++\\10.3.1\\cwchar"
 909              	 .file 14 "c:\\progra~2\\gnuarm~1\\102021~1.10\\arm-none-eabi\\include\\c++\\10.3.1\\bits\\char_traits.h"
 910              	 .file 15 "c:\\progra~2\\gnuarm~1\\102021~1.10\\arm-none-eabi\\include\\c++\\10.3.1\\cstdint"
 911              	 .file 16 "c:\\progra~2\\gnuarm~1\\102021~1.10\\arm-none-eabi\\include\\c++\\10.3.1\\bits\\allocator.h"
 912              	 .file 17 "c:\\progra~2\\gnuarm~1\\102021~1.10\\arm-none-eabi\\include\\c++\\10.3.1\\clocale"
 913              	 .file 18 "c:\\progra~2\\gnuarm~1\\102021~1.10\\arm-none-eabi\\include\\c++\\10.3.1\\cstdlib"
 914              	 .file 19 "c:\\progra~2\\gnuarm~1\\102021~1.10\\arm-none-eabi\\include\\c++\\10.3.1\\cstdio"
 915              	 .file 20 "c:\\progra~2\\gnuarm~1\\102021~1.10\\arm-none-eabi\\include\\c++\\10.3.1\\bits\\alloc_traits.h"
 916              	 .file 21 "c:\\progra~2\\gnuarm~1\\102021~1.10\\arm-none-eabi\\include\\c++\\10.3.1\\initializer_list"
 917              	 .file 22 "c:\\progra~2\\gnuarm~1\\102021~1.10\\arm-none-eabi\\include\\c++\\10.3.1\\bits\\stl_iterator_base_funcs.h"
 918              	 .file 23 "c:\\progra~2\\gnuarm~1\\102021~1.10\\arm-none-eabi\\include\\c++\\10.3.1\\bits\\predefined_ops.h"
 919              	 .file 24 "c:\\progra~2\\gnuarm~1\\102021~1.10\\arm-none-eabi\\include\\c++\\10.3.1\\ext\\new_allocator.h"
 920              	 .file 25 "c:\\progra~2\\gnuarm~1\\102021~1.10\\arm-none-eabi\\include\\c++\\10.3.1\\ext\\alloc_traits.h"
 921              	 .file 26 "c:\\progra~2\\gnuarm~1\\102021~1.10\\arm-none-eabi\\include\\c++\\10.3.1\\bits\\stl_iterator.h"
 922              	 .file 27 "c:\\progra~2\\gnuarm~1\\102021~1.10\\arm-none-eabi\\include\\c++\\10.3.1\\ext\\type_traits.h"
 923              	 .file 28 "c:\\progra~2\\gnuarm~1\\102021~1.10\\lib\\gcc\\arm-none-eabi\\10.3.1\\include\\stddef.h"
 924              	 .file 29 "c:\\progra~2\\gnuarm~1\\102021~1.10\\arm-none-eabi\\include\\machine\\_default_types.h"
 925              	 .file 30 "c:\\progra~2\\gnuarm~1\\102021~1.10\\arm-none-eabi\\include\\sys\\_types.h"
 926              	 .file 31 "c:\\progra~2\\gnuarm~1\\102021~1.10\\arm-none-eabi\\include\\sys\\reent.h"
 927              	 .file 32 "c:\\progra~2\\gnuarm~1\\102021~1.10\\arm-none-eabi\\include\\sys\\lock.h"
 928              	 .file 33 "c:\\progra~2\\gnuarm~1\\102021~1.10\\lib\\gcc\\arm-none-eabi\\10.3.1\\include\\stdarg.h"
 929              	 .file 34 "c:\\progra~2\\gnuarm~1\\102021~1.10\\arm-none-eabi\\include\\wchar.h"
 930              	 .file 35 "c:\\progra~2\\gnuarm~1\\102021~1.10\\arm-none-eabi\\include\\sys\\_stdint.h"
 931              	 .file 36 "c:\\progra~2\\gnuarm~1\\102021~1.10\\arm-none-eabi\\include\\stdint.h"
 932              	 .file 37 "c:\\progra~2\\gnuarm~1\\102021~1.10\\arm-none-eabi\\include\\locale.h"
 933              	 .file 38 "c:\\progra~2\\gnuarm~1\\102021~1.10\\arm-none-eabi\\include\\stdlib.h"
 934              	 .file 39 "c:\\progra~2\\gnuarm~1\\102021~1.10\\arm-none-eabi\\include\\stdio.h"
 935              	 .file 40 "c:\\users\\niels\\docume~1\\elektr~1\\jaar3~1\\dspl\\software\\stm32b~1\\hal\\gemeen~1\\third_~1\\freertos\\source\\portable\\gcc\\arm_cm4f\\portmacro.h"
 936              	 .file 41 "c:\\users\\niels\\docume~1\\elektr~1\\jaar3~1\\dspl\\software\\stm32b~1\\hal\\gemeen~1\\third_~1\\freert~1.0\\c__~1\\source\\include\\mutex.hpp"
 937              	 .file 42 "c:\\users\\niels\\docume~1\\elektr~1\\jaar3~1\\dspl\\software\\stm32b~1\\hal\\gemeen~1\\third_~1\\freert~1.0\\c__~1\\source\\include\\semaphore.hpp"
 938              	 .file 43 "<built-in>"
ARM GAS   			page 28

