ARM GAS   			page 1


   1              	 .cpu cortex-m4
   2              	 .arch armv7e-m
   3              	 .fpu fpv4-sp-d16
   4              	 .eabi_attribute 27,1
   5              	 .eabi_attribute 28,1
   6              	 .eabi_attribute 20,1
   7              	 .eabi_attribute 21,1
   8              	 .eabi_attribute 23,3
   9              	 .eabi_attribute 24,1
  10              	 .eabi_attribute 25,1
  11              	 .eabi_attribute 26,1
  12              	 .eabi_attribute 30,6
  13              	 .eabi_attribute 34,0
  14              	 .eabi_attribute 18,4
  15              	 .file "stdTaak.cpp"
  16              	 .text
  17              	.Ltext0:
  18              	 .cfi_sections .debug_frame
  19              	 .section .rodata._ZL2PI,"a"
  20              	 .align 2
  21              	 .type _ZL2PI,%object
  22              	 .size _ZL2PI,4
  23              	_ZL2PI:
  24 0000 DB0F4940 	 .word 1078530011
  25              	 .section .rodata._ZL6TweePI,"a"
  26              	 .align 2
  27              	 .type _ZL6TweePI,%object
  28              	 .size _ZL6TweePI,4
  29              	_ZL6TweePI:
  30 0000 DB0FC940 	 .word 1086918619
  31              	 .section .rodata._ZL5TwoPI,"a"
  32              	 .align 2
  33              	 .type _ZL5TwoPI,%object
  34              	 .size _ZL5TwoPI,4
  35              	_ZL5TwoPI:
  36 0000 DB0FC940 	 .word 1086918619
  37              	 .section .rodata._ZStL19piecewise_construct,"a"
  38              	 .align 2
  39              	 .type _ZStL19piecewise_construct,%object
  40              	 .size _ZStL19piecewise_construct,1
  41              	_ZStL19piecewise_construct:
  42 0000 00       	 .space 1
  43              	 .section .text._ZL20__gthread_key_deletei,"ax",%progbits
  44              	 .align 1
  45              	 .syntax unified
  46              	 .thumb
  47              	 .thumb_func
  48              	 .type _ZL20__gthread_key_deletei,%function
  49              	_ZL20__gthread_key_deletei:
  50              	.LFB893:
  51              	 .file 1 "c:\\progra~2\\gnuarm~1\\102021~1.10\\arm-none-eabi\\include\\c++\\10.3.1\\arm-none-eabi\\thumb\\v7e-m+fp\\hard\\bits\\gthr-default.h"
   1:c:\progra~2\gnuarm~1\102021~1.10\arm-none-eabi\include\c++\10.3.1\arm-none-eabi\thumb\v7e-m+fp\hard\bits\gthr-default.h **** /* Threads compatibility routines for libgcc2 and libobjc.  */
   2:c:\progra~2\gnuarm~1\102021~1.10\arm-none-eabi\include\c++\10.3.1\arm-none-eabi\thumb\v7e-m+fp\hard\bits\gthr-default.h **** /* Compile this one with gcc.  */
   3:c:\progra~2\gnuarm~1\102021~1.10\arm-none-eabi\include\c++\10.3.1\arm-none-eabi\thumb\v7e-m+fp\hard\bits\gthr-default.h **** /* Copyright (C) 1997-2020 Free Software Foundation, Inc.
   4:c:\progra~2\gnuarm~1\102021~1.10\arm-none-eabi\include\c++\10.3.1\arm-none-eabi\thumb\v7e-m+fp\hard\bits\gthr-default.h **** 
   5:c:\progra~2\gnuarm~1\102021~1.10\arm-none-eabi\include\c++\10.3.1\arm-none-eabi\thumb\v7e-m+fp\hard\bits\gthr-default.h **** This file is part of GCC.
   6:c:\progra~2\gnuarm~1\102021~1.10\arm-none-eabi\include\c++\10.3.1\arm-none-eabi\thumb\v7e-m+fp\hard\bits\gthr-default.h **** 
ARM GAS   			page 2


   7:c:\progra~2\gnuarm~1\102021~1.10\arm-none-eabi\include\c++\10.3.1\arm-none-eabi\thumb\v7e-m+fp\hard\bits\gthr-default.h **** GCC is free software; you can redistribute it and/or modify it under
   8:c:\progra~2\gnuarm~1\102021~1.10\arm-none-eabi\include\c++\10.3.1\arm-none-eabi\thumb\v7e-m+fp\hard\bits\gthr-default.h **** the terms of the GNU General Public License as published by the Free
   9:c:\progra~2\gnuarm~1\102021~1.10\arm-none-eabi\include\c++\10.3.1\arm-none-eabi\thumb\v7e-m+fp\hard\bits\gthr-default.h **** Software Foundation; either version 3, or (at your option) any later
  10:c:\progra~2\gnuarm~1\102021~1.10\arm-none-eabi\include\c++\10.3.1\arm-none-eabi\thumb\v7e-m+fp\hard\bits\gthr-default.h **** version.
  11:c:\progra~2\gnuarm~1\102021~1.10\arm-none-eabi\include\c++\10.3.1\arm-none-eabi\thumb\v7e-m+fp\hard\bits\gthr-default.h **** 
  12:c:\progra~2\gnuarm~1\102021~1.10\arm-none-eabi\include\c++\10.3.1\arm-none-eabi\thumb\v7e-m+fp\hard\bits\gthr-default.h **** GCC is distributed in the hope that it will be useful, but WITHOUT ANY
  13:c:\progra~2\gnuarm~1\102021~1.10\arm-none-eabi\include\c++\10.3.1\arm-none-eabi\thumb\v7e-m+fp\hard\bits\gthr-default.h **** WARRANTY; without even the implied warranty of MERCHANTABILITY or
  14:c:\progra~2\gnuarm~1\102021~1.10\arm-none-eabi\include\c++\10.3.1\arm-none-eabi\thumb\v7e-m+fp\hard\bits\gthr-default.h **** FITNESS FOR A PARTICULAR PURPOSE.  See the GNU General Public License
  15:c:\progra~2\gnuarm~1\102021~1.10\arm-none-eabi\include\c++\10.3.1\arm-none-eabi\thumb\v7e-m+fp\hard\bits\gthr-default.h **** for more details.
  16:c:\progra~2\gnuarm~1\102021~1.10\arm-none-eabi\include\c++\10.3.1\arm-none-eabi\thumb\v7e-m+fp\hard\bits\gthr-default.h **** 
  17:c:\progra~2\gnuarm~1\102021~1.10\arm-none-eabi\include\c++\10.3.1\arm-none-eabi\thumb\v7e-m+fp\hard\bits\gthr-default.h **** Under Section 7 of GPL version 3, you are granted additional
  18:c:\progra~2\gnuarm~1\102021~1.10\arm-none-eabi\include\c++\10.3.1\arm-none-eabi\thumb\v7e-m+fp\hard\bits\gthr-default.h **** permissions described in the GCC Runtime Library Exception, version
  19:c:\progra~2\gnuarm~1\102021~1.10\arm-none-eabi\include\c++\10.3.1\arm-none-eabi\thumb\v7e-m+fp\hard\bits\gthr-default.h **** 3.1, as published by the Free Software Foundation.
  20:c:\progra~2\gnuarm~1\102021~1.10\arm-none-eabi\include\c++\10.3.1\arm-none-eabi\thumb\v7e-m+fp\hard\bits\gthr-default.h **** 
  21:c:\progra~2\gnuarm~1\102021~1.10\arm-none-eabi\include\c++\10.3.1\arm-none-eabi\thumb\v7e-m+fp\hard\bits\gthr-default.h **** You should have received a copy of the GNU General Public License and
  22:c:\progra~2\gnuarm~1\102021~1.10\arm-none-eabi\include\c++\10.3.1\arm-none-eabi\thumb\v7e-m+fp\hard\bits\gthr-default.h **** a copy of the GCC Runtime Library Exception along with this program;
  23:c:\progra~2\gnuarm~1\102021~1.10\arm-none-eabi\include\c++\10.3.1\arm-none-eabi\thumb\v7e-m+fp\hard\bits\gthr-default.h **** see the files COPYING3 and COPYING.RUNTIME respectively.  If not, see
  24:c:\progra~2\gnuarm~1\102021~1.10\arm-none-eabi\include\c++\10.3.1\arm-none-eabi\thumb\v7e-m+fp\hard\bits\gthr-default.h **** <http://www.gnu.org/licenses/>.  */
  25:c:\progra~2\gnuarm~1\102021~1.10\arm-none-eabi\include\c++\10.3.1\arm-none-eabi\thumb\v7e-m+fp\hard\bits\gthr-default.h **** 
  26:c:\progra~2\gnuarm~1\102021~1.10\arm-none-eabi\include\c++\10.3.1\arm-none-eabi\thumb\v7e-m+fp\hard\bits\gthr-default.h **** #ifndef _GLIBCXX_GCC_GTHR_SINGLE_H
  27:c:\progra~2\gnuarm~1\102021~1.10\arm-none-eabi\include\c++\10.3.1\arm-none-eabi\thumb\v7e-m+fp\hard\bits\gthr-default.h **** #define _GLIBCXX_GCC_GTHR_SINGLE_H
  28:c:\progra~2\gnuarm~1\102021~1.10\arm-none-eabi\include\c++\10.3.1\arm-none-eabi\thumb\v7e-m+fp\hard\bits\gthr-default.h **** 
  29:c:\progra~2\gnuarm~1\102021~1.10\arm-none-eabi\include\c++\10.3.1\arm-none-eabi\thumb\v7e-m+fp\hard\bits\gthr-default.h **** /* Just provide compatibility for mutex handling.  */
  30:c:\progra~2\gnuarm~1\102021~1.10\arm-none-eabi\include\c++\10.3.1\arm-none-eabi\thumb\v7e-m+fp\hard\bits\gthr-default.h **** 
  31:c:\progra~2\gnuarm~1\102021~1.10\arm-none-eabi\include\c++\10.3.1\arm-none-eabi\thumb\v7e-m+fp\hard\bits\gthr-default.h **** typedef int __gthread_key_t;
  32:c:\progra~2\gnuarm~1\102021~1.10\arm-none-eabi\include\c++\10.3.1\arm-none-eabi\thumb\v7e-m+fp\hard\bits\gthr-default.h **** typedef int __gthread_once_t;
  33:c:\progra~2\gnuarm~1\102021~1.10\arm-none-eabi\include\c++\10.3.1\arm-none-eabi\thumb\v7e-m+fp\hard\bits\gthr-default.h **** typedef int __gthread_mutex_t;
  34:c:\progra~2\gnuarm~1\102021~1.10\arm-none-eabi\include\c++\10.3.1\arm-none-eabi\thumb\v7e-m+fp\hard\bits\gthr-default.h **** typedef int __gthread_recursive_mutex_t;
  35:c:\progra~2\gnuarm~1\102021~1.10\arm-none-eabi\include\c++\10.3.1\arm-none-eabi\thumb\v7e-m+fp\hard\bits\gthr-default.h **** 
  36:c:\progra~2\gnuarm~1\102021~1.10\arm-none-eabi\include\c++\10.3.1\arm-none-eabi\thumb\v7e-m+fp\hard\bits\gthr-default.h **** #define __GTHREAD_ONCE_INIT 0
  37:c:\progra~2\gnuarm~1\102021~1.10\arm-none-eabi\include\c++\10.3.1\arm-none-eabi\thumb\v7e-m+fp\hard\bits\gthr-default.h **** #define __GTHREAD_MUTEX_INIT 0
  38:c:\progra~2\gnuarm~1\102021~1.10\arm-none-eabi\include\c++\10.3.1\arm-none-eabi\thumb\v7e-m+fp\hard\bits\gthr-default.h **** #define __GTHREAD_MUTEX_INIT_FUNCTION(mx) do {} while (0)
  39:c:\progra~2\gnuarm~1\102021~1.10\arm-none-eabi\include\c++\10.3.1\arm-none-eabi\thumb\v7e-m+fp\hard\bits\gthr-default.h **** #define __GTHREAD_RECURSIVE_MUTEX_INIT 0
  40:c:\progra~2\gnuarm~1\102021~1.10\arm-none-eabi\include\c++\10.3.1\arm-none-eabi\thumb\v7e-m+fp\hard\bits\gthr-default.h **** 
  41:c:\progra~2\gnuarm~1\102021~1.10\arm-none-eabi\include\c++\10.3.1\arm-none-eabi\thumb\v7e-m+fp\hard\bits\gthr-default.h **** #define _GLIBCXX_UNUSED __attribute__((__unused__))
  42:c:\progra~2\gnuarm~1\102021~1.10\arm-none-eabi\include\c++\10.3.1\arm-none-eabi\thumb\v7e-m+fp\hard\bits\gthr-default.h **** 
  43:c:\progra~2\gnuarm~1\102021~1.10\arm-none-eabi\include\c++\10.3.1\arm-none-eabi\thumb\v7e-m+fp\hard\bits\gthr-default.h **** #ifdef _LIBOBJC
  44:c:\progra~2\gnuarm~1\102021~1.10\arm-none-eabi\include\c++\10.3.1\arm-none-eabi\thumb\v7e-m+fp\hard\bits\gthr-default.h **** 
  45:c:\progra~2\gnuarm~1\102021~1.10\arm-none-eabi\include\c++\10.3.1\arm-none-eabi\thumb\v7e-m+fp\hard\bits\gthr-default.h **** /* Thread local storage for a single thread */
  46:c:\progra~2\gnuarm~1\102021~1.10\arm-none-eabi\include\c++\10.3.1\arm-none-eabi\thumb\v7e-m+fp\hard\bits\gthr-default.h **** static void *thread_local_storage = NULL;
  47:c:\progra~2\gnuarm~1\102021~1.10\arm-none-eabi\include\c++\10.3.1\arm-none-eabi\thumb\v7e-m+fp\hard\bits\gthr-default.h **** 
  48:c:\progra~2\gnuarm~1\102021~1.10\arm-none-eabi\include\c++\10.3.1\arm-none-eabi\thumb\v7e-m+fp\hard\bits\gthr-default.h **** /* Backend initialization functions */
  49:c:\progra~2\gnuarm~1\102021~1.10\arm-none-eabi\include\c++\10.3.1\arm-none-eabi\thumb\v7e-m+fp\hard\bits\gthr-default.h **** 
  50:c:\progra~2\gnuarm~1\102021~1.10\arm-none-eabi\include\c++\10.3.1\arm-none-eabi\thumb\v7e-m+fp\hard\bits\gthr-default.h **** /* Initialize the threads subsystem.  */
  51:c:\progra~2\gnuarm~1\102021~1.10\arm-none-eabi\include\c++\10.3.1\arm-none-eabi\thumb\v7e-m+fp\hard\bits\gthr-default.h **** static inline int
  52:c:\progra~2\gnuarm~1\102021~1.10\arm-none-eabi\include\c++\10.3.1\arm-none-eabi\thumb\v7e-m+fp\hard\bits\gthr-default.h **** __gthread_objc_init_thread_system (void)
  53:c:\progra~2\gnuarm~1\102021~1.10\arm-none-eabi\include\c++\10.3.1\arm-none-eabi\thumb\v7e-m+fp\hard\bits\gthr-default.h **** {
  54:c:\progra~2\gnuarm~1\102021~1.10\arm-none-eabi\include\c++\10.3.1\arm-none-eabi\thumb\v7e-m+fp\hard\bits\gthr-default.h ****   /* No thread support available */
  55:c:\progra~2\gnuarm~1\102021~1.10\arm-none-eabi\include\c++\10.3.1\arm-none-eabi\thumb\v7e-m+fp\hard\bits\gthr-default.h ****   return -1;
  56:c:\progra~2\gnuarm~1\102021~1.10\arm-none-eabi\include\c++\10.3.1\arm-none-eabi\thumb\v7e-m+fp\hard\bits\gthr-default.h **** }
  57:c:\progra~2\gnuarm~1\102021~1.10\arm-none-eabi\include\c++\10.3.1\arm-none-eabi\thumb\v7e-m+fp\hard\bits\gthr-default.h **** 
  58:c:\progra~2\gnuarm~1\102021~1.10\arm-none-eabi\include\c++\10.3.1\arm-none-eabi\thumb\v7e-m+fp\hard\bits\gthr-default.h **** /* Close the threads subsystem.  */
  59:c:\progra~2\gnuarm~1\102021~1.10\arm-none-eabi\include\c++\10.3.1\arm-none-eabi\thumb\v7e-m+fp\hard\bits\gthr-default.h **** static inline int
  60:c:\progra~2\gnuarm~1\102021~1.10\arm-none-eabi\include\c++\10.3.1\arm-none-eabi\thumb\v7e-m+fp\hard\bits\gthr-default.h **** __gthread_objc_close_thread_system (void)
  61:c:\progra~2\gnuarm~1\102021~1.10\arm-none-eabi\include\c++\10.3.1\arm-none-eabi\thumb\v7e-m+fp\hard\bits\gthr-default.h **** {
  62:c:\progra~2\gnuarm~1\102021~1.10\arm-none-eabi\include\c++\10.3.1\arm-none-eabi\thumb\v7e-m+fp\hard\bits\gthr-default.h ****   /* No thread support available */
  63:c:\progra~2\gnuarm~1\102021~1.10\arm-none-eabi\include\c++\10.3.1\arm-none-eabi\thumb\v7e-m+fp\hard\bits\gthr-default.h ****   return -1;
ARM GAS   			page 3


  64:c:\progra~2\gnuarm~1\102021~1.10\arm-none-eabi\include\c++\10.3.1\arm-none-eabi\thumb\v7e-m+fp\hard\bits\gthr-default.h **** }
  65:c:\progra~2\gnuarm~1\102021~1.10\arm-none-eabi\include\c++\10.3.1\arm-none-eabi\thumb\v7e-m+fp\hard\bits\gthr-default.h **** 
  66:c:\progra~2\gnuarm~1\102021~1.10\arm-none-eabi\include\c++\10.3.1\arm-none-eabi\thumb\v7e-m+fp\hard\bits\gthr-default.h **** /* Backend thread functions */
  67:c:\progra~2\gnuarm~1\102021~1.10\arm-none-eabi\include\c++\10.3.1\arm-none-eabi\thumb\v7e-m+fp\hard\bits\gthr-default.h **** 
  68:c:\progra~2\gnuarm~1\102021~1.10\arm-none-eabi\include\c++\10.3.1\arm-none-eabi\thumb\v7e-m+fp\hard\bits\gthr-default.h **** /* Create a new thread of execution.  */
  69:c:\progra~2\gnuarm~1\102021~1.10\arm-none-eabi\include\c++\10.3.1\arm-none-eabi\thumb\v7e-m+fp\hard\bits\gthr-default.h **** static inline objc_thread_t
  70:c:\progra~2\gnuarm~1\102021~1.10\arm-none-eabi\include\c++\10.3.1\arm-none-eabi\thumb\v7e-m+fp\hard\bits\gthr-default.h **** __gthread_objc_thread_detach (void (* func)(void *), void * arg _GLIBCXX_UNUSED)
  71:c:\progra~2\gnuarm~1\102021~1.10\arm-none-eabi\include\c++\10.3.1\arm-none-eabi\thumb\v7e-m+fp\hard\bits\gthr-default.h **** {
  72:c:\progra~2\gnuarm~1\102021~1.10\arm-none-eabi\include\c++\10.3.1\arm-none-eabi\thumb\v7e-m+fp\hard\bits\gthr-default.h ****   /* No thread support available */
  73:c:\progra~2\gnuarm~1\102021~1.10\arm-none-eabi\include\c++\10.3.1\arm-none-eabi\thumb\v7e-m+fp\hard\bits\gthr-default.h ****   return NULL;
  74:c:\progra~2\gnuarm~1\102021~1.10\arm-none-eabi\include\c++\10.3.1\arm-none-eabi\thumb\v7e-m+fp\hard\bits\gthr-default.h **** }
  75:c:\progra~2\gnuarm~1\102021~1.10\arm-none-eabi\include\c++\10.3.1\arm-none-eabi\thumb\v7e-m+fp\hard\bits\gthr-default.h **** 
  76:c:\progra~2\gnuarm~1\102021~1.10\arm-none-eabi\include\c++\10.3.1\arm-none-eabi\thumb\v7e-m+fp\hard\bits\gthr-default.h **** /* Set the current thread's priority.  */
  77:c:\progra~2\gnuarm~1\102021~1.10\arm-none-eabi\include\c++\10.3.1\arm-none-eabi\thumb\v7e-m+fp\hard\bits\gthr-default.h **** static inline int
  78:c:\progra~2\gnuarm~1\102021~1.10\arm-none-eabi\include\c++\10.3.1\arm-none-eabi\thumb\v7e-m+fp\hard\bits\gthr-default.h **** __gthread_objc_thread_set_priority (int priority _GLIBCXX_UNUSED)
  79:c:\progra~2\gnuarm~1\102021~1.10\arm-none-eabi\include\c++\10.3.1\arm-none-eabi\thumb\v7e-m+fp\hard\bits\gthr-default.h **** {
  80:c:\progra~2\gnuarm~1\102021~1.10\arm-none-eabi\include\c++\10.3.1\arm-none-eabi\thumb\v7e-m+fp\hard\bits\gthr-default.h ****   /* No thread support available */
  81:c:\progra~2\gnuarm~1\102021~1.10\arm-none-eabi\include\c++\10.3.1\arm-none-eabi\thumb\v7e-m+fp\hard\bits\gthr-default.h ****   return -1;
  82:c:\progra~2\gnuarm~1\102021~1.10\arm-none-eabi\include\c++\10.3.1\arm-none-eabi\thumb\v7e-m+fp\hard\bits\gthr-default.h **** }
  83:c:\progra~2\gnuarm~1\102021~1.10\arm-none-eabi\include\c++\10.3.1\arm-none-eabi\thumb\v7e-m+fp\hard\bits\gthr-default.h **** 
  84:c:\progra~2\gnuarm~1\102021~1.10\arm-none-eabi\include\c++\10.3.1\arm-none-eabi\thumb\v7e-m+fp\hard\bits\gthr-default.h **** /* Return the current thread's priority.  */
  85:c:\progra~2\gnuarm~1\102021~1.10\arm-none-eabi\include\c++\10.3.1\arm-none-eabi\thumb\v7e-m+fp\hard\bits\gthr-default.h **** static inline int
  86:c:\progra~2\gnuarm~1\102021~1.10\arm-none-eabi\include\c++\10.3.1\arm-none-eabi\thumb\v7e-m+fp\hard\bits\gthr-default.h **** __gthread_objc_thread_get_priority (void)
  87:c:\progra~2\gnuarm~1\102021~1.10\arm-none-eabi\include\c++\10.3.1\arm-none-eabi\thumb\v7e-m+fp\hard\bits\gthr-default.h **** {
  88:c:\progra~2\gnuarm~1\102021~1.10\arm-none-eabi\include\c++\10.3.1\arm-none-eabi\thumb\v7e-m+fp\hard\bits\gthr-default.h ****   return OBJC_THREAD_INTERACTIVE_PRIORITY;
  89:c:\progra~2\gnuarm~1\102021~1.10\arm-none-eabi\include\c++\10.3.1\arm-none-eabi\thumb\v7e-m+fp\hard\bits\gthr-default.h **** }
  90:c:\progra~2\gnuarm~1\102021~1.10\arm-none-eabi\include\c++\10.3.1\arm-none-eabi\thumb\v7e-m+fp\hard\bits\gthr-default.h **** 
  91:c:\progra~2\gnuarm~1\102021~1.10\arm-none-eabi\include\c++\10.3.1\arm-none-eabi\thumb\v7e-m+fp\hard\bits\gthr-default.h **** /* Yield our process time to another thread.  */
  92:c:\progra~2\gnuarm~1\102021~1.10\arm-none-eabi\include\c++\10.3.1\arm-none-eabi\thumb\v7e-m+fp\hard\bits\gthr-default.h **** static inline void
  93:c:\progra~2\gnuarm~1\102021~1.10\arm-none-eabi\include\c++\10.3.1\arm-none-eabi\thumb\v7e-m+fp\hard\bits\gthr-default.h **** __gthread_objc_thread_yield (void)
  94:c:\progra~2\gnuarm~1\102021~1.10\arm-none-eabi\include\c++\10.3.1\arm-none-eabi\thumb\v7e-m+fp\hard\bits\gthr-default.h **** {
  95:c:\progra~2\gnuarm~1\102021~1.10\arm-none-eabi\include\c++\10.3.1\arm-none-eabi\thumb\v7e-m+fp\hard\bits\gthr-default.h ****   return;
  96:c:\progra~2\gnuarm~1\102021~1.10\arm-none-eabi\include\c++\10.3.1\arm-none-eabi\thumb\v7e-m+fp\hard\bits\gthr-default.h **** }
  97:c:\progra~2\gnuarm~1\102021~1.10\arm-none-eabi\include\c++\10.3.1\arm-none-eabi\thumb\v7e-m+fp\hard\bits\gthr-default.h **** 
  98:c:\progra~2\gnuarm~1\102021~1.10\arm-none-eabi\include\c++\10.3.1\arm-none-eabi\thumb\v7e-m+fp\hard\bits\gthr-default.h **** /* Terminate the current thread.  */
  99:c:\progra~2\gnuarm~1\102021~1.10\arm-none-eabi\include\c++\10.3.1\arm-none-eabi\thumb\v7e-m+fp\hard\bits\gthr-default.h **** static inline int
 100:c:\progra~2\gnuarm~1\102021~1.10\arm-none-eabi\include\c++\10.3.1\arm-none-eabi\thumb\v7e-m+fp\hard\bits\gthr-default.h **** __gthread_objc_thread_exit (void)
 101:c:\progra~2\gnuarm~1\102021~1.10\arm-none-eabi\include\c++\10.3.1\arm-none-eabi\thumb\v7e-m+fp\hard\bits\gthr-default.h **** {
 102:c:\progra~2\gnuarm~1\102021~1.10\arm-none-eabi\include\c++\10.3.1\arm-none-eabi\thumb\v7e-m+fp\hard\bits\gthr-default.h ****   /* No thread support available */
 103:c:\progra~2\gnuarm~1\102021~1.10\arm-none-eabi\include\c++\10.3.1\arm-none-eabi\thumb\v7e-m+fp\hard\bits\gthr-default.h ****   /* Should we really exit the program */
 104:c:\progra~2\gnuarm~1\102021~1.10\arm-none-eabi\include\c++\10.3.1\arm-none-eabi\thumb\v7e-m+fp\hard\bits\gthr-default.h ****   /* exit (&__objc_thread_exit_status); */
 105:c:\progra~2\gnuarm~1\102021~1.10\arm-none-eabi\include\c++\10.3.1\arm-none-eabi\thumb\v7e-m+fp\hard\bits\gthr-default.h ****   return -1;
 106:c:\progra~2\gnuarm~1\102021~1.10\arm-none-eabi\include\c++\10.3.1\arm-none-eabi\thumb\v7e-m+fp\hard\bits\gthr-default.h **** }
 107:c:\progra~2\gnuarm~1\102021~1.10\arm-none-eabi\include\c++\10.3.1\arm-none-eabi\thumb\v7e-m+fp\hard\bits\gthr-default.h **** 
 108:c:\progra~2\gnuarm~1\102021~1.10\arm-none-eabi\include\c++\10.3.1\arm-none-eabi\thumb\v7e-m+fp\hard\bits\gthr-default.h **** /* Returns an integer value which uniquely describes a thread.  */
 109:c:\progra~2\gnuarm~1\102021~1.10\arm-none-eabi\include\c++\10.3.1\arm-none-eabi\thumb\v7e-m+fp\hard\bits\gthr-default.h **** static inline objc_thread_t
 110:c:\progra~2\gnuarm~1\102021~1.10\arm-none-eabi\include\c++\10.3.1\arm-none-eabi\thumb\v7e-m+fp\hard\bits\gthr-default.h **** __gthread_objc_thread_id (void)
 111:c:\progra~2\gnuarm~1\102021~1.10\arm-none-eabi\include\c++\10.3.1\arm-none-eabi\thumb\v7e-m+fp\hard\bits\gthr-default.h **** {
 112:c:\progra~2\gnuarm~1\102021~1.10\arm-none-eabi\include\c++\10.3.1\arm-none-eabi\thumb\v7e-m+fp\hard\bits\gthr-default.h ****   /* No thread support, use 1.  */
 113:c:\progra~2\gnuarm~1\102021~1.10\arm-none-eabi\include\c++\10.3.1\arm-none-eabi\thumb\v7e-m+fp\hard\bits\gthr-default.h ****   return (objc_thread_t) 1;
 114:c:\progra~2\gnuarm~1\102021~1.10\arm-none-eabi\include\c++\10.3.1\arm-none-eabi\thumb\v7e-m+fp\hard\bits\gthr-default.h **** }
 115:c:\progra~2\gnuarm~1\102021~1.10\arm-none-eabi\include\c++\10.3.1\arm-none-eabi\thumb\v7e-m+fp\hard\bits\gthr-default.h **** 
 116:c:\progra~2\gnuarm~1\102021~1.10\arm-none-eabi\include\c++\10.3.1\arm-none-eabi\thumb\v7e-m+fp\hard\bits\gthr-default.h **** /* Sets the thread's local storage pointer.  */
 117:c:\progra~2\gnuarm~1\102021~1.10\arm-none-eabi\include\c++\10.3.1\arm-none-eabi\thumb\v7e-m+fp\hard\bits\gthr-default.h **** static inline int
 118:c:\progra~2\gnuarm~1\102021~1.10\arm-none-eabi\include\c++\10.3.1\arm-none-eabi\thumb\v7e-m+fp\hard\bits\gthr-default.h **** __gthread_objc_thread_set_data (void *value)
 119:c:\progra~2\gnuarm~1\102021~1.10\arm-none-eabi\include\c++\10.3.1\arm-none-eabi\thumb\v7e-m+fp\hard\bits\gthr-default.h **** {
 120:c:\progra~2\gnuarm~1\102021~1.10\arm-none-eabi\include\c++\10.3.1\arm-none-eabi\thumb\v7e-m+fp\hard\bits\gthr-default.h ****   thread_local_storage = value;
ARM GAS   			page 4


 121:c:\progra~2\gnuarm~1\102021~1.10\arm-none-eabi\include\c++\10.3.1\arm-none-eabi\thumb\v7e-m+fp\hard\bits\gthr-default.h ****   return 0;
 122:c:\progra~2\gnuarm~1\102021~1.10\arm-none-eabi\include\c++\10.3.1\arm-none-eabi\thumb\v7e-m+fp\hard\bits\gthr-default.h **** }
 123:c:\progra~2\gnuarm~1\102021~1.10\arm-none-eabi\include\c++\10.3.1\arm-none-eabi\thumb\v7e-m+fp\hard\bits\gthr-default.h **** 
 124:c:\progra~2\gnuarm~1\102021~1.10\arm-none-eabi\include\c++\10.3.1\arm-none-eabi\thumb\v7e-m+fp\hard\bits\gthr-default.h **** /* Returns the thread's local storage pointer.  */
 125:c:\progra~2\gnuarm~1\102021~1.10\arm-none-eabi\include\c++\10.3.1\arm-none-eabi\thumb\v7e-m+fp\hard\bits\gthr-default.h **** static inline void *
 126:c:\progra~2\gnuarm~1\102021~1.10\arm-none-eabi\include\c++\10.3.1\arm-none-eabi\thumb\v7e-m+fp\hard\bits\gthr-default.h **** __gthread_objc_thread_get_data (void)
 127:c:\progra~2\gnuarm~1\102021~1.10\arm-none-eabi\include\c++\10.3.1\arm-none-eabi\thumb\v7e-m+fp\hard\bits\gthr-default.h **** {
 128:c:\progra~2\gnuarm~1\102021~1.10\arm-none-eabi\include\c++\10.3.1\arm-none-eabi\thumb\v7e-m+fp\hard\bits\gthr-default.h ****   return thread_local_storage;
 129:c:\progra~2\gnuarm~1\102021~1.10\arm-none-eabi\include\c++\10.3.1\arm-none-eabi\thumb\v7e-m+fp\hard\bits\gthr-default.h **** }
 130:c:\progra~2\gnuarm~1\102021~1.10\arm-none-eabi\include\c++\10.3.1\arm-none-eabi\thumb\v7e-m+fp\hard\bits\gthr-default.h **** 
 131:c:\progra~2\gnuarm~1\102021~1.10\arm-none-eabi\include\c++\10.3.1\arm-none-eabi\thumb\v7e-m+fp\hard\bits\gthr-default.h **** /* Backend mutex functions */
 132:c:\progra~2\gnuarm~1\102021~1.10\arm-none-eabi\include\c++\10.3.1\arm-none-eabi\thumb\v7e-m+fp\hard\bits\gthr-default.h **** 
 133:c:\progra~2\gnuarm~1\102021~1.10\arm-none-eabi\include\c++\10.3.1\arm-none-eabi\thumb\v7e-m+fp\hard\bits\gthr-default.h **** /* Allocate a mutex.  */
 134:c:\progra~2\gnuarm~1\102021~1.10\arm-none-eabi\include\c++\10.3.1\arm-none-eabi\thumb\v7e-m+fp\hard\bits\gthr-default.h **** static inline int
 135:c:\progra~2\gnuarm~1\102021~1.10\arm-none-eabi\include\c++\10.3.1\arm-none-eabi\thumb\v7e-m+fp\hard\bits\gthr-default.h **** __gthread_objc_mutex_allocate (objc_mutex_t mutex _GLIBCXX_UNUSED)
 136:c:\progra~2\gnuarm~1\102021~1.10\arm-none-eabi\include\c++\10.3.1\arm-none-eabi\thumb\v7e-m+fp\hard\bits\gthr-default.h **** {
 137:c:\progra~2\gnuarm~1\102021~1.10\arm-none-eabi\include\c++\10.3.1\arm-none-eabi\thumb\v7e-m+fp\hard\bits\gthr-default.h ****   return 0;
 138:c:\progra~2\gnuarm~1\102021~1.10\arm-none-eabi\include\c++\10.3.1\arm-none-eabi\thumb\v7e-m+fp\hard\bits\gthr-default.h **** }
 139:c:\progra~2\gnuarm~1\102021~1.10\arm-none-eabi\include\c++\10.3.1\arm-none-eabi\thumb\v7e-m+fp\hard\bits\gthr-default.h **** 
 140:c:\progra~2\gnuarm~1\102021~1.10\arm-none-eabi\include\c++\10.3.1\arm-none-eabi\thumb\v7e-m+fp\hard\bits\gthr-default.h **** /* Deallocate a mutex.  */
 141:c:\progra~2\gnuarm~1\102021~1.10\arm-none-eabi\include\c++\10.3.1\arm-none-eabi\thumb\v7e-m+fp\hard\bits\gthr-default.h **** static inline int
 142:c:\progra~2\gnuarm~1\102021~1.10\arm-none-eabi\include\c++\10.3.1\arm-none-eabi\thumb\v7e-m+fp\hard\bits\gthr-default.h **** __gthread_objc_mutex_deallocate (objc_mutex_t mutex _GLIBCXX_UNUSED)
 143:c:\progra~2\gnuarm~1\102021~1.10\arm-none-eabi\include\c++\10.3.1\arm-none-eabi\thumb\v7e-m+fp\hard\bits\gthr-default.h **** {
 144:c:\progra~2\gnuarm~1\102021~1.10\arm-none-eabi\include\c++\10.3.1\arm-none-eabi\thumb\v7e-m+fp\hard\bits\gthr-default.h ****   return 0;
 145:c:\progra~2\gnuarm~1\102021~1.10\arm-none-eabi\include\c++\10.3.1\arm-none-eabi\thumb\v7e-m+fp\hard\bits\gthr-default.h **** }
 146:c:\progra~2\gnuarm~1\102021~1.10\arm-none-eabi\include\c++\10.3.1\arm-none-eabi\thumb\v7e-m+fp\hard\bits\gthr-default.h **** 
 147:c:\progra~2\gnuarm~1\102021~1.10\arm-none-eabi\include\c++\10.3.1\arm-none-eabi\thumb\v7e-m+fp\hard\bits\gthr-default.h **** /* Grab a lock on a mutex.  */
 148:c:\progra~2\gnuarm~1\102021~1.10\arm-none-eabi\include\c++\10.3.1\arm-none-eabi\thumb\v7e-m+fp\hard\bits\gthr-default.h **** static inline int
 149:c:\progra~2\gnuarm~1\102021~1.10\arm-none-eabi\include\c++\10.3.1\arm-none-eabi\thumb\v7e-m+fp\hard\bits\gthr-default.h **** __gthread_objc_mutex_lock (objc_mutex_t mutex _GLIBCXX_UNUSED)
 150:c:\progra~2\gnuarm~1\102021~1.10\arm-none-eabi\include\c++\10.3.1\arm-none-eabi\thumb\v7e-m+fp\hard\bits\gthr-default.h **** {
 151:c:\progra~2\gnuarm~1\102021~1.10\arm-none-eabi\include\c++\10.3.1\arm-none-eabi\thumb\v7e-m+fp\hard\bits\gthr-default.h ****   /* There can only be one thread, so we always get the lock */
 152:c:\progra~2\gnuarm~1\102021~1.10\arm-none-eabi\include\c++\10.3.1\arm-none-eabi\thumb\v7e-m+fp\hard\bits\gthr-default.h ****   return 0;
 153:c:\progra~2\gnuarm~1\102021~1.10\arm-none-eabi\include\c++\10.3.1\arm-none-eabi\thumb\v7e-m+fp\hard\bits\gthr-default.h **** }
 154:c:\progra~2\gnuarm~1\102021~1.10\arm-none-eabi\include\c++\10.3.1\arm-none-eabi\thumb\v7e-m+fp\hard\bits\gthr-default.h **** 
 155:c:\progra~2\gnuarm~1\102021~1.10\arm-none-eabi\include\c++\10.3.1\arm-none-eabi\thumb\v7e-m+fp\hard\bits\gthr-default.h **** /* Try to grab a lock on a mutex.  */
 156:c:\progra~2\gnuarm~1\102021~1.10\arm-none-eabi\include\c++\10.3.1\arm-none-eabi\thumb\v7e-m+fp\hard\bits\gthr-default.h **** static inline int
 157:c:\progra~2\gnuarm~1\102021~1.10\arm-none-eabi\include\c++\10.3.1\arm-none-eabi\thumb\v7e-m+fp\hard\bits\gthr-default.h **** __gthread_objc_mutex_trylock (objc_mutex_t mutex _GLIBCXX_UNUSED)
 158:c:\progra~2\gnuarm~1\102021~1.10\arm-none-eabi\include\c++\10.3.1\arm-none-eabi\thumb\v7e-m+fp\hard\bits\gthr-default.h **** {
 159:c:\progra~2\gnuarm~1\102021~1.10\arm-none-eabi\include\c++\10.3.1\arm-none-eabi\thumb\v7e-m+fp\hard\bits\gthr-default.h ****   /* There can only be one thread, so we always get the lock */
 160:c:\progra~2\gnuarm~1\102021~1.10\arm-none-eabi\include\c++\10.3.1\arm-none-eabi\thumb\v7e-m+fp\hard\bits\gthr-default.h ****   return 0;
 161:c:\progra~2\gnuarm~1\102021~1.10\arm-none-eabi\include\c++\10.3.1\arm-none-eabi\thumb\v7e-m+fp\hard\bits\gthr-default.h **** }
 162:c:\progra~2\gnuarm~1\102021~1.10\arm-none-eabi\include\c++\10.3.1\arm-none-eabi\thumb\v7e-m+fp\hard\bits\gthr-default.h **** 
 163:c:\progra~2\gnuarm~1\102021~1.10\arm-none-eabi\include\c++\10.3.1\arm-none-eabi\thumb\v7e-m+fp\hard\bits\gthr-default.h **** /* Unlock the mutex */
 164:c:\progra~2\gnuarm~1\102021~1.10\arm-none-eabi\include\c++\10.3.1\arm-none-eabi\thumb\v7e-m+fp\hard\bits\gthr-default.h **** static inline int
 165:c:\progra~2\gnuarm~1\102021~1.10\arm-none-eabi\include\c++\10.3.1\arm-none-eabi\thumb\v7e-m+fp\hard\bits\gthr-default.h **** __gthread_objc_mutex_unlock (objc_mutex_t mutex _GLIBCXX_UNUSED)
 166:c:\progra~2\gnuarm~1\102021~1.10\arm-none-eabi\include\c++\10.3.1\arm-none-eabi\thumb\v7e-m+fp\hard\bits\gthr-default.h **** {
 167:c:\progra~2\gnuarm~1\102021~1.10\arm-none-eabi\include\c++\10.3.1\arm-none-eabi\thumb\v7e-m+fp\hard\bits\gthr-default.h ****   return 0;
 168:c:\progra~2\gnuarm~1\102021~1.10\arm-none-eabi\include\c++\10.3.1\arm-none-eabi\thumb\v7e-m+fp\hard\bits\gthr-default.h **** }
 169:c:\progra~2\gnuarm~1\102021~1.10\arm-none-eabi\include\c++\10.3.1\arm-none-eabi\thumb\v7e-m+fp\hard\bits\gthr-default.h **** 
 170:c:\progra~2\gnuarm~1\102021~1.10\arm-none-eabi\include\c++\10.3.1\arm-none-eabi\thumb\v7e-m+fp\hard\bits\gthr-default.h **** /* Backend condition mutex functions */
 171:c:\progra~2\gnuarm~1\102021~1.10\arm-none-eabi\include\c++\10.3.1\arm-none-eabi\thumb\v7e-m+fp\hard\bits\gthr-default.h **** 
 172:c:\progra~2\gnuarm~1\102021~1.10\arm-none-eabi\include\c++\10.3.1\arm-none-eabi\thumb\v7e-m+fp\hard\bits\gthr-default.h **** /* Allocate a condition.  */
 173:c:\progra~2\gnuarm~1\102021~1.10\arm-none-eabi\include\c++\10.3.1\arm-none-eabi\thumb\v7e-m+fp\hard\bits\gthr-default.h **** static inline int
 174:c:\progra~2\gnuarm~1\102021~1.10\arm-none-eabi\include\c++\10.3.1\arm-none-eabi\thumb\v7e-m+fp\hard\bits\gthr-default.h **** __gthread_objc_condition_allocate (objc_condition_t condition _GLIBCXX_UNUSED)
 175:c:\progra~2\gnuarm~1\102021~1.10\arm-none-eabi\include\c++\10.3.1\arm-none-eabi\thumb\v7e-m+fp\hard\bits\gthr-default.h **** {
 176:c:\progra~2\gnuarm~1\102021~1.10\arm-none-eabi\include\c++\10.3.1\arm-none-eabi\thumb\v7e-m+fp\hard\bits\gthr-default.h ****   return 0;
 177:c:\progra~2\gnuarm~1\102021~1.10\arm-none-eabi\include\c++\10.3.1\arm-none-eabi\thumb\v7e-m+fp\hard\bits\gthr-default.h **** }
ARM GAS   			page 5


 178:c:\progra~2\gnuarm~1\102021~1.10\arm-none-eabi\include\c++\10.3.1\arm-none-eabi\thumb\v7e-m+fp\hard\bits\gthr-default.h **** 
 179:c:\progra~2\gnuarm~1\102021~1.10\arm-none-eabi\include\c++\10.3.1\arm-none-eabi\thumb\v7e-m+fp\hard\bits\gthr-default.h **** /* Deallocate a condition.  */
 180:c:\progra~2\gnuarm~1\102021~1.10\arm-none-eabi\include\c++\10.3.1\arm-none-eabi\thumb\v7e-m+fp\hard\bits\gthr-default.h **** static inline int
 181:c:\progra~2\gnuarm~1\102021~1.10\arm-none-eabi\include\c++\10.3.1\arm-none-eabi\thumb\v7e-m+fp\hard\bits\gthr-default.h **** __gthread_objc_condition_deallocate (objc_condition_t condition _GLIBCXX_UNUSED)
 182:c:\progra~2\gnuarm~1\102021~1.10\arm-none-eabi\include\c++\10.3.1\arm-none-eabi\thumb\v7e-m+fp\hard\bits\gthr-default.h **** {
 183:c:\progra~2\gnuarm~1\102021~1.10\arm-none-eabi\include\c++\10.3.1\arm-none-eabi\thumb\v7e-m+fp\hard\bits\gthr-default.h ****   return 0;
 184:c:\progra~2\gnuarm~1\102021~1.10\arm-none-eabi\include\c++\10.3.1\arm-none-eabi\thumb\v7e-m+fp\hard\bits\gthr-default.h **** }
 185:c:\progra~2\gnuarm~1\102021~1.10\arm-none-eabi\include\c++\10.3.1\arm-none-eabi\thumb\v7e-m+fp\hard\bits\gthr-default.h **** 
 186:c:\progra~2\gnuarm~1\102021~1.10\arm-none-eabi\include\c++\10.3.1\arm-none-eabi\thumb\v7e-m+fp\hard\bits\gthr-default.h **** /* Wait on the condition */
 187:c:\progra~2\gnuarm~1\102021~1.10\arm-none-eabi\include\c++\10.3.1\arm-none-eabi\thumb\v7e-m+fp\hard\bits\gthr-default.h **** static inline int
 188:c:\progra~2\gnuarm~1\102021~1.10\arm-none-eabi\include\c++\10.3.1\arm-none-eabi\thumb\v7e-m+fp\hard\bits\gthr-default.h **** __gthread_objc_condition_wait (objc_condition_t condition _GLIBCXX_UNUSED,
 189:c:\progra~2\gnuarm~1\102021~1.10\arm-none-eabi\include\c++\10.3.1\arm-none-eabi\thumb\v7e-m+fp\hard\bits\gthr-default.h **** 			       objc_mutex_t mutex _GLIBCXX_UNUSED)
 190:c:\progra~2\gnuarm~1\102021~1.10\arm-none-eabi\include\c++\10.3.1\arm-none-eabi\thumb\v7e-m+fp\hard\bits\gthr-default.h **** {
 191:c:\progra~2\gnuarm~1\102021~1.10\arm-none-eabi\include\c++\10.3.1\arm-none-eabi\thumb\v7e-m+fp\hard\bits\gthr-default.h ****   return 0;
 192:c:\progra~2\gnuarm~1\102021~1.10\arm-none-eabi\include\c++\10.3.1\arm-none-eabi\thumb\v7e-m+fp\hard\bits\gthr-default.h **** }
 193:c:\progra~2\gnuarm~1\102021~1.10\arm-none-eabi\include\c++\10.3.1\arm-none-eabi\thumb\v7e-m+fp\hard\bits\gthr-default.h **** 
 194:c:\progra~2\gnuarm~1\102021~1.10\arm-none-eabi\include\c++\10.3.1\arm-none-eabi\thumb\v7e-m+fp\hard\bits\gthr-default.h **** /* Wake up all threads waiting on this condition.  */
 195:c:\progra~2\gnuarm~1\102021~1.10\arm-none-eabi\include\c++\10.3.1\arm-none-eabi\thumb\v7e-m+fp\hard\bits\gthr-default.h **** static inline int
 196:c:\progra~2\gnuarm~1\102021~1.10\arm-none-eabi\include\c++\10.3.1\arm-none-eabi\thumb\v7e-m+fp\hard\bits\gthr-default.h **** __gthread_objc_condition_broadcast (objc_condition_t condition _GLIBCXX_UNUSED)
 197:c:\progra~2\gnuarm~1\102021~1.10\arm-none-eabi\include\c++\10.3.1\arm-none-eabi\thumb\v7e-m+fp\hard\bits\gthr-default.h **** {
 198:c:\progra~2\gnuarm~1\102021~1.10\arm-none-eabi\include\c++\10.3.1\arm-none-eabi\thumb\v7e-m+fp\hard\bits\gthr-default.h ****   return 0;
 199:c:\progra~2\gnuarm~1\102021~1.10\arm-none-eabi\include\c++\10.3.1\arm-none-eabi\thumb\v7e-m+fp\hard\bits\gthr-default.h **** }
 200:c:\progra~2\gnuarm~1\102021~1.10\arm-none-eabi\include\c++\10.3.1\arm-none-eabi\thumb\v7e-m+fp\hard\bits\gthr-default.h **** 
 201:c:\progra~2\gnuarm~1\102021~1.10\arm-none-eabi\include\c++\10.3.1\arm-none-eabi\thumb\v7e-m+fp\hard\bits\gthr-default.h **** /* Wake up one thread waiting on this condition.  */
 202:c:\progra~2\gnuarm~1\102021~1.10\arm-none-eabi\include\c++\10.3.1\arm-none-eabi\thumb\v7e-m+fp\hard\bits\gthr-default.h **** static inline int
 203:c:\progra~2\gnuarm~1\102021~1.10\arm-none-eabi\include\c++\10.3.1\arm-none-eabi\thumb\v7e-m+fp\hard\bits\gthr-default.h **** __gthread_objc_condition_signal (objc_condition_t condition _GLIBCXX_UNUSED)
 204:c:\progra~2\gnuarm~1\102021~1.10\arm-none-eabi\include\c++\10.3.1\arm-none-eabi\thumb\v7e-m+fp\hard\bits\gthr-default.h **** {
 205:c:\progra~2\gnuarm~1\102021~1.10\arm-none-eabi\include\c++\10.3.1\arm-none-eabi\thumb\v7e-m+fp\hard\bits\gthr-default.h ****   return 0;
 206:c:\progra~2\gnuarm~1\102021~1.10\arm-none-eabi\include\c++\10.3.1\arm-none-eabi\thumb\v7e-m+fp\hard\bits\gthr-default.h **** }
 207:c:\progra~2\gnuarm~1\102021~1.10\arm-none-eabi\include\c++\10.3.1\arm-none-eabi\thumb\v7e-m+fp\hard\bits\gthr-default.h **** 
 208:c:\progra~2\gnuarm~1\102021~1.10\arm-none-eabi\include\c++\10.3.1\arm-none-eabi\thumb\v7e-m+fp\hard\bits\gthr-default.h **** #else /* _LIBOBJC */
 209:c:\progra~2\gnuarm~1\102021~1.10\arm-none-eabi\include\c++\10.3.1\arm-none-eabi\thumb\v7e-m+fp\hard\bits\gthr-default.h **** 
 210:c:\progra~2\gnuarm~1\102021~1.10\arm-none-eabi\include\c++\10.3.1\arm-none-eabi\thumb\v7e-m+fp\hard\bits\gthr-default.h **** static inline int
 211:c:\progra~2\gnuarm~1\102021~1.10\arm-none-eabi\include\c++\10.3.1\arm-none-eabi\thumb\v7e-m+fp\hard\bits\gthr-default.h **** __gthread_active_p (void)
 212:c:\progra~2\gnuarm~1\102021~1.10\arm-none-eabi\include\c++\10.3.1\arm-none-eabi\thumb\v7e-m+fp\hard\bits\gthr-default.h **** {
 213:c:\progra~2\gnuarm~1\102021~1.10\arm-none-eabi\include\c++\10.3.1\arm-none-eabi\thumb\v7e-m+fp\hard\bits\gthr-default.h ****   return 0;
 214:c:\progra~2\gnuarm~1\102021~1.10\arm-none-eabi\include\c++\10.3.1\arm-none-eabi\thumb\v7e-m+fp\hard\bits\gthr-default.h **** }
 215:c:\progra~2\gnuarm~1\102021~1.10\arm-none-eabi\include\c++\10.3.1\arm-none-eabi\thumb\v7e-m+fp\hard\bits\gthr-default.h **** 
 216:c:\progra~2\gnuarm~1\102021~1.10\arm-none-eabi\include\c++\10.3.1\arm-none-eabi\thumb\v7e-m+fp\hard\bits\gthr-default.h **** static inline int
 217:c:\progra~2\gnuarm~1\102021~1.10\arm-none-eabi\include\c++\10.3.1\arm-none-eabi\thumb\v7e-m+fp\hard\bits\gthr-default.h **** __gthread_once (__gthread_once_t *__once _GLIBCXX_UNUSED, void (*__func) (void) _GLIBCXX_UNUSED)
 218:c:\progra~2\gnuarm~1\102021~1.10\arm-none-eabi\include\c++\10.3.1\arm-none-eabi\thumb\v7e-m+fp\hard\bits\gthr-default.h **** {
 219:c:\progra~2\gnuarm~1\102021~1.10\arm-none-eabi\include\c++\10.3.1\arm-none-eabi\thumb\v7e-m+fp\hard\bits\gthr-default.h ****   return 0;
 220:c:\progra~2\gnuarm~1\102021~1.10\arm-none-eabi\include\c++\10.3.1\arm-none-eabi\thumb\v7e-m+fp\hard\bits\gthr-default.h **** }
 221:c:\progra~2\gnuarm~1\102021~1.10\arm-none-eabi\include\c++\10.3.1\arm-none-eabi\thumb\v7e-m+fp\hard\bits\gthr-default.h **** 
 222:c:\progra~2\gnuarm~1\102021~1.10\arm-none-eabi\include\c++\10.3.1\arm-none-eabi\thumb\v7e-m+fp\hard\bits\gthr-default.h **** static inline int _GLIBCXX_UNUSED
 223:c:\progra~2\gnuarm~1\102021~1.10\arm-none-eabi\include\c++\10.3.1\arm-none-eabi\thumb\v7e-m+fp\hard\bits\gthr-default.h **** __gthread_key_create (__gthread_key_t *__key _GLIBCXX_UNUSED, void (*__func) (void *) _GLIBCXX_UNUS
 224:c:\progra~2\gnuarm~1\102021~1.10\arm-none-eabi\include\c++\10.3.1\arm-none-eabi\thumb\v7e-m+fp\hard\bits\gthr-default.h **** {
 225:c:\progra~2\gnuarm~1\102021~1.10\arm-none-eabi\include\c++\10.3.1\arm-none-eabi\thumb\v7e-m+fp\hard\bits\gthr-default.h ****   return 0;
 226:c:\progra~2\gnuarm~1\102021~1.10\arm-none-eabi\include\c++\10.3.1\arm-none-eabi\thumb\v7e-m+fp\hard\bits\gthr-default.h **** }
 227:c:\progra~2\gnuarm~1\102021~1.10\arm-none-eabi\include\c++\10.3.1\arm-none-eabi\thumb\v7e-m+fp\hard\bits\gthr-default.h **** 
 228:c:\progra~2\gnuarm~1\102021~1.10\arm-none-eabi\include\c++\10.3.1\arm-none-eabi\thumb\v7e-m+fp\hard\bits\gthr-default.h **** static int _GLIBCXX_UNUSED
 229:c:\progra~2\gnuarm~1\102021~1.10\arm-none-eabi\include\c++\10.3.1\arm-none-eabi\thumb\v7e-m+fp\hard\bits\gthr-default.h **** __gthread_key_delete (__gthread_key_t __key _GLIBCXX_UNUSED)
 230:c:\progra~2\gnuarm~1\102021~1.10\arm-none-eabi\include\c++\10.3.1\arm-none-eabi\thumb\v7e-m+fp\hard\bits\gthr-default.h **** {
  52              	 .loc 1 230 1
  53              	 .cfi_startproc
  54              	 
  55              	 
ARM GAS   			page 6


  56              	 
  57 0000 80B4     	 push {r7}
  58              	 .cfi_def_cfa_offset 4
  59              	 .cfi_offset 7,-4
  60 0002 83B0     	 sub sp,sp,#12
  61              	 .cfi_def_cfa_offset 16
  62 0004 00AF     	 add r7,sp,#0
  63              	 .cfi_def_cfa_register 7
  64 0006 7860     	 str r0,[r7,#4]
 231:c:\progra~2\gnuarm~1\102021~1.10\arm-none-eabi\include\c++\10.3.1\arm-none-eabi\thumb\v7e-m+fp\hard\bits\gthr-default.h ****   return 0;
  65              	 .loc 1 231 10
  66 0008 0023     	 movs r3,#0
 232:c:\progra~2\gnuarm~1\102021~1.10\arm-none-eabi\include\c++\10.3.1\arm-none-eabi\thumb\v7e-m+fp\hard\bits\gthr-default.h **** }
  67              	 .loc 1 232 1
  68 000a 1846     	 mov r0,r3
  69 000c 0C37     	 adds r7,r7,#12
  70              	 .cfi_def_cfa_offset 4
  71 000e BD46     	 mov sp,r7
  72              	 .cfi_def_cfa_register 13
  73              	 
  74 0010 5DF8047B 	 ldr r7,[sp],#4
  75              	 .cfi_restore 7
  76              	 .cfi_def_cfa_offset 0
  77 0014 7047     	 bx lr
  78              	 .cfi_endproc
  79              	.LFE893:
  80              	 .size _ZL20__gthread_key_deletei,.-_ZL20__gthread_key_deletei
  81              	 .section .text._ZN12cpp_freertos6Thread9GetHandleEv,"axG",%progbits,_ZN12cpp_freertos6Thread9GetHandleEv,comdat
  82              	 .align 1
  83              	 .weak _ZN12cpp_freertos6Thread9GetHandleEv
  84              	 .syntax unified
  85              	 .thumb
  86              	 .thumb_func
  87              	 .type _ZN12cpp_freertos6Thread9GetHandleEv,%function
  88              	_ZN12cpp_freertos6Thread9GetHandleEv:
  89              	.LFB1264:
  90              	 .file 2 "c:\\users\\niels\\documents\\github\\dsp\\software\\stm32basis\\hal\\gemeenschappelijk\\third_party\\freertos-addons-1.1.0\\c++\\source\\include\\thread.hpp"
   1:c:\users\niels\documents\github\dsp\software\stm32basis\hal\gemeenschappelijk\third_party\freertos-addons-1.1.0\c++\source\include\thread.hpp ****  /****************************************************************************
   2:c:\users\niels\documents\github\dsp\software\stm32basis\hal\gemeenschappelijk\third_party\freertos-addons-1.1.0\c++\source\include\thread.hpp ****  *
   3:c:\users\niels\documents\github\dsp\software\stm32basis\hal\gemeenschappelijk\third_party\freertos-addons-1.1.0\c++\source\include\thread.hpp ****  *  Copyright (c) 2016, Michael Becker (michael.f.becker@gmail.com)
   4:c:\users\niels\documents\github\dsp\software\stm32basis\hal\gemeenschappelijk\third_party\freertos-addons-1.1.0\c++\source\include\thread.hpp ****  *
   5:c:\users\niels\documents\github\dsp\software\stm32basis\hal\gemeenschappelijk\third_party\freertos-addons-1.1.0\c++\source\include\thread.hpp ****  *  This file is part of the FreeRTOS C++ Wrappers project.
   6:c:\users\niels\documents\github\dsp\software\stm32basis\hal\gemeenschappelijk\third_party\freertos-addons-1.1.0\c++\source\include\thread.hpp ****  *
   7:c:\users\niels\documents\github\dsp\software\stm32basis\hal\gemeenschappelijk\third_party\freertos-addons-1.1.0\c++\source\include\thread.hpp ****  *  The FreeRTOS C++ Wrappers project is free software: you can redistribute
   8:c:\users\niels\documents\github\dsp\software\stm32basis\hal\gemeenschappelijk\third_party\freertos-addons-1.1.0\c++\source\include\thread.hpp ****  *  it and/or modify it under the terms of the GNU General Public License as
   9:c:\users\niels\documents\github\dsp\software\stm32basis\hal\gemeenschappelijk\third_party\freertos-addons-1.1.0\c++\source\include\thread.hpp ****  *  published by the Free Software Foundation, either version 2
  10:c:\users\niels\documents\github\dsp\software\stm32basis\hal\gemeenschappelijk\third_party\freertos-addons-1.1.0\c++\source\include\thread.hpp ****  *  of the License, or (at your option) any later version.
  11:c:\users\niels\documents\github\dsp\software\stm32basis\hal\gemeenschappelijk\third_party\freertos-addons-1.1.0\c++\source\include\thread.hpp ****  *
  12:c:\users\niels\documents\github\dsp\software\stm32basis\hal\gemeenschappelijk\third_party\freertos-addons-1.1.0\c++\source\include\thread.hpp ****  *  The FreeRTOS C++ Wrappers project is distributed in the hope that it will
  13:c:\users\niels\documents\github\dsp\software\stm32basis\hal\gemeenschappelijk\third_party\freertos-addons-1.1.0\c++\source\include\thread.hpp ****  *  be useful, but WITHOUT ANY WARRANTY; without even the implied warranty of
  14:c:\users\niels\documents\github\dsp\software\stm32basis\hal\gemeenschappelijk\third_party\freertos-addons-1.1.0\c++\source\include\thread.hpp ****  *  MERCHANTABILITY or FITNESS FOR A PARTICULAR PURPOSE.  See the
  15:c:\users\niels\documents\github\dsp\software\stm32basis\hal\gemeenschappelijk\third_party\freertos-addons-1.1.0\c++\source\include\thread.hpp ****  *  GNU General Public License for more details.
  16:c:\users\niels\documents\github\dsp\software\stm32basis\hal\gemeenschappelijk\third_party\freertos-addons-1.1.0\c++\source\include\thread.hpp ****  *
  17:c:\users\niels\documents\github\dsp\software\stm32basis\hal\gemeenschappelijk\third_party\freertos-addons-1.1.0\c++\source\include\thread.hpp ****  *  You should have received a copy of the GNU General Public License
  18:c:\users\niels\documents\github\dsp\software\stm32basis\hal\gemeenschappelijk\third_party\freertos-addons-1.1.0\c++\source\include\thread.hpp ****  *  along with the FreeRTOS C++ Wrappers project.
  19:c:\users\niels\documents\github\dsp\software\stm32basis\hal\gemeenschappelijk\third_party\freertos-addons-1.1.0\c++\source\include\thread.hpp ****  *  If not, see <http://www.gnu.org/licenses/>.
  20:c:\users\niels\documents\github\dsp\software\stm32basis\hal\gemeenschappelijk\third_party\freertos-addons-1.1.0\c++\source\include\thread.hpp ****  *
ARM GAS   			page 7


  21:c:\users\niels\documents\github\dsp\software\stm32basis\hal\gemeenschappelijk\third_party\freertos-addons-1.1.0\c++\source\include\thread.hpp ****  ***************************************************************************/
  22:c:\users\niels\documents\github\dsp\software\stm32basis\hal\gemeenschappelijk\third_party\freertos-addons-1.1.0\c++\source\include\thread.hpp **** #ifndef THREAD_HPP_
  23:c:\users\niels\documents\github\dsp\software\stm32basis\hal\gemeenschappelijk\third_party\freertos-addons-1.1.0\c++\source\include\thread.hpp **** #define THREAD_HPP_
  24:c:\users\niels\documents\github\dsp\software\stm32basis\hal\gemeenschappelijk\third_party\freertos-addons-1.1.0\c++\source\include\thread.hpp **** 
  25:c:\users\niels\documents\github\dsp\software\stm32basis\hal\gemeenschappelijk\third_party\freertos-addons-1.1.0\c++\source\include\thread.hpp **** #include <exception>
  26:c:\users\niels\documents\github\dsp\software\stm32basis\hal\gemeenschappelijk\third_party\freertos-addons-1.1.0\c++\source\include\thread.hpp **** #include <string>
  27:c:\users\niels\documents\github\dsp\software\stm32basis\hal\gemeenschappelijk\third_party\freertos-addons-1.1.0\c++\source\include\thread.hpp **** #include "FreeRTOS.h"
  28:c:\users\niels\documents\github\dsp\software\stm32basis\hal\gemeenschappelijk\third_party\freertos-addons-1.1.0\c++\source\include\thread.hpp **** #include "task.h"
  29:c:\users\niels\documents\github\dsp\software\stm32basis\hal\gemeenschappelijk\third_party\freertos-addons-1.1.0\c++\source\include\thread.hpp **** #include "mutex.hpp"
  30:c:\users\niels\documents\github\dsp\software\stm32basis\hal\gemeenschappelijk\third_party\freertos-addons-1.1.0\c++\source\include\thread.hpp **** 
  31:c:\users\niels\documents\github\dsp\software\stm32basis\hal\gemeenschappelijk\third_party\freertos-addons-1.1.0\c++\source\include\thread.hpp **** namespace cpp_freertos {
  32:c:\users\niels\documents\github\dsp\software\stm32basis\hal\gemeenschappelijk\third_party\freertos-addons-1.1.0\c++\source\include\thread.hpp **** 
  33:c:\users\niels\documents\github\dsp\software\stm32basis\hal\gemeenschappelijk\third_party\freertos-addons-1.1.0\c++\source\include\thread.hpp **** 
  34:c:\users\niels\documents\github\dsp\software\stm32basis\hal\gemeenschappelijk\third_party\freertos-addons-1.1.0\c++\source\include\thread.hpp **** /**
  35:c:\users\niels\documents\github\dsp\software\stm32basis\hal\gemeenschappelijk\third_party\freertos-addons-1.1.0\c++\source\include\thread.hpp ****  *  Wrapper class around FreeRTOS's implementation of a task.
  36:c:\users\niels\documents\github\dsp\software\stm32basis\hal\gemeenschappelijk\third_party\freertos-addons-1.1.0\c++\source\include\thread.hpp ****  *
  37:c:\users\niels\documents\github\dsp\software\stm32basis\hal\gemeenschappelijk\third_party\freertos-addons-1.1.0\c++\source\include\thread.hpp ****  *  This is an abstract base class.
  38:c:\users\niels\documents\github\dsp\software\stm32basis\hal\gemeenschappelijk\third_party\freertos-addons-1.1.0\c++\source\include\thread.hpp ****  *  To use this, you need to subclass it. All of your threads should
  39:c:\users\niels\documents\github\dsp\software\stm32basis\hal\gemeenschappelijk\third_party\freertos-addons-1.1.0\c++\source\include\thread.hpp ****  *  be derived from the Thread class. Then implement the virtual Run
  40:c:\users\niels\documents\github\dsp\software\stm32basis\hal\gemeenschappelijk\third_party\freertos-addons-1.1.0\c++\source\include\thread.hpp ****  *  function. This is a similar design to Java threading.
  41:c:\users\niels\documents\github\dsp\software\stm32basis\hal\gemeenschappelijk\third_party\freertos-addons-1.1.0\c++\source\include\thread.hpp ****  */
  42:c:\users\niels\documents\github\dsp\software\stm32basis\hal\gemeenschappelijk\third_party\freertos-addons-1.1.0\c++\source\include\thread.hpp **** class Thread {
  43:c:\users\niels\documents\github\dsp\software\stm32basis\hal\gemeenschappelijk\third_party\freertos-addons-1.1.0\c++\source\include\thread.hpp **** 
  44:c:\users\niels\documents\github\dsp\software\stm32basis\hal\gemeenschappelijk\third_party\freertos-addons-1.1.0\c++\source\include\thread.hpp ****     /////////////////////////////////////////////////////////////////////////
  45:c:\users\niels\documents\github\dsp\software\stm32basis\hal\gemeenschappelijk\third_party\freertos-addons-1.1.0\c++\source\include\thread.hpp ****     //
  46:c:\users\niels\documents\github\dsp\software\stm32basis\hal\gemeenschappelijk\third_party\freertos-addons-1.1.0\c++\source\include\thread.hpp ****     //  Public API
  47:c:\users\niels\documents\github\dsp\software\stm32basis\hal\gemeenschappelijk\third_party\freertos-addons-1.1.0\c++\source\include\thread.hpp ****     //  Available from anywhere. Many of these require a Thread reference
  48:c:\users\niels\documents\github\dsp\software\stm32basis\hal\gemeenschappelijk\third_party\freertos-addons-1.1.0\c++\source\include\thread.hpp ****     //  if they are operating on a thread.
  49:c:\users\niels\documents\github\dsp\software\stm32basis\hal\gemeenschappelijk\third_party\freertos-addons-1.1.0\c++\source\include\thread.hpp ****     //
  50:c:\users\niels\documents\github\dsp\software\stm32basis\hal\gemeenschappelijk\third_party\freertos-addons-1.1.0\c++\source\include\thread.hpp ****     /////////////////////////////////////////////////////////////////////////
  51:c:\users\niels\documents\github\dsp\software\stm32basis\hal\gemeenschappelijk\third_party\freertos-addons-1.1.0\c++\source\include\thread.hpp ****     public:
  52:c:\users\niels\documents\github\dsp\software\stm32basis\hal\gemeenschappelijk\third_party\freertos-addons-1.1.0\c++\source\include\thread.hpp ****         /**
  53:c:\users\niels\documents\github\dsp\software\stm32basis\hal\gemeenschappelijk\third_party\freertos-addons-1.1.0\c++\source\include\thread.hpp ****          *  Constructor to create a named thread.
  54:c:\users\niels\documents\github\dsp\software\stm32basis\hal\gemeenschappelijk\third_party\freertos-addons-1.1.0\c++\source\include\thread.hpp ****          *
  55:c:\users\niels\documents\github\dsp\software\stm32basis\hal\gemeenschappelijk\third_party\freertos-addons-1.1.0\c++\source\include\thread.hpp ****          *  @param Name Name of the thread. Only useful for debugging.
  56:c:\users\niels\documents\github\dsp\software\stm32basis\hal\gemeenschappelijk\third_party\freertos-addons-1.1.0\c++\source\include\thread.hpp ****          *  @param StackDepth Number of "words" allocated for the Thread stack.
  57:c:\users\niels\documents\github\dsp\software\stm32basis\hal\gemeenschappelijk\third_party\freertos-addons-1.1.0\c++\source\include\thread.hpp ****          *  @param Priority FreeRTOS priority of this Thread.
  58:c:\users\niels\documents\github\dsp\software\stm32basis\hal\gemeenschappelijk\third_party\freertos-addons-1.1.0\c++\source\include\thread.hpp ****          */
  59:c:\users\niels\documents\github\dsp\software\stm32basis\hal\gemeenschappelijk\third_party\freertos-addons-1.1.0\c++\source\include\thread.hpp ****         Thread(const std::string &Name,
  60:c:\users\niels\documents\github\dsp\software\stm32basis\hal\gemeenschappelijk\third_party\freertos-addons-1.1.0\c++\source\include\thread.hpp ****                uint16_t StackDepth,
  61:c:\users\niels\documents\github\dsp\software\stm32basis\hal\gemeenschappelijk\third_party\freertos-addons-1.1.0\c++\source\include\thread.hpp ****                UBaseType_t Priority);
  62:c:\users\niels\documents\github\dsp\software\stm32basis\hal\gemeenschappelijk\third_party\freertos-addons-1.1.0\c++\source\include\thread.hpp **** 
  63:c:\users\niels\documents\github\dsp\software\stm32basis\hal\gemeenschappelijk\third_party\freertos-addons-1.1.0\c++\source\include\thread.hpp ****         /**
  64:c:\users\niels\documents\github\dsp\software\stm32basis\hal\gemeenschappelijk\third_party\freertos-addons-1.1.0\c++\source\include\thread.hpp ****          *  Constructor to create an unnamed thread.
  65:c:\users\niels\documents\github\dsp\software\stm32basis\hal\gemeenschappelijk\third_party\freertos-addons-1.1.0\c++\source\include\thread.hpp ****          *
  66:c:\users\niels\documents\github\dsp\software\stm32basis\hal\gemeenschappelijk\third_party\freertos-addons-1.1.0\c++\source\include\thread.hpp ****          *  @param StackDepth Number of "words" allocated for the Thread stack.
  67:c:\users\niels\documents\github\dsp\software\stm32basis\hal\gemeenschappelijk\third_party\freertos-addons-1.1.0\c++\source\include\thread.hpp ****          *  @param Priority FreeRTOS priority of this Thread.
  68:c:\users\niels\documents\github\dsp\software\stm32basis\hal\gemeenschappelijk\third_party\freertos-addons-1.1.0\c++\source\include\thread.hpp ****          */
  69:c:\users\niels\documents\github\dsp\software\stm32basis\hal\gemeenschappelijk\third_party\freertos-addons-1.1.0\c++\source\include\thread.hpp ****         Thread( uint16_t StackDepth,
  70:c:\users\niels\documents\github\dsp\software\stm32basis\hal\gemeenschappelijk\third_party\freertos-addons-1.1.0\c++\source\include\thread.hpp ****                 UBaseType_t Priority);
  71:c:\users\niels\documents\github\dsp\software\stm32basis\hal\gemeenschappelijk\third_party\freertos-addons-1.1.0\c++\source\include\thread.hpp **** 
  72:c:\users\niels\documents\github\dsp\software\stm32basis\hal\gemeenschappelijk\third_party\freertos-addons-1.1.0\c++\source\include\thread.hpp ****         /**
  73:c:\users\niels\documents\github\dsp\software\stm32basis\hal\gemeenschappelijk\third_party\freertos-addons-1.1.0\c++\source\include\thread.hpp ****          *  Starts a thread.
  74:c:\users\niels\documents\github\dsp\software\stm32basis\hal\gemeenschappelijk\third_party\freertos-addons-1.1.0\c++\source\include\thread.hpp ****          *
  75:c:\users\niels\documents\github\dsp\software\stm32basis\hal\gemeenschappelijk\third_party\freertos-addons-1.1.0\c++\source\include\thread.hpp ****          *  This is the API call that actually starts the thread running. 
  76:c:\users\niels\documents\github\dsp\software\stm32basis\hal\gemeenschappelijk\third_party\freertos-addons-1.1.0\c++\source\include\thread.hpp ****          *  It creates a backing FreeRTOS task. By separating object creation 
  77:c:\users\niels\documents\github\dsp\software\stm32basis\hal\gemeenschappelijk\third_party\freertos-addons-1.1.0\c++\source\include\thread.hpp ****          *  from starting the Thread, it solves the pure virtual fuction call 
ARM GAS   			page 8


  78:c:\users\niels\documents\github\dsp\software\stm32basis\hal\gemeenschappelijk\third_party\freertos-addons-1.1.0\c++\source\include\thread.hpp ****          *  failure case. If we attempt to automatically call xTaskCreate 
  79:c:\users\niels\documents\github\dsp\software\stm32basis\hal\gemeenschappelijk\third_party\freertos-addons-1.1.0\c++\source\include\thread.hpp ****          *  from the base class constructor, in certain conditions the task 
  80:c:\users\niels\documents\github\dsp\software\stm32basis\hal\gemeenschappelijk\third_party\freertos-addons-1.1.0\c++\source\include\thread.hpp ****          *  starts to run "before" the derived class is constructed! So we 
  81:c:\users\niels\documents\github\dsp\software\stm32basis\hal\gemeenschappelijk\third_party\freertos-addons-1.1.0\c++\source\include\thread.hpp ****          *  don't do that anymore.
  82:c:\users\niels\documents\github\dsp\software\stm32basis\hal\gemeenschappelijk\third_party\freertos-addons-1.1.0\c++\source\include\thread.hpp ****          *
  83:c:\users\niels\documents\github\dsp\software\stm32basis\hal\gemeenschappelijk\third_party\freertos-addons-1.1.0\c++\source\include\thread.hpp ****          *  This may be called from your ctor once you have completed 
  84:c:\users\niels\documents\github\dsp\software\stm32basis\hal\gemeenschappelijk\third_party\freertos-addons-1.1.0\c++\source\include\thread.hpp ****          *  your objects construction (so as the last step). 
  85:c:\users\niels\documents\github\dsp\software\stm32basis\hal\gemeenschappelijk\third_party\freertos-addons-1.1.0\c++\source\include\thread.hpp ****          *
  86:c:\users\niels\documents\github\dsp\software\stm32basis\hal\gemeenschappelijk\third_party\freertos-addons-1.1.0\c++\source\include\thread.hpp ****          *  This should only be called once ever! 
  87:c:\users\niels\documents\github\dsp\software\stm32basis\hal\gemeenschappelijk\third_party\freertos-addons-1.1.0\c++\source\include\thread.hpp ****          */
  88:c:\users\niels\documents\github\dsp\software\stm32basis\hal\gemeenschappelijk\third_party\freertos-addons-1.1.0\c++\source\include\thread.hpp ****         bool Start();
  89:c:\users\niels\documents\github\dsp\software\stm32basis\hal\gemeenschappelijk\third_party\freertos-addons-1.1.0\c++\source\include\thread.hpp **** 
  90:c:\users\niels\documents\github\dsp\software\stm32basis\hal\gemeenschappelijk\third_party\freertos-addons-1.1.0\c++\source\include\thread.hpp **** 
  91:c:\users\niels\documents\github\dsp\software\stm32basis\hal\gemeenschappelijk\third_party\freertos-addons-1.1.0\c++\source\include\thread.hpp ****         /**
  92:c:\users\niels\documents\github\dsp\software\stm32basis\hal\gemeenschappelijk\third_party\freertos-addons-1.1.0\c++\source\include\thread.hpp ****          *  Our destructor, if FreeRTOS is configured to allow task deletion.
  93:c:\users\niels\documents\github\dsp\software\stm32basis\hal\gemeenschappelijk\third_party\freertos-addons-1.1.0\c++\source\include\thread.hpp ****          */
  94:c:\users\niels\documents\github\dsp\software\stm32basis\hal\gemeenschappelijk\third_party\freertos-addons-1.1.0\c++\source\include\thread.hpp ****         virtual ~Thread();
  95:c:\users\niels\documents\github\dsp\software\stm32basis\hal\gemeenschappelijk\third_party\freertos-addons-1.1.0\c++\source\include\thread.hpp **** 
  96:c:\users\niels\documents\github\dsp\software\stm32basis\hal\gemeenschappelijk\third_party\freertos-addons-1.1.0\c++\source\include\thread.hpp ****         /**
  97:c:\users\niels\documents\github\dsp\software\stm32basis\hal\gemeenschappelijk\third_party\freertos-addons-1.1.0\c++\source\include\thread.hpp ****          *  Accessor to get the thread's backing task handle.
  98:c:\users\niels\documents\github\dsp\software\stm32basis\hal\gemeenschappelijk\third_party\freertos-addons-1.1.0\c++\source\include\thread.hpp ****          *  There is no setter, on purpose.
  99:c:\users\niels\documents\github\dsp\software\stm32basis\hal\gemeenschappelijk\third_party\freertos-addons-1.1.0\c++\source\include\thread.hpp ****          *
 100:c:\users\niels\documents\github\dsp\software\stm32basis\hal\gemeenschappelijk\third_party\freertos-addons-1.1.0\c++\source\include\thread.hpp ****          *  @return FreeRTOS task handle.
 101:c:\users\niels\documents\github\dsp\software\stm32basis\hal\gemeenschappelijk\third_party\freertos-addons-1.1.0\c++\source\include\thread.hpp ****          */
 102:c:\users\niels\documents\github\dsp\software\stm32basis\hal\gemeenschappelijk\third_party\freertos-addons-1.1.0\c++\source\include\thread.hpp ****         inline TaskHandle_t GetHandle()
  91              	 .loc 2 102 29
  92              	 .cfi_startproc
  93              	 
  94              	 
  95              	 
  96 0000 80B4     	 push {r7}
  97              	 .cfi_def_cfa_offset 4
  98              	 .cfi_offset 7,-4
  99 0002 83B0     	 sub sp,sp,#12
 100              	 .cfi_def_cfa_offset 16
 101 0004 00AF     	 add r7,sp,#0
 102              	 .cfi_def_cfa_register 7
 103 0006 7860     	 str r0,[r7,#4]
 103:c:\users\niels\documents\github\dsp\software\stm32basis\hal\gemeenschappelijk\third_party\freertos-addons-1.1.0\c++\source\include\thread.hpp ****         {
 104:c:\users\niels\documents\github\dsp\software\stm32basis\hal\gemeenschappelijk\third_party\freertos-addons-1.1.0\c++\source\include\thread.hpp ****             return handle;
 104              	 .loc 2 104 20
 105 0008 7B68     	 ldr r3,[r7,#4]
 106 000a 5B68     	 ldr r3,[r3,#4]
 105:c:\users\niels\documents\github\dsp\software\stm32basis\hal\gemeenschappelijk\third_party\freertos-addons-1.1.0\c++\source\include\thread.hpp ****         }
 107              	 .loc 2 105 9
 108 000c 1846     	 mov r0,r3
 109 000e 0C37     	 adds r7,r7,#12
 110              	 .cfi_def_cfa_offset 4
 111 0010 BD46     	 mov sp,r7
 112              	 .cfi_def_cfa_register 13
 113              	 
 114 0012 5DF8047B 	 ldr r7,[sp],#4
 115              	 .cfi_restore 7
 116              	 .cfi_def_cfa_offset 0
 117 0016 7047     	 bx lr
 118              	 .cfi_endproc
 119              	.LFE1264:
ARM GAS   			page 9


 120              	 .size _ZN12cpp_freertos6Thread9GetHandleEv,.-_ZN12cpp_freertos6Thread9GetHandleEv
 121              	 .section .text._ZN12cpp_freertos6Thread11GetPriorityEv,"axG",%progbits,_ZN12cpp_freertos6Thread11GetPriorityEv,comdat
 122              	 .align 1
 123              	 .weak _ZN12cpp_freertos6Thread11GetPriorityEv
 124              	 .syntax unified
 125              	 .thumb
 126              	 .thumb_func
 127              	 .type _ZN12cpp_freertos6Thread11GetPriorityEv,%function
 128              	_ZN12cpp_freertos6Thread11GetPriorityEv:
 129              	.LFB1271:
 106:c:\users\niels\documents\github\dsp\software\stm32basis\hal\gemeenschappelijk\third_party\freertos-addons-1.1.0\c++\source\include\thread.hpp **** 
 107:c:\users\niels\documents\github\dsp\software\stm32basis\hal\gemeenschappelijk\third_party\freertos-addons-1.1.0\c++\source\include\thread.hpp ****         /**
 108:c:\users\niels\documents\github\dsp\software\stm32basis\hal\gemeenschappelijk\third_party\freertos-addons-1.1.0\c++\source\include\thread.hpp ****          *  Yield the scheduler.
 109:c:\users\niels\documents\github\dsp\software\stm32basis\hal\gemeenschappelijk\third_party\freertos-addons-1.1.0\c++\source\include\thread.hpp ****          */
 110:c:\users\niels\documents\github\dsp\software\stm32basis\hal\gemeenschappelijk\third_party\freertos-addons-1.1.0\c++\source\include\thread.hpp ****         static inline void Yield()
 111:c:\users\niels\documents\github\dsp\software\stm32basis\hal\gemeenschappelijk\third_party\freertos-addons-1.1.0\c++\source\include\thread.hpp ****         {
 112:c:\users\niels\documents\github\dsp\software\stm32basis\hal\gemeenschappelijk\third_party\freertos-addons-1.1.0\c++\source\include\thread.hpp ****             taskYIELD();
 113:c:\users\niels\documents\github\dsp\software\stm32basis\hal\gemeenschappelijk\third_party\freertos-addons-1.1.0\c++\source\include\thread.hpp ****         }
 114:c:\users\niels\documents\github\dsp\software\stm32basis\hal\gemeenschappelijk\third_party\freertos-addons-1.1.0\c++\source\include\thread.hpp **** 
 115:c:\users\niels\documents\github\dsp\software\stm32basis\hal\gemeenschappelijk\third_party\freertos-addons-1.1.0\c++\source\include\thread.hpp ****         /**
 116:c:\users\niels\documents\github\dsp\software\stm32basis\hal\gemeenschappelijk\third_party\freertos-addons-1.1.0\c++\source\include\thread.hpp ****          *  Start the scheduler.
 117:c:\users\niels\documents\github\dsp\software\stm32basis\hal\gemeenschappelijk\third_party\freertos-addons-1.1.0\c++\source\include\thread.hpp ****          *
 118:c:\users\niels\documents\github\dsp\software\stm32basis\hal\gemeenschappelijk\third_party\freertos-addons-1.1.0\c++\source\include\thread.hpp ****          *  @note You need to use this call. Do NOT directly call 
 119:c:\users\niels\documents\github\dsp\software\stm32basis\hal\gemeenschappelijk\third_party\freertos-addons-1.1.0\c++\source\include\thread.hpp ****          *  vTaskStartScheduler while using this library.
 120:c:\users\niels\documents\github\dsp\software\stm32basis\hal\gemeenschappelijk\third_party\freertos-addons-1.1.0\c++\source\include\thread.hpp ****          */
 121:c:\users\niels\documents\github\dsp\software\stm32basis\hal\gemeenschappelijk\third_party\freertos-addons-1.1.0\c++\source\include\thread.hpp ****         static inline void StartScheduler()
 122:c:\users\niels\documents\github\dsp\software\stm32basis\hal\gemeenschappelijk\third_party\freertos-addons-1.1.0\c++\source\include\thread.hpp ****         {
 123:c:\users\niels\documents\github\dsp\software\stm32basis\hal\gemeenschappelijk\third_party\freertos-addons-1.1.0\c++\source\include\thread.hpp ****             SchedulerActive = true;
 124:c:\users\niels\documents\github\dsp\software\stm32basis\hal\gemeenschappelijk\third_party\freertos-addons-1.1.0\c++\source\include\thread.hpp ****             vTaskStartScheduler();
 125:c:\users\niels\documents\github\dsp\software\stm32basis\hal\gemeenschappelijk\third_party\freertos-addons-1.1.0\c++\source\include\thread.hpp ****         }
 126:c:\users\niels\documents\github\dsp\software\stm32basis\hal\gemeenschappelijk\third_party\freertos-addons-1.1.0\c++\source\include\thread.hpp **** 
 127:c:\users\niels\documents\github\dsp\software\stm32basis\hal\gemeenschappelijk\third_party\freertos-addons-1.1.0\c++\source\include\thread.hpp ****         /**
 128:c:\users\niels\documents\github\dsp\software\stm32basis\hal\gemeenschappelijk\third_party\freertos-addons-1.1.0\c++\source\include\thread.hpp ****          *  End the scheduler.
 129:c:\users\niels\documents\github\dsp\software\stm32basis\hal\gemeenschappelijk\third_party\freertos-addons-1.1.0\c++\source\include\thread.hpp ****          *
 130:c:\users\niels\documents\github\dsp\software\stm32basis\hal\gemeenschappelijk\third_party\freertos-addons-1.1.0\c++\source\include\thread.hpp ****          *  @note Please see the FreeRTOS documentation regarding constraints
 131:c:\users\niels\documents\github\dsp\software\stm32basis\hal\gemeenschappelijk\third_party\freertos-addons-1.1.0\c++\source\include\thread.hpp ****          *  with the implementation of this.
 132:c:\users\niels\documents\github\dsp\software\stm32basis\hal\gemeenschappelijk\third_party\freertos-addons-1.1.0\c++\source\include\thread.hpp ****          *
 133:c:\users\niels\documents\github\dsp\software\stm32basis\hal\gemeenschappelijk\third_party\freertos-addons-1.1.0\c++\source\include\thread.hpp ****          *  @note You need to use this call. Do NOT directly call 
 134:c:\users\niels\documents\github\dsp\software\stm32basis\hal\gemeenschappelijk\third_party\freertos-addons-1.1.0\c++\source\include\thread.hpp ****          *  vTaskEndScheduler while using this library.
 135:c:\users\niels\documents\github\dsp\software\stm32basis\hal\gemeenschappelijk\third_party\freertos-addons-1.1.0\c++\source\include\thread.hpp ****          */
 136:c:\users\niels\documents\github\dsp\software\stm32basis\hal\gemeenschappelijk\third_party\freertos-addons-1.1.0\c++\source\include\thread.hpp ****         static inline void EndScheduler()
 137:c:\users\niels\documents\github\dsp\software\stm32basis\hal\gemeenschappelijk\third_party\freertos-addons-1.1.0\c++\source\include\thread.hpp ****         {
 138:c:\users\niels\documents\github\dsp\software\stm32basis\hal\gemeenschappelijk\third_party\freertos-addons-1.1.0\c++\source\include\thread.hpp ****             vTaskEndScheduler();
 139:c:\users\niels\documents\github\dsp\software\stm32basis\hal\gemeenschappelijk\third_party\freertos-addons-1.1.0\c++\source\include\thread.hpp ****             SchedulerActive = false;
 140:c:\users\niels\documents\github\dsp\software\stm32basis\hal\gemeenschappelijk\third_party\freertos-addons-1.1.0\c++\source\include\thread.hpp ****         }
 141:c:\users\niels\documents\github\dsp\software\stm32basis\hal\gemeenschappelijk\third_party\freertos-addons-1.1.0\c++\source\include\thread.hpp **** 
 142:c:\users\niels\documents\github\dsp\software\stm32basis\hal\gemeenschappelijk\third_party\freertos-addons-1.1.0\c++\source\include\thread.hpp **** #if (INCLUDE_vTaskSuspend == 1)
 143:c:\users\niels\documents\github\dsp\software\stm32basis\hal\gemeenschappelijk\third_party\freertos-addons-1.1.0\c++\source\include\thread.hpp ****         /**
 144:c:\users\niels\documents\github\dsp\software\stm32basis\hal\gemeenschappelijk\third_party\freertos-addons-1.1.0\c++\source\include\thread.hpp ****          *  Suspend this thread.
 145:c:\users\niels\documents\github\dsp\software\stm32basis\hal\gemeenschappelijk\third_party\freertos-addons-1.1.0\c++\source\include\thread.hpp ****          *
 146:c:\users\niels\documents\github\dsp\software\stm32basis\hal\gemeenschappelijk\third_party\freertos-addons-1.1.0\c++\source\include\thread.hpp ****          *  @note While a Thread can Suspend() itself, it cannot Resume() 
 147:c:\users\niels\documents\github\dsp\software\stm32basis\hal\gemeenschappelijk\third_party\freertos-addons-1.1.0\c++\source\include\thread.hpp ****          *  itself, becauseit's suspended.
 148:c:\users\niels\documents\github\dsp\software\stm32basis\hal\gemeenschappelijk\third_party\freertos-addons-1.1.0\c++\source\include\thread.hpp ****          */
 149:c:\users\niels\documents\github\dsp\software\stm32basis\hal\gemeenschappelijk\third_party\freertos-addons-1.1.0\c++\source\include\thread.hpp ****         inline void Suspend()
 150:c:\users\niels\documents\github\dsp\software\stm32basis\hal\gemeenschappelijk\third_party\freertos-addons-1.1.0\c++\source\include\thread.hpp ****         {
 151:c:\users\niels\documents\github\dsp\software\stm32basis\hal\gemeenschappelijk\third_party\freertos-addons-1.1.0\c++\source\include\thread.hpp ****             vTaskSuspend(GetHandle());
 152:c:\users\niels\documents\github\dsp\software\stm32basis\hal\gemeenschappelijk\third_party\freertos-addons-1.1.0\c++\source\include\thread.hpp ****         }
ARM GAS   			page 10


 153:c:\users\niels\documents\github\dsp\software\stm32basis\hal\gemeenschappelijk\third_party\freertos-addons-1.1.0\c++\source\include\thread.hpp **** 
 154:c:\users\niels\documents\github\dsp\software\stm32basis\hal\gemeenschappelijk\third_party\freertos-addons-1.1.0\c++\source\include\thread.hpp ****         /**
 155:c:\users\niels\documents\github\dsp\software\stm32basis\hal\gemeenschappelijk\third_party\freertos-addons-1.1.0\c++\source\include\thread.hpp ****          *  Resume a specific thread.
 156:c:\users\niels\documents\github\dsp\software\stm32basis\hal\gemeenschappelijk\third_party\freertos-addons-1.1.0\c++\source\include\thread.hpp ****          */
 157:c:\users\niels\documents\github\dsp\software\stm32basis\hal\gemeenschappelijk\third_party\freertos-addons-1.1.0\c++\source\include\thread.hpp ****         inline void Resume()
 158:c:\users\niels\documents\github\dsp\software\stm32basis\hal\gemeenschappelijk\third_party\freertos-addons-1.1.0\c++\source\include\thread.hpp ****         {
 159:c:\users\niels\documents\github\dsp\software\stm32basis\hal\gemeenschappelijk\third_party\freertos-addons-1.1.0\c++\source\include\thread.hpp ****             vTaskResume(GetHandle());
 160:c:\users\niels\documents\github\dsp\software\stm32basis\hal\gemeenschappelijk\third_party\freertos-addons-1.1.0\c++\source\include\thread.hpp ****         }
 161:c:\users\niels\documents\github\dsp\software\stm32basis\hal\gemeenschappelijk\third_party\freertos-addons-1.1.0\c++\source\include\thread.hpp **** #endif
 162:c:\users\niels\documents\github\dsp\software\stm32basis\hal\gemeenschappelijk\third_party\freertos-addons-1.1.0\c++\source\include\thread.hpp **** 
 163:c:\users\niels\documents\github\dsp\software\stm32basis\hal\gemeenschappelijk\third_party\freertos-addons-1.1.0\c++\source\include\thread.hpp **** #if (INCLUDE_xTaskResumeFromISR == 1)
 164:c:\users\niels\documents\github\dsp\software\stm32basis\hal\gemeenschappelijk\third_party\freertos-addons-1.1.0\c++\source\include\thread.hpp ****         /**
 165:c:\users\niels\documents\github\dsp\software\stm32basis\hal\gemeenschappelijk\third_party\freertos-addons-1.1.0\c++\source\include\thread.hpp ****          *  Resume a specific thread from ISR context.
 166:c:\users\niels\documents\github\dsp\software\stm32basis\hal\gemeenschappelijk\third_party\freertos-addons-1.1.0\c++\source\include\thread.hpp ****          */
 167:c:\users\niels\documents\github\dsp\software\stm32basis\hal\gemeenschappelijk\third_party\freertos-addons-1.1.0\c++\source\include\thread.hpp ****         inline void ResumeFromISR()
 168:c:\users\niels\documents\github\dsp\software\stm32basis\hal\gemeenschappelijk\third_party\freertos-addons-1.1.0\c++\source\include\thread.hpp ****         {
 169:c:\users\niels\documents\github\dsp\software\stm32basis\hal\gemeenschappelijk\third_party\freertos-addons-1.1.0\c++\source\include\thread.hpp ****             xTaskResumeFromISR(GetHandle());
 170:c:\users\niels\documents\github\dsp\software\stm32basis\hal\gemeenschappelijk\third_party\freertos-addons-1.1.0\c++\source\include\thread.hpp ****         }
 171:c:\users\niels\documents\github\dsp\software\stm32basis\hal\gemeenschappelijk\third_party\freertos-addons-1.1.0\c++\source\include\thread.hpp **** #endif
 172:c:\users\niels\documents\github\dsp\software\stm32basis\hal\gemeenschappelijk\third_party\freertos-addons-1.1.0\c++\source\include\thread.hpp **** 
 173:c:\users\niels\documents\github\dsp\software\stm32basis\hal\gemeenschappelijk\third_party\freertos-addons-1.1.0\c++\source\include\thread.hpp **** #if (INCLUDE_uxTaskPriorityGet == 1)
 174:c:\users\niels\documents\github\dsp\software\stm32basis\hal\gemeenschappelijk\third_party\freertos-addons-1.1.0\c++\source\include\thread.hpp ****         /**
 175:c:\users\niels\documents\github\dsp\software\stm32basis\hal\gemeenschappelijk\third_party\freertos-addons-1.1.0\c++\source\include\thread.hpp ****          *  Get the priority of this Thread.
 176:c:\users\niels\documents\github\dsp\software\stm32basis\hal\gemeenschappelijk\third_party\freertos-addons-1.1.0\c++\source\include\thread.hpp ****          *
 177:c:\users\niels\documents\github\dsp\software\stm32basis\hal\gemeenschappelijk\third_party\freertos-addons-1.1.0\c++\source\include\thread.hpp ****          *  @return Priority at the time this was called.
 178:c:\users\niels\documents\github\dsp\software\stm32basis\hal\gemeenschappelijk\third_party\freertos-addons-1.1.0\c++\source\include\thread.hpp ****          */
 179:c:\users\niels\documents\github\dsp\software\stm32basis\hal\gemeenschappelijk\third_party\freertos-addons-1.1.0\c++\source\include\thread.hpp ****         inline UBaseType_t GetPriority()
 130              	 .loc 2 179 28
 131              	 .cfi_startproc
 132              	 
 133              	 
 134 0000 80B5     	 push {r7,lr}
 135              	 .cfi_def_cfa_offset 8
 136              	 .cfi_offset 7,-8
 137              	 .cfi_offset 14,-4
 138 0002 82B0     	 sub sp,sp,#8
 139              	 .cfi_def_cfa_offset 16
 140 0004 00AF     	 add r7,sp,#0
 141              	 .cfi_def_cfa_register 7
 142 0006 7860     	 str r0,[r7,#4]
 180:c:\users\niels\documents\github\dsp\software\stm32basis\hal\gemeenschappelijk\third_party\freertos-addons-1.1.0\c++\source\include\thread.hpp ****         {
 181:c:\users\niels\documents\github\dsp\software\stm32basis\hal\gemeenschappelijk\third_party\freertos-addons-1.1.0\c++\source\include\thread.hpp ****             return (uxTaskPriorityGet(GetHandle()));
 143              	 .loc 2 181 38
 144 0008 7868     	 ldr r0,[r7,#4]
 145 000a FFF7FEFF 	 bl _ZN12cpp_freertos6Thread9GetHandleEv
 146 000e 0346     	 mov r3,r0
 147 0010 1846     	 mov r0,r3
 148 0012 FFF7FEFF 	 bl uxTaskPriorityGet
 149 0016 0346     	 mov r3,r0
 182:c:\users\niels\documents\github\dsp\software\stm32basis\hal\gemeenschappelijk\third_party\freertos-addons-1.1.0\c++\source\include\thread.hpp ****         }
 150              	 .loc 2 182 9
 151 0018 1846     	 mov r0,r3
 152 001a 0837     	 adds r7,r7,#8
 153              	 .cfi_def_cfa_offset 8
 154 001c BD46     	 mov sp,r7
 155              	 .cfi_def_cfa_register 13
 156              	 
ARM GAS   			page 11


 157 001e 80BD     	 pop {r7,pc}
 158              	 .cfi_endproc
 159              	.LFE1271:
 160              	 .size _ZN12cpp_freertos6Thread11GetPriorityEv,.-_ZN12cpp_freertos6Thread11GetPriorityEv
 161              	 .section .text._ZN12cpp_freertos6Thread5DelayEm,"axG",%progbits,_ZN12cpp_freertos6Thread5DelayEm,comdat
 162              	 .align 1
 163              	 .weak _ZN12cpp_freertos6Thread5DelayEm
 164              	 .syntax unified
 165              	 .thumb
 166              	 .thumb_func
 167              	 .type _ZN12cpp_freertos6Thread5DelayEm,%function
 168              	_ZN12cpp_freertos6Thread5DelayEm:
 169              	.LFB1275:
 183:c:\users\niels\documents\github\dsp\software\stm32basis\hal\gemeenschappelijk\third_party\freertos-addons-1.1.0\c++\source\include\thread.hpp **** 
 184:c:\users\niels\documents\github\dsp\software\stm32basis\hal\gemeenschappelijk\third_party\freertos-addons-1.1.0\c++\source\include\thread.hpp ****         /**
 185:c:\users\niels\documents\github\dsp\software\stm32basis\hal\gemeenschappelijk\third_party\freertos-addons-1.1.0\c++\source\include\thread.hpp ****          *  Get the priority of this Thread from ISR context.
 186:c:\users\niels\documents\github\dsp\software\stm32basis\hal\gemeenschappelijk\third_party\freertos-addons-1.1.0\c++\source\include\thread.hpp ****          *
 187:c:\users\niels\documents\github\dsp\software\stm32basis\hal\gemeenschappelijk\third_party\freertos-addons-1.1.0\c++\source\include\thread.hpp ****          *  @return Priority at the time this was called.
 188:c:\users\niels\documents\github\dsp\software\stm32basis\hal\gemeenschappelijk\third_party\freertos-addons-1.1.0\c++\source\include\thread.hpp ****          */
 189:c:\users\niels\documents\github\dsp\software\stm32basis\hal\gemeenschappelijk\third_party\freertos-addons-1.1.0\c++\source\include\thread.hpp ****         inline UBaseType_t GetPriorityFromISR()
 190:c:\users\niels\documents\github\dsp\software\stm32basis\hal\gemeenschappelijk\third_party\freertos-addons-1.1.0\c++\source\include\thread.hpp ****         {
 191:c:\users\niels\documents\github\dsp\software\stm32basis\hal\gemeenschappelijk\third_party\freertos-addons-1.1.0\c++\source\include\thread.hpp ****             return (uxTaskPriorityGetFromISR(GetHandle()));
 192:c:\users\niels\documents\github\dsp\software\stm32basis\hal\gemeenschappelijk\third_party\freertos-addons-1.1.0\c++\source\include\thread.hpp ****         }
 193:c:\users\niels\documents\github\dsp\software\stm32basis\hal\gemeenschappelijk\third_party\freertos-addons-1.1.0\c++\source\include\thread.hpp **** #endif
 194:c:\users\niels\documents\github\dsp\software\stm32basis\hal\gemeenschappelijk\third_party\freertos-addons-1.1.0\c++\source\include\thread.hpp **** 
 195:c:\users\niels\documents\github\dsp\software\stm32basis\hal\gemeenschappelijk\third_party\freertos-addons-1.1.0\c++\source\include\thread.hpp **** 
 196:c:\users\niels\documents\github\dsp\software\stm32basis\hal\gemeenschappelijk\third_party\freertos-addons-1.1.0\c++\source\include\thread.hpp **** #if (INCLUDE_vTaskPrioritySet == 1)
 197:c:\users\niels\documents\github\dsp\software\stm32basis\hal\gemeenschappelijk\third_party\freertos-addons-1.1.0\c++\source\include\thread.hpp ****         /**
 198:c:\users\niels\documents\github\dsp\software\stm32basis\hal\gemeenschappelijk\third_party\freertos-addons-1.1.0\c++\source\include\thread.hpp ****          *  Set the priority of this thread.
 199:c:\users\niels\documents\github\dsp\software\stm32basis\hal\gemeenschappelijk\third_party\freertos-addons-1.1.0\c++\source\include\thread.hpp ****          *
 200:c:\users\niels\documents\github\dsp\software\stm32basis\hal\gemeenschappelijk\third_party\freertos-addons-1.1.0\c++\source\include\thread.hpp ****          *  @param NewPriority The thread's new priority.
 201:c:\users\niels\documents\github\dsp\software\stm32basis\hal\gemeenschappelijk\third_party\freertos-addons-1.1.0\c++\source\include\thread.hpp ****          */
 202:c:\users\niels\documents\github\dsp\software\stm32basis\hal\gemeenschappelijk\third_party\freertos-addons-1.1.0\c++\source\include\thread.hpp ****         inline void SetPriority(UBaseType_t NewPriority)
 203:c:\users\niels\documents\github\dsp\software\stm32basis\hal\gemeenschappelijk\third_party\freertos-addons-1.1.0\c++\source\include\thread.hpp ****         {
 204:c:\users\niels\documents\github\dsp\software\stm32basis\hal\gemeenschappelijk\third_party\freertos-addons-1.1.0\c++\source\include\thread.hpp ****             Priority = NewPriority;
 205:c:\users\niels\documents\github\dsp\software\stm32basis\hal\gemeenschappelijk\third_party\freertos-addons-1.1.0\c++\source\include\thread.hpp ****             vTaskPrioritySet(GetHandle(), NewPriority);
 206:c:\users\niels\documents\github\dsp\software\stm32basis\hal\gemeenschappelijk\third_party\freertos-addons-1.1.0\c++\source\include\thread.hpp ****         }
 207:c:\users\niels\documents\github\dsp\software\stm32basis\hal\gemeenschappelijk\third_party\freertos-addons-1.1.0\c++\source\include\thread.hpp **** #endif
 208:c:\users\niels\documents\github\dsp\software\stm32basis\hal\gemeenschappelijk\third_party\freertos-addons-1.1.0\c++\source\include\thread.hpp **** 
 209:c:\users\niels\documents\github\dsp\software\stm32basis\hal\gemeenschappelijk\third_party\freertos-addons-1.1.0\c++\source\include\thread.hpp ****         /**
 210:c:\users\niels\documents\github\dsp\software\stm32basis\hal\gemeenschappelijk\third_party\freertos-addons-1.1.0\c++\source\include\thread.hpp ****          *  Get the name of this thread.
 211:c:\users\niels\documents\github\dsp\software\stm32basis\hal\gemeenschappelijk\third_party\freertos-addons-1.1.0\c++\source\include\thread.hpp ****          *
 212:c:\users\niels\documents\github\dsp\software\stm32basis\hal\gemeenschappelijk\third_party\freertos-addons-1.1.0\c++\source\include\thread.hpp ****          *  @return a C++ string with the name of the task.
 213:c:\users\niels\documents\github\dsp\software\stm32basis\hal\gemeenschappelijk\third_party\freertos-addons-1.1.0\c++\source\include\thread.hpp ****          */
 214:c:\users\niels\documents\github\dsp\software\stm32basis\hal\gemeenschappelijk\third_party\freertos-addons-1.1.0\c++\source\include\thread.hpp ****         inline std::string GetName()
 215:c:\users\niels\documents\github\dsp\software\stm32basis\hal\gemeenschappelijk\third_party\freertos-addons-1.1.0\c++\source\include\thread.hpp ****         {
 216:c:\users\niels\documents\github\dsp\software\stm32basis\hal\gemeenschappelijk\third_party\freertos-addons-1.1.0\c++\source\include\thread.hpp ****             return Name;
 217:c:\users\niels\documents\github\dsp\software\stm32basis\hal\gemeenschappelijk\third_party\freertos-addons-1.1.0\c++\source\include\thread.hpp ****         }
 218:c:\users\niels\documents\github\dsp\software\stm32basis\hal\gemeenschappelijk\third_party\freertos-addons-1.1.0\c++\source\include\thread.hpp **** 
 219:c:\users\niels\documents\github\dsp\software\stm32basis\hal\gemeenschappelijk\third_party\freertos-addons-1.1.0\c++\source\include\thread.hpp **** 
 220:c:\users\niels\documents\github\dsp\software\stm32basis\hal\gemeenschappelijk\third_party\freertos-addons-1.1.0\c++\source\include\thread.hpp ****     /////////////////////////////////////////////////////////////////////////
 221:c:\users\niels\documents\github\dsp\software\stm32basis\hal\gemeenschappelijk\third_party\freertos-addons-1.1.0\c++\source\include\thread.hpp ****     //
 222:c:\users\niels\documents\github\dsp\software\stm32basis\hal\gemeenschappelijk\third_party\freertos-addons-1.1.0\c++\source\include\thread.hpp ****     //  Protected API
 223:c:\users\niels\documents\github\dsp\software\stm32basis\hal\gemeenschappelijk\third_party\freertos-addons-1.1.0\c++\source\include\thread.hpp ****     //  Available from inside your Thread implementation.
 224:c:\users\niels\documents\github\dsp\software\stm32basis\hal\gemeenschappelijk\third_party\freertos-addons-1.1.0\c++\source\include\thread.hpp ****     //  You should make sure that you are only calling these methods
 225:c:\users\niels\documents\github\dsp\software\stm32basis\hal\gemeenschappelijk\third_party\freertos-addons-1.1.0\c++\source\include\thread.hpp ****     //  from within your Run() method, or that your Run() method is on the
 226:c:\users\niels\documents\github\dsp\software\stm32basis\hal\gemeenschappelijk\third_party\freertos-addons-1.1.0\c++\source\include\thread.hpp ****     //  callstack.
ARM GAS   			page 12


 227:c:\users\niels\documents\github\dsp\software\stm32basis\hal\gemeenschappelijk\third_party\freertos-addons-1.1.0\c++\source\include\thread.hpp ****     //
 228:c:\users\niels\documents\github\dsp\software\stm32basis\hal\gemeenschappelijk\third_party\freertos-addons-1.1.0\c++\source\include\thread.hpp ****     /////////////////////////////////////////////////////////////////////////
 229:c:\users\niels\documents\github\dsp\software\stm32basis\hal\gemeenschappelijk\third_party\freertos-addons-1.1.0\c++\source\include\thread.hpp ****     protected:
 230:c:\users\niels\documents\github\dsp\software\stm32basis\hal\gemeenschappelijk\third_party\freertos-addons-1.1.0\c++\source\include\thread.hpp ****         /**
 231:c:\users\niels\documents\github\dsp\software\stm32basis\hal\gemeenschappelijk\third_party\freertos-addons-1.1.0\c++\source\include\thread.hpp ****          *  Implementation of your actual thread code.
 232:c:\users\niels\documents\github\dsp\software\stm32basis\hal\gemeenschappelijk\third_party\freertos-addons-1.1.0\c++\source\include\thread.hpp ****          *  You must override this function.
 233:c:\users\niels\documents\github\dsp\software\stm32basis\hal\gemeenschappelijk\third_party\freertos-addons-1.1.0\c++\source\include\thread.hpp ****          *  @note If INCLUDE_vTaskDelete is defined, then you may return from
 234:c:\users\niels\documents\github\dsp\software\stm32basis\hal\gemeenschappelijk\third_party\freertos-addons-1.1.0\c++\source\include\thread.hpp ****          *  your Run method. This will cause the task to be deleted from
 235:c:\users\niels\documents\github\dsp\software\stm32basis\hal\gemeenschappelijk\third_party\freertos-addons-1.1.0\c++\source\include\thread.hpp ****          *  FreeRTOS, however you are still responsible to delete the
 236:c:\users\niels\documents\github\dsp\software\stm32basis\hal\gemeenschappelijk\third_party\freertos-addons-1.1.0\c++\source\include\thread.hpp ****          *  task object. If this is not defined, then retuning from your Run()
 237:c:\users\niels\documents\github\dsp\software\stm32basis\hal\gemeenschappelijk\third_party\freertos-addons-1.1.0\c++\source\include\thread.hpp ****          *  method will result in an assert.
 238:c:\users\niels\documents\github\dsp\software\stm32basis\hal\gemeenschappelijk\third_party\freertos-addons-1.1.0\c++\source\include\thread.hpp ****          */
 239:c:\users\niels\documents\github\dsp\software\stm32basis\hal\gemeenschappelijk\third_party\freertos-addons-1.1.0\c++\source\include\thread.hpp ****         virtual void Run() = 0;
 240:c:\users\niels\documents\github\dsp\software\stm32basis\hal\gemeenschappelijk\third_party\freertos-addons-1.1.0\c++\source\include\thread.hpp **** 
 241:c:\users\niels\documents\github\dsp\software\stm32basis\hal\gemeenschappelijk\third_party\freertos-addons-1.1.0\c++\source\include\thread.hpp **** #if (INCLUDE_vTaskDelete == 1)
 242:c:\users\niels\documents\github\dsp\software\stm32basis\hal\gemeenschappelijk\third_party\freertos-addons-1.1.0\c++\source\include\thread.hpp ****         /**
 243:c:\users\niels\documents\github\dsp\software\stm32basis\hal\gemeenschappelijk\third_party\freertos-addons-1.1.0\c++\source\include\thread.hpp ****          *  Called on exit from your Run() routine. 
 244:c:\users\niels\documents\github\dsp\software\stm32basis\hal\gemeenschappelijk\third_party\freertos-addons-1.1.0\c++\source\include\thread.hpp ****          *  
 245:c:\users\niels\documents\github\dsp\software\stm32basis\hal\gemeenschappelijk\third_party\freertos-addons-1.1.0\c++\source\include\thread.hpp ****          *  It is optional whether you implement this or not.
 246:c:\users\niels\documents\github\dsp\software\stm32basis\hal\gemeenschappelijk\third_party\freertos-addons-1.1.0\c++\source\include\thread.hpp ****          *
 247:c:\users\niels\documents\github\dsp\software\stm32basis\hal\gemeenschappelijk\third_party\freertos-addons-1.1.0\c++\source\include\thread.hpp ****          *  If you allow your Thread to exit its Run method, 
 248:c:\users\niels\documents\github\dsp\software\stm32basis\hal\gemeenschappelijk\third_party\freertos-addons-1.1.0\c++\source\include\thread.hpp ****          *  implementing a Cleanup method allows you to call 
 249:c:\users\niels\documents\github\dsp\software\stm32basis\hal\gemeenschappelijk\third_party\freertos-addons-1.1.0\c++\source\include\thread.hpp ****          *  your Thread's destructor. If you decide to call delete
 250:c:\users\niels\documents\github\dsp\software\stm32basis\hal\gemeenschappelijk\third_party\freertos-addons-1.1.0\c++\source\include\thread.hpp ****          *  in your Cleanup function, be aware that additional 
 251:c:\users\niels\documents\github\dsp\software\stm32basis\hal\gemeenschappelijk\third_party\freertos-addons-1.1.0\c++\source\include\thread.hpp ****          *  derived classes shouldn't call delete. 
 252:c:\users\niels\documents\github\dsp\software\stm32basis\hal\gemeenschappelijk\third_party\freertos-addons-1.1.0\c++\source\include\thread.hpp ****          */ 
 253:c:\users\niels\documents\github\dsp\software\stm32basis\hal\gemeenschappelijk\third_party\freertos-addons-1.1.0\c++\source\include\thread.hpp ****         virtual void Cleanup();
 254:c:\users\niels\documents\github\dsp\software\stm32basis\hal\gemeenschappelijk\third_party\freertos-addons-1.1.0\c++\source\include\thread.hpp **** #else
 255:c:\users\niels\documents\github\dsp\software\stm32basis\hal\gemeenschappelijk\third_party\freertos-addons-1.1.0\c++\source\include\thread.hpp ****         /**
 256:c:\users\niels\documents\github\dsp\software\stm32basis\hal\gemeenschappelijk\third_party\freertos-addons-1.1.0\c++\source\include\thread.hpp ****          *  If we can't delete a task, it makes no sense to have a
 257:c:\users\niels\documents\github\dsp\software\stm32basis\hal\gemeenschappelijk\third_party\freertos-addons-1.1.0\c++\source\include\thread.hpp ****          *  Cleanup routine.
 258:c:\users\niels\documents\github\dsp\software\stm32basis\hal\gemeenschappelijk\third_party\freertos-addons-1.1.0\c++\source\include\thread.hpp ****          */
 259:c:\users\niels\documents\github\dsp\software\stm32basis\hal\gemeenschappelijk\third_party\freertos-addons-1.1.0\c++\source\include\thread.hpp **** #endif
 260:c:\users\niels\documents\github\dsp\software\stm32basis\hal\gemeenschappelijk\third_party\freertos-addons-1.1.0\c++\source\include\thread.hpp **** 
 261:c:\users\niels\documents\github\dsp\software\stm32basis\hal\gemeenschappelijk\third_party\freertos-addons-1.1.0\c++\source\include\thread.hpp **** #if (INCLUDE_vTaskDelay == 1)
 262:c:\users\niels\documents\github\dsp\software\stm32basis\hal\gemeenschappelijk\third_party\freertos-addons-1.1.0\c++\source\include\thread.hpp ****         /**
 263:c:\users\niels\documents\github\dsp\software\stm32basis\hal\gemeenschappelijk\third_party\freertos-addons-1.1.0\c++\source\include\thread.hpp ****          *  Delay this thread for at least Delay ticks.
 264:c:\users\niels\documents\github\dsp\software\stm32basis\hal\gemeenschappelijk\third_party\freertos-addons-1.1.0\c++\source\include\thread.hpp ****          *
 265:c:\users\niels\documents\github\dsp\software\stm32basis\hal\gemeenschappelijk\third_party\freertos-addons-1.1.0\c++\source\include\thread.hpp ****          *  @param Delay How long to delay the thread.
 266:c:\users\niels\documents\github\dsp\software\stm32basis\hal\gemeenschappelijk\third_party\freertos-addons-1.1.0\c++\source\include\thread.hpp ****          */
 267:c:\users\niels\documents\github\dsp\software\stm32basis\hal\gemeenschappelijk\third_party\freertos-addons-1.1.0\c++\source\include\thread.hpp ****         void inline Delay(const TickType_t Delay)
 170              	 .loc 2 267 21
 171              	 .cfi_startproc
 172              	 
 173              	 
 174 0000 80B5     	 push {r7,lr}
 175              	 .cfi_def_cfa_offset 8
 176              	 .cfi_offset 7,-8
 177              	 .cfi_offset 14,-4
 178 0002 82B0     	 sub sp,sp,#8
 179              	 .cfi_def_cfa_offset 16
 180 0004 00AF     	 add r7,sp,#0
 181              	 .cfi_def_cfa_register 7
 182 0006 7860     	 str r0,[r7,#4]
 183 0008 3960     	 str r1,[r7]
 268:c:\users\niels\documents\github\dsp\software\stm32basis\hal\gemeenschappelijk\third_party\freertos-addons-1.1.0\c++\source\include\thread.hpp ****         {
 269:c:\users\niels\documents\github\dsp\software\stm32basis\hal\gemeenschappelijk\third_party\freertos-addons-1.1.0\c++\source\include\thread.hpp ****             vTaskDelay(Delay);
ARM GAS   			page 13


 184              	 .loc 2 269 23
 185 000a 3868     	 ldr r0,[r7]
 186 000c FFF7FEFF 	 bl vTaskDelay
 270:c:\users\niels\documents\github\dsp\software\stm32basis\hal\gemeenschappelijk\third_party\freertos-addons-1.1.0\c++\source\include\thread.hpp ****         }
 187              	 .loc 2 270 9
 188 0010 00BF     	 nop
 189 0012 0837     	 adds r7,r7,#8
 190              	 .cfi_def_cfa_offset 8
 191 0014 BD46     	 mov sp,r7
 192              	 .cfi_def_cfa_register 13
 193              	 
 194 0016 80BD     	 pop {r7,pc}
 195              	 .cfi_endproc
 196              	.LFE1275:
 197              	 .size _ZN12cpp_freertos6Thread5DelayEm,.-_ZN12cpp_freertos6Thread5DelayEm
 198              	 .section .text._ZN7StdTaakC2ERKNSt7__cxx1112basic_stringIcSt11char_traitsIcESaIcEEEt8TaakPrio,"ax",%progbits
 199              	 .align 1
 200              	 .global _ZN7StdTaakC2ERKNSt7__cxx1112basic_stringIcSt11char_traitsIcESaIcEEEt8TaakPrio
 201              	 .syntax unified
 202              	 .thumb
 203              	 .thumb_func
 204              	 .type _ZN7StdTaakC2ERKNSt7__cxx1112basic_stringIcSt11char_traitsIcESaIcEEEt8TaakPrio,%function
 205              	_ZN7StdTaakC2ERKNSt7__cxx1112basic_stringIcSt11char_traitsIcESaIcEEEt8TaakPrio:
 206              	.LFB1298:
 207              	 .file 3 "C:\\Users\\niels\\Documents\\GitHub\\DSP\\software\\STM32Basis\\gemeenschappelijk\\ESEFreeRTOS\\stdTaak.cpp"
   1:C:\Users\niels\Documents\GitHub\DSP\software\STM32Basis\gemeenschappelijk\ESEFreeRTOS\stdTaak.cpp **** /*!
   2:C:\Users\niels\Documents\GitHub\DSP\software\STM32Basis\gemeenschappelijk\ESEFreeRTOS\stdTaak.cpp **** @file
   3:C:\Users\niels\Documents\GitHub\DSP\software\STM32Basis\gemeenschappelijk\ESEFreeRTOS\stdTaak.cpp **** Implementatie van de c++ schil voor gebruik van de FreeRTOS
   4:C:\Users\niels\Documents\GitHub\DSP\software\STM32Basis\gemeenschappelijk\ESEFreeRTOS\stdTaak.cpp **** @version $Rev: 2892 $
   5:C:\Users\niels\Documents\GitHub\DSP\software\STM32Basis\gemeenschappelijk\ESEFreeRTOS\stdTaak.cpp **** @author $Author: ewout $
   6:C:\Users\niels\Documents\GitHub\DSP\software\STM32Basis\gemeenschappelijk\ESEFreeRTOS\stdTaak.cpp **** 
   7:C:\Users\niels\Documents\GitHub\DSP\software\STM32Basis\gemeenschappelijk\ESEFreeRTOS\stdTaak.cpp **** @copyright Copyright 2017-2018 Hogeschool van Arnhem en Nijmegen, ir drs E.J Boks
   8:C:\Users\niels\Documents\GitHub\DSP\software\STM32Basis\gemeenschappelijk\ESEFreeRTOS\stdTaak.cpp **** 
   9:C:\Users\niels\Documents\GitHub\DSP\software\STM32Basis\gemeenschappelijk\ESEFreeRTOS\stdTaak.cpp **** $URL: http://svn.hanese.nl/docenten/svn/ewout/vakken/algemeen/software/STM32/STM32Basis/HAL/gemeens
  10:C:\Users\niels\Documents\GitHub\DSP\software\STM32Basis\gemeenschappelijk\ESEFreeRTOS\stdTaak.cpp **** $Id: ESEBoardController.h 2892 2018-02-27 19:33:20Z ewout $
  11:C:\Users\niels\Documents\GitHub\DSP\software\STM32Basis\gemeenschappelijk\ESEFreeRTOS\stdTaak.cpp **** ************************************************************************/
  12:C:\Users\niels\Documents\GitHub\DSP\software\STM32Basis\gemeenschappelijk\ESEFreeRTOS\stdTaak.cpp **** #include <algdef.h>
  13:C:\Users\niels\Documents\GitHub\DSP\software\STM32Basis\gemeenschappelijk\ESEFreeRTOS\stdTaak.cpp **** #include <stdTaak.h>
  14:C:\Users\niels\Documents\GitHub\DSP\software\STM32Basis\gemeenschappelijk\ESEFreeRTOS\stdTaak.cpp **** 
  15:C:\Users\niels\Documents\GitHub\DSP\software\STM32Basis\gemeenschappelijk\ESEFreeRTOS\stdTaak.cpp **** StdTaak::StdTaak(const std::string &naam,
 208              	 .loc 3 15 1
 209              	 .cfi_startproc
 210              	 
 211              	 
 212 0000 80B5     	 push {r7,lr}
 213              	 .cfi_def_cfa_offset 8
 214              	 .cfi_offset 7,-8
 215              	 .cfi_offset 14,-4
 216 0002 84B0     	 sub sp,sp,#16
 217              	 .cfi_def_cfa_offset 24
 218 0004 00AF     	 add r7,sp,#0
 219              	 .cfi_def_cfa_register 7
 220 0006 F860     	 str r0,[r7,#12]
 221 0008 B960     	 str r1,[r7,#8]
 222 000a 3B60     	 str r3,[r7]
 223 000c 1346     	 mov r3,r2
 224 000e FB80     	 strh r3,[r7,#6]
ARM GAS   			page 14


 225              	.LBB2:
  16:C:\Users\niels\Documents\GitHub\DSP\software\STM32Basis\gemeenschappelijk\ESEFreeRTOS\stdTaak.cpp ****                  const UInt16 stackGrootte,
  17:C:\Users\niels\Documents\GitHub\DSP\software\STM32Basis\gemeenschappelijk\ESEFreeRTOS\stdTaak.cpp ****                  const TaakPrio prioriteit) : Thread(naam, stackGrootte,
  18:C:\Users\niels\Documents\GitHub\DSP\software\STM32Basis\gemeenschappelijk\ESEFreeRTOS\stdTaak.cpp **** 													 static_cast<UInt32>(prioriteit)),
  19:C:\Users\niels\Documents\GitHub\DSP\software\STM32Basis\gemeenschappelijk\ESEFreeRTOS\stdTaak.cpp ****                                               brievenbus(QueueAantal,
  20:C:\Users\niels\Documents\GitHub\DSP\software\STM32Basis\gemeenschappelijk\ESEFreeRTOS\stdTaak.cpp **** 														 QueueMsgGrootte)
 226              	 .loc 3 20 31
 227 0010 F868     	 ldr r0,[r7,#12]
 228 0012 3B68     	 ldr r3,[r7]
 229 0014 FA88     	 ldrh r2,[r7,#6]
 230 0016 B968     	 ldr r1,[r7,#8]
 231 0018 FFF7FEFF 	 bl _ZN12cpp_freertos6ThreadC2ERKNSt7__cxx1112basic_stringIcSt11char_traitsIcESaIcEEEtm
 232 001c 0B4A     	 ldr r2,.L10
 233 001e FB68     	 ldr r3,[r7,#12]
 234 0020 1A60     	 str r2,[r3]
 235 0022 FB68     	 ldr r3,[r7,#12]
 236 0024 2C33     	 adds r3,r3,#44
 237 0026 1846     	 mov r0,r3
 238 0028 FFF7FEFF 	 bl _ZN10StdTaakMsgILj16EEC1Ev
 239 002c FB68     	 ldr r3,[r7,#12]
 240 002e 7833     	 adds r3,r3,#120
 241 0030 4C22     	 movs r2,#76
 242 0032 1821     	 movs r1,#24
 243 0034 1846     	 mov r0,r3
 244 0036 FFF7FEFF 	 bl _ZN12cpp_freertos5DequeC1Emm
  21:C:\Users\niels\Documents\GitHub\DSP\software\STM32Basis\gemeenschappelijk\ESEFreeRTOS\stdTaak.cpp **** {
  22:C:\Users\niels\Documents\GitHub\DSP\software\STM32Basis\gemeenschappelijk\ESEFreeRTOS\stdTaak.cpp **** 	registreer(this,prioriteit);
 245              	 .loc 3 22 12
 246 003a 3968     	 ldr r1,[r7]
 247 003c F868     	 ldr r0,[r7,#12]
 248 003e FFF7FEFF 	 bl _ZN7StdTaak10registreerEPS_8TaakPrio
 249              	.LBE2:
  23:C:\Users\niels\Documents\GitHub\DSP\software\STM32Basis\gemeenschappelijk\ESEFreeRTOS\stdTaak.cpp **** }
 250              	 .loc 3 23 1
 251 0042 FB68     	 ldr r3,[r7,#12]
 252 0044 1846     	 mov r0,r3
 253 0046 1037     	 adds r7,r7,#16
 254              	 .cfi_def_cfa_offset 8
 255 0048 BD46     	 mov sp,r7
 256              	 .cfi_def_cfa_register 13
 257              	 
 258 004a 80BD     	 pop {r7,pc}
 259              	.L11:
 260              	 .align 2
 261              	.L10:
 262 004c 08000000 	 .word _ZTV7StdTaak+8
 263              	 .cfi_endproc
 264              	.LFE1298:
 265              	 .size _ZN7StdTaakC2ERKNSt7__cxx1112basic_stringIcSt11char_traitsIcESaIcEEEt8TaakPrio,.-_ZN7StdTaakC2ERKNSt7__cxx1112basic_stringIcSt11char_traitsIcESaIcEEEt8TaakPrio
 266              	 .global _ZN7StdTaakC1ERKNSt7__cxx1112basic_stringIcSt11char_traitsIcESaIcEEEt8TaakPrio
 267              	 .thumb_set _ZN7StdTaakC1ERKNSt7__cxx1112basic_stringIcSt11char_traitsIcESaIcEEEt8TaakPrio,_ZN7StdTaakC2ERKNSt7__cxx1112basic_stringIcSt11char_traitsIcESaIcEEEt8TaakPrio
 268              	 .section .text._ZN7StdTaak14geefPrioriteitEv,"ax",%progbits
 269              	 .align 1
 270              	 .global _ZN7StdTaak14geefPrioriteitEv
 271              	 .syntax unified
 272              	 .thumb
 273              	 .thumb_func
ARM GAS   			page 15


 274              	 .type _ZN7StdTaak14geefPrioriteitEv,%function
 275              	_ZN7StdTaak14geefPrioriteitEv:
 276              	.LFB1300:
  24:C:\Users\niels\Documents\GitHub\DSP\software\STM32Basis\gemeenschappelijk\ESEFreeRTOS\stdTaak.cpp **** 
  25:C:\Users\niels\Documents\GitHub\DSP\software\STM32Basis\gemeenschappelijk\ESEFreeRTOS\stdTaak.cpp **** TaakPrio StdTaak::geefPrioriteit()
  26:C:\Users\niels\Documents\GitHub\DSP\software\STM32Basis\gemeenschappelijk\ESEFreeRTOS\stdTaak.cpp **** {
 277              	 .loc 3 26 1
 278              	 .cfi_startproc
 279              	 
 280              	 
 281 0000 80B5     	 push {r7,lr}
 282              	 .cfi_def_cfa_offset 8
 283              	 .cfi_offset 7,-8
 284              	 .cfi_offset 14,-4
 285 0002 84B0     	 sub sp,sp,#16
 286              	 .cfi_def_cfa_offset 24
 287 0004 00AF     	 add r7,sp,#0
 288              	 .cfi_def_cfa_register 7
 289 0006 7860     	 str r0,[r7,#4]
  27:C:\Users\niels\Documents\GitHub\DSP\software\STM32Basis\gemeenschappelijk\ESEFreeRTOS\stdTaak.cpp **** 	const auto prio = static_cast<TaakPrio>(GetPriority());
 290              	 .loc 3 27 53
 291 0008 7B68     	 ldr r3,[r7,#4]
 292 000a 1846     	 mov r0,r3
 293 000c FFF7FEFF 	 bl _ZN12cpp_freertos6Thread11GetPriorityEv
 294 0010 0346     	 mov r3,r0
 295              	 .loc 3 27 55
 296 0012 FB60     	 str r3,[r7,#12]
  28:C:\Users\niels\Documents\GitHub\DSP\software\STM32Basis\gemeenschappelijk\ESEFreeRTOS\stdTaak.cpp **** 	return(prio);
 297              	 .loc 3 28 13
 298 0014 FB68     	 ldr r3,[r7,#12]
  29:C:\Users\niels\Documents\GitHub\DSP\software\STM32Basis\gemeenschappelijk\ESEFreeRTOS\stdTaak.cpp **** }
 299              	 .loc 3 29 1
 300 0016 1846     	 mov r0,r3
 301 0018 1037     	 adds r7,r7,#16
 302              	 .cfi_def_cfa_offset 8
 303 001a BD46     	 mov sp,r7
 304              	 .cfi_def_cfa_register 13
 305              	 
 306 001c 80BD     	 pop {r7,pc}
 307              	 .cfi_endproc
 308              	.LFE1300:
 309              	 .size _ZN7StdTaak14geefPrioriteitEv,.-_ZN7StdTaak14geefPrioriteitEv
 310              	 .global _ZN7StdTaak10takenIndexE
 311              	 .section .bss._ZN7StdTaak10takenIndexE,"aw",%nobits
 312              	 .align 2
 313              	 .type _ZN7StdTaak10takenIndexE,%object
 314              	 .size _ZN7StdTaak10takenIndexE,16
 315              	_ZN7StdTaak10takenIndexE:
 316 0000 00000000 	 .space 16
 316      00000000 
 316      00000000 
 316      00000000 
 317              	 .section .rodata
 318              	 .align 2
 319              	.LC0:
 320 0000 696E6465 	 .ascii "index < AantalTaken\000"
 320      78203C20 
ARM GAS   			page 16


 320      41616E74 
 320      616C5461 
 320      6B656E00 
 321              	 .align 2
 322              	.LC1:
 323 0014 73746174 	 .ascii "static void StdTaak::registreer(StdTaak*, TaakPrio)"
 323      69632076 
 323      6F696420 
 323      53746454 
 323      61616B3A 
 324 0047 00       	 .ascii "\000"
 325              	 .align 2
 326              	.LC2:
 327 0048 433A5C55 	 .ascii "C:\\Users\\niels\\Documents\\GitHub\\DSP\\software\\"
 327      73657273 
 327      5C6E6965 
 327      6C735C44 
 327      6F63756D 
 328 0075 53544D33 	 .ascii "STM32Basis\\gemeenschappelijk\\ESEFreeRTOS\\stdTaak"
 328      32426173 
 328      69735C67 
 328      656D6565 
 328      6E736368 
 329 00a5 2E637070 	 .ascii ".cpp\000"
 329      00
 330              	 .section .text._ZN7StdTaak10registreerEPS_8TaakPrio,"ax",%progbits
 331              	 .align 1
 332              	 .global _ZN7StdTaak10registreerEPS_8TaakPrio
 333              	 .syntax unified
 334              	 .thumb
 335              	 .thumb_func
 336              	 .type _ZN7StdTaak10registreerEPS_8TaakPrio,%function
 337              	_ZN7StdTaak10registreerEPS_8TaakPrio:
 338              	.LFB1301:
  30:C:\Users\niels\Documents\GitHub\DSP\software\STM32Basis\gemeenschappelijk\ESEFreeRTOS\stdTaak.cpp **** 
  31:C:\Users\niels\Documents\GitHub\DSP\software\STM32Basis\gemeenschappelijk\ESEFreeRTOS\stdTaak.cpp **** StdTaak *StdTaak::takenIndex[StdTaak::AantalTaken];
  32:C:\Users\niels\Documents\GitHub\DSP\software\STM32Basis\gemeenschappelijk\ESEFreeRTOS\stdTaak.cpp **** 
  33:C:\Users\niels\Documents\GitHub\DSP\software\STM32Basis\gemeenschappelijk\ESEFreeRTOS\stdTaak.cpp **** void StdTaak::registreer(StdTaak *const tp, const TaakPrio prio)
  34:C:\Users\niels\Documents\GitHub\DSP\software\STM32Basis\gemeenschappelijk\ESEFreeRTOS\stdTaak.cpp **** {
 339              	 .loc 3 34 1
 340              	 .cfi_startproc
 341              	 
 342              	 
 343 0000 80B5     	 push {r7,lr}
 344              	 .cfi_def_cfa_offset 8
 345              	 .cfi_offset 7,-8
 346              	 .cfi_offset 14,-4
 347 0002 84B0     	 sub sp,sp,#16
 348              	 .cfi_def_cfa_offset 24
 349 0004 00AF     	 add r7,sp,#0
 350              	 .cfi_def_cfa_register 7
 351 0006 7860     	 str r0,[r7,#4]
 352 0008 3960     	 str r1,[r7]
  35:C:\Users\niels\Documents\GitHub\DSP\software\STM32Basis\gemeenschappelijk\ESEFreeRTOS\stdTaak.cpp **** 	const auto index = static_cast<Teller>(prio)-2;
 353              	 .loc 3 35 21
 354 000a 3B68     	 ldr r3,[r7]
 355              	 .loc 3 35 13
ARM GAS   			page 17


 356 000c 023B     	 subs r3,r3,#2
 357 000e FB60     	 str r3,[r7,#12]
  36:C:\Users\niels\Documents\GitHub\DSP\software\STM32Basis\gemeenschappelijk\ESEFreeRTOS\stdTaak.cpp **** 	assert(index < AantalTaken);
 358              	 .loc 3 36 2
 359 0010 FB68     	 ldr r3,[r7,#12]
 360 0012 032B     	 cmp r3,#3
 361 0014 05D9     	 bls .L15
 362              	 .loc 3 36 2 is_stmt 0 discriminator 1
 363 0016 074B     	 ldr r3,.L16
 364 0018 074A     	 ldr r2,.L16+4
 365 001a 2421     	 movs r1,#36
 366 001c 0748     	 ldr r0,.L16+8
 367 001e FFF7FEFF 	 bl __assert_func
 368              	.L15:
  37:C:\Users\niels\Documents\GitHub\DSP\software\STM32Basis\gemeenschappelijk\ESEFreeRTOS\stdTaak.cpp **** 	takenIndex[index] = tp;
 369              	 .loc 3 37 20 is_stmt 1
 370 0022 0749     	 ldr r1,.L16+12
 371 0024 FB68     	 ldr r3,[r7,#12]
 372 0026 7A68     	 ldr r2,[r7,#4]
 373 0028 41F82320 	 str r2,[r1,r3,lsl#2]
  38:C:\Users\niels\Documents\GitHub\DSP\software\STM32Basis\gemeenschappelijk\ESEFreeRTOS\stdTaak.cpp **** }
 374              	 .loc 3 38 1
 375 002c 00BF     	 nop
 376 002e 1037     	 adds r7,r7,#16
 377              	 .cfi_def_cfa_offset 8
 378 0030 BD46     	 mov sp,r7
 379              	 .cfi_def_cfa_register 13
 380              	 
 381 0032 80BD     	 pop {r7,pc}
 382              	.L17:
 383              	 .align 2
 384              	.L16:
 385 0034 00000000 	 .word .LC0
 386 0038 14000000 	 .word .LC1
 387 003c 48000000 	 .word .LC2
 388 0040 00000000 	 .word _ZN7StdTaak10takenIndexE
 389              	 .cfi_endproc
 390              	.LFE1301:
 391              	 .size _ZN7StdTaak10registreerEPS_8TaakPrio,.-_ZN7StdTaak10registreerEPS_8TaakPrio
 392              	 .section .rodata
 393 00aa 0000     	 .align 2
 394              	.LC3:
 395 00ac 73746174 	 .ascii "static StdTaak* StdTaak::geefTaak(TaakPrio)\000"
 395      69632053 
 395      74645461 
 395      616B2A20 
 395      53746454 
 396              	 .align 2
 397              	.LC4:
 398 00d8 6E756C6C 	 .ascii "nullptr != taakPtr\000"
 398      70747220 
 398      213D2074 
 398      61616B50 
 398      747200
 399              	 .section .text._ZN7StdTaak8geefTaakE8TaakPrio,"ax",%progbits
 400              	 .align 1
 401              	 .global _ZN7StdTaak8geefTaakE8TaakPrio
ARM GAS   			page 18


 402              	 .syntax unified
 403              	 .thumb
 404              	 .thumb_func
 405              	 .type _ZN7StdTaak8geefTaakE8TaakPrio,%function
 406              	_ZN7StdTaak8geefTaakE8TaakPrio:
 407              	.LFB1302:
  39:C:\Users\niels\Documents\GitHub\DSP\software\STM32Basis\gemeenschappelijk\ESEFreeRTOS\stdTaak.cpp **** 
  40:C:\Users\niels\Documents\GitHub\DSP\software\STM32Basis\gemeenschappelijk\ESEFreeRTOS\stdTaak.cpp **** StdTaak *StdTaak::geefTaak(const TaakPrio prio)
  41:C:\Users\niels\Documents\GitHub\DSP\software\STM32Basis\gemeenschappelijk\ESEFreeRTOS\stdTaak.cpp **** {
 408              	 .loc 3 41 1
 409              	 .cfi_startproc
 410              	 
 411              	 
 412 0000 80B5     	 push {r7,lr}
 413              	 .cfi_def_cfa_offset 8
 414              	 .cfi_offset 7,-8
 415              	 .cfi_offset 14,-4
 416 0002 84B0     	 sub sp,sp,#16
 417              	 .cfi_def_cfa_offset 24
 418 0004 00AF     	 add r7,sp,#0
 419              	 .cfi_def_cfa_register 7
 420 0006 7860     	 str r0,[r7,#4]
  42:C:\Users\niels\Documents\GitHub\DSP\software\STM32Basis\gemeenschappelijk\ESEFreeRTOS\stdTaak.cpp **** 	const auto index = static_cast<Teller>(prio)-2;
 421              	 .loc 3 42 21
 422 0008 7B68     	 ldr r3,[r7,#4]
 423              	 .loc 3 42 13
 424 000a 023B     	 subs r3,r3,#2
 425 000c FB60     	 str r3,[r7,#12]
  43:C:\Users\niels\Documents\GitHub\DSP\software\STM32Basis\gemeenschappelijk\ESEFreeRTOS\stdTaak.cpp **** 	assert(index < AantalTaken);
 426              	 .loc 3 43 2
 427 000e FB68     	 ldr r3,[r7,#12]
 428 0010 032B     	 cmp r3,#3
 429 0012 05D9     	 bls .L19
 430              	 .loc 3 43 2 is_stmt 0 discriminator 1
 431 0014 0C4B     	 ldr r3,.L22
 432 0016 0D4A     	 ldr r2,.L22+4
 433 0018 2B21     	 movs r1,#43
 434 001a 0D48     	 ldr r0,.L22+8
 435 001c FFF7FEFF 	 bl __assert_func
 436              	.L19:
  44:C:\Users\niels\Documents\GitHub\DSP\software\STM32Basis\gemeenschappelijk\ESEFreeRTOS\stdTaak.cpp **** 	auto * const taakPtr = takenIndex[index];
 437              	 .loc 3 44 15 is_stmt 1
 438 0020 0C4A     	 ldr r2,.L22+12
 439 0022 FB68     	 ldr r3,[r7,#12]
 440 0024 52F82330 	 ldr r3,[r2,r3,lsl#2]
 441 0028 BB60     	 str r3,[r7,#8]
  45:C:\Users\niels\Documents\GitHub\DSP\software\STM32Basis\gemeenschappelijk\ESEFreeRTOS\stdTaak.cpp **** 	assert(nullptr != taakPtr);
 442              	 .loc 3 45 2
 443 002a BB68     	 ldr r3,[r7,#8]
 444 002c 002B     	 cmp r3,#0
 445 002e 05D1     	 bne .L20
 446              	 .loc 3 45 2 is_stmt 0 discriminator 1
 447 0030 094B     	 ldr r3,.L22+16
 448 0032 064A     	 ldr r2,.L22+4
 449 0034 2D21     	 movs r1,#45
 450 0036 0648     	 ldr r0,.L22+8
 451 0038 FFF7FEFF 	 bl __assert_func
ARM GAS   			page 19


 452              	.L20:
  46:C:\Users\niels\Documents\GitHub\DSP\software\STM32Basis\gemeenschappelijk\ESEFreeRTOS\stdTaak.cpp **** 	return(taakPtr);
 453              	 .loc 3 46 16 is_stmt 1
 454 003c BB68     	 ldr r3,[r7,#8]
  47:C:\Users\niels\Documents\GitHub\DSP\software\STM32Basis\gemeenschappelijk\ESEFreeRTOS\stdTaak.cpp **** }
 455              	 .loc 3 47 1
 456 003e 1846     	 mov r0,r3
 457 0040 1037     	 adds r7,r7,#16
 458              	 .cfi_def_cfa_offset 8
 459 0042 BD46     	 mov sp,r7
 460              	 .cfi_def_cfa_register 13
 461              	 
 462 0044 80BD     	 pop {r7,pc}
 463              	.L23:
 464 0046 00BF     	 .align 2
 465              	.L22:
 466 0048 00000000 	 .word .LC0
 467 004c AC000000 	 .word .LC3
 468 0050 48000000 	 .word .LC2
 469 0054 00000000 	 .word _ZN7StdTaak10takenIndexE
 470 0058 D8000000 	 .word .LC4
 471              	 .cfi_endproc
 472              	.LFE1302:
 473              	 .size _ZN7StdTaak8geefTaakE8TaakPrio,.-_ZN7StdTaak8geefTaakE8TaakPrio
 474              	 .section .text._ZN7StdTaak12stuurBerichtERK10StdTaakMsgILj16EE,"ax",%progbits
 475              	 .align 1
 476              	 .global _ZN7StdTaak12stuurBerichtERK10StdTaakMsgILj16EE
 477              	 .syntax unified
 478              	 .thumb
 479              	 .thumb_func
 480              	 .type _ZN7StdTaak12stuurBerichtERK10StdTaakMsgILj16EE,%function
 481              	_ZN7StdTaak12stuurBerichtERK10StdTaakMsgILj16EE:
 482              	.LFB1303:
  48:C:\Users\niels\Documents\GitHub\DSP\software\STM32Basis\gemeenschappelijk\ESEFreeRTOS\stdTaak.cpp **** 
  49:C:\Users\niels\Documents\GitHub\DSP\software\STM32Basis\gemeenschappelijk\ESEFreeRTOS\stdTaak.cpp **** void StdTaak::stuurBericht(const StdTaak::StdMsg &msg)
  50:C:\Users\niels\Documents\GitHub\DSP\software\STM32Basis\gemeenschappelijk\ESEFreeRTOS\stdTaak.cpp **** {
 483              	 .loc 3 50 1
 484              	 .cfi_startproc
 485              	 
 486              	 
 487 0000 80B5     	 push {r7,lr}
 488              	 .cfi_def_cfa_offset 8
 489              	 .cfi_offset 7,-8
 490              	 .cfi_offset 14,-4
 491 0002 84B0     	 sub sp,sp,#16
 492              	 .cfi_def_cfa_offset 24
 493 0004 00AF     	 add r7,sp,#0
 494              	 .cfi_def_cfa_register 7
 495 0006 7860     	 str r0,[r7,#4]
 496 0008 3960     	 str r1,[r7]
  51:C:\Users\niels\Documents\GitHub\DSP\software\STM32Basis\gemeenschappelijk\ESEFreeRTOS\stdTaak.cpp **** 	const auto taakID = msg.geefOntvanger();
 497              	 .loc 3 51 39
 498 000a 3868     	 ldr r0,[r7]
 499 000c FFF7FEFF 	 bl _ZNK10StdTaakMsgILj16EE13geefOntvangerEv
 500 0010 F860     	 str r0,[r7,#12]
  52:C:\Users\niels\Documents\GitHub\DSP\software\STM32Basis\gemeenschappelijk\ESEFreeRTOS\stdTaak.cpp **** 	auto * const ontvanger = geefTaak(taakID);
 501              	 .loc 3 52 35
ARM GAS   			page 20


 502 0012 F868     	 ldr r0,[r7,#12]
 503 0014 FFF7FEFF 	 bl _ZN7StdTaak8geefTaakE8TaakPrio
 504 0018 B860     	 str r0,[r7,#8]
  53:C:\Users\niels\Documents\GitHub\DSP\software\STM32Basis\gemeenschappelijk\ESEFreeRTOS\stdTaak.cpp **** 	ontvanger->brievenbus.Enqueue(const_cast<StdMsg *>(&msg));
 505              	 .loc 3 53 31
 506 001a BB68     	 ldr r3,[r7,#8]
 507 001c 7833     	 adds r3,r3,#120
 508 001e 3968     	 ldr r1,[r7]
 509 0020 1846     	 mov r0,r3
 510 0022 FFF7FEFF 	 bl _ZN12cpp_freertos5Queue7EnqueueEPv
  54:C:\Users\niels\Documents\GitHub\DSP\software\STM32Basis\gemeenschappelijk\ESEFreeRTOS\stdTaak.cpp **** }
 511              	 .loc 3 54 1
 512 0026 00BF     	 nop
 513 0028 1037     	 adds r7,r7,#16
 514              	 .cfi_def_cfa_offset 8
 515 002a BD46     	 mov sp,r7
 516              	 .cfi_def_cfa_register 13
 517              	 
 518 002c 80BD     	 pop {r7,pc}
 519              	 .cfi_endproc
 520              	.LFE1303:
 521              	 .size _ZN7StdTaak12stuurBerichtERK10StdTaakMsgILj16EE,.-_ZN7StdTaak12stuurBerichtERK10StdTaakMsgILj16EE
 522              	 .section .text._ZN7StdTaak14wachtOpBerichtEt,"ax",%progbits
 523              	 .align 1
 524              	 .global _ZN7StdTaak14wachtOpBerichtEt
 525              	 .syntax unified
 526              	 .thumb
 527              	 .thumb_func
 528              	 .type _ZN7StdTaak14wachtOpBerichtEt,%function
 529              	_ZN7StdTaak14wachtOpBerichtEt:
 530              	.LFB1304:
  55:C:\Users\niels\Documents\GitHub\DSP\software\STM32Basis\gemeenschappelijk\ESEFreeRTOS\stdTaak.cpp **** 
  56:C:\Users\niels\Documents\GitHub\DSP\software\STM32Basis\gemeenschappelijk\ESEFreeRTOS\stdTaak.cpp **** FoutCode StdTaak::wachtOpBericht(const UInt16 msecs)
  57:C:\Users\niels\Documents\GitHub\DSP\software\STM32Basis\gemeenschappelijk\ESEFreeRTOS\stdTaak.cpp **** {
 531              	 .loc 3 57 1
 532              	 .cfi_startproc
 533              	 
 534              	 
 535 0000 80B5     	 push {r7,lr}
 536              	 .cfi_def_cfa_offset 8
 537              	 .cfi_offset 7,-8
 538              	 .cfi_offset 14,-4
 539 0002 84B0     	 sub sp,sp,#16
 540              	 .cfi_def_cfa_offset 24
 541 0004 00AF     	 add r7,sp,#0
 542              	 .cfi_def_cfa_register 7
 543 0006 7860     	 str r0,[r7,#4]
 544 0008 0B46     	 mov r3,r1
 545 000a 7B80     	 strh r3,[r7,#2]
  58:C:\Users\niels\Documents\GitHub\DSP\software\STM32Basis\gemeenschappelijk\ESEFreeRTOS\stdTaak.cpp **** 	const auto aantalWachtTicks = ((0 != msecs) ? aantalTicks(msecs) : portMAX_DELAY );
 546              	 .loc 3 58 46
 547 000c 7B88     	 ldrh r3,[r7,#2]
 548 000e 002B     	 cmp r3,#0
 549 0010 05D0     	 beq .L26
 550              	 .loc 3 58 59 discriminator 1
 551 0012 7B88     	 ldrh r3,[r7,#2]
 552 0014 1846     	 mov r0,r3
ARM GAS   			page 21


 553 0016 FFF7FEFF 	 bl _ZN7StdTaak11aantalTicksEm
 554 001a 0346     	 mov r3,r0
 555 001c 01E0     	 b .L27
 556              	.L26:
 557              	 .loc 3 58 46 discriminator 2
 558 001e 4FF0FF33 	 mov r3,#-1
 559              	.L27:
 560              	 .loc 3 58 83 discriminator 4
 561 0022 FB60     	 str r3,[r7,#12]
  59:C:\Users\niels\Documents\GitHub\DSP\software\STM32Basis\gemeenschappelijk\ESEFreeRTOS\stdTaak.cpp **** 
  60:C:\Users\niels\Documents\GitHub\DSP\software\STM32Basis\gemeenschappelijk\ESEFreeRTOS\stdTaak.cpp **** 	const bool nieuwAanwezig = brievenbus.Dequeue(&nieuwBericht,aantalWachtTicks);
 562              	 .loc 3 60 47 discriminator 4
 563 0024 7B68     	 ldr r3,[r7,#4]
 564 0026 03F17800 	 add r0,r3,#120
 565              	 .loc 3 60 48 discriminator 4
 566 002a 7B68     	 ldr r3,[r7,#4]
 567 002c 2C33     	 adds r3,r3,#44
 568              	 .loc 3 60 47 discriminator 4
 569 002e FA68     	 ldr r2,[r7,#12]
 570 0030 1946     	 mov r1,r3
 571 0032 FFF7FEFF 	 bl _ZN12cpp_freertos5Queue7DequeueEPvm
 572 0036 0346     	 mov r3,r0
 573 0038 FB72     	 strb r3,[r7,#11]
  61:C:\Users\niels\Documents\GitHub\DSP\software\STM32Basis\gemeenschappelijk\ESEFreeRTOS\stdTaak.cpp **** 
  62:C:\Users\niels\Documents\GitHub\DSP\software\STM32Basis\gemeenschappelijk\ESEFreeRTOS\stdTaak.cpp **** 	return((true==nieuwAanwezig) ? FoutCode::Ok : FoutCode::Waarschuwing);
 574              	 .loc 3 62 31 discriminator 4
 575 003a FB7A     	 ldrb r3,[r7,#11]
 576 003c 012B     	 cmp r3,#1
 577 003e 14BF     	 ite ne
 578 0040 0123     	 movne r3,#1
 579 0042 0023     	 moveq r3,#0
 580 0044 DBB2     	 uxtb r3,r3
  63:C:\Users\niels\Documents\GitHub\DSP\software\STM32Basis\gemeenschappelijk\ESEFreeRTOS\stdTaak.cpp **** }
 581              	 .loc 3 63 1 discriminator 4
 582 0046 1846     	 mov r0,r3
 583 0048 1037     	 adds r7,r7,#16
 584              	 .cfi_def_cfa_offset 8
 585 004a BD46     	 mov sp,r7
 586              	 .cfi_def_cfa_register 13
 587              	 
 588 004c 80BD     	 pop {r7,pc}
 589              	 .cfi_endproc
 590              	.LFE1304:
 591              	 .size _ZN7StdTaak14wachtOpBerichtEt,.-_ZN7StdTaak14wachtOpBerichtEt
 592              	 .section .rodata._ZZN7StdTaak11aantalTicksEmE19ticksInMsecsPeriode,"a"
 593              	 .align 2
 594              	 .type _ZZN7StdTaak11aantalTicksEmE19ticksInMsecsPeriode,%object
 595              	 .size _ZZN7StdTaak11aantalTicksEmE19ticksInMsecsPeriode,4
 596              	_ZZN7StdTaak11aantalTicksEmE19ticksInMsecsPeriode:
 597 0000 01000000 	 .word 1
 598              	 .section .text._ZN7StdTaak11aantalTicksEm,"ax",%progbits
 599              	 .align 1
 600              	 .global _ZN7StdTaak11aantalTicksEm
 601              	 .syntax unified
 602              	 .thumb
 603              	 .thumb_func
 604              	 .type _ZN7StdTaak11aantalTicksEm,%function
ARM GAS   			page 22


 605              	_ZN7StdTaak11aantalTicksEm:
 606              	.LFB1305:
  64:C:\Users\niels\Documents\GitHub\DSP\software\STM32Basis\gemeenschappelijk\ESEFreeRTOS\stdTaak.cpp **** 
  65:C:\Users\niels\Documents\GitHub\DSP\software\STM32Basis\gemeenschappelijk\ESEFreeRTOS\stdTaak.cpp **** UInt32 StdTaak::aantalTicks(const UInt32 msecs)
  66:C:\Users\niels\Documents\GitHub\DSP\software\STM32Basis\gemeenschappelijk\ESEFreeRTOS\stdTaak.cpp **** {
 607              	 .loc 3 66 1
 608              	 .cfi_startproc
 609              	 
 610              	 
 611              	 
 612 0000 80B4     	 push {r7}
 613              	 .cfi_def_cfa_offset 4
 614              	 .cfi_offset 7,-4
 615 0002 85B0     	 sub sp,sp,#20
 616              	 .cfi_def_cfa_offset 24
 617 0004 00AF     	 add r7,sp,#0
 618              	 .cfi_def_cfa_register 7
 619 0006 7860     	 str r0,[r7,#4]
  67:C:\Users\niels\Documents\GitHub\DSP\software\STM32Basis\gemeenschappelijk\ESEFreeRTOS\stdTaak.cpp **** 	assert(0 != configTICK_RATE_HZ);
  68:C:\Users\niels\Documents\GitHub\DSP\software\STM32Basis\gemeenschappelijk\ESEFreeRTOS\stdTaak.cpp **** 	static constexpr auto ticksInMsecsPeriode = 1000/configTICK_RATE_HZ;
  69:C:\Users\niels\Documents\GitHub\DSP\software\STM32Basis\gemeenschappelijk\ESEFreeRTOS\stdTaak.cpp **** 	assert(0 != ticksInMsecsPeriode);
  70:C:\Users\niels\Documents\GitHub\DSP\software\STM32Basis\gemeenschappelijk\ESEFreeRTOS\stdTaak.cpp **** 
  71:C:\Users\niels\Documents\GitHub\DSP\software\STM32Basis\gemeenschappelijk\ESEFreeRTOS\stdTaak.cpp **** 	const auto periode = msecs/ticksInMsecsPeriode;
 620              	 .loc 3 71 13
 621 0008 7B68     	 ldr r3,[r7,#4]
 622 000a FB60     	 str r3,[r7,#12]
  72:C:\Users\niels\Documents\GitHub\DSP\software\STM32Basis\gemeenschappelijk\ESEFreeRTOS\stdTaak.cpp **** 
  73:C:\Users\niels\Documents\GitHub\DSP\software\STM32Basis\gemeenschappelijk\ESEFreeRTOS\stdTaak.cpp **** 	const auto uit = ((periode != 0) ? periode : ticksInMsecsPeriode);
 623              	 .loc 3 73 35
 624 000c FB68     	 ldr r3,[r7,#12]
 625 000e 002B     	 cmp r3,#0
 626 0010 01D0     	 beq .L30
 627              	 .loc 3 73 35 is_stmt 0 discriminator 1
 628 0012 FB68     	 ldr r3,[r7,#12]
 629 0014 00E0     	 b .L31
 630              	.L30:
 631              	 .loc 3 73 35 discriminator 2
 632 0016 0123     	 movs r3,#1
 633              	.L31:
 634              	 .loc 3 73 13 is_stmt 1 discriminator 4
 635 0018 BB60     	 str r3,[r7,#8]
  74:C:\Users\niels\Documents\GitHub\DSP\software\STM32Basis\gemeenschappelijk\ESEFreeRTOS\stdTaak.cpp **** 
  75:C:\Users\niels\Documents\GitHub\DSP\software\STM32Basis\gemeenschappelijk\ESEFreeRTOS\stdTaak.cpp **** 	return(uit);
 636              	 .loc 3 75 12 discriminator 4
 637 001a BB68     	 ldr r3,[r7,#8]
  76:C:\Users\niels\Documents\GitHub\DSP\software\STM32Basis\gemeenschappelijk\ESEFreeRTOS\stdTaak.cpp **** }
 638              	 .loc 3 76 1 discriminator 4
 639 001c 1846     	 mov r0,r3
 640 001e 1437     	 adds r7,r7,#20
 641              	 .cfi_def_cfa_offset 4
 642 0020 BD46     	 mov sp,r7
 643              	 .cfi_def_cfa_register 13
 644              	 
 645 0022 5DF8047B 	 ldr r7,[sp],#4
 646              	 .cfi_restore 7
 647              	 .cfi_def_cfa_offset 0
 648 0026 7047     	 bx lr
ARM GAS   			page 23


 649              	 .cfi_endproc
 650              	.LFE1305:
 651              	 .size _ZN7StdTaak11aantalTicksEm,.-_ZN7StdTaak11aantalTicksEm
 652              	 .section .text._ZNK7StdTaak8geefTypeEv,"ax",%progbits
 653              	 .align 1
 654              	 .global _ZNK7StdTaak8geefTypeEv
 655              	 .syntax unified
 656              	 .thumb
 657              	 .thumb_func
 658              	 .type _ZNK7StdTaak8geefTypeEv,%function
 659              	_ZNK7StdTaak8geefTypeEv:
 660              	.LFB1306:
  77:C:\Users\niels\Documents\GitHub\DSP\software\STM32Basis\gemeenschappelijk\ESEFreeRTOS\stdTaak.cpp **** 
  78:C:\Users\niels\Documents\GitHub\DSP\software\STM32Basis\gemeenschappelijk\ESEFreeRTOS\stdTaak.cpp **** MsgType StdTaak::geefType() const
  79:C:\Users\niels\Documents\GitHub\DSP\software\STM32Basis\gemeenschappelijk\ESEFreeRTOS\stdTaak.cpp **** {
 661              	 .loc 3 79 1
 662              	 .cfi_startproc
 663              	 
 664              	 
 665 0000 80B5     	 push {r7,lr}
 666              	 .cfi_def_cfa_offset 8
 667              	 .cfi_offset 7,-8
 668              	 .cfi_offset 14,-4
 669 0002 84B0     	 sub sp,sp,#16
 670              	 .cfi_def_cfa_offset 24
 671 0004 00AF     	 add r7,sp,#0
 672              	 .cfi_def_cfa_register 7
 673 0006 7860     	 str r0,[r7,#4]
  80:C:\Users\niels\Documents\GitHub\DSP\software\STM32Basis\gemeenschappelijk\ESEFreeRTOS\stdTaak.cpp **** 	const auto antwoord = nieuwBericht.geefType();
 674              	 .loc 3 80 45
 675 0008 7B68     	 ldr r3,[r7,#4]
 676 000a 2C33     	 adds r3,r3,#44
 677 000c 1846     	 mov r0,r3
 678 000e FFF7FEFF 	 bl _ZNK10StdTaakMsgILj16EE8geefTypeEv
 679 0012 F860     	 str r0,[r7,#12]
  81:C:\Users\niels\Documents\GitHub\DSP\software\STM32Basis\gemeenschappelijk\ESEFreeRTOS\stdTaak.cpp **** 	return(antwoord);
 680              	 .loc 3 81 17
 681 0014 FB68     	 ldr r3,[r7,#12]
  82:C:\Users\niels\Documents\GitHub\DSP\software\STM32Basis\gemeenschappelijk\ESEFreeRTOS\stdTaak.cpp **** }
 682              	 .loc 3 82 1
 683 0016 1846     	 mov r0,r3
 684 0018 1037     	 adds r7,r7,#16
 685              	 .cfi_def_cfa_offset 8
 686 001a BD46     	 mov sp,r7
 687              	 .cfi_def_cfa_register 13
 688              	 
 689 001c 80BD     	 pop {r7,pc}
 690              	 .cfi_endproc
 691              	.LFE1306:
 692              	 .size _ZNK7StdTaak8geefTypeEv,.-_ZNK7StdTaak8geefTypeEv
 693              	 .section .text._ZNK7StdTaak10geefZenderEv,"ax",%progbits
 694              	 .align 1
 695              	 .global _ZNK7StdTaak10geefZenderEv
 696              	 .syntax unified
 697              	 .thumb
 698              	 .thumb_func
 699              	 .type _ZNK7StdTaak10geefZenderEv,%function
ARM GAS   			page 24


 700              	_ZNK7StdTaak10geefZenderEv:
 701              	.LFB1307:
  83:C:\Users\niels\Documents\GitHub\DSP\software\STM32Basis\gemeenschappelijk\ESEFreeRTOS\stdTaak.cpp **** 
  84:C:\Users\niels\Documents\GitHub\DSP\software\STM32Basis\gemeenschappelijk\ESEFreeRTOS\stdTaak.cpp **** TaakPrio StdTaak::geefZender() const
  85:C:\Users\niels\Documents\GitHub\DSP\software\STM32Basis\gemeenschappelijk\ESEFreeRTOS\stdTaak.cpp **** {
 702              	 .loc 3 85 1
 703              	 .cfi_startproc
 704              	 
 705              	 
 706 0000 80B5     	 push {r7,lr}
 707              	 .cfi_def_cfa_offset 8
 708              	 .cfi_offset 7,-8
 709              	 .cfi_offset 14,-4
 710 0002 84B0     	 sub sp,sp,#16
 711              	 .cfi_def_cfa_offset 24
 712 0004 00AF     	 add r7,sp,#0
 713              	 .cfi_def_cfa_register 7
 714 0006 7860     	 str r0,[r7,#4]
  86:C:\Users\niels\Documents\GitHub\DSP\software\STM32Basis\gemeenschappelijk\ESEFreeRTOS\stdTaak.cpp **** 	const auto antwoord = nieuwBericht.geefZender();
 715              	 .loc 3 86 47
 716 0008 7B68     	 ldr r3,[r7,#4]
 717 000a 2C33     	 adds r3,r3,#44
 718 000c 1846     	 mov r0,r3
 719 000e FFF7FEFF 	 bl _ZNK10StdTaakMsgILj16EE10geefZenderEv
 720 0012 F860     	 str r0,[r7,#12]
  87:C:\Users\niels\Documents\GitHub\DSP\software\STM32Basis\gemeenschappelijk\ESEFreeRTOS\stdTaak.cpp **** 	return(antwoord);
 721              	 .loc 3 87 17
 722 0014 FB68     	 ldr r3,[r7,#12]
  88:C:\Users\niels\Documents\GitHub\DSP\software\STM32Basis\gemeenschappelijk\ESEFreeRTOS\stdTaak.cpp **** }
 723              	 .loc 3 88 1
 724 0016 1846     	 mov r0,r3
 725 0018 1037     	 adds r7,r7,#16
 726              	 .cfi_def_cfa_offset 8
 727 001a BD46     	 mov sp,r7
 728              	 .cfi_def_cfa_register 13
 729              	 
 730 001c 80BD     	 pop {r7,pc}
 731              	 .cfi_endproc
 732              	.LFE1307:
 733              	 .size _ZNK7StdTaak10geefZenderEv,.-_ZNK7StdTaak10geefZenderEv
 734              	 .section .text._ZNK7StdTaak13geefOntvangerEv,"ax",%progbits
 735              	 .align 1
 736              	 .global _ZNK7StdTaak13geefOntvangerEv
 737              	 .syntax unified
 738              	 .thumb
 739              	 .thumb_func
 740              	 .type _ZNK7StdTaak13geefOntvangerEv,%function
 741              	_ZNK7StdTaak13geefOntvangerEv:
 742              	.LFB1308:
  89:C:\Users\niels\Documents\GitHub\DSP\software\STM32Basis\gemeenschappelijk\ESEFreeRTOS\stdTaak.cpp **** 
  90:C:\Users\niels\Documents\GitHub\DSP\software\STM32Basis\gemeenschappelijk\ESEFreeRTOS\stdTaak.cpp **** TaakPrio StdTaak::geefOntvanger() const
  91:C:\Users\niels\Documents\GitHub\DSP\software\STM32Basis\gemeenschappelijk\ESEFreeRTOS\stdTaak.cpp **** {
 743              	 .loc 3 91 1
 744              	 .cfi_startproc
 745              	 
 746              	 
 747 0000 80B5     	 push {r7,lr}
ARM GAS   			page 25


 748              	 .cfi_def_cfa_offset 8
 749              	 .cfi_offset 7,-8
 750              	 .cfi_offset 14,-4
 751 0002 84B0     	 sub sp,sp,#16
 752              	 .cfi_def_cfa_offset 24
 753 0004 00AF     	 add r7,sp,#0
 754              	 .cfi_def_cfa_register 7
 755 0006 7860     	 str r0,[r7,#4]
  92:C:\Users\niels\Documents\GitHub\DSP\software\STM32Basis\gemeenschappelijk\ESEFreeRTOS\stdTaak.cpp **** 	const auto antwoord = nieuwBericht.geefOntvanger();
 756              	 .loc 3 92 50
 757 0008 7B68     	 ldr r3,[r7,#4]
 758 000a 2C33     	 adds r3,r3,#44
 759 000c 1846     	 mov r0,r3
 760 000e FFF7FEFF 	 bl _ZNK10StdTaakMsgILj16EE13geefOntvangerEv
 761 0012 F860     	 str r0,[r7,#12]
  93:C:\Users\niels\Documents\GitHub\DSP\software\STM32Basis\gemeenschappelijk\ESEFreeRTOS\stdTaak.cpp **** 	return(antwoord);
 762              	 .loc 3 93 17
 763 0014 FB68     	 ldr r3,[r7,#12]
  94:C:\Users\niels\Documents\GitHub\DSP\software\STM32Basis\gemeenschappelijk\ESEFreeRTOS\stdTaak.cpp **** }
 764              	 .loc 3 94 1
 765 0016 1846     	 mov r0,r3
 766 0018 1037     	 adds r7,r7,#16
 767              	 .cfi_def_cfa_offset 8
 768 001a BD46     	 mov sp,r7
 769              	 .cfi_def_cfa_register 13
 770              	 
 771 001c 80BD     	 pop {r7,pc}
 772              	 .cfi_endproc
 773              	.LFE1308:
 774              	 .size _ZNK7StdTaak13geefOntvangerEv,.-_ZNK7StdTaak13geefOntvangerEv
 775              	 .section .text._ZNK7StdTaak11geefBerichtEv,"ax",%progbits
 776              	 .align 1
 777              	 .global _ZNK7StdTaak11geefBerichtEv
 778              	 .syntax unified
 779              	 .thumb
 780              	 .thumb_func
 781              	 .type _ZNK7StdTaak11geefBerichtEv,%function
 782              	_ZNK7StdTaak11geefBerichtEv:
 783              	.LFB1309:
  95:C:\Users\niels\Documents\GitHub\DSP\software\STM32Basis\gemeenschappelijk\ESEFreeRTOS\stdTaak.cpp **** 
  96:C:\Users\niels\Documents\GitHub\DSP\software\STM32Basis\gemeenschappelijk\ESEFreeRTOS\stdTaak.cpp **** StdTaak::StdMsg StdTaak::geefBericht() const
  97:C:\Users\niels\Documents\GitHub\DSP\software\STM32Basis\gemeenschappelijk\ESEFreeRTOS\stdTaak.cpp **** {
 784              	 .loc 3 97 1
 785              	 .cfi_startproc
 786              	 
 787              	 
 788 0000 80B5     	 push {r7,lr}
 789              	 .cfi_def_cfa_offset 8
 790              	 .cfi_offset 7,-8
 791              	 .cfi_offset 14,-4
 792 0002 96B0     	 sub sp,sp,#88
 793              	 .cfi_def_cfa_offset 96
 794 0004 00AF     	 add r7,sp,#0
 795              	 .cfi_def_cfa_register 7
 796 0006 7860     	 str r0,[r7,#4]
 797 0008 3960     	 str r1,[r7]
  98:C:\Users\niels\Documents\GitHub\DSP\software\STM32Basis\gemeenschappelijk\ESEFreeRTOS\stdTaak.cpp **** 	/* maak een kopie. */
ARM GAS   			page 26


  99:C:\Users\niels\Documents\GitHub\DSP\software\STM32Basis\gemeenschappelijk\ESEFreeRTOS\stdTaak.cpp **** 	const auto kopie(nieuwBericht);
 798              	 .loc 3 99 13
 799 000a 3B68     	 ldr r3,[r7]
 800 000c 07F10C00 	 add r0,r7,#12
 801 0010 2C33     	 adds r3,r3,#44
 802 0012 4C22     	 movs r2,#76
 803 0014 1946     	 mov r1,r3
 804 0016 FFF7FEFF 	 bl memcpy
 100:C:\Users\niels\Documents\GitHub\DSP\software\STM32Basis\gemeenschappelijk\ESEFreeRTOS\stdTaak.cpp **** 	return(kopie);
 805              	 .loc 3 100 14
 806 001a 7B68     	 ldr r3,[r7,#4]
 807 001c 1846     	 mov r0,r3
 808 001e 07F10C03 	 add r3,r7,#12
 809 0022 4C22     	 movs r2,#76
 810 0024 1946     	 mov r1,r3
 811 0026 FFF7FEFF 	 bl memcpy
 101:C:\Users\niels\Documents\GitHub\DSP\software\STM32Basis\gemeenschappelijk\ESEFreeRTOS\stdTaak.cpp **** }
 812              	 .loc 3 101 1
 813 002a 7868     	 ldr r0,[r7,#4]
 814 002c 5837     	 adds r7,r7,#88
 815              	 .cfi_def_cfa_offset 8
 816 002e BD46     	 mov sp,r7
 817              	 .cfi_def_cfa_register 13
 818              	 
 819 0030 80BD     	 pop {r7,pc}
 820              	 .cfi_endproc
 821              	.LFE1309:
 822              	 .size _ZNK7StdTaak11geefBerichtEv,.-_ZNK7StdTaak11geefBerichtEv
 823              	 .section .text._ZN7StdTaak17isBerichtAanwezigEv,"ax",%progbits
 824              	 .align 1
 825              	 .global _ZN7StdTaak17isBerichtAanwezigEv
 826              	 .syntax unified
 827              	 .thumb
 828              	 .thumb_func
 829              	 .type _ZN7StdTaak17isBerichtAanwezigEv,%function
 830              	_ZN7StdTaak17isBerichtAanwezigEv:
 831              	.LFB1310:
 102:C:\Users\niels\Documents\GitHub\DSP\software\STM32Basis\gemeenschappelijk\ESEFreeRTOS\stdTaak.cpp **** 
 103:C:\Users\niels\Documents\GitHub\DSP\software\STM32Basis\gemeenschappelijk\ESEFreeRTOS\stdTaak.cpp **** bool StdTaak::isBerichtAanwezig()
 104:C:\Users\niels\Documents\GitHub\DSP\software\STM32Basis\gemeenschappelijk\ESEFreeRTOS\stdTaak.cpp **** {
 832              	 .loc 3 104 1
 833              	 .cfi_startproc
 834              	 
 835              	 
 836 0000 80B5     	 push {r7,lr}
 837              	 .cfi_def_cfa_offset 8
 838              	 .cfi_offset 7,-8
 839              	 .cfi_offset 14,-4
 840 0002 84B0     	 sub sp,sp,#16
 841              	 .cfi_def_cfa_offset 24
 842 0004 00AF     	 add r7,sp,#0
 843              	 .cfi_def_cfa_register 7
 844 0006 7860     	 str r0,[r7,#4]
 105:C:\Users\niels\Documents\GitHub\DSP\software\STM32Basis\gemeenschappelijk\ESEFreeRTOS\stdTaak.cpp **** 	const bool aanwezig = (false == brievenbus.IsEmpty());
 845              	 .loc 3 105 52
 846 0008 7B68     	 ldr r3,[r7,#4]
 847 000a 7833     	 adds r3,r3,#120
ARM GAS   			page 27


 848 000c 1846     	 mov r0,r3
 849 000e FFF7FEFF 	 bl _ZN12cpp_freertos5Queue7IsEmptyEv
 850 0012 0346     	 mov r3,r0
 851              	 .loc 3 105 54
 852 0014 002B     	 cmp r3,#0
 853 0016 0CBF     	 ite eq
 854 0018 0123     	 moveq r3,#1
 855 001a 0023     	 movne r3,#0
 856 001c FB73     	 strb r3,[r7,#15]
 106:C:\Users\niels\Documents\GitHub\DSP\software\STM32Basis\gemeenschappelijk\ESEFreeRTOS\stdTaak.cpp **** 	return(aanwezig);
 857              	 .loc 3 106 17
 858 001e FB7B     	 ldrb r3,[r7,#15]
 107:C:\Users\niels\Documents\GitHub\DSP\software\STM32Basis\gemeenschappelijk\ESEFreeRTOS\stdTaak.cpp **** }
 859              	 .loc 3 107 1
 860 0020 1846     	 mov r0,r3
 861 0022 1037     	 adds r7,r7,#16
 862              	 .cfi_def_cfa_offset 8
 863 0024 BD46     	 mov sp,r7
 864              	 .cfi_def_cfa_register 13
 865              	 
 866 0026 80BD     	 pop {r7,pc}
 867              	 .cfi_endproc
 868              	.LFE1310:
 869              	 .size _ZN7StdTaak17isBerichtAanwezigEv,.-_ZN7StdTaak17isBerichtAanwezigEv
 870              	 .section .text._ZN7StdTaak5wachtEm,"ax",%progbits
 871              	 .align 1
 872              	 .global _ZN7StdTaak5wachtEm
 873              	 .syntax unified
 874              	 .thumb
 875              	 .thumb_func
 876              	 .type _ZN7StdTaak5wachtEm,%function
 877              	_ZN7StdTaak5wachtEm:
 878              	.LFB1311:
 108:C:\Users\niels\Documents\GitHub\DSP\software\STM32Basis\gemeenschappelijk\ESEFreeRTOS\stdTaak.cpp **** 
 109:C:\Users\niels\Documents\GitHub\DSP\software\STM32Basis\gemeenschappelijk\ESEFreeRTOS\stdTaak.cpp **** FoutCode StdTaak::wacht(const Teller msecs)
 110:C:\Users\niels\Documents\GitHub\DSP\software\STM32Basis\gemeenschappelijk\ESEFreeRTOS\stdTaak.cpp **** {
 879              	 .loc 3 110 1
 880              	 .cfi_startproc
 881              	 
 882              	 
 883 0000 80B5     	 push {r7,lr}
 884              	 .cfi_def_cfa_offset 8
 885              	 .cfi_offset 7,-8
 886              	 .cfi_offset 14,-4
 887 0002 84B0     	 sub sp,sp,#16
 888              	 .cfi_def_cfa_offset 24
 889 0004 00AF     	 add r7,sp,#0
 890              	 .cfi_def_cfa_register 7
 891 0006 7860     	 str r0,[r7,#4]
 892 0008 3960     	 str r1,[r7]
 111:C:\Users\niels\Documents\GitHub\DSP\software\STM32Basis\gemeenschappelijk\ESEFreeRTOS\stdTaak.cpp **** 	/* kap de vertraging af op het minimum.  */
 112:C:\Users\niels\Documents\GitHub\DSP\software\STM32Basis\gemeenschappelijk\ESEFreeRTOS\stdTaak.cpp **** 	const auto rauweVertraging = msecs / portTICK_PERIOD_MS;
 893              	 .loc 3 112 13
 894 000a 3B68     	 ldr r3,[r7]
 895 000c FB60     	 str r3,[r7,#12]
 113:C:\Users\niels\Documents\GitHub\DSP\software\STM32Basis\gemeenschappelijk\ESEFreeRTOS\stdTaak.cpp **** 	const auto vertraging = (rauweVertraging > 1) ? rauweVertraging : 1;
 896              	 .loc 3 113 13
ARM GAS   			page 28


 897 000e FB68     	 ldr r3,[r7,#12]
 898 0010 012B     	 cmp r3,#1
 899 0012 38BF     	 it cc
 900 0014 0123     	 movcc r3,#1
 901 0016 BB60     	 str r3,[r7,#8]
 114:C:\Users\niels\Documents\GitHub\DSP\software\STM32Basis\gemeenschappelijk\ESEFreeRTOS\stdTaak.cpp **** 
 115:C:\Users\niels\Documents\GitHub\DSP\software\STM32Basis\gemeenschappelijk\ESEFreeRTOS\stdTaak.cpp **** 	Delay(vertraging);
 902              	 .loc 3 115 7
 903 0018 7B68     	 ldr r3,[r7,#4]
 904 001a B968     	 ldr r1,[r7,#8]
 905 001c 1846     	 mov r0,r3
 906 001e FFF7FEFF 	 bl _ZN12cpp_freertos6Thread5DelayEm
 116:C:\Users\niels\Documents\GitHub\DSP\software\STM32Basis\gemeenschappelijk\ESEFreeRTOS\stdTaak.cpp **** 
 117:C:\Users\niels\Documents\GitHub\DSP\software\STM32Basis\gemeenschappelijk\ESEFreeRTOS\stdTaak.cpp **** 	return (FC::Ok);
 907              	 .loc 3 117 16
 908 0022 0023     	 movs r3,#0
 118:C:\Users\niels\Documents\GitHub\DSP\software\STM32Basis\gemeenschappelijk\ESEFreeRTOS\stdTaak.cpp **** }
 909              	 .loc 3 118 1
 910 0024 1846     	 mov r0,r3
 911 0026 1037     	 adds r7,r7,#16
 912              	 .cfi_def_cfa_offset 8
 913 0028 BD46     	 mov sp,r7
 914              	 .cfi_def_cfa_register 13
 915              	 
 916 002a 80BD     	 pop {r7,pc}
 917              	 .cfi_endproc
 918              	.LFE1311:
 919              	 .size _ZN7StdTaak5wachtEm,.-_ZN7StdTaak5wachtEm
 920              	 .section .text._ZN10StdTaakMsgILj16EEC2Ev,"axG",%progbits,_ZN10StdTaakMsgILj16EEC5Ev,comdat
 921              	 .align 1
 922              	 .weak _ZN10StdTaakMsgILj16EEC2Ev
 923              	 .syntax unified
 924              	 .thumb
 925              	 .thumb_func
 926              	 .type _ZN10StdTaakMsgILj16EEC2Ev,%function
 927              	_ZN10StdTaakMsgILj16EEC2Ev:
 928              	.LFB1557:
 929              	 .file 4 "c:\\users\\niels\\documents\\github\\dsp\\software\\stm32basis\\gemeenschappelijk\\esefreertos\\h\\stdtaak.h"
   1:c:\users\niels\documents\github\dsp\software\stm32basis\gemeenschappelijk\esefreertos\h\stdtaak.h **** /*!
   2:c:\users\niels\documents\github\dsp\software\stm32basis\gemeenschappelijk\esefreertos\h\stdtaak.h **** @file
   3:c:\users\niels\documents\github\dsp\software\stm32basis\gemeenschappelijk\esefreertos\h\stdtaak.h **** API van de c++ schil voor gebruik van de FreeRTOS
   4:c:\users\niels\documents\github\dsp\software\stm32basis\gemeenschappelijk\esefreertos\h\stdtaak.h **** @version $Rev: 2892 $
   5:c:\users\niels\documents\github\dsp\software\stm32basis\gemeenschappelijk\esefreertos\h\stdtaak.h **** @author $Author: ewout $
   6:c:\users\niels\documents\github\dsp\software\stm32basis\gemeenschappelijk\esefreertos\h\stdtaak.h **** 
   7:c:\users\niels\documents\github\dsp\software\stm32basis\gemeenschappelijk\esefreertos\h\stdtaak.h **** @copyright Copyright 2017-2018 Hogeschool van Arnhem en Nijmegen, ir drs E.J Boks
   8:c:\users\niels\documents\github\dsp\software\stm32basis\gemeenschappelijk\esefreertos\h\stdtaak.h **** 
   9:c:\users\niels\documents\github\dsp\software\stm32basis\gemeenschappelijk\esefreertos\h\stdtaak.h **** $URL: http://svn.hanese.nl/docenten/svn/ewout/vakken/algemeen/software/STM32/STM32Basis/HAL/gemeens
  10:c:\users\niels\documents\github\dsp\software\stm32basis\gemeenschappelijk\esefreertos\h\stdtaak.h **** $Id: ESEBoardController.h 2892 2018-02-27 19:33:20Z ewout $
  11:c:\users\niels\documents\github\dsp\software\stm32basis\gemeenschappelijk\esefreertos\h\stdtaak.h **** ************************************************************************/
  12:c:\users\niels\documents\github\dsp\software\stm32basis\gemeenschappelijk\esefreertos\h\stdtaak.h **** 
  13:c:\users\niels\documents\github\dsp\software\stm32basis\gemeenschappelijk\esefreertos\h\stdtaak.h **** #ifndef ESE_BSP_STDTaak_H
  14:c:\users\niels\documents\github\dsp\software\stm32basis\gemeenschappelijk\esefreertos\h\stdtaak.h **** #define ESE_BSP_STDTaak_H
  15:c:\users\niels\documents\github\dsp\software\stm32basis\gemeenschappelijk\esefreertos\h\stdtaak.h **** 
  16:c:\users\niels\documents\github\dsp\software\stm32basis\gemeenschappelijk\esefreertos\h\stdtaak.h **** #include <thread.hpp>
  17:c:\users\niels\documents\github\dsp\software\stm32basis\gemeenschappelijk\esefreertos\h\stdtaak.h **** #include <queue.hpp>
  18:c:\users\niels\documents\github\dsp\software\stm32basis\gemeenschappelijk\esefreertos\h\stdtaak.h **** 
  19:c:\users\niels\documents\github\dsp\software\stm32basis\gemeenschappelijk\esefreertos\h\stdtaak.h **** #include <assert.h>
ARM GAS   			page 29


  20:c:\users\niels\documents\github\dsp\software\stm32basis\gemeenschappelijk\esefreertos\h\stdtaak.h **** #include <semaphore.hpp>
  21:c:\users\niels\documents\github\dsp\software\stm32basis\gemeenschappelijk\esefreertos\h\stdtaak.h **** #include <algdef.h>
  22:c:\users\niels\documents\github\dsp\software\stm32basis\gemeenschappelijk\esefreertos\h\stdtaak.h **** 
  23:c:\users\niels\documents\github\dsp\software\stm32basis\gemeenschappelijk\esefreertos\h\stdtaak.h **** using namespace cpp_freertos;
  24:c:\users\niels\documents\github\dsp\software\stm32basis\gemeenschappelijk\esefreertos\h\stdtaak.h **** 
  25:c:\users\niels\documents\github\dsp\software\stm32basis\gemeenschappelijk\esefreertos\h\stdtaak.h **** /*! @enum De taken prioriteiten.
  26:c:\users\niels\documents\github\dsp\software\stm32basis\gemeenschappelijk\esefreertos\h\stdtaak.h ****  * @note FreeRTOS prioriteiten zijn van laag (lager nummer) naar hoog (hoger nummer),
  27:c:\users\niels\documents\github\dsp\software\stm32basis\gemeenschappelijk\esefreertos\h\stdtaak.h ****  * dit in tegenstelling tot bijvoorbeeld Micrium UCOSII/III */
  28:c:\users\niels\documents\github\dsp\software\stm32basis\gemeenschappelijk\esefreertos\h\stdtaak.h **** enum class TaakPrio
  29:c:\users\niels\documents\github\dsp\software\stm32basis\gemeenschappelijk\esefreertos\h\stdtaak.h **** {
  30:c:\users\niels\documents\github\dsp\software\stm32basis\gemeenschappelijk\esefreertos\h\stdtaak.h **** 	Taak1=2,  /* lowest prio */
  31:c:\users\niels\documents\github\dsp\software\stm32basis\gemeenschappelijk\esefreertos\h\stdtaak.h **** 	Taak2,
  32:c:\users\niels\documents\github\dsp\software\stm32basis\gemeenschappelijk\esefreertos\h\stdtaak.h **** 	Taak3,
  33:c:\users\niels\documents\github\dsp\software\stm32basis\gemeenschappelijk\esefreertos\h\stdtaak.h **** 	Taak4,
  34:c:\users\niels\documents\github\dsp\software\stm32basis\gemeenschappelijk\esefreertos\h\stdtaak.h **** 	//Taak5, /* highest prio */
  35:c:\users\niels\documents\github\dsp\software\stm32basis\gemeenschappelijk\esefreertos\h\stdtaak.h **** 	Onbekend
  36:c:\users\niels\documents\github\dsp\software\stm32basis\gemeenschappelijk\esefreertos\h\stdtaak.h **** };
  37:c:\users\niels\documents\github\dsp\software\stm32basis\gemeenschappelijk\esefreertos\h\stdtaak.h **** 
  38:c:\users\niels\documents\github\dsp\software\stm32basis\gemeenschappelijk\esefreertos\h\stdtaak.h **** enum class MsgType
  39:c:\users\niels\documents\github\dsp\software\stm32basis\gemeenschappelijk\esefreertos\h\stdtaak.h **** {
  40:c:\users\niels\documents\github\dsp\software\stm32basis\gemeenschappelijk\esefreertos\h\stdtaak.h **** 	TouchGebeurd,
  41:c:\users\niels\documents\github\dsp\software\stm32basis\gemeenschappelijk\esefreertos\h\stdtaak.h **** 	ADCGebeurd,
  42:c:\users\niels\documents\github\dsp\software\stm32basis\gemeenschappelijk\esefreertos\h\stdtaak.h **** 	KnopGedrukt,
  43:c:\users\niels\documents\github\dsp\software\stm32basis\gemeenschappelijk\esefreertos\h\stdtaak.h **** 	StartStopGedrukt,
  44:c:\users\niels\documents\github\dsp\software\stm32basis\gemeenschappelijk\esefreertos\h\stdtaak.h **** 	SignaalKeuzeVeranderd,
  45:c:\users\niels\documents\github\dsp\software\stm32basis\gemeenschappelijk\esefreertos\h\stdtaak.h **** 	SignaalAmplitudeVeranderd,
  46:c:\users\niels\documents\github\dsp\software\stm32basis\gemeenschappelijk\esefreertos\h\stdtaak.h **** 	VerbindingGemaakt,
  47:c:\users\niels\documents\github\dsp\software\stm32basis\gemeenschappelijk\esefreertos\h\stdtaak.h **** 	VerbindingLosgemaakt,
  48:c:\users\niels\documents\github\dsp\software\stm32basis\gemeenschappelijk\esefreertos\h\stdtaak.h **** 	Onbekend
  49:c:\users\niels\documents\github\dsp\software\stm32basis\gemeenschappelijk\esefreertos\h\stdtaak.h **** };
  50:c:\users\niels\documents\github\dsp\software\stm32basis\gemeenschappelijk\esefreertos\h\stdtaak.h **** 
  51:c:\users\niels\documents\github\dsp\software\stm32basis\gemeenschappelijk\esefreertos\h\stdtaak.h **** template<const unsigned int Grootte>
  52:c:\users\niels\documents\github\dsp\software\stm32basis\gemeenschappelijk\esefreertos\h\stdtaak.h **** class StdTaakMsg
  53:c:\users\niels\documents\github\dsp\software\stm32basis\gemeenschappelijk\esefreertos\h\stdtaak.h **** {
  54:c:\users\niels\documents\github\dsp\software\stm32basis\gemeenschappelijk\esefreertos\h\stdtaak.h **** public:
  55:c:\users\niels\documents\github\dsp\software\stm32basis\gemeenschappelijk\esefreertos\h\stdtaak.h **** 	/*! @brief voor ontvangst */
  56:c:\users\niels\documents\github\dsp\software\stm32basis\gemeenschappelijk\esefreertos\h\stdtaak.h **** 	StdTaakMsg() : zender(TaakPrio::Onbekend),
 930              	 .loc 4 56 2
 931              	 .cfi_startproc
 932              	 
 933              	 
 934              	 
 935 0000 80B4     	 push {r7}
 936              	 .cfi_def_cfa_offset 4
 937              	 .cfi_offset 7,-4
 938 0002 83B0     	 sub sp,sp,#12
 939              	 .cfi_def_cfa_offset 16
 940 0004 00AF     	 add r7,sp,#0
 941              	 .cfi_def_cfa_register 7
 942 0006 7860     	 str r0,[r7,#4]
 943              	.LBB3:
  57:c:\users\niels\documents\github\dsp\software\stm32basis\gemeenschappelijk\esefreertos\h\stdtaak.h **** 	               ontvanger(TaakPrio::Onbekend),
  58:c:\users\niels\documents\github\dsp\software\stm32basis\gemeenschappelijk\esefreertos\h\stdtaak.h **** 	               type(MsgType::Onbekend)
 944              	 .loc 4 58 39
 945 0008 7B68     	 ldr r3,[r7,#4]
 946 000a 0622     	 movs r2,#6
 947 000c 1A60     	 str r2,[r3]
ARM GAS   			page 30


 948 000e 7B68     	 ldr r3,[r7,#4]
 949 0010 0622     	 movs r2,#6
 950 0012 5A60     	 str r2,[r3,#4]
 951 0014 7B68     	 ldr r3,[r7,#4]
 952 0016 0822     	 movs r2,#8
 953 0018 9A60     	 str r2,[r3,#8]
 954              	.LBE3:
  59:c:\users\niels\documents\github\dsp\software\stm32basis\gemeenschappelijk\esefreertos\h\stdtaak.h **** 	{
  60:c:\users\niels\documents\github\dsp\software\stm32basis\gemeenschappelijk\esefreertos\h\stdtaak.h **** 
  61:c:\users\niels\documents\github\dsp\software\stm32basis\gemeenschappelijk\esefreertos\h\stdtaak.h **** 	};
 955              	 .loc 4 61 2
 956 001a 7B68     	 ldr r3,[r7,#4]
 957 001c 1846     	 mov r0,r3
 958 001e 0C37     	 adds r7,r7,#12
 959              	 .cfi_def_cfa_offset 4
 960 0020 BD46     	 mov sp,r7
 961              	 .cfi_def_cfa_register 13
 962              	 
 963 0022 5DF8047B 	 ldr r7,[sp],#4
 964              	 .cfi_restore 7
 965              	 .cfi_def_cfa_offset 0
 966 0026 7047     	 bx lr
 967              	 .cfi_endproc
 968              	.LFE1557:
 969              	 .size _ZN10StdTaakMsgILj16EEC2Ev,.-_ZN10StdTaakMsgILj16EEC2Ev
 970              	 .weak _ZN10StdTaakMsgILj16EEC1Ev
 971              	 .thumb_set _ZN10StdTaakMsgILj16EEC1Ev,_ZN10StdTaakMsgILj16EEC2Ev
 972              	 .section .text._ZNK10StdTaakMsgILj16EE13geefOntvangerEv,"axG",%progbits,_ZNK10StdTaakMsgILj16EE13geefOntvangerEv,comdat
 973              	 .align 1
 974              	 .weak _ZNK10StdTaakMsgILj16EE13geefOntvangerEv
 975              	 .syntax unified
 976              	 .thumb
 977              	 .thumb_func
 978              	 .type _ZNK10StdTaakMsgILj16EE13geefOntvangerEv,%function
 979              	_ZNK10StdTaakMsgILj16EE13geefOntvangerEv:
 980              	.LFB1559:
  62:c:\users\niels\documents\github\dsp\software\stm32basis\gemeenschappelijk\esefreertos\h\stdtaak.h **** 
  63:c:\users\niels\documents\github\dsp\software\stm32basis\gemeenschappelijk\esefreertos\h\stdtaak.h **** 	/*! @brief voor verzenden */
  64:c:\users\niels\documents\github\dsp\software\stm32basis\gemeenschappelijk\esefreertos\h\stdtaak.h **** 	StdTaakMsg(const TaakPrio z,
  65:c:\users\niels\documents\github\dsp\software\stm32basis\gemeenschappelijk\esefreertos\h\stdtaak.h **** 	           const TaakPrio o,
  66:c:\users\niels\documents\github\dsp\software\stm32basis\gemeenschappelijk\esefreertos\h\stdtaak.h **** 	           const MsgType t) : zender(z),ontvanger(o),type(t)
  67:c:\users\niels\documents\github\dsp\software\stm32basis\gemeenschappelijk\esefreertos\h\stdtaak.h **** 	{
  68:c:\users\niels\documents\github\dsp\software\stm32basis\gemeenschappelijk\esefreertos\h\stdtaak.h **** 
  69:c:\users\niels\documents\github\dsp\software\stm32basis\gemeenschappelijk\esefreertos\h\stdtaak.h **** 	};
  70:c:\users\niels\documents\github\dsp\software\stm32basis\gemeenschappelijk\esefreertos\h\stdtaak.h **** 
  71:c:\users\niels\documents\github\dsp\software\stm32basis\gemeenschappelijk\esefreertos\h\stdtaak.h **** 	UInt32 operator [] (const Teller index) const
  72:c:\users\niels\documents\github\dsp\software\stm32basis\gemeenschappelijk\esefreertos\h\stdtaak.h **** 	{
  73:c:\users\niels\documents\github\dsp\software\stm32basis\gemeenschappelijk\esefreertos\h\stdtaak.h **** 		assert(index < Grootte);
  74:c:\users\niels\documents\github\dsp\software\stm32basis\gemeenschappelijk\esefreertos\h\stdtaak.h **** 		return(vracht[index]);
  75:c:\users\niels\documents\github\dsp\software\stm32basis\gemeenschappelijk\esefreertos\h\stdtaak.h **** 	};
  76:c:\users\niels\documents\github\dsp\software\stm32basis\gemeenschappelijk\esefreertos\h\stdtaak.h **** 
  77:c:\users\niels\documents\github\dsp\software\stm32basis\gemeenschappelijk\esefreertos\h\stdtaak.h **** 	void zetVracht(const Teller index,const UInt32 waarde)
  78:c:\users\niels\documents\github\dsp\software\stm32basis\gemeenschappelijk\esefreertos\h\stdtaak.h **** 	{
  79:c:\users\niels\documents\github\dsp\software\stm32basis\gemeenschappelijk\esefreertos\h\stdtaak.h **** 		assert(index < Grootte);
  80:c:\users\niels\documents\github\dsp\software\stm32basis\gemeenschappelijk\esefreertos\h\stdtaak.h **** 		vracht[index] = waarde;
  81:c:\users\niels\documents\github\dsp\software\stm32basis\gemeenschappelijk\esefreertos\h\stdtaak.h **** 	};
  82:c:\users\niels\documents\github\dsp\software\stm32basis\gemeenschappelijk\esefreertos\h\stdtaak.h **** 
ARM GAS   			page 31


  83:c:\users\niels\documents\github\dsp\software\stm32basis\gemeenschappelijk\esefreertos\h\stdtaak.h **** 	MsgType geefType() const
  84:c:\users\niels\documents\github\dsp\software\stm32basis\gemeenschappelijk\esefreertos\h\stdtaak.h **** 	{
  85:c:\users\niels\documents\github\dsp\software\stm32basis\gemeenschappelijk\esefreertos\h\stdtaak.h **** 		return(type);
  86:c:\users\niels\documents\github\dsp\software\stm32basis\gemeenschappelijk\esefreertos\h\stdtaak.h **** 	};
  87:c:\users\niels\documents\github\dsp\software\stm32basis\gemeenschappelijk\esefreertos\h\stdtaak.h **** 
  88:c:\users\niels\documents\github\dsp\software\stm32basis\gemeenschappelijk\esefreertos\h\stdtaak.h **** 	TaakPrio geefOntvanger() const
 981              	 .loc 4 88 11
 982              	 .cfi_startproc
 983              	 
 984              	 
 985              	 
 986 0000 80B4     	 push {r7}
 987              	 .cfi_def_cfa_offset 4
 988              	 .cfi_offset 7,-4
 989 0002 83B0     	 sub sp,sp,#12
 990              	 .cfi_def_cfa_offset 16
 991 0004 00AF     	 add r7,sp,#0
 992              	 .cfi_def_cfa_register 7
 993 0006 7860     	 str r0,[r7,#4]
  89:c:\users\niels\documents\github\dsp\software\stm32basis\gemeenschappelijk\esefreertos\h\stdtaak.h **** 	{
  90:c:\users\niels\documents\github\dsp\software\stm32basis\gemeenschappelijk\esefreertos\h\stdtaak.h **** 		return(ontvanger);
 994              	 .loc 4 90 19
 995 0008 7B68     	 ldr r3,[r7,#4]
 996 000a 5B68     	 ldr r3,[r3,#4]
  91:c:\users\niels\documents\github\dsp\software\stm32basis\gemeenschappelijk\esefreertos\h\stdtaak.h **** 	};
 997              	 .loc 4 91 2
 998 000c 1846     	 mov r0,r3
 999 000e 0C37     	 adds r7,r7,#12
 1000              	 .cfi_def_cfa_offset 4
 1001 0010 BD46     	 mov sp,r7
 1002              	 .cfi_def_cfa_register 13
 1003              	 
 1004 0012 5DF8047B 	 ldr r7,[sp],#4
 1005              	 .cfi_restore 7
 1006              	 .cfi_def_cfa_offset 0
 1007 0016 7047     	 bx lr
 1008              	 .cfi_endproc
 1009              	.LFE1559:
 1010              	 .size _ZNK10StdTaakMsgILj16EE13geefOntvangerEv,.-_ZNK10StdTaakMsgILj16EE13geefOntvangerEv
 1011              	 .section .text._ZNK10StdTaakMsgILj16EE8geefTypeEv,"axG",%progbits,_ZNK10StdTaakMsgILj16EE8geefTypeEv,comdat
 1012              	 .align 1
 1013              	 .weak _ZNK10StdTaakMsgILj16EE8geefTypeEv
 1014              	 .syntax unified
 1015              	 .thumb
 1016              	 .thumb_func
 1017              	 .type _ZNK10StdTaakMsgILj16EE8geefTypeEv,%function
 1018              	_ZNK10StdTaakMsgILj16EE8geefTypeEv:
 1019              	.LFB1560:
  83:c:\users\niels\documents\github\dsp\software\stm32basis\gemeenschappelijk\esefreertos\h\stdtaak.h **** 	{
 1020              	 .loc 4 83 10
 1021              	 .cfi_startproc
 1022              	 
 1023              	 
 1024              	 
 1025 0000 80B4     	 push {r7}
 1026              	 .cfi_def_cfa_offset 4
 1027              	 .cfi_offset 7,-4
ARM GAS   			page 32


 1028 0002 83B0     	 sub sp,sp,#12
 1029              	 .cfi_def_cfa_offset 16
 1030 0004 00AF     	 add r7,sp,#0
 1031              	 .cfi_def_cfa_register 7
 1032 0006 7860     	 str r0,[r7,#4]
  85:c:\users\niels\documents\github\dsp\software\stm32basis\gemeenschappelijk\esefreertos\h\stdtaak.h **** 	};
 1033              	 .loc 4 85 14
 1034 0008 7B68     	 ldr r3,[r7,#4]
 1035 000a 9B68     	 ldr r3,[r3,#8]
  86:c:\users\niels\documents\github\dsp\software\stm32basis\gemeenschappelijk\esefreertos\h\stdtaak.h **** 
 1036              	 .loc 4 86 2
 1037 000c 1846     	 mov r0,r3
 1038 000e 0C37     	 adds r7,r7,#12
 1039              	 .cfi_def_cfa_offset 4
 1040 0010 BD46     	 mov sp,r7
 1041              	 .cfi_def_cfa_register 13
 1042              	 
 1043 0012 5DF8047B 	 ldr r7,[sp],#4
 1044              	 .cfi_restore 7
 1045              	 .cfi_def_cfa_offset 0
 1046 0016 7047     	 bx lr
 1047              	 .cfi_endproc
 1048              	.LFE1560:
 1049              	 .size _ZNK10StdTaakMsgILj16EE8geefTypeEv,.-_ZNK10StdTaakMsgILj16EE8geefTypeEv
 1050              	 .section .text._ZNK10StdTaakMsgILj16EE10geefZenderEv,"axG",%progbits,_ZNK10StdTaakMsgILj16EE10geefZenderEv,comdat
 1051              	 .align 1
 1052              	 .weak _ZNK10StdTaakMsgILj16EE10geefZenderEv
 1053              	 .syntax unified
 1054              	 .thumb
 1055              	 .thumb_func
 1056              	 .type _ZNK10StdTaakMsgILj16EE10geefZenderEv,%function
 1057              	_ZNK10StdTaakMsgILj16EE10geefZenderEv:
 1058              	.LFB1561:
  92:c:\users\niels\documents\github\dsp\software\stm32basis\gemeenschappelijk\esefreertos\h\stdtaak.h **** 
  93:c:\users\niels\documents\github\dsp\software\stm32basis\gemeenschappelijk\esefreertos\h\stdtaak.h **** 	TaakPrio geefZender() const
 1059              	 .loc 4 93 11
 1060              	 .cfi_startproc
 1061              	 
 1062              	 
 1063              	 
 1064 0000 80B4     	 push {r7}
 1065              	 .cfi_def_cfa_offset 4
 1066              	 .cfi_offset 7,-4
 1067 0002 83B0     	 sub sp,sp,#12
 1068              	 .cfi_def_cfa_offset 16
 1069 0004 00AF     	 add r7,sp,#0
 1070              	 .cfi_def_cfa_register 7
 1071 0006 7860     	 str r0,[r7,#4]
  94:c:\users\niels\documents\github\dsp\software\stm32basis\gemeenschappelijk\esefreertos\h\stdtaak.h **** 	{
  95:c:\users\niels\documents\github\dsp\software\stm32basis\gemeenschappelijk\esefreertos\h\stdtaak.h **** 		return(zender);
 1072              	 .loc 4 95 16
 1073 0008 7B68     	 ldr r3,[r7,#4]
 1074 000a 1B68     	 ldr r3,[r3]
  96:c:\users\niels\documents\github\dsp\software\stm32basis\gemeenschappelijk\esefreertos\h\stdtaak.h **** 	};
 1075              	 .loc 4 96 2
 1076 000c 1846     	 mov r0,r3
 1077 000e 0C37     	 adds r7,r7,#12
ARM GAS   			page 33


 1078              	 .cfi_def_cfa_offset 4
 1079 0010 BD46     	 mov sp,r7
 1080              	 .cfi_def_cfa_register 13
 1081              	 
 1082 0012 5DF8047B 	 ldr r7,[sp],#4
 1083              	 .cfi_restore 7
 1084              	 .cfi_def_cfa_offset 0
 1085 0016 7047     	 bx lr
 1086              	 .cfi_endproc
 1087              	.LFE1561:
 1088              	 .size _ZNK10StdTaakMsgILj16EE10geefZenderEv,.-_ZNK10StdTaakMsgILj16EE10geefZenderEv
 1089              	 .weak _ZTV7StdTaak
 1090              	 .section .rodata._ZTV7StdTaak,"aG",%progbits,_ZTV7StdTaak,comdat
 1091              	 .align 2
 1092              	 .type _ZTV7StdTaak,%object
 1093              	 .size _ZTV7StdTaak,20
 1094              	_ZTV7StdTaak:
 1095 0000 00000000 	 .word 0
 1096 0004 00000000 	 .word 0
 1097 0008 00000000 	 .word 0
 1098 000c 00000000 	 .word 0
 1099 0010 00000000 	 .word __cxa_pure_virtual
 1100              	 .text
 1101              	.Letext0:
 1102              	 .file 5 "c:\\progra~2\\gnuarm~1\\102021~1.10\\arm-none-eabi\\include\\machine\\_default_types.h"
 1103              	 .file 6 "c:\\progra~2\\gnuarm~1\\102021~1.10\\lib\\gcc\\arm-none-eabi\\10.3.1\\include\\stddef.h"
 1104              	 .file 7 "c:\\progra~2\\gnuarm~1\\102021~1.10\\lib\\gcc\\arm-none-eabi\\10.3.1\\include\\stdarg.h"
 1105              	 .file 8 "c:\\progra~2\\gnuarm~1\\102021~1.10\\arm-none-eabi\\include\\sys\\_types.h"
 1106              	 .file 9 "c:\\progra~2\\gnuarm~1\\102021~1.10\\arm-none-eabi\\include\\sys\\reent.h"
 1107              	 .file 10 "c:\\progra~2\\gnuarm~1\\102021~1.10\\arm-none-eabi\\include\\sys\\lock.h"
 1108              	 .file 11 "c:\\progra~2\\gnuarm~1\\102021~1.10\\arm-none-eabi\\include\\sys\\_stdint.h"
 1109              	 .file 12 "c:\\progra~2\\gnuarm~1\\102021~1.10\\arm-none-eabi\\include\\stdio.h"
 1110              	 .file 13 "c:\\progra~2\\gnuarm~1\\102021~1.10\\arm-none-eabi\\include\\stdint.h"
 1111              	 .file 14 "c:\\progra~2\\gnuarm~1\\102021~1.10\\arm-none-eabi\\include\\c++\\10.3.1\\bits\\basic_string.h"
 1112              	 .file 15 "c:\\progra~2\\gnuarm~1\\102021~1.10\\arm-none-eabi\\include\\c++\\10.3.1\\bits\\cpp_type_traits.h"
 1113              	 .file 16 "c:\\progra~2\\gnuarm~1\\102021~1.10\\arm-none-eabi\\include\\c++\\10.3.1\\cmath"
 1114              	 .file 17 "c:\\progra~2\\gnuarm~1\\102021~1.10\\arm-none-eabi\\include\\c++\\10.3.1\\bits\\std_abs.h"
 1115              	 .file 18 "c:\\progra~2\\gnuarm~1\\102021~1.10\\arm-none-eabi\\include\\c++\\10.3.1\\bits\\exception_ptr.h"
 1116              	 .file 19 "c:\\progra~2\\gnuarm~1\\102021~1.10\\arm-none-eabi\\include\\c++\\10.3.1\\arm-none-eabi\\thumb\\v7e-m+fp\\hard\\bits\\c++config.h"
 1117              	 .file 20 "c:\\progra~2\\gnuarm~1\\102021~1.10\\arm-none-eabi\\include\\c++\\10.3.1\\bits\\stl_pair.h"
 1118              	 .file 21 "c:\\progra~2\\gnuarm~1\\102021~1.10\\arm-none-eabi\\include\\c++\\10.3.1\\type_traits"
 1119              	 .file 22 "c:\\progra~2\\gnuarm~1\\102021~1.10\\arm-none-eabi\\include\\c++\\10.3.1\\debug\\debug.h"
 1120              	 .file 23 "c:\\progra~2\\gnuarm~1\\102021~1.10\\arm-none-eabi\\include\\c++\\10.3.1\\cwchar"
 1121              	 .file 24 "c:\\progra~2\\gnuarm~1\\102021~1.10\\arm-none-eabi\\include\\c++\\10.3.1\\bits\\char_traits.h"
 1122              	 .file 25 "c:\\progra~2\\gnuarm~1\\102021~1.10\\arm-none-eabi\\include\\c++\\10.3.1\\cstdint"
 1123              	 .file 26 "c:\\progra~2\\gnuarm~1\\102021~1.10\\arm-none-eabi\\include\\c++\\10.3.1\\bits\\allocator.h"
 1124              	 .file 27 "c:\\progra~2\\gnuarm~1\\102021~1.10\\arm-none-eabi\\include\\c++\\10.3.1\\clocale"
 1125              	 .file 28 "c:\\progra~2\\gnuarm~1\\102021~1.10\\arm-none-eabi\\include\\c++\\10.3.1\\cstdlib"
 1126              	 .file 29 "c:\\progra~2\\gnuarm~1\\102021~1.10\\arm-none-eabi\\include\\c++\\10.3.1\\cstdio"
 1127              	 .file 30 "c:\\progra~2\\gnuarm~1\\102021~1.10\\arm-none-eabi\\include\\c++\\10.3.1\\bits\\alloc_traits.h"
 1128              	 .file 31 "c:\\progra~2\\gnuarm~1\\102021~1.10\\arm-none-eabi\\include\\c++\\10.3.1\\initializer_list"
 1129              	 .file 32 "c:\\progra~2\\gnuarm~1\\102021~1.10\\arm-none-eabi\\include\\c++\\10.3.1\\bits\\stringfwd.h"
 1130              	 .file 33 "c:\\progra~2\\gnuarm~1\\102021~1.10\\arm-none-eabi\\include\\c++\\10.3.1\\bits\\stl_iterator_base_types.h"
 1131              	 .file 34 "<built-in>"
 1132              	 .file 35 "c:\\progra~2\\gnuarm~1\\102021~1.10\\arm-none-eabi\\include\\c++\\10.3.1\\bits\\predefined_ops.h"
 1133              	 .file 36 "c:\\progra~2\\gnuarm~1\\102021~1.10\\arm-none-eabi\\include\\c++\\10.3.1\\ext\\new_allocator.h"
 1134              	 .file 37 "c:\\progra~2\\gnuarm~1\\102021~1.10\\arm-none-eabi\\include\\c++\\10.3.1\\ext\\alloc_traits.h"
ARM GAS   			page 34


 1135              	 .file 38 "c:\\progra~2\\gnuarm~1\\102021~1.10\\arm-none-eabi\\include\\c++\\10.3.1\\bits\\stl_iterator.h"
 1136              	 .file 39 "c:\\progra~2\\gnuarm~1\\102021~1.10\\arm-none-eabi\\include\\math.h"
 1137              	 .file 40 "c:\\progra~2\\gnuarm~1\\102021~1.10\\arm-none-eabi\\include\\stdlib.h"
 1138              	 .file 41 "c:\\progra~2\\gnuarm~1\\102021~1.10\\arm-none-eabi\\include\\c++\\10.3.1\\math.h"
 1139              	 .file 42 "c:\\users\\niels\\documents\\github\\dsp\\software\\algemeen\\h\\algdef.h"
 1140              	 .file 43 "c:\\progra~2\\gnuarm~1\\102021~1.10\\arm-none-eabi\\include\\wchar.h"
 1141              	 .file 44 "c:\\progra~2\\gnuarm~1\\102021~1.10\\arm-none-eabi\\include\\locale.h"
 1142              	 .file 45 "c:\\users\\niels\\documents\\github\\dsp\\software\\stm32basis\\hal\\gemeenschappelijk\\third_party\\freertos\\source\\portable\\gcc\\arm_cm4f\\portmacro.h"
 1143              	 .file 46 "c:\\users\\niels\\documents\\github\\dsp\\software\\stm32basis\\hal\\gemeenschappelijk\\third_party\\freertos\\source\\include\\task.h"
 1144              	 .file 47 "c:\\users\\niels\\documents\\github\\dsp\\software\\stm32basis\\hal\\gemeenschappelijk\\third_party\\freertos-addons-1.1.0\\c++\\source\\include\\mutex.hpp"
 1145              	 .file 48 "c:\\users\\niels\\documents\\github\\dsp\\software\\stm32basis\\hal\\gemeenschappelijk\\third_party\\freertos-addons-1.1.0\\c++\\source\\include\\queue.hpp"