ARM GAS   			page 1


   1              	 .cpu cortex-m4
   2              	 .arch armv7e-m
   3              	 .fpu fpv4-sp-d16
   4              	 .eabi_attribute 27,1
   5              	 .eabi_attribute 28,1
   6              	 .eabi_attribute 20,1
   7              	 .eabi_attribute 21,1
   8              	 .eabi_attribute 23,3
   9              	 .eabi_attribute 24,1
  10              	 .eabi_attribute 25,1
  11              	 .eabi_attribute 26,1
  12              	 .eabi_attribute 30,6
  13              	 .eabi_attribute 34,0
  14              	 .eabi_attribute 18,4
  15              	 .file "stdTaak.cpp"
  16              	 .text
  17              	.Ltext0:
  18              	 .cfi_sections .debug_frame
  19              	 .section .rodata._ZL2PI,"a"
  20              	 .align 2
  21              	 .type _ZL2PI,%object
  22              	 .size _ZL2PI,4
  23              	_ZL2PI:
  24 0000 DB0F4940 	 .word 1078530011
  25              	 .section .rodata._ZL6TweePI,"a"
  26              	 .align 2
  27              	 .type _ZL6TweePI,%object
  28              	 .size _ZL6TweePI,4
  29              	_ZL6TweePI:
  30 0000 DB0FC940 	 .word 1086918619
  31              	 .section .rodata._ZL5TwoPI,"a"
  32              	 .align 2
  33              	 .type _ZL5TwoPI,%object
  34              	 .size _ZL5TwoPI,4
  35              	_ZL5TwoPI:
  36 0000 DB0FC940 	 .word 1086918619
  37              	 .section .rodata._ZStL19piecewise_construct,"a"
  38              	 .align 2
  39              	 .type _ZStL19piecewise_construct,%object
  40              	 .size _ZStL19piecewise_construct,1
  41              	_ZStL19piecewise_construct:
  42 0000 00       	 .space 1
  43              	 .section .text._ZL20__gthread_key_deletei,"ax",%progbits
  44              	 .align 1
  45              	 .syntax unified
  46              	 .thumb
  47              	 .thumb_func
  48              	 .type _ZL20__gthread_key_deletei,%function
  49              	_ZL20__gthread_key_deletei:
  50              	.LFB893:
  51              	 .file 1 "c:\\progra~2\\gnuarm~1\\102021~1.10\\arm-none-eabi\\include\\c++\\10.3.1\\arm-none-eabi\\thumb\\v7e-m+fp\\hard\\bits\\gthr-default.h"
   1:c:\progra~2\gnuarm~1\102021~1.10\arm-none-eabi\include\c++\10.3.1\arm-none-eabi\thumb\v7e-m+fp\hard\bits\gthr-default.h **** /* Threads compatibility routines for libgcc2 and libobjc.  */
   2:c:\progra~2\gnuarm~1\102021~1.10\arm-none-eabi\include\c++\10.3.1\arm-none-eabi\thumb\v7e-m+fp\hard\bits\gthr-default.h **** /* Compile this one with gcc.  */
   3:c:\progra~2\gnuarm~1\102021~1.10\arm-none-eabi\include\c++\10.3.1\arm-none-eabi\thumb\v7e-m+fp\hard\bits\gthr-default.h **** /* Copyright (C) 1997-2020 Free Software Foundation, Inc.
   4:c:\progra~2\gnuarm~1\102021~1.10\arm-none-eabi\include\c++\10.3.1\arm-none-eabi\thumb\v7e-m+fp\hard\bits\gthr-default.h **** 
   5:c:\progra~2\gnuarm~1\102021~1.10\arm-none-eabi\include\c++\10.3.1\arm-none-eabi\thumb\v7e-m+fp\hard\bits\gthr-default.h **** This file is part of GCC.
   6:c:\progra~2\gnuarm~1\102021~1.10\arm-none-eabi\include\c++\10.3.1\arm-none-eabi\thumb\v7e-m+fp\hard\bits\gthr-default.h **** 
ARM GAS   			page 2


   7:c:\progra~2\gnuarm~1\102021~1.10\arm-none-eabi\include\c++\10.3.1\arm-none-eabi\thumb\v7e-m+fp\hard\bits\gthr-default.h **** GCC is free software; you can redistribute it and/or modify it under
   8:c:\progra~2\gnuarm~1\102021~1.10\arm-none-eabi\include\c++\10.3.1\arm-none-eabi\thumb\v7e-m+fp\hard\bits\gthr-default.h **** the terms of the GNU General Public License as published by the Free
   9:c:\progra~2\gnuarm~1\102021~1.10\arm-none-eabi\include\c++\10.3.1\arm-none-eabi\thumb\v7e-m+fp\hard\bits\gthr-default.h **** Software Foundation; either version 3, or (at your option) any later
  10:c:\progra~2\gnuarm~1\102021~1.10\arm-none-eabi\include\c++\10.3.1\arm-none-eabi\thumb\v7e-m+fp\hard\bits\gthr-default.h **** version.
  11:c:\progra~2\gnuarm~1\102021~1.10\arm-none-eabi\include\c++\10.3.1\arm-none-eabi\thumb\v7e-m+fp\hard\bits\gthr-default.h **** 
  12:c:\progra~2\gnuarm~1\102021~1.10\arm-none-eabi\include\c++\10.3.1\arm-none-eabi\thumb\v7e-m+fp\hard\bits\gthr-default.h **** GCC is distributed in the hope that it will be useful, but WITHOUT ANY
  13:c:\progra~2\gnuarm~1\102021~1.10\arm-none-eabi\include\c++\10.3.1\arm-none-eabi\thumb\v7e-m+fp\hard\bits\gthr-default.h **** WARRANTY; without even the implied warranty of MERCHANTABILITY or
  14:c:\progra~2\gnuarm~1\102021~1.10\arm-none-eabi\include\c++\10.3.1\arm-none-eabi\thumb\v7e-m+fp\hard\bits\gthr-default.h **** FITNESS FOR A PARTICULAR PURPOSE.  See the GNU General Public License
  15:c:\progra~2\gnuarm~1\102021~1.10\arm-none-eabi\include\c++\10.3.1\arm-none-eabi\thumb\v7e-m+fp\hard\bits\gthr-default.h **** for more details.
  16:c:\progra~2\gnuarm~1\102021~1.10\arm-none-eabi\include\c++\10.3.1\arm-none-eabi\thumb\v7e-m+fp\hard\bits\gthr-default.h **** 
  17:c:\progra~2\gnuarm~1\102021~1.10\arm-none-eabi\include\c++\10.3.1\arm-none-eabi\thumb\v7e-m+fp\hard\bits\gthr-default.h **** Under Section 7 of GPL version 3, you are granted additional
  18:c:\progra~2\gnuarm~1\102021~1.10\arm-none-eabi\include\c++\10.3.1\arm-none-eabi\thumb\v7e-m+fp\hard\bits\gthr-default.h **** permissions described in the GCC Runtime Library Exception, version
  19:c:\progra~2\gnuarm~1\102021~1.10\arm-none-eabi\include\c++\10.3.1\arm-none-eabi\thumb\v7e-m+fp\hard\bits\gthr-default.h **** 3.1, as published by the Free Software Foundation.
  20:c:\progra~2\gnuarm~1\102021~1.10\arm-none-eabi\include\c++\10.3.1\arm-none-eabi\thumb\v7e-m+fp\hard\bits\gthr-default.h **** 
  21:c:\progra~2\gnuarm~1\102021~1.10\arm-none-eabi\include\c++\10.3.1\arm-none-eabi\thumb\v7e-m+fp\hard\bits\gthr-default.h **** You should have received a copy of the GNU General Public License and
  22:c:\progra~2\gnuarm~1\102021~1.10\arm-none-eabi\include\c++\10.3.1\arm-none-eabi\thumb\v7e-m+fp\hard\bits\gthr-default.h **** a copy of the GCC Runtime Library Exception along with this program;
  23:c:\progra~2\gnuarm~1\102021~1.10\arm-none-eabi\include\c++\10.3.1\arm-none-eabi\thumb\v7e-m+fp\hard\bits\gthr-default.h **** see the files COPYING3 and COPYING.RUNTIME respectively.  If not, see
  24:c:\progra~2\gnuarm~1\102021~1.10\arm-none-eabi\include\c++\10.3.1\arm-none-eabi\thumb\v7e-m+fp\hard\bits\gthr-default.h **** <http://www.gnu.org/licenses/>.  */
  25:c:\progra~2\gnuarm~1\102021~1.10\arm-none-eabi\include\c++\10.3.1\arm-none-eabi\thumb\v7e-m+fp\hard\bits\gthr-default.h **** 
  26:c:\progra~2\gnuarm~1\102021~1.10\arm-none-eabi\include\c++\10.3.1\arm-none-eabi\thumb\v7e-m+fp\hard\bits\gthr-default.h **** #ifndef _GLIBCXX_GCC_GTHR_SINGLE_H
  27:c:\progra~2\gnuarm~1\102021~1.10\arm-none-eabi\include\c++\10.3.1\arm-none-eabi\thumb\v7e-m+fp\hard\bits\gthr-default.h **** #define _GLIBCXX_GCC_GTHR_SINGLE_H
  28:c:\progra~2\gnuarm~1\102021~1.10\arm-none-eabi\include\c++\10.3.1\arm-none-eabi\thumb\v7e-m+fp\hard\bits\gthr-default.h **** 
  29:c:\progra~2\gnuarm~1\102021~1.10\arm-none-eabi\include\c++\10.3.1\arm-none-eabi\thumb\v7e-m+fp\hard\bits\gthr-default.h **** /* Just provide compatibility for mutex handling.  */
  30:c:\progra~2\gnuarm~1\102021~1.10\arm-none-eabi\include\c++\10.3.1\arm-none-eabi\thumb\v7e-m+fp\hard\bits\gthr-default.h **** 
  31:c:\progra~2\gnuarm~1\102021~1.10\arm-none-eabi\include\c++\10.3.1\arm-none-eabi\thumb\v7e-m+fp\hard\bits\gthr-default.h **** typedef int __gthread_key_t;
  32:c:\progra~2\gnuarm~1\102021~1.10\arm-none-eabi\include\c++\10.3.1\arm-none-eabi\thumb\v7e-m+fp\hard\bits\gthr-default.h **** typedef int __gthread_once_t;
  33:c:\progra~2\gnuarm~1\102021~1.10\arm-none-eabi\include\c++\10.3.1\arm-none-eabi\thumb\v7e-m+fp\hard\bits\gthr-default.h **** typedef int __gthread_mutex_t;
  34:c:\progra~2\gnuarm~1\102021~1.10\arm-none-eabi\include\c++\10.3.1\arm-none-eabi\thumb\v7e-m+fp\hard\bits\gthr-default.h **** typedef int __gthread_recursive_mutex_t;
  35:c:\progra~2\gnuarm~1\102021~1.10\arm-none-eabi\include\c++\10.3.1\arm-none-eabi\thumb\v7e-m+fp\hard\bits\gthr-default.h **** 
  36:c:\progra~2\gnuarm~1\102021~1.10\arm-none-eabi\include\c++\10.3.1\arm-none-eabi\thumb\v7e-m+fp\hard\bits\gthr-default.h **** #define __GTHREAD_ONCE_INIT 0
  37:c:\progra~2\gnuarm~1\102021~1.10\arm-none-eabi\include\c++\10.3.1\arm-none-eabi\thumb\v7e-m+fp\hard\bits\gthr-default.h **** #define __GTHREAD_MUTEX_INIT 0
  38:c:\progra~2\gnuarm~1\102021~1.10\arm-none-eabi\include\c++\10.3.1\arm-none-eabi\thumb\v7e-m+fp\hard\bits\gthr-default.h **** #define __GTHREAD_MUTEX_INIT_FUNCTION(mx) do {} while (0)
  39:c:\progra~2\gnuarm~1\102021~1.10\arm-none-eabi\include\c++\10.3.1\arm-none-eabi\thumb\v7e-m+fp\hard\bits\gthr-default.h **** #define __GTHREAD_RECURSIVE_MUTEX_INIT 0
  40:c:\progra~2\gnuarm~1\102021~1.10\arm-none-eabi\include\c++\10.3.1\arm-none-eabi\thumb\v7e-m+fp\hard\bits\gthr-default.h **** 
  41:c:\progra~2\gnuarm~1\102021~1.10\arm-none-eabi\include\c++\10.3.1\arm-none-eabi\thumb\v7e-m+fp\hard\bits\gthr-default.h **** #define _GLIBCXX_UNUSED __attribute__((__unused__))
  42:c:\progra~2\gnuarm~1\102021~1.10\arm-none-eabi\include\c++\10.3.1\arm-none-eabi\thumb\v7e-m+fp\hard\bits\gthr-default.h **** 
  43:c:\progra~2\gnuarm~1\102021~1.10\arm-none-eabi\include\c++\10.3.1\arm-none-eabi\thumb\v7e-m+fp\hard\bits\gthr-default.h **** #ifdef _LIBOBJC
  44:c:\progra~2\gnuarm~1\102021~1.10\arm-none-eabi\include\c++\10.3.1\arm-none-eabi\thumb\v7e-m+fp\hard\bits\gthr-default.h **** 
  45:c:\progra~2\gnuarm~1\102021~1.10\arm-none-eabi\include\c++\10.3.1\arm-none-eabi\thumb\v7e-m+fp\hard\bits\gthr-default.h **** /* Thread local storage for a single thread */
  46:c:\progra~2\gnuarm~1\102021~1.10\arm-none-eabi\include\c++\10.3.1\arm-none-eabi\thumb\v7e-m+fp\hard\bits\gthr-default.h **** static void *thread_local_storage = NULL;
  47:c:\progra~2\gnuarm~1\102021~1.10\arm-none-eabi\include\c++\10.3.1\arm-none-eabi\thumb\v7e-m+fp\hard\bits\gthr-default.h **** 
  48:c:\progra~2\gnuarm~1\102021~1.10\arm-none-eabi\include\c++\10.3.1\arm-none-eabi\thumb\v7e-m+fp\hard\bits\gthr-default.h **** /* Backend initialization functions */
  49:c:\progra~2\gnuarm~1\102021~1.10\arm-none-eabi\include\c++\10.3.1\arm-none-eabi\thumb\v7e-m+fp\hard\bits\gthr-default.h **** 
  50:c:\progra~2\gnuarm~1\102021~1.10\arm-none-eabi\include\c++\10.3.1\arm-none-eabi\thumb\v7e-m+fp\hard\bits\gthr-default.h **** /* Initialize the threads subsystem.  */
  51:c:\progra~2\gnuarm~1\102021~1.10\arm-none-eabi\include\c++\10.3.1\arm-none-eabi\thumb\v7e-m+fp\hard\bits\gthr-default.h **** static inline int
  52:c:\progra~2\gnuarm~1\102021~1.10\arm-none-eabi\include\c++\10.3.1\arm-none-eabi\thumb\v7e-m+fp\hard\bits\gthr-default.h **** __gthread_objc_init_thread_system (void)
  53:c:\progra~2\gnuarm~1\102021~1.10\arm-none-eabi\include\c++\10.3.1\arm-none-eabi\thumb\v7e-m+fp\hard\bits\gthr-default.h **** {
  54:c:\progra~2\gnuarm~1\102021~1.10\arm-none-eabi\include\c++\10.3.1\arm-none-eabi\thumb\v7e-m+fp\hard\bits\gthr-default.h ****   /* No thread support available */
  55:c:\progra~2\gnuarm~1\102021~1.10\arm-none-eabi\include\c++\10.3.1\arm-none-eabi\thumb\v7e-m+fp\hard\bits\gthr-default.h ****   return -1;
  56:c:\progra~2\gnuarm~1\102021~1.10\arm-none-eabi\include\c++\10.3.1\arm-none-eabi\thumb\v7e-m+fp\hard\bits\gthr-default.h **** }
  57:c:\progra~2\gnuarm~1\102021~1.10\arm-none-eabi\include\c++\10.3.1\arm-none-eabi\thumb\v7e-m+fp\hard\bits\gthr-default.h **** 
  58:c:\progra~2\gnuarm~1\102021~1.10\arm-none-eabi\include\c++\10.3.1\arm-none-eabi\thumb\v7e-m+fp\hard\bits\gthr-default.h **** /* Close the threads subsystem.  */
  59:c:\progra~2\gnuarm~1\102021~1.10\arm-none-eabi\include\c++\10.3.1\arm-none-eabi\thumb\v7e-m+fp\hard\bits\gthr-default.h **** static inline int
  60:c:\progra~2\gnuarm~1\102021~1.10\arm-none-eabi\include\c++\10.3.1\arm-none-eabi\thumb\v7e-m+fp\hard\bits\gthr-default.h **** __gthread_objc_close_thread_system (void)
  61:c:\progra~2\gnuarm~1\102021~1.10\arm-none-eabi\include\c++\10.3.1\arm-none-eabi\thumb\v7e-m+fp\hard\bits\gthr-default.h **** {
  62:c:\progra~2\gnuarm~1\102021~1.10\arm-none-eabi\include\c++\10.3.1\arm-none-eabi\thumb\v7e-m+fp\hard\bits\gthr-default.h ****   /* No thread support available */
  63:c:\progra~2\gnuarm~1\102021~1.10\arm-none-eabi\include\c++\10.3.1\arm-none-eabi\thumb\v7e-m+fp\hard\bits\gthr-default.h ****   return -1;
ARM GAS   			page 3


  64:c:\progra~2\gnuarm~1\102021~1.10\arm-none-eabi\include\c++\10.3.1\arm-none-eabi\thumb\v7e-m+fp\hard\bits\gthr-default.h **** }
  65:c:\progra~2\gnuarm~1\102021~1.10\arm-none-eabi\include\c++\10.3.1\arm-none-eabi\thumb\v7e-m+fp\hard\bits\gthr-default.h **** 
  66:c:\progra~2\gnuarm~1\102021~1.10\arm-none-eabi\include\c++\10.3.1\arm-none-eabi\thumb\v7e-m+fp\hard\bits\gthr-default.h **** /* Backend thread functions */
  67:c:\progra~2\gnuarm~1\102021~1.10\arm-none-eabi\include\c++\10.3.1\arm-none-eabi\thumb\v7e-m+fp\hard\bits\gthr-default.h **** 
  68:c:\progra~2\gnuarm~1\102021~1.10\arm-none-eabi\include\c++\10.3.1\arm-none-eabi\thumb\v7e-m+fp\hard\bits\gthr-default.h **** /* Create a new thread of execution.  */
  69:c:\progra~2\gnuarm~1\102021~1.10\arm-none-eabi\include\c++\10.3.1\arm-none-eabi\thumb\v7e-m+fp\hard\bits\gthr-default.h **** static inline objc_thread_t
  70:c:\progra~2\gnuarm~1\102021~1.10\arm-none-eabi\include\c++\10.3.1\arm-none-eabi\thumb\v7e-m+fp\hard\bits\gthr-default.h **** __gthread_objc_thread_detach (void (* func)(void *), void * arg _GLIBCXX_UNUSED)
  71:c:\progra~2\gnuarm~1\102021~1.10\arm-none-eabi\include\c++\10.3.1\arm-none-eabi\thumb\v7e-m+fp\hard\bits\gthr-default.h **** {
  72:c:\progra~2\gnuarm~1\102021~1.10\arm-none-eabi\include\c++\10.3.1\arm-none-eabi\thumb\v7e-m+fp\hard\bits\gthr-default.h ****   /* No thread support available */
  73:c:\progra~2\gnuarm~1\102021~1.10\arm-none-eabi\include\c++\10.3.1\arm-none-eabi\thumb\v7e-m+fp\hard\bits\gthr-default.h ****   return NULL;
  74:c:\progra~2\gnuarm~1\102021~1.10\arm-none-eabi\include\c++\10.3.1\arm-none-eabi\thumb\v7e-m+fp\hard\bits\gthr-default.h **** }
  75:c:\progra~2\gnuarm~1\102021~1.10\arm-none-eabi\include\c++\10.3.1\arm-none-eabi\thumb\v7e-m+fp\hard\bits\gthr-default.h **** 
  76:c:\progra~2\gnuarm~1\102021~1.10\arm-none-eabi\include\c++\10.3.1\arm-none-eabi\thumb\v7e-m+fp\hard\bits\gthr-default.h **** /* Set the current thread's priority.  */
  77:c:\progra~2\gnuarm~1\102021~1.10\arm-none-eabi\include\c++\10.3.1\arm-none-eabi\thumb\v7e-m+fp\hard\bits\gthr-default.h **** static inline int
  78:c:\progra~2\gnuarm~1\102021~1.10\arm-none-eabi\include\c++\10.3.1\arm-none-eabi\thumb\v7e-m+fp\hard\bits\gthr-default.h **** __gthread_objc_thread_set_priority (int priority _GLIBCXX_UNUSED)
  79:c:\progra~2\gnuarm~1\102021~1.10\arm-none-eabi\include\c++\10.3.1\arm-none-eabi\thumb\v7e-m+fp\hard\bits\gthr-default.h **** {
  80:c:\progra~2\gnuarm~1\102021~1.10\arm-none-eabi\include\c++\10.3.1\arm-none-eabi\thumb\v7e-m+fp\hard\bits\gthr-default.h ****   /* No thread support available */
  81:c:\progra~2\gnuarm~1\102021~1.10\arm-none-eabi\include\c++\10.3.1\arm-none-eabi\thumb\v7e-m+fp\hard\bits\gthr-default.h ****   return -1;
  82:c:\progra~2\gnuarm~1\102021~1.10\arm-none-eabi\include\c++\10.3.1\arm-none-eabi\thumb\v7e-m+fp\hard\bits\gthr-default.h **** }
  83:c:\progra~2\gnuarm~1\102021~1.10\arm-none-eabi\include\c++\10.3.1\arm-none-eabi\thumb\v7e-m+fp\hard\bits\gthr-default.h **** 
  84:c:\progra~2\gnuarm~1\102021~1.10\arm-none-eabi\include\c++\10.3.1\arm-none-eabi\thumb\v7e-m+fp\hard\bits\gthr-default.h **** /* Return the current thread's priority.  */
  85:c:\progra~2\gnuarm~1\102021~1.10\arm-none-eabi\include\c++\10.3.1\arm-none-eabi\thumb\v7e-m+fp\hard\bits\gthr-default.h **** static inline int
  86:c:\progra~2\gnuarm~1\102021~1.10\arm-none-eabi\include\c++\10.3.1\arm-none-eabi\thumb\v7e-m+fp\hard\bits\gthr-default.h **** __gthread_objc_thread_get_priority (void)
  87:c:\progra~2\gnuarm~1\102021~1.10\arm-none-eabi\include\c++\10.3.1\arm-none-eabi\thumb\v7e-m+fp\hard\bits\gthr-default.h **** {
  88:c:\progra~2\gnuarm~1\102021~1.10\arm-none-eabi\include\c++\10.3.1\arm-none-eabi\thumb\v7e-m+fp\hard\bits\gthr-default.h ****   return OBJC_THREAD_INTERACTIVE_PRIORITY;
  89:c:\progra~2\gnuarm~1\102021~1.10\arm-none-eabi\include\c++\10.3.1\arm-none-eabi\thumb\v7e-m+fp\hard\bits\gthr-default.h **** }
  90:c:\progra~2\gnuarm~1\102021~1.10\arm-none-eabi\include\c++\10.3.1\arm-none-eabi\thumb\v7e-m+fp\hard\bits\gthr-default.h **** 
  91:c:\progra~2\gnuarm~1\102021~1.10\arm-none-eabi\include\c++\10.3.1\arm-none-eabi\thumb\v7e-m+fp\hard\bits\gthr-default.h **** /* Yield our process time to another thread.  */
  92:c:\progra~2\gnuarm~1\102021~1.10\arm-none-eabi\include\c++\10.3.1\arm-none-eabi\thumb\v7e-m+fp\hard\bits\gthr-default.h **** static inline void
  93:c:\progra~2\gnuarm~1\102021~1.10\arm-none-eabi\include\c++\10.3.1\arm-none-eabi\thumb\v7e-m+fp\hard\bits\gthr-default.h **** __gthread_objc_thread_yield (void)
  94:c:\progra~2\gnuarm~1\102021~1.10\arm-none-eabi\include\c++\10.3.1\arm-none-eabi\thumb\v7e-m+fp\hard\bits\gthr-default.h **** {
  95:c:\progra~2\gnuarm~1\102021~1.10\arm-none-eabi\include\c++\10.3.1\arm-none-eabi\thumb\v7e-m+fp\hard\bits\gthr-default.h ****   return;
  96:c:\progra~2\gnuarm~1\102021~1.10\arm-none-eabi\include\c++\10.3.1\arm-none-eabi\thumb\v7e-m+fp\hard\bits\gthr-default.h **** }
  97:c:\progra~2\gnuarm~1\102021~1.10\arm-none-eabi\include\c++\10.3.1\arm-none-eabi\thumb\v7e-m+fp\hard\bits\gthr-default.h **** 
  98:c:\progra~2\gnuarm~1\102021~1.10\arm-none-eabi\include\c++\10.3.1\arm-none-eabi\thumb\v7e-m+fp\hard\bits\gthr-default.h **** /* Terminate the current thread.  */
  99:c:\progra~2\gnuarm~1\102021~1.10\arm-none-eabi\include\c++\10.3.1\arm-none-eabi\thumb\v7e-m+fp\hard\bits\gthr-default.h **** static inline int
 100:c:\progra~2\gnuarm~1\102021~1.10\arm-none-eabi\include\c++\10.3.1\arm-none-eabi\thumb\v7e-m+fp\hard\bits\gthr-default.h **** __gthread_objc_thread_exit (void)
 101:c:\progra~2\gnuarm~1\102021~1.10\arm-none-eabi\include\c++\10.3.1\arm-none-eabi\thumb\v7e-m+fp\hard\bits\gthr-default.h **** {
 102:c:\progra~2\gnuarm~1\102021~1.10\arm-none-eabi\include\c++\10.3.1\arm-none-eabi\thumb\v7e-m+fp\hard\bits\gthr-default.h ****   /* No thread support available */
 103:c:\progra~2\gnuarm~1\102021~1.10\arm-none-eabi\include\c++\10.3.1\arm-none-eabi\thumb\v7e-m+fp\hard\bits\gthr-default.h ****   /* Should we really exit the program */
 104:c:\progra~2\gnuarm~1\102021~1.10\arm-none-eabi\include\c++\10.3.1\arm-none-eabi\thumb\v7e-m+fp\hard\bits\gthr-default.h ****   /* exit (&__objc_thread_exit_status); */
 105:c:\progra~2\gnuarm~1\102021~1.10\arm-none-eabi\include\c++\10.3.1\arm-none-eabi\thumb\v7e-m+fp\hard\bits\gthr-default.h ****   return -1;
 106:c:\progra~2\gnuarm~1\102021~1.10\arm-none-eabi\include\c++\10.3.1\arm-none-eabi\thumb\v7e-m+fp\hard\bits\gthr-default.h **** }
 107:c:\progra~2\gnuarm~1\102021~1.10\arm-none-eabi\include\c++\10.3.1\arm-none-eabi\thumb\v7e-m+fp\hard\bits\gthr-default.h **** 
 108:c:\progra~2\gnuarm~1\102021~1.10\arm-none-eabi\include\c++\10.3.1\arm-none-eabi\thumb\v7e-m+fp\hard\bits\gthr-default.h **** /* Returns an integer value which uniquely describes a thread.  */
 109:c:\progra~2\gnuarm~1\102021~1.10\arm-none-eabi\include\c++\10.3.1\arm-none-eabi\thumb\v7e-m+fp\hard\bits\gthr-default.h **** static inline objc_thread_t
 110:c:\progra~2\gnuarm~1\102021~1.10\arm-none-eabi\include\c++\10.3.1\arm-none-eabi\thumb\v7e-m+fp\hard\bits\gthr-default.h **** __gthread_objc_thread_id (void)
 111:c:\progra~2\gnuarm~1\102021~1.10\arm-none-eabi\include\c++\10.3.1\arm-none-eabi\thumb\v7e-m+fp\hard\bits\gthr-default.h **** {
 112:c:\progra~2\gnuarm~1\102021~1.10\arm-none-eabi\include\c++\10.3.1\arm-none-eabi\thumb\v7e-m+fp\hard\bits\gthr-default.h ****   /* No thread support, use 1.  */
 113:c:\progra~2\gnuarm~1\102021~1.10\arm-none-eabi\include\c++\10.3.1\arm-none-eabi\thumb\v7e-m+fp\hard\bits\gthr-default.h ****   return (objc_thread_t) 1;
 114:c:\progra~2\gnuarm~1\102021~1.10\arm-none-eabi\include\c++\10.3.1\arm-none-eabi\thumb\v7e-m+fp\hard\bits\gthr-default.h **** }
 115:c:\progra~2\gnuarm~1\102021~1.10\arm-none-eabi\include\c++\10.3.1\arm-none-eabi\thumb\v7e-m+fp\hard\bits\gthr-default.h **** 
 116:c:\progra~2\gnuarm~1\102021~1.10\arm-none-eabi\include\c++\10.3.1\arm-none-eabi\thumb\v7e-m+fp\hard\bits\gthr-default.h **** /* Sets the thread's local storage pointer.  */
 117:c:\progra~2\gnuarm~1\102021~1.10\arm-none-eabi\include\c++\10.3.1\arm-none-eabi\thumb\v7e-m+fp\hard\bits\gthr-default.h **** static inline int
 118:c:\progra~2\gnuarm~1\102021~1.10\arm-none-eabi\include\c++\10.3.1\arm-none-eabi\thumb\v7e-m+fp\hard\bits\gthr-default.h **** __gthread_objc_thread_set_data (void *value)
 119:c:\progra~2\gnuarm~1\102021~1.10\arm-none-eabi\include\c++\10.3.1\arm-none-eabi\thumb\v7e-m+fp\hard\bits\gthr-default.h **** {
 120:c:\progra~2\gnuarm~1\102021~1.10\arm-none-eabi\include\c++\10.3.1\arm-none-eabi\thumb\v7e-m+fp\hard\bits\gthr-default.h ****   thread_local_storage = value;
ARM GAS   			page 4


 121:c:\progra~2\gnuarm~1\102021~1.10\arm-none-eabi\include\c++\10.3.1\arm-none-eabi\thumb\v7e-m+fp\hard\bits\gthr-default.h ****   return 0;
 122:c:\progra~2\gnuarm~1\102021~1.10\arm-none-eabi\include\c++\10.3.1\arm-none-eabi\thumb\v7e-m+fp\hard\bits\gthr-default.h **** }
 123:c:\progra~2\gnuarm~1\102021~1.10\arm-none-eabi\include\c++\10.3.1\arm-none-eabi\thumb\v7e-m+fp\hard\bits\gthr-default.h **** 
 124:c:\progra~2\gnuarm~1\102021~1.10\arm-none-eabi\include\c++\10.3.1\arm-none-eabi\thumb\v7e-m+fp\hard\bits\gthr-default.h **** /* Returns the thread's local storage pointer.  */
 125:c:\progra~2\gnuarm~1\102021~1.10\arm-none-eabi\include\c++\10.3.1\arm-none-eabi\thumb\v7e-m+fp\hard\bits\gthr-default.h **** static inline void *
 126:c:\progra~2\gnuarm~1\102021~1.10\arm-none-eabi\include\c++\10.3.1\arm-none-eabi\thumb\v7e-m+fp\hard\bits\gthr-default.h **** __gthread_objc_thread_get_data (void)
 127:c:\progra~2\gnuarm~1\102021~1.10\arm-none-eabi\include\c++\10.3.1\arm-none-eabi\thumb\v7e-m+fp\hard\bits\gthr-default.h **** {
 128:c:\progra~2\gnuarm~1\102021~1.10\arm-none-eabi\include\c++\10.3.1\arm-none-eabi\thumb\v7e-m+fp\hard\bits\gthr-default.h ****   return thread_local_storage;
 129:c:\progra~2\gnuarm~1\102021~1.10\arm-none-eabi\include\c++\10.3.1\arm-none-eabi\thumb\v7e-m+fp\hard\bits\gthr-default.h **** }
 130:c:\progra~2\gnuarm~1\102021~1.10\arm-none-eabi\include\c++\10.3.1\arm-none-eabi\thumb\v7e-m+fp\hard\bits\gthr-default.h **** 
 131:c:\progra~2\gnuarm~1\102021~1.10\arm-none-eabi\include\c++\10.3.1\arm-none-eabi\thumb\v7e-m+fp\hard\bits\gthr-default.h **** /* Backend mutex functions */
 132:c:\progra~2\gnuarm~1\102021~1.10\arm-none-eabi\include\c++\10.3.1\arm-none-eabi\thumb\v7e-m+fp\hard\bits\gthr-default.h **** 
 133:c:\progra~2\gnuarm~1\102021~1.10\arm-none-eabi\include\c++\10.3.1\arm-none-eabi\thumb\v7e-m+fp\hard\bits\gthr-default.h **** /* Allocate a mutex.  */
 134:c:\progra~2\gnuarm~1\102021~1.10\arm-none-eabi\include\c++\10.3.1\arm-none-eabi\thumb\v7e-m+fp\hard\bits\gthr-default.h **** static inline int
 135:c:\progra~2\gnuarm~1\102021~1.10\arm-none-eabi\include\c++\10.3.1\arm-none-eabi\thumb\v7e-m+fp\hard\bits\gthr-default.h **** __gthread_objc_mutex_allocate (objc_mutex_t mutex _GLIBCXX_UNUSED)
 136:c:\progra~2\gnuarm~1\102021~1.10\arm-none-eabi\include\c++\10.3.1\arm-none-eabi\thumb\v7e-m+fp\hard\bits\gthr-default.h **** {
 137:c:\progra~2\gnuarm~1\102021~1.10\arm-none-eabi\include\c++\10.3.1\arm-none-eabi\thumb\v7e-m+fp\hard\bits\gthr-default.h ****   return 0;
 138:c:\progra~2\gnuarm~1\102021~1.10\arm-none-eabi\include\c++\10.3.1\arm-none-eabi\thumb\v7e-m+fp\hard\bits\gthr-default.h **** }
 139:c:\progra~2\gnuarm~1\102021~1.10\arm-none-eabi\include\c++\10.3.1\arm-none-eabi\thumb\v7e-m+fp\hard\bits\gthr-default.h **** 
 140:c:\progra~2\gnuarm~1\102021~1.10\arm-none-eabi\include\c++\10.3.1\arm-none-eabi\thumb\v7e-m+fp\hard\bits\gthr-default.h **** /* Deallocate a mutex.  */
 141:c:\progra~2\gnuarm~1\102021~1.10\arm-none-eabi\include\c++\10.3.1\arm-none-eabi\thumb\v7e-m+fp\hard\bits\gthr-default.h **** static inline int
 142:c:\progra~2\gnuarm~1\102021~1.10\arm-none-eabi\include\c++\10.3.1\arm-none-eabi\thumb\v7e-m+fp\hard\bits\gthr-default.h **** __gthread_objc_mutex_deallocate (objc_mutex_t mutex _GLIBCXX_UNUSED)
 143:c:\progra~2\gnuarm~1\102021~1.10\arm-none-eabi\include\c++\10.3.1\arm-none-eabi\thumb\v7e-m+fp\hard\bits\gthr-default.h **** {
 144:c:\progra~2\gnuarm~1\102021~1.10\arm-none-eabi\include\c++\10.3.1\arm-none-eabi\thumb\v7e-m+fp\hard\bits\gthr-default.h ****   return 0;
 145:c:\progra~2\gnuarm~1\102021~1.10\arm-none-eabi\include\c++\10.3.1\arm-none-eabi\thumb\v7e-m+fp\hard\bits\gthr-default.h **** }
 146:c:\progra~2\gnuarm~1\102021~1.10\arm-none-eabi\include\c++\10.3.1\arm-none-eabi\thumb\v7e-m+fp\hard\bits\gthr-default.h **** 
 147:c:\progra~2\gnuarm~1\102021~1.10\arm-none-eabi\include\c++\10.3.1\arm-none-eabi\thumb\v7e-m+fp\hard\bits\gthr-default.h **** /* Grab a lock on a mutex.  */
 148:c:\progra~2\gnuarm~1\102021~1.10\arm-none-eabi\include\c++\10.3.1\arm-none-eabi\thumb\v7e-m+fp\hard\bits\gthr-default.h **** static inline int
 149:c:\progra~2\gnuarm~1\102021~1.10\arm-none-eabi\include\c++\10.3.1\arm-none-eabi\thumb\v7e-m+fp\hard\bits\gthr-default.h **** __gthread_objc_mutex_lock (objc_mutex_t mutex _GLIBCXX_UNUSED)
 150:c:\progra~2\gnuarm~1\102021~1.10\arm-none-eabi\include\c++\10.3.1\arm-none-eabi\thumb\v7e-m+fp\hard\bits\gthr-default.h **** {
 151:c:\progra~2\gnuarm~1\102021~1.10\arm-none-eabi\include\c++\10.3.1\arm-none-eabi\thumb\v7e-m+fp\hard\bits\gthr-default.h ****   /* There can only be one thread, so we always get the lock */
 152:c:\progra~2\gnuarm~1\102021~1.10\arm-none-eabi\include\c++\10.3.1\arm-none-eabi\thumb\v7e-m+fp\hard\bits\gthr-default.h ****   return 0;
 153:c:\progra~2\gnuarm~1\102021~1.10\arm-none-eabi\include\c++\10.3.1\arm-none-eabi\thumb\v7e-m+fp\hard\bits\gthr-default.h **** }
 154:c:\progra~2\gnuarm~1\102021~1.10\arm-none-eabi\include\c++\10.3.1\arm-none-eabi\thumb\v7e-m+fp\hard\bits\gthr-default.h **** 
 155:c:\progra~2\gnuarm~1\102021~1.10\arm-none-eabi\include\c++\10.3.1\arm-none-eabi\thumb\v7e-m+fp\hard\bits\gthr-default.h **** /* Try to grab a lock on a mutex.  */
 156:c:\progra~2\gnuarm~1\102021~1.10\arm-none-eabi\include\c++\10.3.1\arm-none-eabi\thumb\v7e-m+fp\hard\bits\gthr-default.h **** static inline int
 157:c:\progra~2\gnuarm~1\102021~1.10\arm-none-eabi\include\c++\10.3.1\arm-none-eabi\thumb\v7e-m+fp\hard\bits\gthr-default.h **** __gthread_objc_mutex_trylock (objc_mutex_t mutex _GLIBCXX_UNUSED)
 158:c:\progra~2\gnuarm~1\102021~1.10\arm-none-eabi\include\c++\10.3.1\arm-none-eabi\thumb\v7e-m+fp\hard\bits\gthr-default.h **** {
 159:c:\progra~2\gnuarm~1\102021~1.10\arm-none-eabi\include\c++\10.3.1\arm-none-eabi\thumb\v7e-m+fp\hard\bits\gthr-default.h ****   /* There can only be one thread, so we always get the lock */
 160:c:\progra~2\gnuarm~1\102021~1.10\arm-none-eabi\include\c++\10.3.1\arm-none-eabi\thumb\v7e-m+fp\hard\bits\gthr-default.h ****   return 0;
 161:c:\progra~2\gnuarm~1\102021~1.10\arm-none-eabi\include\c++\10.3.1\arm-none-eabi\thumb\v7e-m+fp\hard\bits\gthr-default.h **** }
 162:c:\progra~2\gnuarm~1\102021~1.10\arm-none-eabi\include\c++\10.3.1\arm-none-eabi\thumb\v7e-m+fp\hard\bits\gthr-default.h **** 
 163:c:\progra~2\gnuarm~1\102021~1.10\arm-none-eabi\include\c++\10.3.1\arm-none-eabi\thumb\v7e-m+fp\hard\bits\gthr-default.h **** /* Unlock the mutex */
 164:c:\progra~2\gnuarm~1\102021~1.10\arm-none-eabi\include\c++\10.3.1\arm-none-eabi\thumb\v7e-m+fp\hard\bits\gthr-default.h **** static inline int
 165:c:\progra~2\gnuarm~1\102021~1.10\arm-none-eabi\include\c++\10.3.1\arm-none-eabi\thumb\v7e-m+fp\hard\bits\gthr-default.h **** __gthread_objc_mutex_unlock (objc_mutex_t mutex _GLIBCXX_UNUSED)
 166:c:\progra~2\gnuarm~1\102021~1.10\arm-none-eabi\include\c++\10.3.1\arm-none-eabi\thumb\v7e-m+fp\hard\bits\gthr-default.h **** {
 167:c:\progra~2\gnuarm~1\102021~1.10\arm-none-eabi\include\c++\10.3.1\arm-none-eabi\thumb\v7e-m+fp\hard\bits\gthr-default.h ****   return 0;
 168:c:\progra~2\gnuarm~1\102021~1.10\arm-none-eabi\include\c++\10.3.1\arm-none-eabi\thumb\v7e-m+fp\hard\bits\gthr-default.h **** }
 169:c:\progra~2\gnuarm~1\102021~1.10\arm-none-eabi\include\c++\10.3.1\arm-none-eabi\thumb\v7e-m+fp\hard\bits\gthr-default.h **** 
 170:c:\progra~2\gnuarm~1\102021~1.10\arm-none-eabi\include\c++\10.3.1\arm-none-eabi\thumb\v7e-m+fp\hard\bits\gthr-default.h **** /* Backend condition mutex functions */
 171:c:\progra~2\gnuarm~1\102021~1.10\arm-none-eabi\include\c++\10.3.1\arm-none-eabi\thumb\v7e-m+fp\hard\bits\gthr-default.h **** 
 172:c:\progra~2\gnuarm~1\102021~1.10\arm-none-eabi\include\c++\10.3.1\arm-none-eabi\thumb\v7e-m+fp\hard\bits\gthr-default.h **** /* Allocate a condition.  */
 173:c:\progra~2\gnuarm~1\102021~1.10\arm-none-eabi\include\c++\10.3.1\arm-none-eabi\thumb\v7e-m+fp\hard\bits\gthr-default.h **** static inline int
 174:c:\progra~2\gnuarm~1\102021~1.10\arm-none-eabi\include\c++\10.3.1\arm-none-eabi\thumb\v7e-m+fp\hard\bits\gthr-default.h **** __gthread_objc_condition_allocate (objc_condition_t condition _GLIBCXX_UNUSED)
 175:c:\progra~2\gnuarm~1\102021~1.10\arm-none-eabi\include\c++\10.3.1\arm-none-eabi\thumb\v7e-m+fp\hard\bits\gthr-default.h **** {
 176:c:\progra~2\gnuarm~1\102021~1.10\arm-none-eabi\include\c++\10.3.1\arm-none-eabi\thumb\v7e-m+fp\hard\bits\gthr-default.h ****   return 0;
 177:c:\progra~2\gnuarm~1\102021~1.10\arm-none-eabi\include\c++\10.3.1\arm-none-eabi\thumb\v7e-m+fp\hard\bits\gthr-default.h **** }
ARM GAS   			page 5


 178:c:\progra~2\gnuarm~1\102021~1.10\arm-none-eabi\include\c++\10.3.1\arm-none-eabi\thumb\v7e-m+fp\hard\bits\gthr-default.h **** 
 179:c:\progra~2\gnuarm~1\102021~1.10\arm-none-eabi\include\c++\10.3.1\arm-none-eabi\thumb\v7e-m+fp\hard\bits\gthr-default.h **** /* Deallocate a condition.  */
 180:c:\progra~2\gnuarm~1\102021~1.10\arm-none-eabi\include\c++\10.3.1\arm-none-eabi\thumb\v7e-m+fp\hard\bits\gthr-default.h **** static inline int
 181:c:\progra~2\gnuarm~1\102021~1.10\arm-none-eabi\include\c++\10.3.1\arm-none-eabi\thumb\v7e-m+fp\hard\bits\gthr-default.h **** __gthread_objc_condition_deallocate (objc_condition_t condition _GLIBCXX_UNUSED)
 182:c:\progra~2\gnuarm~1\102021~1.10\arm-none-eabi\include\c++\10.3.1\arm-none-eabi\thumb\v7e-m+fp\hard\bits\gthr-default.h **** {
 183:c:\progra~2\gnuarm~1\102021~1.10\arm-none-eabi\include\c++\10.3.1\arm-none-eabi\thumb\v7e-m+fp\hard\bits\gthr-default.h ****   return 0;
 184:c:\progra~2\gnuarm~1\102021~1.10\arm-none-eabi\include\c++\10.3.1\arm-none-eabi\thumb\v7e-m+fp\hard\bits\gthr-default.h **** }
 185:c:\progra~2\gnuarm~1\102021~1.10\arm-none-eabi\include\c++\10.3.1\arm-none-eabi\thumb\v7e-m+fp\hard\bits\gthr-default.h **** 
 186:c:\progra~2\gnuarm~1\102021~1.10\arm-none-eabi\include\c++\10.3.1\arm-none-eabi\thumb\v7e-m+fp\hard\bits\gthr-default.h **** /* Wait on the condition */
 187:c:\progra~2\gnuarm~1\102021~1.10\arm-none-eabi\include\c++\10.3.1\arm-none-eabi\thumb\v7e-m+fp\hard\bits\gthr-default.h **** static inline int
 188:c:\progra~2\gnuarm~1\102021~1.10\arm-none-eabi\include\c++\10.3.1\arm-none-eabi\thumb\v7e-m+fp\hard\bits\gthr-default.h **** __gthread_objc_condition_wait (objc_condition_t condition _GLIBCXX_UNUSED,
 189:c:\progra~2\gnuarm~1\102021~1.10\arm-none-eabi\include\c++\10.3.1\arm-none-eabi\thumb\v7e-m+fp\hard\bits\gthr-default.h **** 			       objc_mutex_t mutex _GLIBCXX_UNUSED)
 190:c:\progra~2\gnuarm~1\102021~1.10\arm-none-eabi\include\c++\10.3.1\arm-none-eabi\thumb\v7e-m+fp\hard\bits\gthr-default.h **** {
 191:c:\progra~2\gnuarm~1\102021~1.10\arm-none-eabi\include\c++\10.3.1\arm-none-eabi\thumb\v7e-m+fp\hard\bits\gthr-default.h ****   return 0;
 192:c:\progra~2\gnuarm~1\102021~1.10\arm-none-eabi\include\c++\10.3.1\arm-none-eabi\thumb\v7e-m+fp\hard\bits\gthr-default.h **** }
 193:c:\progra~2\gnuarm~1\102021~1.10\arm-none-eabi\include\c++\10.3.1\arm-none-eabi\thumb\v7e-m+fp\hard\bits\gthr-default.h **** 
 194:c:\progra~2\gnuarm~1\102021~1.10\arm-none-eabi\include\c++\10.3.1\arm-none-eabi\thumb\v7e-m+fp\hard\bits\gthr-default.h **** /* Wake up all threads waiting on this condition.  */
 195:c:\progra~2\gnuarm~1\102021~1.10\arm-none-eabi\include\c++\10.3.1\arm-none-eabi\thumb\v7e-m+fp\hard\bits\gthr-default.h **** static inline int
 196:c:\progra~2\gnuarm~1\102021~1.10\arm-none-eabi\include\c++\10.3.1\arm-none-eabi\thumb\v7e-m+fp\hard\bits\gthr-default.h **** __gthread_objc_condition_broadcast (objc_condition_t condition _GLIBCXX_UNUSED)
 197:c:\progra~2\gnuarm~1\102021~1.10\arm-none-eabi\include\c++\10.3.1\arm-none-eabi\thumb\v7e-m+fp\hard\bits\gthr-default.h **** {
 198:c:\progra~2\gnuarm~1\102021~1.10\arm-none-eabi\include\c++\10.3.1\arm-none-eabi\thumb\v7e-m+fp\hard\bits\gthr-default.h ****   return 0;
 199:c:\progra~2\gnuarm~1\102021~1.10\arm-none-eabi\include\c++\10.3.1\arm-none-eabi\thumb\v7e-m+fp\hard\bits\gthr-default.h **** }
 200:c:\progra~2\gnuarm~1\102021~1.10\arm-none-eabi\include\c++\10.3.1\arm-none-eabi\thumb\v7e-m+fp\hard\bits\gthr-default.h **** 
 201:c:\progra~2\gnuarm~1\102021~1.10\arm-none-eabi\include\c++\10.3.1\arm-none-eabi\thumb\v7e-m+fp\hard\bits\gthr-default.h **** /* Wake up one thread waiting on this condition.  */
 202:c:\progra~2\gnuarm~1\102021~1.10\arm-none-eabi\include\c++\10.3.1\arm-none-eabi\thumb\v7e-m+fp\hard\bits\gthr-default.h **** static inline int
 203:c:\progra~2\gnuarm~1\102021~1.10\arm-none-eabi\include\c++\10.3.1\arm-none-eabi\thumb\v7e-m+fp\hard\bits\gthr-default.h **** __gthread_objc_condition_signal (objc_condition_t condition _GLIBCXX_UNUSED)
 204:c:\progra~2\gnuarm~1\102021~1.10\arm-none-eabi\include\c++\10.3.1\arm-none-eabi\thumb\v7e-m+fp\hard\bits\gthr-default.h **** {
 205:c:\progra~2\gnuarm~1\102021~1.10\arm-none-eabi\include\c++\10.3.1\arm-none-eabi\thumb\v7e-m+fp\hard\bits\gthr-default.h ****   return 0;
 206:c:\progra~2\gnuarm~1\102021~1.10\arm-none-eabi\include\c++\10.3.1\arm-none-eabi\thumb\v7e-m+fp\hard\bits\gthr-default.h **** }
 207:c:\progra~2\gnuarm~1\102021~1.10\arm-none-eabi\include\c++\10.3.1\arm-none-eabi\thumb\v7e-m+fp\hard\bits\gthr-default.h **** 
 208:c:\progra~2\gnuarm~1\102021~1.10\arm-none-eabi\include\c++\10.3.1\arm-none-eabi\thumb\v7e-m+fp\hard\bits\gthr-default.h **** #else /* _LIBOBJC */
 209:c:\progra~2\gnuarm~1\102021~1.10\arm-none-eabi\include\c++\10.3.1\arm-none-eabi\thumb\v7e-m+fp\hard\bits\gthr-default.h **** 
 210:c:\progra~2\gnuarm~1\102021~1.10\arm-none-eabi\include\c++\10.3.1\arm-none-eabi\thumb\v7e-m+fp\hard\bits\gthr-default.h **** static inline int
 211:c:\progra~2\gnuarm~1\102021~1.10\arm-none-eabi\include\c++\10.3.1\arm-none-eabi\thumb\v7e-m+fp\hard\bits\gthr-default.h **** __gthread_active_p (void)
 212:c:\progra~2\gnuarm~1\102021~1.10\arm-none-eabi\include\c++\10.3.1\arm-none-eabi\thumb\v7e-m+fp\hard\bits\gthr-default.h **** {
 213:c:\progra~2\gnuarm~1\102021~1.10\arm-none-eabi\include\c++\10.3.1\arm-none-eabi\thumb\v7e-m+fp\hard\bits\gthr-default.h ****   return 0;
 214:c:\progra~2\gnuarm~1\102021~1.10\arm-none-eabi\include\c++\10.3.1\arm-none-eabi\thumb\v7e-m+fp\hard\bits\gthr-default.h **** }
 215:c:\progra~2\gnuarm~1\102021~1.10\arm-none-eabi\include\c++\10.3.1\arm-none-eabi\thumb\v7e-m+fp\hard\bits\gthr-default.h **** 
 216:c:\progra~2\gnuarm~1\102021~1.10\arm-none-eabi\include\c++\10.3.1\arm-none-eabi\thumb\v7e-m+fp\hard\bits\gthr-default.h **** static inline int
 217:c:\progra~2\gnuarm~1\102021~1.10\arm-none-eabi\include\c++\10.3.1\arm-none-eabi\thumb\v7e-m+fp\hard\bits\gthr-default.h **** __gthread_once (__gthread_once_t *__once _GLIBCXX_UNUSED, void (*__func) (void) _GLIBCXX_UNUSED)
 218:c:\progra~2\gnuarm~1\102021~1.10\arm-none-eabi\include\c++\10.3.1\arm-none-eabi\thumb\v7e-m+fp\hard\bits\gthr-default.h **** {
 219:c:\progra~2\gnuarm~1\102021~1.10\arm-none-eabi\include\c++\10.3.1\arm-none-eabi\thumb\v7e-m+fp\hard\bits\gthr-default.h ****   return 0;
 220:c:\progra~2\gnuarm~1\102021~1.10\arm-none-eabi\include\c++\10.3.1\arm-none-eabi\thumb\v7e-m+fp\hard\bits\gthr-default.h **** }
 221:c:\progra~2\gnuarm~1\102021~1.10\arm-none-eabi\include\c++\10.3.1\arm-none-eabi\thumb\v7e-m+fp\hard\bits\gthr-default.h **** 
 222:c:\progra~2\gnuarm~1\102021~1.10\arm-none-eabi\include\c++\10.3.1\arm-none-eabi\thumb\v7e-m+fp\hard\bits\gthr-default.h **** static inline int _GLIBCXX_UNUSED
 223:c:\progra~2\gnuarm~1\102021~1.10\arm-none-eabi\include\c++\10.3.1\arm-none-eabi\thumb\v7e-m+fp\hard\bits\gthr-default.h **** __gthread_key_create (__gthread_key_t *__key _GLIBCXX_UNUSED, void (*__func) (void *) _GLIBCXX_UNUS
 224:c:\progra~2\gnuarm~1\102021~1.10\arm-none-eabi\include\c++\10.3.1\arm-none-eabi\thumb\v7e-m+fp\hard\bits\gthr-default.h **** {
 225:c:\progra~2\gnuarm~1\102021~1.10\arm-none-eabi\include\c++\10.3.1\arm-none-eabi\thumb\v7e-m+fp\hard\bits\gthr-default.h ****   return 0;
 226:c:\progra~2\gnuarm~1\102021~1.10\arm-none-eabi\include\c++\10.3.1\arm-none-eabi\thumb\v7e-m+fp\hard\bits\gthr-default.h **** }
 227:c:\progra~2\gnuarm~1\102021~1.10\arm-none-eabi\include\c++\10.3.1\arm-none-eabi\thumb\v7e-m+fp\hard\bits\gthr-default.h **** 
 228:c:\progra~2\gnuarm~1\102021~1.10\arm-none-eabi\include\c++\10.3.1\arm-none-eabi\thumb\v7e-m+fp\hard\bits\gthr-default.h **** static int _GLIBCXX_UNUSED
 229:c:\progra~2\gnuarm~1\102021~1.10\arm-none-eabi\include\c++\10.3.1\arm-none-eabi\thumb\v7e-m+fp\hard\bits\gthr-default.h **** __gthread_key_delete (__gthread_key_t __key _GLIBCXX_UNUSED)
 230:c:\progra~2\gnuarm~1\102021~1.10\arm-none-eabi\include\c++\10.3.1\arm-none-eabi\thumb\v7e-m+fp\hard\bits\gthr-default.h **** {
  52              	 .loc 1 230 1
  53              	 .cfi_startproc
  54              	 
  55              	 
ARM GAS   			page 6


  56              	 
  57 0000 80B4     	 push {r7}
  58              	 .cfi_def_cfa_offset 4
  59              	 .cfi_offset 7,-4
  60 0002 83B0     	 sub sp,sp,#12
  61              	 .cfi_def_cfa_offset 16
  62 0004 00AF     	 add r7,sp,#0
  63              	 .cfi_def_cfa_register 7
  64 0006 7860     	 str r0,[r7,#4]
 231:c:\progra~2\gnuarm~1\102021~1.10\arm-none-eabi\include\c++\10.3.1\arm-none-eabi\thumb\v7e-m+fp\hard\bits\gthr-default.h ****   return 0;
  65              	 .loc 1 231 10
  66 0008 0023     	 movs r3,#0
 232:c:\progra~2\gnuarm~1\102021~1.10\arm-none-eabi\include\c++\10.3.1\arm-none-eabi\thumb\v7e-m+fp\hard\bits\gthr-default.h **** }
  67              	 .loc 1 232 1
  68 000a 1846     	 mov r0,r3
  69 000c 0C37     	 adds r7,r7,#12
  70              	 .cfi_def_cfa_offset 4
  71 000e BD46     	 mov sp,r7
  72              	 .cfi_def_cfa_register 13
  73              	 
  74 0010 5DF8047B 	 ldr r7,[sp],#4
  75              	 .cfi_restore 7
  76              	 .cfi_def_cfa_offset 0
  77 0014 7047     	 bx lr
  78              	 .cfi_endproc
  79              	.LFE893:
  80              	 .size _ZL20__gthread_key_deletei,.-_ZL20__gthread_key_deletei
  81              	 .section .text._ZN12cpp_freertos6Thread9GetHandleEv,"axG",%progbits,_ZN12cpp_freertos6Thread9GetHandleEv,comdat
  82              	 .align 1
  83              	 .weak _ZN12cpp_freertos6Thread9GetHandleEv
  84              	 .syntax unified
  85              	 .thumb
  86              	 .thumb_func
  87              	 .type _ZN12cpp_freertos6Thread9GetHandleEv,%function
  88              	_ZN12cpp_freertos6Thread9GetHandleEv:
  89              	.LFB1264:
  90              	 .file 2 "c:\\users\\niels\\documents\\github\\dsp\\software\\stm32basis\\hal\\gemeenschappelijk\\third_party\\freertos-addons-1.1.0\\c++\\source\\include\\thread.hpp"
   1:c:\users\niels\documents\github\dsp\software\stm32basis\hal\gemeenschappelijk\third_party\freertos-addons-1.1.0\c++\source\include\thread.hpp ****  /****************************************************************************
   2:c:\users\niels\documents\github\dsp\software\stm32basis\hal\gemeenschappelijk\third_party\freertos-addons-1.1.0\c++\source\include\thread.hpp ****  *
   3:c:\users\niels\documents\github\dsp\software\stm32basis\hal\gemeenschappelijk\third_party\freertos-addons-1.1.0\c++\source\include\thread.hpp ****  *  Copyright (c) 2016, Michael Becker (michael.f.becker@gmail.com)
   4:c:\users\niels\documents\github\dsp\software\stm32basis\hal\gemeenschappelijk\third_party\freertos-addons-1.1.0\c++\source\include\thread.hpp ****  *
   5:c:\users\niels\documents\github\dsp\software\stm32basis\hal\gemeenschappelijk\third_party\freertos-addons-1.1.0\c++\source\include\thread.hpp ****  *  This file is part of the FreeRTOS C++ Wrappers project.
   6:c:\users\niels\documents\github\dsp\software\stm32basis\hal\gemeenschappelijk\third_party\freertos-addons-1.1.0\c++\source\include\thread.hpp ****  *
   7:c:\users\niels\documents\github\dsp\software\stm32basis\hal\gemeenschappelijk\third_party\freertos-addons-1.1.0\c++\source\include\thread.hpp ****  *  The FreeRTOS C++ Wrappers project is free software: you can redistribute
   8:c:\users\niels\documents\github\dsp\software\stm32basis\hal\gemeenschappelijk\third_party\freertos-addons-1.1.0\c++\source\include\thread.hpp ****  *  it and/or modify it under the terms of the GNU General Public License as
   9:c:\users\niels\documents\github\dsp\software\stm32basis\hal\gemeenschappelijk\third_party\freertos-addons-1.1.0\c++\source\include\thread.hpp ****  *  published by the Free Software Foundation, either version 2
  10:c:\users\niels\documents\github\dsp\software\stm32basis\hal\gemeenschappelijk\third_party\freertos-addons-1.1.0\c++\source\include\thread.hpp ****  *  of the License, or (at your option) any later version.
  11:c:\users\niels\documents\github\dsp\software\stm32basis\hal\gemeenschappelijk\third_party\freertos-addons-1.1.0\c++\source\include\thread.hpp ****  *
  12:c:\users\niels\documents\github\dsp\software\stm32basis\hal\gemeenschappelijk\third_party\freertos-addons-1.1.0\c++\source\include\thread.hpp ****  *  The FreeRTOS C++ Wrappers project is distributed in the hope that it will
  13:c:\users\niels\documents\github\dsp\software\stm32basis\hal\gemeenschappelijk\third_party\freertos-addons-1.1.0\c++\source\include\thread.hpp ****  *  be useful, but WITHOUT ANY WARRANTY; without even the implied warranty of
  14:c:\users\niels\documents\github\dsp\software\stm32basis\hal\gemeenschappelijk\third_party\freertos-addons-1.1.0\c++\source\include\thread.hpp ****  *  MERCHANTABILITY or FITNESS FOR A PARTICULAR PURPOSE.  See the
  15:c:\users\niels\documents\github\dsp\software\stm32basis\hal\gemeenschappelijk\third_party\freertos-addons-1.1.0\c++\source\include\thread.hpp ****  *  GNU General Public License for more details.
  16:c:\users\niels\documents\github\dsp\software\stm32basis\hal\gemeenschappelijk\third_party\freertos-addons-1.1.0\c++\source\include\thread.hpp ****  *
  17:c:\users\niels\documents\github\dsp\software\stm32basis\hal\gemeenschappelijk\third_party\freertos-addons-1.1.0\c++\source\include\thread.hpp ****  *  You should have received a copy of the GNU General Public License
  18:c:\users\niels\documents\github\dsp\software\stm32basis\hal\gemeenschappelijk\third_party\freertos-addons-1.1.0\c++\source\include\thread.hpp ****  *  along with the FreeRTOS C++ Wrappers project.
  19:c:\users\niels\documents\github\dsp\software\stm32basis\hal\gemeenschappelijk\third_party\freertos-addons-1.1.0\c++\source\include\thread.hpp ****  *  If not, see <http://www.gnu.org/licenses/>.
  20:c:\users\niels\documents\github\dsp\software\stm32basis\hal\gemeenschappelijk\third_party\freertos-addons-1.1.0\c++\source\include\thread.hpp ****  *
ARM GAS   			page 7


  21:c:\users\niels\documents\github\dsp\software\stm32basis\hal\gemeenschappelijk\third_party\freertos-addons-1.1.0\c++\source\include\thread.hpp ****  ***************************************************************************/
  22:c:\users\niels\documents\github\dsp\software\stm32basis\hal\gemeenschappelijk\third_party\freertos-addons-1.1.0\c++\source\include\thread.hpp **** #ifndef THREAD_HPP_
  23:c:\users\niels\documents\github\dsp\software\stm32basis\hal\gemeenschappelijk\third_party\freertos-addons-1.1.0\c++\source\include\thread.hpp **** #define THREAD_HPP_
  24:c:\users\niels\documents\github\dsp\software\stm32basis\hal\gemeenschappelijk\third_party\freertos-addons-1.1.0\c++\source\include\thread.hpp **** 
  25:c:\users\niels\documents\github\dsp\software\stm32basis\hal\gemeenschappelijk\third_party\freertos-addons-1.1.0\c++\source\include\thread.hpp **** #include <exception>
  26:c:\users\niels\documents\github\dsp\software\stm32basis\hal\gemeenschappelijk\third_party\freertos-addons-1.1.0\c++\source\include\thread.hpp **** #include <string>
  27:c:\users\niels\documents\github\dsp\software\stm32basis\hal\gemeenschappelijk\third_party\freertos-addons-1.1.0\c++\source\include\thread.hpp **** #include "FreeRTOS.h"
  28:c:\users\niels\documents\github\dsp\software\stm32basis\hal\gemeenschappelijk\third_party\freertos-addons-1.1.0\c++\source\include\thread.hpp **** #include "task.h"
  29:c:\users\niels\documents\github\dsp\software\stm32basis\hal\gemeenschappelijk\third_party\freertos-addons-1.1.0\c++\source\include\thread.hpp **** #include "mutex.hpp"
  30:c:\users\niels\documents\github\dsp\software\stm32basis\hal\gemeenschappelijk\third_party\freertos-addons-1.1.0\c++\source\include\thread.hpp **** 
  31:c:\users\niels\documents\github\dsp\software\stm32basis\hal\gemeenschappelijk\third_party\freertos-addons-1.1.0\c++\source\include\thread.hpp **** namespace cpp_freertos {
  32:c:\users\niels\documents\github\dsp\software\stm32basis\hal\gemeenschappelijk\third_party\freertos-addons-1.1.0\c++\source\include\thread.hpp **** 
  33:c:\users\niels\documents\github\dsp\software\stm32basis\hal\gemeenschappelijk\third_party\freertos-addons-1.1.0\c++\source\include\thread.hpp **** 
  34:c:\users\niels\documents\github\dsp\software\stm32basis\hal\gemeenschappelijk\third_party\freertos-addons-1.1.0\c++\source\include\thread.hpp **** /**
  35:c:\users\niels\documents\github\dsp\software\stm32basis\hal\gemeenschappelijk\third_party\freertos-addons-1.1.0\c++\source\include\thread.hpp ****  *  Wrapper class around FreeRTOS's implementation of a task.
  36:c:\users\niels\documents\github\dsp\software\stm32basis\hal\gemeenschappelijk\third_party\freertos-addons-1.1.0\c++\source\include\thread.hpp ****  *
  37:c:\users\niels\documents\github\dsp\software\stm32basis\hal\gemeenschappelijk\third_party\freertos-addons-1.1.0\c++\source\include\thread.hpp ****  *  This is an abstract base class.
  38:c:\users\niels\documents\github\dsp\software\stm32basis\hal\gemeenschappelijk\third_party\freertos-addons-1.1.0\c++\source\include\thread.hpp ****  *  To use this, you need to subclass it. All of your threads should
  39:c:\users\niels\documents\github\dsp\software\stm32basis\hal\gemeenschappelijk\third_party\freertos-addons-1.1.0\c++\source\include\thread.hpp ****  *  be derived from the Thread class. Then implement the virtual Run
  40:c:\users\niels\documents\github\dsp\software\stm32basis\hal\gemeenschappelijk\third_party\freertos-addons-1.1.0\c++\source\include\thread.hpp ****  *  function. This is a similar design to Java threading.
  41:c:\users\niels\documents\github\dsp\software\stm32basis\hal\gemeenschappelijk\third_party\freertos-addons-1.1.0\c++\source\include\thread.hpp ****  */
  42:c:\users\niels\documents\github\dsp\software\stm32basis\hal\gemeenschappelijk\third_party\freertos-addons-1.1.0\c++\source\include\thread.hpp **** class Thread {
  43:c:\users\niels\documents\github\dsp\software\stm32basis\hal\gemeenschappelijk\third_party\freertos-addons-1.1.0\c++\source\include\thread.hpp **** 
  44:c:\users\niels\documents\github\dsp\software\stm32basis\hal\gemeenschappelijk\third_party\freertos-addons-1.1.0\c++\source\include\thread.hpp ****     /////////////////////////////////////////////////////////////////////////
  45:c:\users\niels\documents\github\dsp\software\stm32basis\hal\gemeenschappelijk\third_party\freertos-addons-1.1.0\c++\source\include\thread.hpp ****     //
  46:c:\users\niels\documents\github\dsp\software\stm32basis\hal\gemeenschappelijk\third_party\freertos-addons-1.1.0\c++\source\include\thread.hpp ****     //  Public API
  47:c:\users\niels\documents\github\dsp\software\stm32basis\hal\gemeenschappelijk\third_party\freertos-addons-1.1.0\c++\source\include\thread.hpp ****     //  Available from anywhere. Many of these require a Thread reference
  48:c:\users\niels\documents\github\dsp\software\stm32basis\hal\gemeenschappelijk\third_party\freertos-addons-1.1.0\c++\source\include\thread.hpp ****     //  if they are operating on a thread.
  49:c:\users\niels\documents\github\dsp\software\stm32basis\hal\gemeenschappelijk\third_party\freertos-addons-1.1.0\c++\source\include\thread.hpp ****     //
  50:c:\users\niels\documents\github\dsp\software\stm32basis\hal\gemeenschappelijk\third_party\freertos-addons-1.1.0\c++\source\include\thread.hpp ****     /////////////////////////////////////////////////////////////////////////
  51:c:\users\niels\documents\github\dsp\software\stm32basis\hal\gemeenschappelijk\third_party\freertos-addons-1.1.0\c++\source\include\thread.hpp ****     public:
  52:c:\users\niels\documents\github\dsp\software\stm32basis\hal\gemeenschappelijk\third_party\freertos-addons-1.1.0\c++\source\include\thread.hpp ****         /**
  53:c:\users\niels\documents\github\dsp\software\stm32basis\hal\gemeenschappelijk\third_party\freertos-addons-1.1.0\c++\source\include\thread.hpp ****          *  Constructor to create a named thread.
  54:c:\users\niels\documents\github\dsp\software\stm32basis\hal\gemeenschappelijk\third_party\freertos-addons-1.1.0\c++\source\include\thread.hpp ****          *
  55:c:\users\niels\documents\github\dsp\software\stm32basis\hal\gemeenschappelijk\third_party\freertos-addons-1.1.0\c++\source\include\thread.hpp ****          *  @param Name Name of the thread. Only useful for debugging.
  56:c:\users\niels\documents\github\dsp\software\stm32basis\hal\gemeenschappelijk\third_party\freertos-addons-1.1.0\c++\source\include\thread.hpp ****          *  @param StackDepth Number of "words" allocated for the Thread stack.
  57:c:\users\niels\documents\github\dsp\software\stm32basis\hal\gemeenschappelijk\third_party\freertos-addons-1.1.0\c++\source\include\thread.hpp ****          *  @param Priority FreeRTOS priority of this Thread.
  58:c:\users\niels\documents\github\dsp\software\stm32basis\hal\gemeenschappelijk\third_party\freertos-addons-1.1.0\c++\source\include\thread.hpp ****          */
  59:c:\users\niels\documents\github\dsp\software\stm32basis\hal\gemeenschappelijk\third_party\freertos-addons-1.1.0\c++\source\include\thread.hpp ****         Thread(const std::string &Name,
  60:c:\users\niels\documents\github\dsp\software\stm32basis\hal\gemeenschappelijk\third_party\freertos-addons-1.1.0\c++\source\include\thread.hpp ****                uint16_t StackDepth,
  61:c:\users\niels\documents\github\dsp\software\stm32basis\hal\gemeenschappelijk\third_party\freertos-addons-1.1.0\c++\source\include\thread.hpp ****                UBaseType_t Priority);
  62:c:\users\niels\documents\github\dsp\software\stm32basis\hal\gemeenschappelijk\third_party\freertos-addons-1.1.0\c++\source\include\thread.hpp **** 
  63:c:\users\niels\documents\github\dsp\software\stm32basis\hal\gemeenschappelijk\third_party\freertos-addons-1.1.0\c++\source\include\thread.hpp ****         /**
  64:c:\users\niels\documents\github\dsp\software\stm32basis\hal\gemeenschappelijk\third_party\freertos-addons-1.1.0\c++\source\include\thread.hpp ****          *  Constructor to create an unnamed thread.
  65:c:\users\niels\documents\github\dsp\software\stm32basis\hal\gemeenschappelijk\third_party\freertos-addons-1.1.0\c++\source\include\thread.hpp ****          *
  66:c:\users\niels\documents\github\dsp\software\stm32basis\hal\gemeenschappelijk\third_party\freertos-addons-1.1.0\c++\source\include\thread.hpp ****          *  @param StackDepth Number of "words" allocated for the Thread stack.
  67:c:\users\niels\documents\github\dsp\software\stm32basis\hal\gemeenschappelijk\third_party\freertos-addons-1.1.0\c++\source\include\thread.hpp ****          *  @param Priority FreeRTOS priority of this Thread.
  68:c:\users\niels\documents\github\dsp\software\stm32basis\hal\gemeenschappelijk\third_party\freertos-addons-1.1.0\c++\source\include\thread.hpp ****          */
  69:c:\users\niels\documents\github\dsp\software\stm32basis\hal\gemeenschappelijk\third_party\freertos-addons-1.1.0\c++\source\include\thread.hpp ****         Thread( uint16_t StackDepth,
  70:c:\users\niels\documents\github\dsp\software\stm32basis\hal\gemeenschappelijk\third_party\freertos-addons-1.1.0\c++\source\include\thread.hpp ****                 UBaseType_t Priority);
  71:c:\users\niels\documents\github\dsp\software\stm32basis\hal\gemeenschappelijk\third_party\freertos-addons-1.1.0\c++\source\include\thread.hpp **** 
  72:c:\users\niels\documents\github\dsp\software\stm32basis\hal\gemeenschappelijk\third_party\freertos-addons-1.1.0\c++\source\include\thread.hpp ****         /**
  73:c:\users\niels\documents\github\dsp\software\stm32basis\hal\gemeenschappelijk\third_party\freertos-addons-1.1.0\c++\source\include\thread.hpp ****          *  Starts a thread.
  74:c:\users\niels\documents\github\dsp\software\stm32basis\hal\gemeenschappelijk\third_party\freertos-addons-1.1.0\c++\source\include\thread.hpp ****          *
  75:c:\users\niels\documents\github\dsp\software\stm32basis\hal\gemeenschappelijk\third_party\freertos-addons-1.1.0\c++\source\include\thread.hpp ****          *  This is the API call that actually starts the thread running. 
  76:c:\users\niels\documents\github\dsp\software\stm32basis\hal\gemeenschappelijk\third_party\freertos-addons-1.1.0\c++\source\include\thread.hpp ****          *  It creates a backing FreeRTOS task. By separating object creation 
  77:c:\users\niels\documents\github\dsp\software\stm32basis\hal\gemeenschappelijk\third_party\freertos-addons-1.1.0\c++\source\include\thread.hpp ****          *  from starting the Thread, it solves the pure virtual fuction call 
ARM GAS   			page 8


  78:c:\users\niels\documents\github\dsp\software\stm32basis\hal\gemeenschappelijk\third_party\freertos-addons-1.1.0\c++\source\include\thread.hpp ****          *  failure case. If we attempt to automatically call xTaskCreate 
  79:c:\users\niels\documents\github\dsp\software\stm32basis\hal\gemeenschappelijk\third_party\freertos-addons-1.1.0\c++\source\include\thread.hpp ****          *  from the base class constructor, in certain conditions the task 
  80:c:\users\niels\documents\github\dsp\software\stm32basis\hal\gemeenschappelijk\third_party\freertos-addons-1.1.0\c++\source\include\thread.hpp ****          *  starts to run "before" the derived class is constructed! So we 
  81:c:\users\niels\documents\github\dsp\software\stm32basis\hal\gemeenschappelijk\third_party\freertos-addons-1.1.0\c++\source\include\thread.hpp ****          *  don't do that anymore.
  82:c:\users\niels\documents\github\dsp\software\stm32basis\hal\gemeenschappelijk\third_party\freertos-addons-1.1.0\c++\source\include\thread.hpp ****          *
  83:c:\users\niels\documents\github\dsp\software\stm32basis\hal\gemeenschappelijk\third_party\freertos-addons-1.1.0\c++\source\include\thread.hpp ****          *  This may be called from your ctor once you have completed 
  84:c:\users\niels\documents\github\dsp\software\stm32basis\hal\gemeenschappelijk\third_party\freertos-addons-1.1.0\c++\source\include\thread.hpp ****          *  your objects construction (so as the last step). 
  85:c:\users\niels\documents\github\dsp\software\stm32basis\hal\gemeenschappelijk\third_party\freertos-addons-1.1.0\c++\source\include\thread.hpp ****          *
  86:c:\users\niels\documents\github\dsp\software\stm32basis\hal\gemeenschappelijk\third_party\freertos-addons-1.1.0\c++\source\include\thread.hpp ****          *  This should only be called once ever! 
  87:c:\users\niels\documents\github\dsp\software\stm32basis\hal\gemeenschappelijk\third_party\freertos-addons-1.1.0\c++\source\include\thread.hpp ****          */
  88:c:\users\niels\documents\github\dsp\software\stm32basis\hal\gemeenschappelijk\third_party\freertos-addons-1.1.0\c++\source\include\thread.hpp ****         bool Start();
  89:c:\users\niels\documents\github\dsp\software\stm32basis\hal\gemeenschappelijk\third_party\freertos-addons-1.1.0\c++\source\include\thread.hpp **** 
  90:c:\users\niels\documents\github\dsp\software\stm32basis\hal\gemeenschappelijk\third_party\freertos-addons-1.1.0\c++\source\include\thread.hpp **** 
  91:c:\users\niels\documents\github\dsp\software\stm32basis\hal\gemeenschappelijk\third_party\freertos-addons-1.1.0\c++\source\include\thread.hpp ****         /**
  92:c:\users\niels\documents\github\dsp\software\stm32basis\hal\gemeenschappelijk\third_party\freertos-addons-1.1.0\c++\source\include\thread.hpp ****          *  Our destructor, if FreeRTOS is configured to allow task deletion.
  93:c:\users\niels\documents\github\dsp\software\stm32basis\hal\gemeenschappelijk\third_party\freertos-addons-1.1.0\c++\source\include\thread.hpp ****          */
  94:c:\users\niels\documents\github\dsp\software\stm32basis\hal\gemeenschappelijk\third_party\freertos-addons-1.1.0\c++\source\include\thread.hpp ****         virtual ~Thread();
  95:c:\users\niels\documents\github\dsp\software\stm32basis\hal\gemeenschappelijk\third_party\freertos-addons-1.1.0\c++\source\include\thread.hpp **** 
  96:c:\users\niels\documents\github\dsp\software\stm32basis\hal\gemeenschappelijk\third_party\freertos-addons-1.1.0\c++\source\include\thread.hpp ****         /**
  97:c:\users\niels\documents\github\dsp\software\stm32basis\hal\gemeenschappelijk\third_party\freertos-addons-1.1.0\c++\source\include\thread.hpp ****          *  Accessor to get the thread's backing task handle.
  98:c:\users\niels\documents\github\dsp\software\stm32basis\hal\gemeenschappelijk\third_party\freertos-addons-1.1.0\c++\source\include\thread.hpp ****          *  There is no setter, on purpose.
  99:c:\users\niels\documents\github\dsp\software\stm32basis\hal\gemeenschappelijk\third_party\freertos-addons-1.1.0\c++\source\include\thread.hpp ****          *
 100:c:\users\niels\documents\github\dsp\software\stm32basis\hal\gemeenschappelijk\third_party\freertos-addons-1.1.0\c++\source\include\thread.hpp ****          *  @return FreeRTOS task handle.
 101:c:\users\niels\documents\github\dsp\software\stm32basis\hal\gemeenschappelijk\third_party\freertos-addons-1.1.0\c++\source\include\thread.hpp ****          */
 102:c:\users\niels\documents\github\dsp\software\stm32basis\hal\gemeenschappelijk\third_party\freertos-addons-1.1.0\c++\source\include\thread.hpp ****         inline TaskHandle_t GetHandle()
  91              	 .loc 2 102 29
  92              	 .cfi_startproc
  93              	 
  94              	 
  95              	 
  96 0000 80B4     	 push {r7}
  97              	 .cfi_def_cfa_offset 4
  98              	 .cfi_offset 7,-4
  99 0002 83B0     	 sub sp,sp,#12
 100              	 .cfi_def_cfa_offset 16
 101 0004 00AF     	 add r7,sp,#0
 102              	 .cfi_def_cfa_register 7
 103 0006 7860     	 str r0,[r7,#4]
 103:c:\users\niels\documents\github\dsp\software\stm32basis\hal\gemeenschappelijk\third_party\freertos-addons-1.1.0\c++\source\include\thread.hpp ****         {
 104:c:\users\niels\documents\github\dsp\software\stm32basis\hal\gemeenschappelijk\third_party\freertos-addons-1.1.0\c++\source\include\thread.hpp ****             return handle;
 104              	 .loc 2 104 20
 105 0008 7B68     	 ldr r3,[r7,#4]
 106 000a 5B68     	 ldr r3,[r3,#4]
 105:c:\users\niels\documents\github\dsp\software\stm32basis\hal\gemeenschappelijk\third_party\freertos-addons-1.1.0\c++\source\include\thread.hpp ****         }
 107              	 .loc 2 105 9
 108 000c 1846     	 mov r0,r3
 109 000e 0C37     	 adds r7,r7,#12
 110              	 .cfi_def_cfa_offset 4
 111 0010 BD46     	 mov sp,r7
 112              	 .cfi_def_cfa_register 13
 113              	 
 114 0012 5DF8047B 	 ldr r7,[sp],#4
 115              	 .cfi_restore 7
 116              	 .cfi_def_cfa_offset 0
 117 0016 7047     	 bx lr
 118              	 .cfi_endproc
 119              	.LFE1264:
ARM GAS   			page 9


 120              	 .size _ZN12cpp_freertos6Thread9GetHandleEv,.-_ZN12cpp_freertos6Thread9GetHandleEv
 121              	 .section .text._ZN12cpp_freertos6Thread11GetPriorityEv,"axG",%progbits,_ZN12cpp_freertos6Thread11GetPriorityEv,comdat
 122              	 .align 1
 123              	 .weak _ZN12cpp_freertos6Thread11GetPriorityEv
 124              	 .syntax unified
 125              	 .thumb
 126              	 .thumb_func
 127              	 .type _ZN12cpp_freertos6Thread11GetPriorityEv,%function
 128              	_ZN12cpp_freertos6Thread11GetPriorityEv:
 129              	.LFB1271:
 106:c:\users\niels\documents\github\dsp\software\stm32basis\hal\gemeenschappelijk\third_party\freertos-addons-1.1.0\c++\source\include\thread.hpp **** 
 107:c:\users\niels\documents\github\dsp\software\stm32basis\hal\gemeenschappelijk\third_party\freertos-addons-1.1.0\c++\source\include\thread.hpp ****         /**
 108:c:\users\niels\documents\github\dsp\software\stm32basis\hal\gemeenschappelijk\third_party\freertos-addons-1.1.0\c++\source\include\thread.hpp ****          *  Yield the scheduler.
 109:c:\users\niels\documents\github\dsp\software\stm32basis\hal\gemeenschappelijk\third_party\freertos-addons-1.1.0\c++\source\include\thread.hpp ****          */
 110:c:\users\niels\documents\github\dsp\software\stm32basis\hal\gemeenschappelijk\third_party\freertos-addons-1.1.0\c++\source\include\thread.hpp ****         static inline void Yield()
 111:c:\users\niels\documents\github\dsp\software\stm32basis\hal\gemeenschappelijk\third_party\freertos-addons-1.1.0\c++\source\include\thread.hpp ****         {
 112:c:\users\niels\documents\github\dsp\software\stm32basis\hal\gemeenschappelijk\third_party\freertos-addons-1.1.0\c++\source\include\thread.hpp ****             taskYIELD();
 113:c:\users\niels\documents\github\dsp\software\stm32basis\hal\gemeenschappelijk\third_party\freertos-addons-1.1.0\c++\source\include\thread.hpp ****         }
 114:c:\users\niels\documents\github\dsp\software\stm32basis\hal\gemeenschappelijk\third_party\freertos-addons-1.1.0\c++\source\include\thread.hpp **** 
 115:c:\users\niels\documents\github\dsp\software\stm32basis\hal\gemeenschappelijk\third_party\freertos-addons-1.1.0\c++\source\include\thread.hpp ****         /**
 116:c:\users\niels\documents\github\dsp\software\stm32basis\hal\gemeenschappelijk\third_party\freertos-addons-1.1.0\c++\source\include\thread.hpp ****          *  Start the scheduler.
 117:c:\users\niels\documents\github\dsp\software\stm32basis\hal\gemeenschappelijk\third_party\freertos-addons-1.1.0\c++\source\include\thread.hpp ****          *
 118:c:\users\niels\documents\github\dsp\software\stm32basis\hal\gemeenschappelijk\third_party\freertos-addons-1.1.0\c++\source\include\thread.hpp ****          *  @note You need to use this call. Do NOT directly call 
 119:c:\users\niels\documents\github\dsp\software\stm32basis\hal\gemeenschappelijk\third_party\freertos-addons-1.1.0\c++\source\include\thread.hpp ****          *  vTaskStartScheduler while using this library.
 120:c:\users\niels\documents\github\dsp\software\stm32basis\hal\gemeenschappelijk\third_party\freertos-addons-1.1.0\c++\source\include\thread.hpp ****          */
 121:c:\users\niels\documents\github\dsp\software\stm32basis\hal\gemeenschappelijk\third_party\freertos-addons-1.1.0\c++\source\include\thread.hpp ****         static inline void StartScheduler()
 122:c:\users\niels\documents\github\dsp\software\stm32basis\hal\gemeenschappelijk\third_party\freertos-addons-1.1.0\c++\source\include\thread.hpp ****         {
 123:c:\users\niels\documents\github\dsp\software\stm32basis\hal\gemeenschappelijk\third_party\freertos-addons-1.1.0\c++\source\include\thread.hpp ****             SchedulerActive = true;
 124:c:\users\niels\documents\github\dsp\software\stm32basis\hal\gemeenschappelijk\third_party\freertos-addons-1.1.0\c++\source\include\thread.hpp ****             vTaskStartScheduler();
 125:c:\users\niels\documents\github\dsp\software\stm32basis\hal\gemeenschappelijk\third_party\freertos-addons-1.1.0\c++\source\include\thread.hpp ****         }
 126:c:\users\niels\documents\github\dsp\software\stm32basis\hal\gemeenschappelijk\third_party\freertos-addons-1.1.0\c++\source\include\thread.hpp **** 
 127:c:\users\niels\documents\github\dsp\software\stm32basis\hal\gemeenschappelijk\third_party\freertos-addons-1.1.0\c++\source\include\thread.hpp ****         /**
 128:c:\users\niels\documents\github\dsp\software\stm32basis\hal\gemeenschappelijk\third_party\freertos-addons-1.1.0\c++\source\include\thread.hpp ****          *  End the scheduler.
 129:c:\users\niels\documents\github\dsp\software\stm32basis\hal\gemeenschappelijk\third_party\freertos-addons-1.1.0\c++\source\include\thread.hpp ****          *
 130:c:\users\niels\documents\github\dsp\software\stm32basis\hal\gemeenschappelijk\third_party\freertos-addons-1.1.0\c++\source\include\thread.hpp ****          *  @note Please see the FreeRTOS documentation regarding constraints
 131:c:\users\niels\documents\github\dsp\software\stm32basis\hal\gemeenschappelijk\third_party\freertos-addons-1.1.0\c++\source\include\thread.hpp ****          *  with the implementation of this.
 132:c:\users\niels\documents\github\dsp\software\stm32basis\hal\gemeenschappelijk\third_party\freertos-addons-1.1.0\c++\source\include\thread.hpp ****          *
 133:c:\users\niels\documents\github\dsp\software\stm32basis\hal\gemeenschappelijk\third_party\freertos-addons-1.1.0\c++\source\include\thread.hpp ****          *  @note You need to use this call. Do NOT directly call 
 134:c:\users\niels\documents\github\dsp\software\stm32basis\hal\gemeenschappelijk\third_party\freertos-addons-1.1.0\c++\source\include\thread.hpp ****          *  vTaskEndScheduler while using this library.
 135:c:\users\niels\documents\github\dsp\software\stm32basis\hal\gemeenschappelijk\third_party\freertos-addons-1.1.0\c++\source\include\thread.hpp ****          */
 136:c:\users\niels\documents\github\dsp\software\stm32basis\hal\gemeenschappelijk\third_party\freertos-addons-1.1.0\c++\source\include\thread.hpp ****         static inline void EndScheduler()
 137:c:\users\niels\documents\github\dsp\software\stm32basis\hal\gemeenschappelijk\third_party\freertos-addons-1.1.0\c++\source\include\thread.hpp ****         {
 138:c:\users\niels\documents\github\dsp\software\stm32basis\hal\gemeenschappelijk\third_party\freertos-addons-1.1.0\c++\source\include\thread.hpp ****             vTaskEndScheduler();
 139:c:\users\niels\documents\github\dsp\software\stm32basis\hal\gemeenschappelijk\third_party\freertos-addons-1.1.0\c++\source\include\thread.hpp ****             SchedulerActive = false;
 140:c:\users\niels\documents\github\dsp\software\stm32basis\hal\gemeenschappelijk\third_party\freertos-addons-1.1.0\c++\source\include\thread.hpp ****         }
 141:c:\users\niels\documents\github\dsp\software\stm32basis\hal\gemeenschappelijk\third_party\freertos-addons-1.1.0\c++\source\include\thread.hpp **** 
 142:c:\users\niels\documents\github\dsp\software\stm32basis\hal\gemeenschappelijk\third_party\freertos-addons-1.1.0\c++\source\include\thread.hpp **** #if (INCLUDE_vTaskSuspend == 1)
 143:c:\users\niels\documents\github\dsp\software\stm32basis\hal\gemeenschappelijk\third_party\freertos-addons-1.1.0\c++\source\include\thread.hpp ****         /**
 144:c:\users\niels\documents\github\dsp\software\stm32basis\hal\gemeenschappelijk\third_party\freertos-addons-1.1.0\c++\source\include\thread.hpp ****          *  Suspend this thread.
 145:c:\users\niels\documents\github\dsp\software\stm32basis\hal\gemeenschappelijk\third_party\freertos-addons-1.1.0\c++\source\include\thread.hpp ****          *
 146:c:\users\niels\documents\github\dsp\software\stm32basis\hal\gemeenschappelijk\third_party\freertos-addons-1.1.0\c++\source\include\thread.hpp ****          *  @note While a Thread can Suspend() itself, it cannot Resume() 
 147:c:\users\niels\documents\github\dsp\software\stm32basis\hal\gemeenschappelijk\third_party\freertos-addons-1.1.0\c++\source\include\thread.hpp ****          *  itself, becauseit's suspended.
 148:c:\users\niels\documents\github\dsp\software\stm32basis\hal\gemeenschappelijk\third_party\freertos-addons-1.1.0\c++\source\include\thread.hpp ****          */
 149:c:\users\niels\documents\github\dsp\software\stm32basis\hal\gemeenschappelijk\third_party\freertos-addons-1.1.0\c++\source\include\thread.hpp ****         inline void Suspend()
 150:c:\users\niels\documents\github\dsp\software\stm32basis\hal\gemeenschappelijk\third_party\freertos-addons-1.1.0\c++\source\include\thread.hpp ****         {
 151:c:\users\niels\documents\github\dsp\software\stm32basis\hal\gemeenschappelijk\third_party\freertos-addons-1.1.0\c++\source\include\thread.hpp ****             vTaskSuspend(GetHandle());
 152:c:\users\niels\documents\github\dsp\software\stm32basis\hal\gemeenschappelijk\third_party\freertos-addons-1.1.0\c++\source\include\thread.hpp ****         }
ARM GAS   			page 10


 153:c:\users\niels\documents\github\dsp\software\stm32basis\hal\gemeenschappelijk\third_party\freertos-addons-1.1.0\c++\source\include\thread.hpp **** 
 154:c:\users\niels\documents\github\dsp\software\stm32basis\hal\gemeenschappelijk\third_party\freertos-addons-1.1.0\c++\source\include\thread.hpp ****         /**
 155:c:\users\niels\documents\github\dsp\software\stm32basis\hal\gemeenschappelijk\third_party\freertos-addons-1.1.0\c++\source\include\thread.hpp ****          *  Resume a specific thread.
 156:c:\users\niels\documents\github\dsp\software\stm32basis\hal\gemeenschappelijk\third_party\freertos-addons-1.1.0\c++\source\include\thread.hpp ****          */
 157:c:\users\niels\documents\github\dsp\software\stm32basis\hal\gemeenschappelijk\third_party\freertos-addons-1.1.0\c++\source\include\thread.hpp ****         inline void Resume()
 158:c:\users\niels\documents\github\dsp\software\stm32basis\hal\gemeenschappelijk\third_party\freertos-addons-1.1.0\c++\source\include\thread.hpp ****         {
 159:c:\users\niels\documents\github\dsp\software\stm32basis\hal\gemeenschappelijk\third_party\freertos-addons-1.1.0\c++\source\include\thread.hpp ****             vTaskResume(GetHandle());
 160:c:\users\niels\documents\github\dsp\software\stm32basis\hal\gemeenschappelijk\third_party\freertos-addons-1.1.0\c++\source\include\thread.hpp ****         }
 161:c:\users\niels\documents\github\dsp\software\stm32basis\hal\gemeenschappelijk\third_party\freertos-addons-1.1.0\c++\source\include\thread.hpp **** #endif
 162:c:\users\niels\documents\github\dsp\software\stm32basis\hal\gemeenschappelijk\third_party\freertos-addons-1.1.0\c++\source\include\thread.hpp **** 
 163:c:\users\niels\documents\github\dsp\software\stm32basis\hal\gemeenschappelijk\third_party\freertos-addons-1.1.0\c++\source\include\thread.hpp **** #if (INCLUDE_xTaskResumeFromISR == 1)
 164:c:\users\niels\documents\github\dsp\software\stm32basis\hal\gemeenschappelijk\third_party\freertos-addons-1.1.0\c++\source\include\thread.hpp ****         /**
 165:c:\users\niels\documents\github\dsp\software\stm32basis\hal\gemeenschappelijk\third_party\freertos-addons-1.1.0\c++\source\include\thread.hpp ****          *  Resume a specific thread from ISR context.
 166:c:\users\niels\documents\github\dsp\software\stm32basis\hal\gemeenschappelijk\third_party\freertos-addons-1.1.0\c++\source\include\thread.hpp ****          */
 167:c:\users\niels\documents\github\dsp\software\stm32basis\hal\gemeenschappelijk\third_party\freertos-addons-1.1.0\c++\source\include\thread.hpp ****         inline void ResumeFromISR()
 168:c:\users\niels\documents\github\dsp\software\stm32basis\hal\gemeenschappelijk\third_party\freertos-addons-1.1.0\c++\source\include\thread.hpp ****         {
 169:c:\users\niels\documents\github\dsp\software\stm32basis\hal\gemeenschappelijk\third_party\freertos-addons-1.1.0\c++\source\include\thread.hpp ****             xTaskResumeFromISR(GetHandle());
 170:c:\users\niels\documents\github\dsp\software\stm32basis\hal\gemeenschappelijk\third_party\freertos-addons-1.1.0\c++\source\include\thread.hpp ****         }
 171:c:\users\niels\documents\github\dsp\software\stm32basis\hal\gemeenschappelijk\third_party\freertos-addons-1.1.0\c++\source\include\thread.hpp **** #endif
 172:c:\users\niels\documents\github\dsp\software\stm32basis\hal\gemeenschappelijk\third_party\freertos-addons-1.1.0\c++\source\include\thread.hpp **** 
 173:c:\users\niels\documents\github\dsp\software\stm32basis\hal\gemeenschappelijk\third_party\freertos-addons-1.1.0\c++\source\include\thread.hpp **** #if (INCLUDE_uxTaskPriorityGet == 1)
 174:c:\users\niels\documents\github\dsp\software\stm32basis\hal\gemeenschappelijk\third_party\freertos-addons-1.1.0\c++\source\include\thread.hpp ****         /**
 175:c:\users\niels\documents\github\dsp\software\stm32basis\hal\gemeenschappelijk\third_party\freertos-addons-1.1.0\c++\source\include\thread.hpp ****          *  Get the priority of this Thread.
 176:c:\users\niels\documents\github\dsp\software\stm32basis\hal\gemeenschappelijk\third_party\freertos-addons-1.1.0\c++\source\include\thread.hpp ****          *
 177:c:\users\niels\documents\github\dsp\software\stm32basis\hal\gemeenschappelijk\third_party\freertos-addons-1.1.0\c++\source\include\thread.hpp ****          *  @return Priority at the time this was called.
 178:c:\users\niels\documents\github\dsp\software\stm32basis\hal\gemeenschappelijk\third_party\freertos-addons-1.1.0\c++\source\include\thread.hpp ****          */
 179:c:\users\niels\documents\github\dsp\software\stm32basis\hal\gemeenschappelijk\third_party\freertos-addons-1.1.0\c++\source\include\thread.hpp ****         inline UBaseType_t GetPriority()
 130              	 .loc 2 179 28
 131              	 .cfi_startproc
 132              	 
 133              	 
 134 0000 80B5     	 push {r7,lr}
 135              	 .cfi_def_cfa_offset 8
 136              	 .cfi_offset 7,-8
 137              	 .cfi_offset 14,-4
 138 0002 82B0     	 sub sp,sp,#8
 139              	 .cfi_def_cfa_offset 16
 140 0004 00AF     	 add r7,sp,#0
 141              	 .cfi_def_cfa_register 7
 142 0006 7860     	 str r0,[r7,#4]
 180:c:\users\niels\documents\github\dsp\software\stm32basis\hal\gemeenschappelijk\third_party\freertos-addons-1.1.0\c++\source\include\thread.hpp ****         {
 181:c:\users\niels\documents\github\dsp\software\stm32basis\hal\gemeenschappelijk\third_party\freertos-addons-1.1.0\c++\source\include\thread.hpp ****             return (uxTaskPriorityGet(GetHandle()));
 143              	 .loc 2 181 38
 144 0008 7868     	 ldr r0,[r7,#4]
 145 000a FFF7FEFF 	 bl _ZN12cpp_freertos6Thread9GetHandleEv
 146 000e 0346     	 mov r3,r0
 147 0010 1846     	 mov r0,r3
 148 0012 FFF7FEFF 	 bl uxTaskPriorityGet
 149 0016 0346     	 mov r3,r0
 182:c:\users\niels\documents\github\dsp\software\stm32basis\hal\gemeenschappelijk\third_party\freertos-addons-1.1.0\c++\source\include\thread.hpp ****         }
 150              	 .loc 2 182 9
 151 0018 1846     	 mov r0,r3
 152 001a 0837     	 adds r7,r7,#8
 153              	 .cfi_def_cfa_offset 8
 154 001c BD46     	 mov sp,r7
 155              	 .cfi_def_cfa_register 13
 156              	 
ARM GAS   			page 11


 157 001e 80BD     	 pop {r7,pc}
 158              	 .cfi_endproc
 159              	.LFE1271:
 160              	 .size _ZN12cpp_freertos6Thread11GetPriorityEv,.-_ZN12cpp_freertos6Thread11GetPriorityEv
 161              	 .section .text._ZN12cpp_freertos6Thread5DelayEm,"axG",%progbits,_ZN12cpp_freertos6Thread5DelayEm,comdat
 162              	 .align 1
 163              	 .weak _ZN12cpp_freertos6Thread5DelayEm
 164              	 .syntax unified
 165              	 .thumb
 166              	 .thumb_func
 167              	 .type _ZN12cpp_freertos6Thread5DelayEm,%function
 168              	_ZN12cpp_freertos6Thread5DelayEm:
 169              	.LFB1275:
 183:c:\users\niels\documents\github\dsp\software\stm32basis\hal\gemeenschappelijk\third_party\freertos-addons-1.1.0\c++\source\include\thread.hpp **** 
 184:c:\users\niels\documents\github\dsp\software\stm32basis\hal\gemeenschappelijk\third_party\freertos-addons-1.1.0\c++\source\include\thread.hpp ****         /**
 185:c:\users\niels\documents\github\dsp\software\stm32basis\hal\gemeenschappelijk\third_party\freertos-addons-1.1.0\c++\source\include\thread.hpp ****          *  Get the priority of this Thread from ISR context.
 186:c:\users\niels\documents\github\dsp\software\stm32basis\hal\gemeenschappelijk\third_party\freertos-addons-1.1.0\c++\source\include\thread.hpp ****          *
 187:c:\users\niels\documents\github\dsp\software\stm32basis\hal\gemeenschappelijk\third_party\freertos-addons-1.1.0\c++\source\include\thread.hpp ****          *  @return Priority at the time this was called.
 188:c:\users\niels\documents\github\dsp\software\stm32basis\hal\gemeenschappelijk\third_party\freertos-addons-1.1.0\c++\source\include\thread.hpp ****          */
 189:c:\users\niels\documents\github\dsp\software\stm32basis\hal\gemeenschappelijk\third_party\freertos-addons-1.1.0\c++\source\include\thread.hpp ****         inline UBaseType_t GetPriorityFromISR()
 190:c:\users\niels\documents\github\dsp\software\stm32basis\hal\gemeenschappelijk\third_party\freertos-addons-1.1.0\c++\source\include\thread.hpp ****         {
 191:c:\users\niels\documents\github\dsp\software\stm32basis\hal\gemeenschappelijk\third_party\freertos-addons-1.1.0\c++\source\include\thread.hpp ****             return (uxTaskPriorityGetFromISR(GetHandle()));
 192:c:\users\niels\documents\github\dsp\software\stm32basis\hal\gemeenschappelijk\third_party\freertos-addons-1.1.0\c++\source\include\thread.hpp ****         }
 193:c:\users\niels\documents\github\dsp\software\stm32basis\hal\gemeenschappelijk\third_party\freertos-addons-1.1.0\c++\source\include\thread.hpp **** #endif
 194:c:\users\niels\documents\github\dsp\software\stm32basis\hal\gemeenschappelijk\third_party\freertos-addons-1.1.0\c++\source\include\thread.hpp **** 
 195:c:\users\niels\documents\github\dsp\software\stm32basis\hal\gemeenschappelijk\third_party\freertos-addons-1.1.0\c++\source\include\thread.hpp **** 
 196:c:\users\niels\documents\github\dsp\software\stm32basis\hal\gemeenschappelijk\third_party\freertos-addons-1.1.0\c++\source\include\thread.hpp **** #if (INCLUDE_vTaskPrioritySet == 1)
 197:c:\users\niels\documents\github\dsp\software\stm32basis\hal\gemeenschappelijk\third_party\freertos-addons-1.1.0\c++\source\include\thread.hpp ****         /**
 198:c:\users\niels\documents\github\dsp\software\stm32basis\hal\gemeenschappelijk\third_party\freertos-addons-1.1.0\c++\source\include\thread.hpp ****          *  Set the priority of this thread.
 199:c:\users\niels\documents\github\dsp\software\stm32basis\hal\gemeenschappelijk\third_party\freertos-addons-1.1.0\c++\source\include\thread.hpp ****          *
 200:c:\users\niels\documents\github\dsp\software\stm32basis\hal\gemeenschappelijk\third_party\freertos-addons-1.1.0\c++\source\include\thread.hpp ****          *  @param NewPriority The thread's new priority.
 201:c:\users\niels\documents\github\dsp\software\stm32basis\hal\gemeenschappelijk\third_party\freertos-addons-1.1.0\c++\source\include\thread.hpp ****          */
 202:c:\users\niels\documents\github\dsp\software\stm32basis\hal\gemeenschappelijk\third_party\freertos-addons-1.1.0\c++\source\include\thread.hpp ****         inline void SetPriority(UBaseType_t NewPriority)
 203:c:\users\niels\documents\github\dsp\software\stm32basis\hal\gemeenschappelijk\third_party\freertos-addons-1.1.0\c++\source\include\thread.hpp ****         {
 204:c:\users\niels\documents\github\dsp\software\stm32basis\hal\gemeenschappelijk\third_party\freertos-addons-1.1.0\c++\source\include\thread.hpp ****             Priority = NewPriority;
 205:c:\users\niels\documents\github\dsp\software\stm32basis\hal\gemeenschappelijk\third_party\freertos-addons-1.1.0\c++\source\include\thread.hpp ****             vTaskPrioritySet(GetHandle(), NewPriority);
 206:c:\users\niels\documents\github\dsp\software\stm32basis\hal\gemeenschappelijk\third_party\freertos-addons-1.1.0\c++\source\include\thread.hpp ****         }
 207:c:\users\niels\documents\github\dsp\software\stm32basis\hal\gemeenschappelijk\third_party\freertos-addons-1.1.0\c++\source\include\thread.hpp **** #endif
 208:c:\users\niels\documents\github\dsp\software\stm32basis\hal\gemeenschappelijk\third_party\freertos-addons-1.1.0\c++\source\include\thread.hpp **** 
 209:c:\users\niels\documents\github\dsp\software\stm32basis\hal\gemeenschappelijk\third_party\freertos-addons-1.1.0\c++\source\include\thread.hpp ****         /**
 210:c:\users\niels\documents\github\dsp\software\stm32basis\hal\gemeenschappelijk\third_party\freertos-addons-1.1.0\c++\source\include\thread.hpp ****          *  Get the name of this thread.
 211:c:\users\niels\documents\github\dsp\software\stm32basis\hal\gemeenschappelijk\third_party\freertos-addons-1.1.0\c++\source\include\thread.hpp ****          *
 212:c:\users\niels\documents\github\dsp\software\stm32basis\hal\gemeenschappelijk\third_party\freertos-addons-1.1.0\c++\source\include\thread.hpp ****          *  @return a C++ string with the name of the task.
 213:c:\users\niels\documents\github\dsp\software\stm32basis\hal\gemeenschappelijk\third_party\freertos-addons-1.1.0\c++\source\include\thread.hpp ****          */
 214:c:\users\niels\documents\github\dsp\software\stm32basis\hal\gemeenschappelijk\third_party\freertos-addons-1.1.0\c++\source\include\thread.hpp ****         inline std::string GetName()
 215:c:\users\niels\documents\github\dsp\software\stm32basis\hal\gemeenschappelijk\third_party\freertos-addons-1.1.0\c++\source\include\thread.hpp ****         {
 216:c:\users\niels\documents\github\dsp\software\stm32basis\hal\gemeenschappelijk\third_party\freertos-addons-1.1.0\c++\source\include\thread.hpp ****             return Name;
 217:c:\users\niels\documents\github\dsp\software\stm32basis\hal\gemeenschappelijk\third_party\freertos-addons-1.1.0\c++\source\include\thread.hpp ****         }
 218:c:\users\niels\documents\github\dsp\software\stm32basis\hal\gemeenschappelijk\third_party\freertos-addons-1.1.0\c++\source\include\thread.hpp **** 
 219:c:\users\niels\documents\github\dsp\software\stm32basis\hal\gemeenschappelijk\third_party\freertos-addons-1.1.0\c++\source\include\thread.hpp **** 
 220:c:\users\niels\documents\github\dsp\software\stm32basis\hal\gemeenschappelijk\third_party\freertos-addons-1.1.0\c++\source\include\thread.hpp ****     /////////////////////////////////////////////////////////////////////////
 221:c:\users\niels\documents\github\dsp\software\stm32basis\hal\gemeenschappelijk\third_party\freertos-addons-1.1.0\c++\source\include\thread.hpp ****     //
 222:c:\users\niels\documents\github\dsp\software\stm32basis\hal\gemeenschappelijk\third_party\freertos-addons-1.1.0\c++\source\include\thread.hpp ****     //  Protected API
 223:c:\users\niels\documents\github\dsp\software\stm32basis\hal\gemeenschappelijk\third_party\freertos-addons-1.1.0\c++\source\include\thread.hpp ****     //  Available from inside your Thread implementation.
 224:c:\users\niels\documents\github\dsp\software\stm32basis\hal\gemeenschappelijk\third_party\freertos-addons-1.1.0\c++\source\include\thread.hpp ****     //  You should make sure that you are only calling these methods
 225:c:\users\niels\documents\github\dsp\software\stm32basis\hal\gemeenschappelijk\third_party\freertos-addons-1.1.0\c++\source\include\thread.hpp ****     //  from within your Run() method, or that your Run() method is on the
 226:c:\users\niels\documents\github\dsp\software\stm32basis\hal\gemeenschappelijk\third_party\freertos-addons-1.1.0\c++\source\include\thread.hpp ****     //  callstack.
ARM GAS   			page 12


 227:c:\users\niels\documents\github\dsp\software\stm32basis\hal\gemeenschappelijk\third_party\freertos-addons-1.1.0\c++\source\include\thread.hpp ****     //
 228:c:\users\niels\documents\github\dsp\software\stm32basis\hal\gemeenschappelijk\third_party\freertos-addons-1.1.0\c++\source\include\thread.hpp ****     /////////////////////////////////////////////////////////////////////////
 229:c:\users\niels\documents\github\dsp\software\stm32basis\hal\gemeenschappelijk\third_party\freertos-addons-1.1.0\c++\source\include\thread.hpp ****     protected:
 230:c:\users\niels\documents\github\dsp\software\stm32basis\hal\gemeenschappelijk\third_party\freertos-addons-1.1.0\c++\source\include\thread.hpp ****         /**
 231:c:\users\niels\documents\github\dsp\software\stm32basis\hal\gemeenschappelijk\third_party\freertos-addons-1.1.0\c++\source\include\thread.hpp ****          *  Implementation of your actual thread code.
 232:c:\users\niels\documents\github\dsp\software\stm32basis\hal\gemeenschappelijk\third_party\freertos-addons-1.1.0\c++\source\include\thread.hpp ****          *  You must override this function.
 233:c:\users\niels\documents\github\dsp\software\stm32basis\hal\gemeenschappelijk\third_party\freertos-addons-1.1.0\c++\source\include\thread.hpp ****          *  @note If INCLUDE_vTaskDelete is defined, then you may return from
 234:c:\users\niels\documents\github\dsp\software\stm32basis\hal\gemeenschappelijk\third_party\freertos-addons-1.1.0\c++\source\include\thread.hpp ****          *  your Run method. This will cause the task to be deleted from
 235:c:\users\niels\documents\github\dsp\software\stm32basis\hal\gemeenschappelijk\third_party\freertos-addons-1.1.0\c++\source\include\thread.hpp ****          *  FreeRTOS, however you are still responsible to delete the
 236:c:\users\niels\documents\github\dsp\software\stm32basis\hal\gemeenschappelijk\third_party\freertos-addons-1.1.0\c++\source\include\thread.hpp ****          *  task object. If this is not defined, then retuning from your Run()
 237:c:\users\niels\documents\github\dsp\software\stm32basis\hal\gemeenschappelijk\third_party\freertos-addons-1.1.0\c++\source\include\thread.hpp ****          *  method will result in an assert.
 238:c:\users\niels\documents\github\dsp\software\stm32basis\hal\gemeenschappelijk\third_party\freertos-addons-1.1.0\c++\source\include\thread.hpp ****          */
 239:c:\users\niels\documents\github\dsp\software\stm32basis\hal\gemeenschappelijk\third_party\freertos-addons-1.1.0\c++\source\include\thread.hpp ****         virtual void Run() = 0;
 240:c:\users\niels\documents\github\dsp\software\stm32basis\hal\gemeenschappelijk\third_party\freertos-addons-1.1.0\c++\source\include\thread.hpp **** 
 241:c:\users\niels\documents\github\dsp\software\stm32basis\hal\gemeenschappelijk\third_party\freertos-addons-1.1.0\c++\source\include\thread.hpp **** #if (INCLUDE_vTaskDelete == 1)
 242:c:\users\niels\documents\github\dsp\software\stm32basis\hal\gemeenschappelijk\third_party\freertos-addons-1.1.0\c++\source\include\thread.hpp ****         /**
 243:c:\users\niels\documents\github\dsp\software\stm32basis\hal\gemeenschappelijk\third_party\freertos-addons-1.1.0\c++\source\include\thread.hpp ****          *  Called on exit from your Run() routine. 
 244:c:\users\niels\documents\github\dsp\software\stm32basis\hal\gemeenschappelijk\third_party\freertos-addons-1.1.0\c++\source\include\thread.hpp ****          *  
 245:c:\users\niels\documents\github\dsp\software\stm32basis\hal\gemeenschappelijk\third_party\freertos-addons-1.1.0\c++\source\include\thread.hpp ****          *  It is optional whether you implement this or not.
 246:c:\users\niels\documents\github\dsp\software\stm32basis\hal\gemeenschappelijk\third_party\freertos-addons-1.1.0\c++\source\include\thread.hpp ****          *
 247:c:\users\niels\documents\github\dsp\software\stm32basis\hal\gemeenschappelijk\third_party\freertos-addons-1.1.0\c++\source\include\thread.hpp ****          *  If you allow your Thread to exit its Run method, 
 248:c:\users\niels\documents\github\dsp\software\stm32basis\hal\gemeenschappelijk\third_party\freertos-addons-1.1.0\c++\source\include\thread.hpp ****          *  implementing a Cleanup method allows you to call 
 249:c:\users\niels\documents\github\dsp\software\stm32basis\hal\gemeenschappelijk\third_party\freertos-addons-1.1.0\c++\source\include\thread.hpp ****          *  your Thread's destructor. If you decide to call delete
 250:c:\users\niels\documents\github\dsp\software\stm32basis\hal\gemeenschappelijk\third_party\freertos-addons-1.1.0\c++\source\include\thread.hpp ****          *  in your Cleanup function, be aware that additional 
 251:c:\users\niels\documents\github\dsp\software\stm32basis\hal\gemeenschappelijk\third_party\freertos-addons-1.1.0\c++\source\include\thread.hpp ****          *  derived classes shouldn't call delete. 
 252:c:\users\niels\documents\github\dsp\software\stm32basis\hal\gemeenschappelijk\third_party\freertos-addons-1.1.0\c++\source\include\thread.hpp ****          */ 
 253:c:\users\niels\documents\github\dsp\software\stm32basis\hal\gemeenschappelijk\third_party\freertos-addons-1.1.0\c++\source\include\thread.hpp ****         virtual void Cleanup();
 254:c:\users\niels\documents\github\dsp\software\stm32basis\hal\gemeenschappelijk\third_party\freertos-addons-1.1.0\c++\source\include\thread.hpp **** #else
 255:c:\users\niels\documents\github\dsp\software\stm32basis\hal\gemeenschappelijk\third_party\freertos-addons-1.1.0\c++\source\include\thread.hpp ****         /**
 256:c:\users\niels\documents\github\dsp\software\stm32basis\hal\gemeenschappelijk\third_party\freertos-addons-1.1.0\c++\source\include\thread.hpp ****          *  If we can't delete a task, it makes no sense to have a
 257:c:\users\niels\documents\github\dsp\software\stm32basis\hal\gemeenschappelijk\third_party\freertos-addons-1.1.0\c++\source\include\thread.hpp ****          *  Cleanup routine.
 258:c:\users\niels\documents\github\dsp\software\stm32basis\hal\gemeenschappelijk\third_party\freertos-addons-1.1.0\c++\source\include\thread.hpp ****          */
 259:c:\users\niels\documents\github\dsp\software\stm32basis\hal\gemeenschappelijk\third_party\freertos-addons-1.1.0\c++\source\include\thread.hpp **** #endif
 260:c:\users\niels\documents\github\dsp\software\stm32basis\hal\gemeenschappelijk\third_party\freertos-addons-1.1.0\c++\source\include\thread.hpp **** 
 261:c:\users\niels\documents\github\dsp\software\stm32basis\hal\gemeenschappelijk\third_party\freertos-addons-1.1.0\c++\source\include\thread.hpp **** #if (INCLUDE_vTaskDelay == 1)
 262:c:\users\niels\documents\github\dsp\software\stm32basis\hal\gemeenschappelijk\third_party\freertos-addons-1.1.0\c++\source\include\thread.hpp ****         /**
 263:c:\users\niels\documents\github\dsp\software\stm32basis\hal\gemeenschappelijk\third_party\freertos-addons-1.1.0\c++\source\include\thread.hpp ****          *  Delay this thread for at least Delay ticks.
 264:c:\users\niels\documents\github\dsp\software\stm32basis\hal\gemeenschappelijk\third_party\freertos-addons-1.1.0\c++\source\include\thread.hpp ****          *
 265:c:\users\niels\documents\github\dsp\software\stm32basis\hal\gemeenschappelijk\third_party\freertos-addons-1.1.0\c++\source\include\thread.hpp ****          *  @param Delay How long to delay the thread.
 266:c:\users\niels\documents\github\dsp\software\stm32basis\hal\gemeenschappelijk\third_party\freertos-addons-1.1.0\c++\source\include\thread.hpp ****          */
 267:c:\users\niels\documents\github\dsp\software\stm32basis\hal\gemeenschappelijk\third_party\freertos-addons-1.1.0\c++\source\include\thread.hpp ****         void inline Delay(const TickType_t Delay)
 170              	 .loc 2 267 21
 171              	 .cfi_startproc
 172              	 
 173              	 
 174 0000 80B5     	 push {r7,lr}
 175              	 .cfi_def_cfa_offset 8
 176              	 .cfi_offset 7,-8
 177              	 .cfi_offset 14,-4
 178 0002 82B0     	 sub sp,sp,#8
 179              	 .cfi_def_cfa_offset 16
 180 0004 00AF     	 add r7,sp,#0
 181              	 .cfi_def_cfa_register 7
 182 0006 7860     	 str r0,[r7,#4]
 183 0008 3960     	 str r1,[r7]
 268:c:\users\niels\documents\github\dsp\software\stm32basis\hal\gemeenschappelijk\third_party\freertos-addons-1.1.0\c++\source\include\thread.hpp ****         {
 269:c:\users\niels\documents\github\dsp\software\stm32basis\hal\gemeenschappelijk\third_party\freertos-addons-1.1.0\c++\source\include\thread.hpp ****             vTaskDelay(Delay);
ARM GAS   			page 13


 184              	 .loc 2 269 23
 185 000a 3868     	 ldr r0,[r7]
 186 000c FFF7FEFF 	 bl vTaskDelay
 270:c:\users\niels\documents\github\dsp\software\stm32basis\hal\gemeenschappelijk\third_party\freertos-addons-1.1.0\c++\source\include\thread.hpp ****         }
 187              	 .loc 2 270 9
 188 0010 00BF     	 nop
 189 0012 0837     	 adds r7,r7,#8
 190              	 .cfi_def_cfa_offset 8
 191 0014 BD46     	 mov sp,r7
 192              	 .cfi_def_cfa_register 13
 193              	 
 194 0016 80BD     	 pop {r7,pc}
 195              	 .cfi_endproc
 196              	.LFE1275:
 197              	 .size _ZN12cpp_freertos6Thread5DelayEm,.-_ZN12cpp_freertos6Thread5DelayEm
 198              	 .section .text._ZN7StdTaakC2ERKNSt7__cxx1112basic_stringIcSt11char_traitsIcESaIcEEEt8TaakPrio,"ax",%progbits
 199              	 .align 1
 200              	 .global _ZN7StdTaakC2ERKNSt7__cxx1112basic_stringIcSt11char_traitsIcESaIcEEEt8TaakPrio
 201              	 .syntax unified
 202              	 .thumb
 203              	 .thumb_func
 204              	 .type _ZN7StdTaakC2ERKNSt7__cxx1112basic_stringIcSt11char_traitsIcESaIcEEEt8TaakPrio,%function
 205              	_ZN7StdTaakC2ERKNSt7__cxx1112basic_stringIcSt11char_traitsIcESaIcEEEt8TaakPrio:
 206              	.LFB1298:
 207              	 .file 3 "C:\\Users\\niels\\Documents\\GitHub\\DSP\\software\\STM32Basis\\gemeenschappelijk\\ESEFreeRTOS\\stdTaak.cpp"
   1:C:\Users\niels\Documents\GitHub\DSP\software\STM32Basis\gemeenschappelijk\ESEFreeRTOS\stdTaak.cpp **** /*!
   2:C:\Users\niels\Documents\GitHub\DSP\software\STM32Basis\gemeenschappelijk\ESEFreeRTOS\stdTaak.cpp **** @file
   3:C:\Users\niels\Documents\GitHub\DSP\software\STM32Basis\gemeenschappelijk\ESEFreeRTOS\stdTaak.cpp **** Implementatie van de c++ schil voor gebruik van de FreeRTOS
   4:C:\Users\niels\Documents\GitHub\DSP\software\STM32Basis\gemeenschappelijk\ESEFreeRTOS\stdTaak.cpp **** @version $Rev: 2892 $
   5:C:\Users\niels\Documents\GitHub\DSP\software\STM32Basis\gemeenschappelijk\ESEFreeRTOS\stdTaak.cpp **** @author $Author: ewout $
   6:C:\Users\niels\Documents\GitHub\DSP\software\STM32Basis\gemeenschappelijk\ESEFreeRTOS\stdTaak.cpp **** 
   7:C:\Users\niels\Documents\GitHub\DSP\software\STM32Basis\gemeenschappelijk\ESEFreeRTOS\stdTaak.cpp **** @copyright Copyright 2017-2018 Hogeschool van Arnhem en Nijmegen, ir drs E.J Boks
   8:C:\Users\niels\Documents\GitHub\DSP\software\STM32Basis\gemeenschappelijk\ESEFreeRTOS\stdTaak.cpp **** 
   9:C:\Users\niels\Documents\GitHub\DSP\software\STM32Basis\gemeenschappelijk\ESEFreeRTOS\stdTaak.cpp **** $URL: http://svn.hanese.nl/docenten/svn/ewout/vakken/algemeen/software/STM32/STM32Basis/HAL/gemeens
  10:C:\Users\niels\Documents\GitHub\DSP\software\STM32Basis\gemeenschappelijk\ESEFreeRTOS\stdTaak.cpp **** $Id: ESEBoardController.h 2892 2018-02-27 19:33:20Z ewout $
  11:C:\Users\niels\Documents\GitHub\DSP\software\STM32Basis\gemeenschappelijk\ESEFreeRTOS\stdTaak.cpp **** ************************************************************************/
  12:C:\Users\niels\Documents\GitHub\DSP\software\STM32Basis\gemeenschappelijk\ESEFreeRTOS\stdTaak.cpp **** #include <algdef.h>
  13:C:\Users\niels\Documents\GitHub\DSP\software\STM32Basis\gemeenschappelijk\ESEFreeRTOS\stdTaak.cpp **** #include <stdTaak.h>
  14:C:\Users\niels\Documents\GitHub\DSP\software\STM32Basis\gemeenschappelijk\ESEFreeRTOS\stdTaak.cpp **** 
  15:C:\Users\niels\Documents\GitHub\DSP\software\STM32Basis\gemeenschappelijk\ESEFreeRTOS\stdTaak.cpp **** StdTaak::StdTaak(const std::string &naam,
 208              	 .loc 3 15 1
 209              	 .cfi_startproc
 210              	 
 211              	 
 212 0000 80B5     	 push {r7,lr}
 213              	 .cfi_def_cfa_offset 8
 214              	 .cfi_offset 7,-8
 215              	 .cfi_offset 14,-4
 216 0002 84B0     	 sub sp,sp,#16
 217              	 .cfi_def_cfa_offset 24
 218 0004 00AF     	 add r7,sp,#0
 219              	 .cfi_def_cfa_register 7
 220 0006 F860     	 str r0,[r7,#12]
 221 0008 B960     	 str r1,[r7,#8]
 222 000a 3B60     	 str r3,[r7]
 223 000c 1346     	 mov r3,r2
 224 000e FB80     	 strh r3,[r7,#6]
ARM GAS   			page 14


 225              	.LBB2:
  16:C:\Users\niels\Documents\GitHub\DSP\software\STM32Basis\gemeenschappelijk\ESEFreeRTOS\stdTaak.cpp ****                  const UInt16 stackGrootte,
  17:C:\Users\niels\Documents\GitHub\DSP\software\STM32Basis\gemeenschappelijk\ESEFreeRTOS\stdTaak.cpp ****                  const TaakPrio prioriteit) : Thread(naam, stackGrootte,
  18:C:\Users\niels\Documents\GitHub\DSP\software\STM32Basis\gemeenschappelijk\ESEFreeRTOS\stdTaak.cpp **** 													 static_cast<UInt32>(prioriteit)),
  19:C:\Users\niels\Documents\GitHub\DSP\software\STM32Basis\gemeenschappelijk\ESEFreeRTOS\stdTaak.cpp ****                                               brievenbus(QueueAantal,
  20:C:\Users\niels\Documents\GitHub\DSP\software\STM32Basis\gemeenschappelijk\ESEFreeRTOS\stdTaak.cpp **** 														 QueueMsgGrootte)
 226              	 .loc 3 20 31
 227 0010 F868     	 ldr r0,[r7,#12]
 228 0012 3B68     	 ldr r3,[r7]
 229 0014 FA88     	 ldrh r2,[r7,#6]
 230 0016 B968     	 ldr r1,[r7,#8]
 231 0018 FFF7FEFF 	 bl _ZN12cpp_freertos6ThreadC2ERKNSt7__cxx1112basic_stringIcSt11char_traitsIcESaIcEEEtm
 232 001c 0B4A     	 ldr r2,.L10
 233 001e FB68     	 ldr r3,[r7,#12]
 234 0020 1A60     	 str r2,[r3]
 235 0022 FB68     	 ldr r3,[r7,#12]
 236 0024 2C33     	 adds r3,r3,#44
 237 0026 1846     	 mov r0,r3
 238 0028 FFF7FEFF 	 bl _ZN10StdTaakMsgILj16EEC1Ev
 239 002c FB68     	 ldr r3,[r7,#12]
 240 002e 7833     	 adds r3,r3,#120
 241 0030 4C22     	 movs r2,#76
 242 0032 1821     	 movs r1,#24
 243 0034 1846     	 mov r0,r3
 244 0036 FFF7FEFF 	 bl _ZN12cpp_freertos5DequeC1Emm
  21:C:\Users\niels\Documents\GitHub\DSP\software\STM32Basis\gemeenschappelijk\ESEFreeRTOS\stdTaak.cpp **** {
  22:C:\Users\niels\Documents\GitHub\DSP\software\STM32Basis\gemeenschappelijk\ESEFreeRTOS\stdTaak.cpp **** 	registreer(this,prioriteit);
 245              	 .loc 3 22 12
 246 003a 3968     	 ldr r1,[r7]
 247 003c F868     	 ldr r0,[r7,#12]
 248 003e FFF7FEFF 	 bl _ZN7StdTaak10registreerEPS_8TaakPrio
 249              	.LBE2:
  23:C:\Users\niels\Documents\GitHub\DSP\software\STM32Basis\gemeenschappelijk\ESEFreeRTOS\stdTaak.cpp **** }
 250              	 .loc 3 23 1
 251 0042 FB68     	 ldr r3,[r7,#12]
 252 0044 1846     	 mov r0,r3
 253 0046 1037     	 adds r7,r7,#16
 254              	 .cfi_def_cfa_offset 8
 255 0048 BD46     	 mov sp,r7
 256              	 .cfi_def_cfa_register 13
 257              	 
 258 004a 80BD     	 pop {r7,pc}
 259              	.L11:
 260              	 .align 2
 261              	.L10:
 262 004c 08000000 	 .word _ZTV7StdTaak+8
 263              	 .cfi_endproc
 264              	.LFE1298:
 265              	 .size _ZN7StdTaakC2ERKNSt7__cxx1112basic_stringIcSt11char_traitsIcESaIcEEEt8TaakPrio,.-_ZN7StdTaakC2ERKNSt7__cxx1112basic_stringIcSt11char_traitsIcESaIcEEEt8TaakPrio
 266              	 .global _ZN7StdTaakC1ERKNSt7__cxx1112basic_stringIcSt11char_traitsIcESaIcEEEt8TaakPrio
 267              	 .thumb_set _ZN7StdTaakC1ERKNSt7__cxx1112basic_stringIcSt11char_traitsIcESaIcEEEt8TaakPrio,_ZN7StdTaakC2ERKNSt7__cxx1112basic_stringIcSt11char_traitsIcESaIcEEEt8TaakPrio
 268              	 .section .text._ZN7StdTaak14geefPrioriteitEv,"ax",%progbits
 269              	 .align 1
 270              	 .global _ZN7StdTaak14geefPrioriteitEv
 271              	 .syntax unified
 272              	 .thumb
 273              	 .thumb_func
ARM GAS   			page 15


 274              	 .type _ZN7StdTaak14geefPrioriteitEv,%function
 275              	_ZN7StdTaak14geefPrioriteitEv:
 276              	.LFB1300:
  24:C:\Users\niels\Documents\GitHub\DSP\software\STM32Basis\gemeenschappelijk\ESEFreeRTOS\stdTaak.cpp **** 
  25:C:\Users\niels\Documents\GitHub\DSP\software\STM32Basis\gemeenschappelijk\ESEFreeRTOS\stdTaak.cpp **** TaakPrio StdTaak::geefPrioriteit()
  26:C:\Users\niels\Documents\GitHub\DSP\software\STM32Basis\gemeenschappelijk\ESEFreeRTOS\stdTaak.cpp **** {
 277              	 .loc 3 26 1
 278              	 .cfi_startproc
 279              	 
 280              	 
 281 0000 80B5     	 push {r7,lr}
 282              	 .cfi_def_cfa_offset 8
 283              	 .cfi_offset 7,-8
 284              	 .cfi_offset 14,-4
 285 0002 84B0     	 sub sp,sp,#16
 286              	 .cfi_def_cfa_offset 24
 287 0004 00AF     	 add r7,sp,#0
 288              	 .cfi_def_cfa_register 7
 289 0006 7860     	 str r0,[r7,#4]
  27:C:\Users\niels\Documents\GitHub\DSP\software\STM32Basis\gemeenschappelijk\ESEFreeRTOS\stdTaak.cpp **** 	const auto prio = static_cast<TaakPrio>(GetPriority());
 290              	 .loc 3 27 53
 291 0008 7B68     	 ldr r3,[r7,#4]
 292 000a 1846     	 mov r0,r3
 293 000c FFF7FEFF 	 bl _ZN12cpp_freertos6Thread11GetPriorityEv
 294 0010 0346     	 mov r3,r0
 295              	 .loc 3 27 55
 296 0012 FB60     	 str r3,[r7,#12]
  28:C:\Users\niels\Documents\GitHub\DSP\software\STM32Basis\gemeenschappelijk\ESEFreeRTOS\stdTaak.cpp **** 	return(prio);
 297              	 .loc 3 28 13
 298 0014 FB68     	 ldr r3,[r7,#12]
  29:C:\Users\niels\Documents\GitHub\DSP\software\STM32Basis\gemeenschappelijk\ESEFreeRTOS\stdTaak.cpp **** }
 299              	 .loc 3 29 1
 300 0016 1846     	 mov r0,r3
 301 0018 1037     	 adds r7,r7,#16
 302              	 .cfi_def_cfa_offset 8
 303 001a BD46     	 mov sp,r7
 304              	 .cfi_def_cfa_register 13
 305              	 
 306 001c 80BD     	 pop {r7,pc}
 307              	 .cfi_endproc
 308              	.LFE1300:
 309              	 .size _ZN7StdTaak14geefPrioriteitEv,.-_ZN7StdTaak14geefPrioriteitEv
 310              	 .global _ZN7StdTaak10takenIndexE
 311              	 .section .bss._ZN7StdTaak10takenIndexE,"aw",%nobits
 312              	 .align 2
 313              	 .type _ZN7StdTaak10takenIndexE,%object
 314              	 .size _ZN7StdTaak10takenIndexE,16
 315              	_ZN7StdTaak10takenIndexE:
 316 0000 00000000 	 .space 16
 316      00000000 
 316      00000000 
 316      00000000 
 317              	 .section .rodata
 318              	 .align 2
 319              	.LC0:
 320 0000 696E6465 	 .ascii "index < AantalTaken\000"
 320      78203C20 
ARM GAS   			page 16


 320      41616E74 
 320      616C5461 
 320      6B656E00 
 321              	 .align 2
 322              	.LC1:
 323 0014 73746174 	 .ascii "static void StdTaak::registreer(StdTaak*, TaakPrio)"
 323      69632076 
 323      6F696420 
 323      53746454 
 323      61616B3A 
 324 0047 00       	 .ascii "\000"
 325              	 .align 2
 326              	.LC2:
 327 0048 433A5C55 	 .ascii "C:\\Users\\niels\\Documents\\GitHub\\DSP\\software\\"
 327      73657273 
 327      5C6E6965 
 327      6C735C44 
 327      6F63756D 
 328 0075 53544D33 	 .ascii "STM32Basis\\gemeenschappelijk\\ESEFreeRTOS\\stdTaak"
 328      32426173 
 328      69735C67 
 328      656D6565 
 328      6E736368 
 329 00a5 2E637070 	 .ascii ".cpp\000"
 329      00
 330              	 .section .text._ZN7StdTaak10registreerEPS_8TaakPrio,"ax",%progbits
 331              	 .align 1
 332              	 .global _ZN7StdTaak10registreerEPS_8TaakPrio
 333              	 .syntax unified
 334              	 .thumb
 335              	 .thumb_func
 336              	 .type _ZN7StdTaak10registreerEPS_8TaakPrio,%function
 337              	_ZN7StdTaak10registreerEPS_8TaakPrio:
 338              	.LFB1301:
  30:C:\Users\niels\Documents\GitHub\DSP\software\STM32Basis\gemeenschappelijk\ESEFreeRTOS\stdTaak.cpp **** 
  31:C:\Users\niels\Documents\GitHub\DSP\software\STM32Basis\gemeenschappelijk\ESEFreeRTOS\stdTaak.cpp **** StdTaak *StdTaak::takenIndex[StdTaak::AantalTaken];
  32:C:\Users\niels\Documents\GitHub\DSP\software\STM32Basis\gemeenschappelijk\ESEFreeRTOS\stdTaak.cpp **** 
  33:C:\Users\niels\Documents\GitHub\DSP\software\STM32Basis\gemeenschappelijk\ESEFreeRTOS\stdTaak.cpp **** void StdTaak::registreer(StdTaak *const tp, const TaakPrio prio)
  34:C:\Users\niels\Documents\GitHub\DSP\software\STM32Basis\gemeenschappelijk\ESEFreeRTOS\stdTaak.cpp **** {
 339              	 .loc 3 34 1
 340              	 .cfi_startproc
 341              	 
 342              	 
 343 0000 80B5     	 push {r7,lr}
 344              	 .cfi_def_cfa_offset 8
 345              	 .cfi_offset 7,-8
 346              	 .cfi_offset 14,-4
 347 0002 84B0     	 sub sp,sp,#16
 348              	 .cfi_def_cfa_offset 24
 349 0004 00AF     	 add r7,sp,#0
 350              	 .cfi_def_cfa_register 7
 351 0006 7860     	 str r0,[r7,#4]
 352 0008 3960     	 str r1,[r7]
  35:C:\Users\niels\Documents\GitHub\DSP\software\STM32Basis\gemeenschappelijk\ESEFreeRTOS\stdTaak.cpp **** 	const auto index = static_cast<Teller>(prio)-2;
 353              	 .loc 3 35 21
 354 000a 3B68     	 ldr r3,[r7]
 355              	 .loc 3 35 13
ARM GAS   			page 17


 356 000c 023B     	 subs r3,r3,#2
 357 000e FB60     	 str r3,[r7,#12]
  36:C:\Users\niels\Documents\GitHub\DSP\software\STM32Basis\gemeenschappelijk\ESEFreeRTOS\stdTaak.cpp **** 	assert(index < AantalTaken);
 358              	 .loc 3 36 2
 359 0010 FB68     	 ldr r3,[r7,#12]
 360 0012 032B     	 cmp r3,#3
 361 0014 05D9     	 bls .L15
 362              	 .loc 3 36 2 is_stmt 0 discriminator 1
 363 0016 074B     	 ldr r3,.L16
 364 0018 074A     	 ldr r2,.L16+4
 365 001a 2421     	 movs r1,#36
 366 001c 0748     	 ldr r0,.L16+8
 367 001e FFF7FEFF 	 bl __assert_func
 368              	.L15:
  37:C:\Users\niels\Documents\GitHub\DSP\software\STM32Basis\gemeenschappelijk\ESEFreeRTOS\stdTaak.cpp **** 	takenIndex[index] = tp;
 369              	 .loc 3 37 20 is_stmt 1
 370 0022 0749     	 ldr r1,.L16+12
 371 0024 FB68     	 ldr r3,[r7,#12]
 372 0026 7A68     	 ldr r2,[r7,#4]
 373 0028 41F82320 	 str r2,[r1,r3,lsl#2]
  38:C:\Users\niels\Documents\GitHub\DSP\software\STM32Basis\gemeenschappelijk\ESEFreeRTOS\stdTaak.cpp **** }
 374              	 .loc 3 38 1
 375 002c 00BF     	 nop
 376 002e 1037     	 adds r7,r7,#16
 377              	 .cfi_def_cfa_offset 8
 378 0030 BD46     	 mov sp,r7
 379              	 .cfi_def_cfa_register 13
 380              	 
 381 0032 80BD     	 pop {r7,pc}
 382              	.L17:
 383              	 .align 2
 384              	.L16:
 385 0034 00000000 	 .word .LC0
 386 0038 14000000 	 .word .LC1
 387 003c 48000000 	 .word .LC2
 388 0040 00000000 	 .word _ZN7StdTaak10takenIndexE
 389              	 .cfi_endproc
 390              	.LFE1301:
 391              	 .size _ZN7StdTaak10registreerEPS_8TaakPrio,.-_ZN7StdTaak10registreerEPS_8TaakPrio
 392              	 .section .rodata
 393 00aa 0000     	 .align 2
 394              	.LC3:
 395 00ac 73746174 	 .ascii "static StdTaak* StdTaak::geefTaak(TaakPrio)\000"
 395      69632053 
 395      74645461 
 395      616B2A20 
 395      53746454 
 396              	 .align 2
 397              	.LC4:
 398 00d8 6E756C6C 	 .ascii "nullptr != taakPtr\000"
 398      70747220 
 398      213D2074 
 398      61616B50 
 398      747200
 399              	 .section .text._ZN7StdTaak8geefTaakE8TaakPrio,"ax",%progbits
 400              	 .align 1
 401              	 .global _ZN7StdTaak8geefTaakE8TaakPrio
ARM GAS   			page 18


 402              	 .syntax unified
 403              	 .thumb
 404              	 .thumb_func
 405              	 .type _ZN7StdTaak8geefTaakE8TaakPrio,%function
 406              	_ZN7StdTaak8geefTaakE8TaakPrio:
 407              	.LFB1302:
  39:C:\Users\niels\Documents\GitHub\DSP\software\STM32Basis\gemeenschappelijk\ESEFreeRTOS\stdTaak.cpp **** 
  40:C:\Users\niels\Documents\GitHub\DSP\software\STM32Basis\gemeenschappelijk\ESEFreeRTOS\stdTaak.cpp **** StdTaak *StdTaak::geefTaak(const TaakPrio prio)
  41:C:\Users\niels\Documents\GitHub\DSP\software\STM32Basis\gemeenschappelijk\ESEFreeRTOS\stdTaak.cpp **** {
 408              	 .loc 3 41 1
 409              	 .cfi_startproc
 410              	 
 411              	 
 412 0000 80B5     	 push {r7,lr}
 413              	 .cfi_def_cfa_offset 8
 414              	 .cfi_offset 7,-8
 415              	 .cfi_offset 14,-4
 416 0002 84B0     	 sub sp,sp,#16
 417              	 .cfi_def_cfa_offset 24
 418 0004 00AF     	 add r7,sp,#0
 419              	 .cfi_def_cfa_register 7
 420 0006 7860     	 str r0,[r7,#4]
  42:C:\Users\niels\Documents\GitHub\DSP\software\STM32Basis\gemeenschappelijk\ESEFreeRTOS\stdTaak.cpp **** 	const auto index = static_cast<Teller>(prio)-2;
 421              	 .loc 3 42 21
 422 0008 7B68     	 ldr r3,[r7,#4]
 423              	 .loc 3 42 13
 424 000a 023B     	 subs r3,r3,#2
 425 000c FB60     	 str r3,[r7,#12]
  43:C:\Users\niels\Documents\GitHub\DSP\software\STM32Basis\gemeenschappelijk\ESEFreeRTOS\stdTaak.cpp **** 	assert(index < AantalTaken);
 426              	 .loc 3 43 2
 427 000e FB68     	 ldr r3,[r7,#12]
 428 0010 032B     	 cmp r3,#3
 429 0012 05D9     	 bls .L19
 430              	 .loc 3 43 2 is_stmt 0 discriminator 1
 431 0014 0C4B     	 ldr r3,.L22
 432 0016 0D4A     	 ldr r2,.L22+4
 433 0018 2B21     	 movs r1,#43
 434 001a 0D48     	 ldr r0,.L22+8
 435 001c FFF7FEFF 	 bl __assert_func
 436              	.L19:
  44:C:\Users\niels\Documents\GitHub\DSP\software\STM32Basis\gemeenschappelijk\ESEFreeRTOS\stdTaak.cpp **** 	auto * const taakPtr = takenIndex[index];
 437              	 .loc 3 44 15 is_stmt 1
 438 0020 0C4A     	 ldr r2,.L22+12
 439 0022 FB68     	 ldr r3,[r7,#12]
 440 0024 52F82330 	 ldr r3,[r2,r3,lsl#2]
 441 0028 BB60     	 str r3,[r7,#8]
  45:C:\Users\niels\Documents\GitHub\DSP\software\STM32Basis\gemeenschappelijk\ESEFreeRTOS\stdTaak.cpp **** 	assert(nullptr != taakPtr);
 442              	 .loc 3 45 2
 443 002a BB68     	 ldr r3,[r7,#8]
 444 002c 002B     	 cmp r3,#0
 445 002e 05D1     	 bne .L20
 446              	 .loc 3 45 2 is_stmt 0 discriminator 1
 447 0030 094B     	 ldr r3,.L22+16
 448 0032 064A     	 ldr r2,.L22+4
 449 0034 2D21     	 movs r1,#45
 450 0036 0648     	 ldr r0,.L22+8
 451 0038 FFF7FEFF 	 bl __assert_func
ARM GAS   			page 19


 452              	.L20:
  46:C:\Users\niels\Documents\GitHub\DSP\software\STM32Basis\gemeenschappelijk\ESEFreeRTOS\stdTaak.cpp **** 	return(taakPtr);
 453              	 .loc 3 46 16 is_stmt 1
 454 003c BB68     	 ldr r3,[r7,#8]
  47:C:\Users\niels\Documents\GitHub\DSP\software\STM32Basis\gemeenschappelijk\ESEFreeRTOS\stdTaak.cpp **** }
 455              	 .loc 3 47 1
 456 003e 1846     	 mov r0,r3
 457 0040 1037     	 adds r7,r7,#16
 458              	 .cfi_def_cfa_offset 8
 459 0042 BD46     	 mov sp,r7
 460              	 .cfi_def_cfa_register 13
 461              	 
 462 0044 80BD     	 pop {r7,pc}
 463              	.L23:
 464 0046 00BF     	 .align 2
 465              	.L22:
 466 0048 00000000 	 .word .LC0
 467 004c AC000000 	 .word .LC3
 468 0050 48000000 	 .word .LC2
 469 0054 00000000 	 .word _ZN7StdTaak10takenIndexE
 470 0058 D8000000 	 .word .LC4
 471              	 .cfi_endproc
 472              	.LFE1302:
 473              	 .size _ZN7StdTaak8geefTaakE8TaakPrio,.-_ZN7StdTaak8geefTaakE8TaakPrio
 474              	 .section .text._ZN7StdTaak12stuurBerichtERK10StdTaakMsgILj16EE,"ax",%progbits
 475              	 .align 1
 476              	 .global _ZN7StdTaak12stuurBerichtERK10StdTaakMsgILj16EE
 477              	 .syntax unified
 478              	 .thumb
 479              	 .thumb_func
 480              	 .type _ZN7StdTaak12stuurBerichtERK10StdTaakMsgILj16EE,%function
 481              	_ZN7StdTaak12stuurBerichtERK10StdTaakMsgILj16EE:
 482              	.LFB1303:
  48:C:\Users\niels\Documents\GitHub\DSP\software\STM32Basis\gemeenschappelijk\ESEFreeRTOS\stdTaak.cpp **** 
  49:C:\Users\niels\Documents\GitHub\DSP\software\STM32Basis\gemeenschappelijk\ESEFreeRTOS\stdTaak.cpp **** void StdTaak::stuurBericht(const StdTaak::StdMsg &msg)
  50:C:\Users\niels\Documents\GitHub\DSP\software\STM32Basis\gemeenschappelijk\ESEFreeRTOS\stdTaak.cpp **** {
 483              	 .loc 3 50 1
 484              	 .cfi_startproc
 485              	 
 486              	 
 487 0000 80B5     	 push {r7,lr}
 488              	 .cfi_def_cfa_offset 8
 489              	 .cfi_offset 7,-8
 490              	 .cfi_offset 14,-4
 491 0002 84B0     	 sub sp,sp,#16
 492              	 .cfi_def_cfa_offset 24
 493 0004 00AF     	 add r7,sp,#0
 494              	 .cfi_def_cfa_register 7
 495 0006 7860     	 str r0,[r7,#4]
 496 0008 3960     	 str r1,[r7]
  51:C:\Users\niels\Documents\GitHub\DSP\software\STM32Basis\gemeenschappelijk\ESEFreeRTOS\stdTaak.cpp **** 	const auto taakID = msg.geefOntvanger();
 497              	 .loc 3 51 39
 498 000a 3868     	 ldr r0,[r7]
 499 000c FFF7FEFF 	 bl _ZNK10StdTaakMsgILj16EE13geefOntvangerEv
 500 0010 F860     	 str r0,[r7,#12]
  52:C:\Users\niels\Documents\GitHub\DSP\software\STM32Basis\gemeenschappelijk\ESEFreeRTOS\stdTaak.cpp **** 	auto * const ontvanger = geefTaak(taakID);
 501              	 .loc 3 52 35
ARM GAS   			page 20


 502 0012 F868     	 ldr r0,[r7,#12]
 503 0014 FFF7FEFF 	 bl _ZN7StdTaak8geefTaakE8TaakPrio
 504 0018 B860     	 str r0,[r7,#8]
  53:C:\Users\niels\Documents\GitHub\DSP\software\STM32Basis\gemeenschappelijk\ESEFreeRTOS\stdTaak.cpp **** 	ontvanger->brievenbus.Enqueue(const_cast<StdMsg *>(&msg));
 505              	 .loc 3 53 31
 506 001a BB68     	 ldr r3,[r7,#8]
 507 001c 7833     	 adds r3,r3,#120
 508 001e 3968     	 ldr r1,[r7]
 509 0020 1846     	 mov r0,r3
 510 0022 FFF7FEFF 	 bl _ZN12cpp_freertos5Queue7EnqueueEPv
  54:C:\Users\niels\Documents\GitHub\DSP\software\STM32Basis\gemeenschappelijk\ESEFreeRTOS\stdTaak.cpp **** }
 511              	 .loc 3 54 1
 512 0026 00BF     	 nop
 513 0028 1037     	 adds r7,r7,#16
 514              	 .cfi_def_cfa_offset 8
 515 002a BD46     	 mov sp,r7
 516              	 .cfi_def_cfa_register 13
 517              	 
 518 002c 80BD     	 pop {r7,pc}
 519              	 .cfi_endproc
 520              	.LFE1303:
 521              	 .size _ZN7StdTaak12stuurBerichtERK10StdTaakMsgILj16EE,.-_ZN7StdTaak12stuurBerichtERK10StdTaakMsgILj16EE
 522              	 .section .text._ZN7StdTaak14wachtOpBerichtEt,"ax",%progbits
 523              	 .align 1
 524              	 .global _ZN7StdTaak14wachtOpBerichtEt
 525              	 .syntax unified
 526              	 .thumb
 527              	 .thumb_func
 528              	 .type _ZN7StdTaak14wachtOpBerichtEt,%function
 529              	_ZN7StdTaak14wachtOpBerichtEt:
 530              	.LFB1304:
  55:C:\Users\niels\Documents\GitHub\DSP\software\STM32Basis\gemeenschappelijk\ESEFreeRTOS\stdTaak.cpp **** 
  56:C:\Users\niels\Documents\GitHub\DSP\software\STM32Basis\gemeenschappelijk\ESEFreeRTOS\stdTaak.cpp **** FoutCode StdTaak::wachtOpBericht(const UInt16 msecs)
  57:C:\Users\niels\Documents\GitHub\DSP\software\STM32Basis\gemeenschappelijk\ESEFreeRTOS\stdTaak.cpp **** {
 531              	 .loc 3 57 1
 532              	 .cfi_startproc
 533              	 
 534              	 
 535 0000 80B5     	 push {r7,lr}
 536              	 .cfi_def_cfa_offset 8
 537              	 .cfi_offset 7,-8
 538              	 .cfi_offset 14,-4
 539 0002 84B0     	 sub sp,sp,#16
 540              	 .cfi_def_cfa_offset 24
 541 0004 00AF     	 add r7,sp,#0
 542              	 .cfi_def_cfa_register 7
 543 0006 7860     	 str r0,[r7,#4]
 544 0008 0B46     	 mov r3,r1
 545 000a 7B80     	 strh r3,[r7,#2]
  58:C:\Users\niels\Documents\GitHub\DSP\software\STM32Basis\gemeenschappelijk\ESEFreeRTOS\stdTaak.cpp **** 	const auto aantalWachtTicks = ((0 != msecs) ? aantalTicks(msecs) : portMAX_DELAY );
 546              	 .loc 3 58 46
 547 000c 7B88     	 ldrh r3,[r7,#2]
 548 000e 002B     	 cmp r3,#0
 549 0010 05D0     	 beq .L26
 550              	 .loc 3 58 59 discriminator 1
 551 0012 7B88     	 ldrh r3,[r7,#2]
 552 0014 1846     	 mov r0,r3
ARM GAS   			page 21


 553 0016 FFF7FEFF 	 bl _ZN7StdTaak11aantalTicksEm
 554 001a 0346     	 mov r3,r0
 555 001c 01E0     	 b .L27
 556              	.L26:
 557              	 .loc 3 58 46 discriminator 2
 558 001e 4FF0FF33 	 mov r3,#-1
 559              	.L27:
 560              	 .loc 3 58 83 discriminator 4
 561 0022 FB60     	 str r3,[r7,#12]
  59:C:\Users\niels\Documents\GitHub\DSP\software\STM32Basis\gemeenschappelijk\ESEFreeRTOS\stdTaak.cpp **** 
  60:C:\Users\niels\Documents\GitHub\DSP\software\STM32Basis\gemeenschappelijk\ESEFreeRTOS\stdTaak.cpp **** 	const bool nieuwAanwezig = brievenbus.Dequeue(&nieuwBericht,aantalWachtTicks);
 562              	 .loc 3 60 47 discriminator 4
 563 0024 7B68     	 ldr r3,[r7,#4]
 564 0026 03F17800 	 add r0,r3,#120
 565              	 .loc 3 60 48 discriminator 4
 566 002a 7B68     	 ldr r3,[r7,#4]
 567 002c 2C33     	 adds r3,r3,#44
 568              	 .loc 3 60 47 discriminator 4
 569 002e FA68     	 ldr r2,[r7,#12]
 570 0030 1946     	 mov r1,r3
 571 0032 FFF7FEFF 	 bl _ZN12cpp_freertos5Queue7DequeueEPvm
 572 0036 0346     	 mov r3,r0
 573 0038 FB72     	 strb r3,[r7,#11]
  61:C:\Users\niels\Documents\GitHub\DSP\software\STM32Basis\gemeenschappelijk\ESEFreeRTOS\stdTaak.cpp **** 
  62:C:\Users\niels\Documents\GitHub\DSP\software\STM32Basis\gemeenschappelijk\ESEFreeRTOS\stdTaak.cpp **** 	return((true==nieuwAanwezig) ? FoutCode::Ok : FoutCode::Waarschuwing);
 574              	 .loc 3 62 31 discriminator 4
 575 003a FB7A     	 ldrb r3,[r7,#11]
 576 003c 012B     	 cmp r3,#1
 577 003e 14BF     	 ite ne
 578 0040 0123     	 movne r3,#1
 579 0042 0023     	 moveq r3,#0
 580 0044 DBB2     	 uxtb r3,r3
  63:C:\Users\niels\Documents\GitHub\DSP\software\STM32Basis\gemeenschappelijk\ESEFreeRTOS\stdTaak.cpp **** }
 581              	 .loc 3 63 1 discriminator 4
 582 0046 1846     	 mov r0,r3
 583 0048 1037     	 adds r7,r7,#16
 584              	 .cfi_def_cfa_offset 8
 585 004a BD46     	 mov sp,r7
 586              	 .cfi_def_cfa_register 13
 587              	 
 588 004c 80BD     	 pop {r7,pc}
 589              	 .cfi_endproc
 590              	.LFE1304:
 591              	 .size _ZN7StdTaak14wachtOpBerichtEt,.-_ZN7StdTaak14wachtOpBerichtEt
 592              	 .section .rodata._ZZN7StdTaak11aantalTicksEmE19ticksInMsecsPeriode,"a"
 593              	 .align 2
 594              	 .type _ZZN7StdTaak11aantalTicksEmE19ticksInMsecsPeriode,%object
 595              	 .size _ZZN7StdTaak11aantalTicksEmE19ticksInMsecsPeriode,4
 596              	_ZZN7StdTaak11aantalTicksEmE19ticksInMsecsPeriode:
 597 0000 01000000 	 .word 1
 598              	 .section .text._ZN7StdTaak11aantalTicksEm,"ax",%progbits
 599              	 .align 1
 600              	 .global _ZN7StdTaak11aantalTicksEm
 601              	 .syntax unified
 602              	 .thumb
 603              	 .thumb_func
 604              	 .type _ZN7StdTaak11aantalTicksEm,%function
ARM GAS   			page 22


 605              	_ZN7StdTaak11aantalTicksEm:
 606              	.LFB1305:
  64:C:\Users\niels\Documents\GitHub\DSP\software\STM32Basis\gemeenschappelijk\ESEFreeRTOS\stdTaak.cpp **** 
  65:C:\Users\niels\Documents\GitHub\DSP\software\STM32Basis\gemeenschappelijk\ESEFreeRTOS\stdTaak.cpp **** UInt32 StdTaak::aantalTicks(const UInt32 msecs)
  66:C:\Users\niels\Documents\GitHub\DSP\software\STM32Basis\gemeenschappelijk\ESEFreeRTOS\stdTaak.cpp **** {
 607              	 .loc 3 66 1
 608              	 .cfi_startproc
 609              	 
 610              	 
 611              	 
 612 0000 80B4     	 push {r7}
 613              	 .cfi_def_cfa_offset 4
 614              	 .cfi_offset 7,-4
 615 0002 85B0     	 sub sp,sp,#20
 616              	 .cfi_def_cfa_offset 24
 617 0004 00AF     	 add r7,sp,#0
 618              	 .cfi_def_cfa_register 7
 619 0006 7860     	 str r0,[r7,#4]
  67:C:\Users\niels\Documents\GitHub\DSP\software\STM32Basis\gemeenschappelijk\ESEFreeRTOS\stdTaak.cpp **** 	assert(0 != configTICK_RATE_HZ);
  68:C:\Users\niels\Documents\GitHub\DSP\software\STM32Basis\gemeenschappelijk\ESEFreeRTOS\stdTaak.cpp **** 	static constexpr auto ticksInMsecsPeriode = 1000/configTICK_RATE_HZ;
  69:C:\Users\niels\Documents\GitHub\DSP\software\STM32Basis\gemeenschappelijk\ESEFreeRTOS\stdTaak.cpp **** 	assert(0 != ticksInMsecsPeriode);
  70:C:\Users\niels\Documents\GitHub\DSP\software\STM32Basis\gemeenschappelijk\ESEFreeRTOS\stdTaak.cpp **** 
  71:C:\Users\niels\Documents\GitHub\DSP\software\STM32Basis\gemeenschappelijk\ESEFreeRTOS\stdTaak.cpp **** 	const auto periode = msecs/ticksInMsecsPeriode;
 620              	 .loc 3 71 13
 621 0008 7B68     	 ldr r3,[r7,#4]
 622 000a FB60     	 str r3,[r7,#12]
  72:C:\Users\niels\Documents\GitHub\DSP\software\STM32Basis\gemeenschappelijk\ESEFreeRTOS\stdTaak.cpp **** 
  73:C:\Users\niels\Documents\GitHub\DSP\software\STM32Basis\gemeenschappelijk\ESEFreeRTOS\stdTaak.cpp **** 	const auto uit = ((periode != 0) ? periode : ticksInMsecsPeriode);
 623              	 .loc 3 73 35
 624 000c FB68     	 ldr r3,[r7,#12]
 625 000e 002B     	 cmp r3,#0
 626 0010 01D0     	 beq .L30
 627              	 .loc 3 73 35 is_stmt 0 discriminator 1
 628 0012 FB68     	 ldr r3,[r7,#12]
 629 0014 00E0     	 b .L31
 630              	.L30:
 631              	 .loc 3 73 35 discriminator 2
 632 0016 0123     	 movs r3,#1
 633              	.L31:
 634              	 .loc 3 73 13 is_stmt 1 discriminator 4
 635 0018 BB60     	 str r3,[r7,#8]
  74:C:\Users\niels\Documents\GitHub\DSP\software\STM32Basis\gemeenschappelijk\ESEFreeRTOS\stdTaak.cpp **** 
  75:C:\Users\niels\Documents\GitHub\DSP\software\STM32Basis\gemeenschappelijk\ESEFreeRTOS\stdTaak.cpp **** 	return(uit);
 636              	 .loc 3 75 12 discriminator 4
 637 001a BB68     	 ldr r3,[r7,#8]
  76:C:\Users\niels\Documents\GitHub\DSP\software\STM32Basis\gemeenschappelijk\ESEFreeRTOS\stdTaak.cpp **** }
 638              	 .loc 3 76 1 discriminator 4
 639 001c 1846     	 mov r0,r3
 640 001e 1437     	 adds r7,r7,#20
 641              	 .cfi_def_cfa_offset 4
 642 0020 BD46     	 mov sp,r7
 643              	 .cfi_def_cfa_register 13
 644              	 
 645 0022 5DF8047B 	 ldr r7,[sp],#4
 646              	 .cfi_restore 7
 647              	 .cfi_def_cfa_offset 0
 648 0026 7047     	 bx lr
ARM GAS   			page 23


 649              	 .cfi_endproc
 650              	.LFE1305:
 651              	 .size _ZN7StdTaak11aantalTicksEm,.-_ZN7StdTaak11aantalTicksEm
 652              	 .section .text._ZNK7StdTaak8geefTypeEv,"ax",%progbits
 653              	 .align 1
 654              	 .global _ZNK7StdTaak8geefTypeEv
 655              	 .syntax unified
 656              	 .thumb
 657              	 .thumb_func
 658              	 .type _ZNK7StdTaak8geefTypeEv,%function
 659              	_ZNK7StdTaak8geefTypeEv:
 660              	.LFB1306:
  77:C:\Users\niels\Documents\GitHub\DSP\software\STM32Basis\gemeenschappelijk\ESEFreeRTOS\stdTaak.cpp **** 
  78:C:\Users\niels\Documents\GitHub\DSP\software\STM32Basis\gemeenschappelijk\ESEFreeRTOS\stdTaak.cpp **** MsgType StdTaak::geefType() const
  79:C:\Users\niels\Documents\GitHub\DSP\software\STM32Basis\gemeenschappelijk\ESEFreeRTOS\stdTaak.cpp **** {
 661              	 .loc 3 79 1
 662              	 .cfi_startproc
 663              	 
 664              	 
 665 0000 80B5     	 push {r7,lr}
 666              	 .cfi_def_cfa_offset 8
 667              	 .cfi_offset 7,-8
 668              	 .cfi_offset 14,-4
 669 0002 84B0     	 sub sp,sp,#16
 670              	 .cfi_def_cfa_offset 24
 671 0004 00AF     	 add r7,sp,#0
 672              	 .cfi_def_cfa_register 7
 673 0006 7860     	 str r0,[r7,#4]
  80:C:\Users\niels\Documents\GitHub\DSP\software\STM32Basis\gemeenschappelijk\ESEFreeRTOS\stdTaak.cpp **** 	const auto antwoord = nieuwBericht.geefType();
 674              	 .loc 3 80 45
 675 0008 7B68     	 ldr r3,[r7,#4]
 676 000a 2C33     	 adds r3,r3,#44
 677 000c 1846     	 mov r0,r3
 678 000e FFF7FEFF 	 bl _ZNK10StdTaakMsgILj16EE8geefTypeEv
 679 0012 F860     	 str r0,[r7,#12]
  81:C:\Users\niels\Documents\GitHub\DSP\software\STM32Basis\gemeenschappelijk\ESEFreeRTOS\stdTaak.cpp **** 	return(antwoord);
 680              	 .loc 3 81 17
 681 0014 FB68     	 ldr r3,[r7,#12]
  82:C:\Users\niels\Documents\GitHub\DSP\software\STM32Basis\gemeenschappelijk\ESEFreeRTOS\stdTaak.cpp **** }
 682              	 .loc 3 82 1
 683 0016 1846     	 mov r0,r3
 684 0018 1037     	 adds r7,r7,#16
 685              	 .cfi_def_cfa_offset 8
 686 001a BD46     	 mov sp,r7
 687              	 .cfi_def_cfa_register 13
 688              	 
 689 001c 80BD     	 pop {r7,pc}
 690              	 .cfi_endproc
 691              	.LFE1306:
 692              	 .size _ZNK7StdTaak8geefTypeEv,.-_ZNK7StdTaak8geefTypeEv
 693              	 .section .text._ZNK7StdTaak10geefZenderEv,"ax",%progbits
 694              	 .align 1
 695              	 .global _ZNK7StdTaak10geefZenderEv
 696              	 .syntax unified
 697              	 .thumb
 698              	 .thumb_func
 699              	 .type _ZNK7StdTaak10geefZenderEv,%function
ARM GAS   			page 24


 700              	_ZNK7StdTaak10geefZenderEv:
 701              	.LFB1307:
  83:C:\Users\niels\Documents\GitHub\DSP\software\STM32Basis\gemeenschappelijk\ESEFreeRTOS\stdTaak.cpp **** 
  84:C:\Users\niels\Documents\GitHub\DSP\software\STM32Basis\gemeenschappelijk\ESEFreeRTOS\stdTaak.cpp **** TaakPrio StdTaak::geefZender() const
  85:C:\Users\niels\Documents\GitHub\DSP\software\STM32Basis\gemeenschappelijk\ESEFreeRTOS\stdTaak.cpp **** {
 702              	 .loc 3 85 1
 703              	 .cfi_startproc
 704              	 
 705              	 
 706 0000 80B5     	 push {r7,lr}
 707              	 .cfi_def_cfa_offset 8
 708              	 .cfi_offset 7,-8
 709              	 .cfi_offset 14,-4
 710 0002 84B0     	 sub sp,sp,#16
 711              	 .cfi_def_cfa_offset 24
 712 0004 00AF     	 add r7,sp,#0
 713              	 .cfi_def_cfa_register 7
 714 0006 7860     	 str r0,[r7,#4]
  86:C:\Users\niels\Documents\GitHub\DSP\software\STM32Basis\gemeenschappelijk\ESEFreeRTOS\stdTaak.cpp **** 	const auto antwoord = nieuwBericht.geefZender();
 715              	 .loc 3 86 47
 716 0008 7B68     	 ldr r3,[r7,#4]
 717 000a 2C33     	 adds r3,r3,#44
 718 000c 1846     	 mov r0,r3
 719 000e FFF7FEFF 	 bl _ZNK10StdTaakMsgILj16EE10geefZenderEv
 720 0012 F860     	 str r0,[r7,#12]
  87:C:\Users\niels\Documents\GitHub\DSP\software\STM32Basis\gemeenschappelijk\ESEFreeRTOS\stdTaak.cpp **** 	return(antwoord);
 721              	 .loc 3 87 17
 722 0014 FB68     	 ldr r3,[r7,#12]
  88:C:\Users\niels\Documents\GitHub\DSP\software\STM32Basis\gemeenschappelijk\ESEFreeRTOS\stdTaak.cpp **** }
 723              	 .loc 3 88 1
 724 0016 1846     	 mov r0,r3
 725 0018 1037     	 adds r7,r7,#16
 726              	 .cfi_def_cfa_offset 8
 727 001a BD46     	 mov sp,r7
 728              	 .cfi_def_cfa_register 13
 729              	 
 730 001c 80BD     	 pop {r7,pc}
 731              	 .cfi_endproc
 732              	.LFE1307:
 733              	 .size _ZNK7StdTaak10geefZenderEv,.-_ZNK7StdTaak10geefZenderEv
 734              	 .section .text._ZNK7StdTaak13geefOntvangerEv,"ax",%progbits
 735              	 .align 1
 736              	 .global _ZNK7StdTaak13geefOntvangerEv
 737              	 .syntax unified
 738              	 .thumb
 739              	 .thumb_func
 740              	 .type _ZNK7StdTaak13geefOntvangerEv,%function
 741              	_ZNK7StdTaak13geefOntvangerEv:
 742              	.LFB1308:
  89:C:\Users\niels\Documents\GitHub\DSP\software\STM32Basis\gemeenschappelijk\ESEFreeRTOS\stdTaak.cpp **** 
  90:C:\Users\niels\Documents\GitHub\DSP\software\STM32Basis\gemeenschappelijk\ESEFreeRTOS\stdTaak.cpp **** TaakPrio StdTaak::geefOntvanger() const
  91:C:\Users\niels\Documents\GitHub\DSP\software\STM32Basis\gemeenschappelijk\ESEFreeRTOS\stdTaak.cpp **** {
 743              	 .loc 3 91 1
 744              	 .cfi_startproc
 745              	 
 746              	 
 747 0000 80B5     	 push {r7,lr}
ARM GAS   			page 25


 748              	 .cfi_def_cfa_offset 8
 749              	 .cfi_offset 7,-8
 750              	 .cfi_offset 14,-4
 751 0002 84B0     	 sub sp,sp,#16
 752              	 .cfi_def_cfa_offset 24
 753 0004 00AF     	 add r7,sp,#0
 754              	 .cfi_def_cfa_register 7
 755 0006 7860     	 str r0,[r7,#4]
  92:C:\Users\niels\Documents\GitHub\DSP\software\STM32Basis\gemeenschappelijk\ESEFreeRTOS\stdTaak.cpp **** 	const auto antwoord = nieuwBericht.geefOntvanger();
 756              	 .loc 3 92 50
 757 0008 7B68     	 ldr r3,[r7,#4]
 758 000a 2C33     	 adds r3,r3,#44
 759 000c 1846     	 mov r0,r3
 760 000e FFF7FEFF 	 bl _ZNK10StdTaakMsgILj16EE13geefOntvangerEv
 761 0012 F860     	 str r0,[r7,#12]
  93:C:\Users\niels\Documents\GitHub\DSP\software\STM32Basis\gemeenschappelijk\ESEFreeRTOS\stdTaak.cpp **** 	return(antwoord);
 762              	 .loc 3 93 17
 763 0014 FB68     	 ldr r3,[r7,#12]
  94:C:\Users\niels\Documents\GitHub\DSP\software\STM32Basis\gemeenschappelijk\ESEFreeRTOS\stdTaak.cpp **** }
 764              	 .loc 3 94 1
 765 0016 1846     	 mov r0,r3
 766 0018 1037     	 adds r7,r7,#16
 767              	 .cfi_def_cfa_offset 8
 768 001a BD46     	 mov sp,r7
 769              	 .cfi_def_cfa_register 13
 770              	 
 771 001c 80BD     	 pop {r7,pc}
 772              	 .cfi_endproc
 773              	.LFE1308:
 774              	 .size _ZNK7StdTaak13geefOntvangerEv,.-_ZNK7StdTaak13geefOntvangerEv
 775              	 .section .text._ZNK7StdTaak11geefBerichtEv,"ax",%progbits
 776              	 .align 1
 777              	 .global _ZNK7StdTaak11geefBerichtEv
 778              	 .syntax unified
 779              	 .thumb
 780              	 .thumb_func
 781              	 .type _ZNK7StdTaak11geefBerichtEv,%function
 782              	_ZNK7StdTaak11geefBerichtEv:
 783              	.LFB1309:
  95:C:\Users\niels\Documents\GitHub\DSP\software\STM32Basis\gemeenschappelijk\ESEFreeRTOS\stdTaak.cpp **** 
  96:C:\Users\niels\Documents\GitHub\DSP\software\STM32Basis\gemeenschappelijk\ESEFreeRTOS\stdTaak.cpp **** StdTaak::StdMsg StdTaak::geefBericht() const
  97:C:\Users\niels\Documents\GitHub\DSP\software\STM32Basis\gemeenschappelijk\ESEFreeRTOS\stdTaak.cpp **** {
 784              	 .loc 3 97 1
 785              	 .cfi_startproc
 786              	 
 787              	 
 788 0000 80B5     	 push {r7,lr}
 789              	 .cfi_def_cfa_offset 8
 790              	 .cfi_offset 7,-8
 791              	 .cfi_offset 14,-4
 792 0002 96B0     	 sub sp,sp,#88
 793              	 .cfi_def_cfa_offset 96
 794 0004 00AF     	 add r7,sp,#0
 795              	 .cfi_def_cfa_register 7
 796 0006 7860     	 str r0,[r7,#4]
 797 0008 3960     	 str r1,[r7]
  98:C:\Users\niels\Documents\GitHub\DSP\software\STM32Basis\gemeenschappelijk\ESEFreeRTOS\stdTaak.cpp **** 	/* maak een kopie. */
ARM GAS   			page 26


  99:C:\Users\niels\Documents\GitHub\DSP\software\STM32Basis\gemeenschappelijk\ESEFreeRTOS\stdTaak.cpp **** 	const auto kopie(nieuwBericht);
 798              	 .loc 3 99 13
 799 000a 3B68     	 ldr r3,[r7]
 800 000c 07F10C00 	 add r0,r7,#12
 801 0010 2C33     	 adds r3,r3,#44
 802 0012 4C22     	 movs r2,#76
 803 0014 1946     	 mov r1,r3
 804 0016 FFF7FEFF 	 bl memcpy
 100:C:\Users\niels\Documents\GitHub\DSP\software\STM32Basis\gemeenschappelijk\ESEFreeRTOS\stdTaak.cpp **** 	return(kopie);
 805              	 .loc 3 100 14
 806 001a 7B68     	 ldr r3,[r7,#4]
 807 001c 1846     	 mov r0,r3
 808 001e 07F10C03 	 add r3,r7,#12
 809 0022 4C22     	 movs r2,#76
 810 0024 1946     	 mov r1,r3
 811 0026 FFF7FEFF 	 bl memcpy
 101:C:\Users\niels\Documents\GitHub\DSP\software\STM32Basis\gemeenschappelijk\ESEFreeRTOS\stdTaak.cpp **** }
 812              	 .loc 3 101 1
 813 002a 7868     	 ldr r0,[r7,#4]
 814 002c 5837     	 adds r7,r7,#88
 815              	 .cfi_def_cfa_offset 8
 816 002e BD46     	 mov sp,r7
 817              	 .cfi_def_cfa_register 13
 818              	 
 819 0030 80BD     	 pop {r7,pc}
 820              	 .cfi_endproc
 821              	.LFE1309:
 822              	 .size _ZNK7StdTaak11geefBerichtEv,.-_ZNK7StdTaak11geefBerichtEv
 823              	 .section .text._ZN7StdTaak17isBerichtAanwezigEv,"ax",%progbits
 824              	 .align 1
 825              	 .global _ZN7StdTaak17isBerichtAanwezigEv
 826              	 .syntax unified
 827              	 .thumb
 828              	 .thumb_func
 829              	 .type _ZN7StdTaak17isBerichtAanwezigEv,%function
 830              	_ZN7StdTaak17isBerichtAanwezigEv:
 831              	.LFB1310:
 102:C:\Users\niels\Documents\GitHub\DSP\software\STM32Basis\gemeenschappelijk\ESEFreeRTOS\stdTaak.cpp **** 
 103:C:\Users\niels\Documents\GitHub\DSP\software\STM32Basis\gemeenschappelijk\ESEFreeRTOS\stdTaak.cpp **** bool StdTaak::isBerichtAanwezig()
 104:C:\Users\niels\Documents\GitHub\DSP\software\STM32Basis\gemeenschappelijk\ESEFreeRTOS\stdTaak.cpp **** {
 832              	 .loc 3 104 1
 833              	 .cfi_startproc
 834              	 
 835              	 
 836 0000 80B5     	 push {r7,lr}
 837              	 .cfi_def_cfa_offset 8
 838              	 .cfi_offset 7,-8
 839              	 .cfi_offset 14,-4
 840 0002 84B0     	 sub sp,sp,#16
 841              	 .cfi_def_cfa_offset 24
 842 0004 00AF     	 add r7,sp,#0
 843              	 .cfi_def_cfa_register 7
 844 0006 7860     	 str r0,[r7,#4]
 105:C:\Users\niels\Documents\GitHub\DSP\software\STM32Basis\gemeenschappelijk\ESEFreeRTOS\stdTaak.cpp **** 	const bool aanwezig = (false == brievenbus.IsEmpty());
 845              	 .loc 3 105 52
 846 0008 7B68     	 ldr r3,[r7,#4]
 847 000a 7833     	 adds r3,r3,#120
ARM GAS   			page 27


 848 000c 1846     	 mov r0,r3
 849 000e FFF7FEFF 	 bl _ZN12cpp_freertos5Queue7IsEmptyEv
 850 0012 0346     	 mov r3,r0
 851              	 .loc 3 105 54
 852 0014 002B     	 cmp r3,#0
 853 0016 0CBF     	 ite eq
 854 0018 0123     	 moveq r3,#1
 855 001a 0023     	 movne r3,#0
 856 001c FB73     	 strb r3,[r7,#15]
 106:C:\Users\niels\Documents\GitHub\DSP\software\STM32Basis\gemeenschappelijk\ESEFreeRTOS\stdTaak.cpp **** 	return(aanwezig);
 857              	 .loc 3 106 17
 858 001e FB7B     	 ldrb r3,[r7,#15]
 107:C:\Users\niels\Documents\GitHub\DSP\software\STM32Basis\gemeenschappelijk\ESEFreeRTOS\stdTaak.cpp **** }
 859              	 .loc 3 107 1
 860 0020 1846     	 mov r0,r3
 861 0022 1037     	 adds r7,r7,#16
 862              	 .cfi_def_cfa_offset 8
 863 0024 BD46     	 mov sp,r7
 864              	 .cfi_def_cfa_register 13
 865              	 
 866 0026 80BD     	 pop {r7,pc}
 867              	 .cfi_endproc
 868              	.LFE1310:
 869              	 .size _ZN7StdTaak17isBerichtAanwezigEv,.-_ZN7StdTaak17isBerichtAanwezigEv
 870              	 .section .text._ZN7StdTaak5wachtEm,"ax",%progbits
 871              	 .align 1
 872              	 .global _ZN7StdTaak5wachtEm
 873              	 .syntax unified
 874              	 .thumb
 875              	 .thumb_func
 876              	 .type _ZN7StdTaak5wachtEm,%function
 877              	_ZN7StdTaak5wachtEm:
 878              	.LFB1311:
 108:C:\Users\niels\Documents\GitHub\DSP\software\STM32Basis\gemeenschappelijk\ESEFreeRTOS\stdTaak.cpp **** 
 109:C:\Users\niels\Documents\GitHub\DSP\software\STM32Basis\gemeenschappelijk\ESEFreeRTOS\stdTaak.cpp **** FoutCode StdTaak::wacht(const Teller msecs)
 110:C:\Users\niels\Documents\GitHub\DSP\software\STM32Basis\gemeenschappelijk\ESEFreeRTOS\stdTaak.cpp **** {
 879              	 .loc 3 110 1
 880              	 .cfi_startproc
 881              	 
 882              	 
 883 0000 80B5     	 push {r7,lr}
 884              	 .cfi_def_cfa_offset 8
 885              	 .cfi_offset 7,-8
 886              	 .cfi_offset 14,-4
 887 0002 84B0     	 sub sp,sp,#16
 888              	 .cfi_def_cfa_offset 24
 889 0004 00AF     	 add r7,sp,#0
 890              	 .cfi_def_cfa_register 7
 891 0006 7860     	 str r0,[r7,#4]
 892 0008 3960     	 str r1,[r7]
 111:C:\Users\niels\Documents\GitHub\DSP\software\STM32Basis\gemeenschappelijk\ESEFreeRTOS\stdTaak.cpp **** 	/* kap de vertraging af op het minimum.  */
 112:C:\Users\niels\Documents\GitHub\DSP\software\STM32Basis\gemeenschappelijk\ESEFreeRTOS\stdTaak.cpp **** 	const auto rauweVertraging = msecs / portTICK_PERIOD_MS;
 893              	 .loc 3 112 13
 894 000a 3B68     	 ldr r3,[r7]
 895 000c FB60     	 str r3,[r7,#12]
 113:C:\Users\niels\Documents\GitHub\DSP\software\STM32Basis\gemeenschappelijk\ESEFreeRTOS\stdTaak.cpp **** 	const auto vertraging = (rauweVertraging > 1) ? rauweVertraging : 1;
 896              	 .loc 3 113 13
ARM GAS   			page 28


 897 000e FB68     	 ldr r3,[r7,#12]
 898 0010 012B     	 cmp r3,#1
 899 0012 38BF     	 it cc
 900 0014 0123     	 movcc r3,#1
 901 0016 BB60     	 str r3,[r7,#8]
 114:C:\Users\niels\Documents\GitHub\DSP\software\STM32Basis\gemeenschappelijk\ESEFreeRTOS\stdTaak.cpp **** 
 115:C:\Users\niels\Documents\GitHub\DSP\software\STM32Basis\gemeenschappelijk\ESEFreeRTOS\stdTaak.cpp **** 	Delay(vertraging);
 902              	 .loc 3 115 7
 903 0018 7B68     	 ldr r3,[r7,#4]
 904 001a B968     	 ldr r1,[r7,#8]
 905 001c 1846     	 mov r0,r3
 906 001e FFF7FEFF 	 bl _ZN12cpp_freertos6Thread5DelayEm
 116:C:\Users\niels\Documents\GitHub\DSP\software\STM32Basis\gemeenschappelijk\ESEFreeRTOS\stdTaak.cpp **** 
 117:C:\Users\niels\Documents\GitHub\DSP\software\STM32Basis\gemeenschappelijk\ESEFreeRTOS\stdTaak.cpp **** 	return (FC::Ok);
 907              	 .loc 3 117 16
 908 0022 0023     	 movs r3,#0
 118:C:\Users\niels\Documents\GitHub\DSP\software\STM32Basis\gemeenschappelijk\ESEFreeRTOS\stdTaak.cpp **** }
 909              	 .loc 3 118 1
 910 0024 1846     	 mov r0,r3
 911 0026 1037     	 adds r7,r7,#16
 912              	 .cfi_def_cfa_offset 8
 913 0028 BD46     	 mov sp,r7
 914              	 .cfi_def_cfa_register 13
 915              	 
 916 002a 80BD     	 pop {r7,pc}
 917              	 .cfi_endproc
 918              	.LFE1311:
 919              	 .size _ZN7StdTaak5wachtEm,.-_ZN7StdTaak5wachtEm
 920              	 .section .text._ZN10StdTaakMsgILj16EEC2Ev,"axG",%progbits,_ZN10StdTaakMsgILj16EEC5Ev,comdat
 921              	 .align 1
 922              	 .weak _ZN10StdTaakMsgILj16EEC2Ev
 923              	 .syntax unified
 924              	 .thumb
 925              	 .thumb_func
 926              	 .type _ZN10StdTaakMsgILj16EEC2Ev,%function
 927              	_ZN10StdTaakMsgILj16EEC2Ev:
 928              	.LFB1557:
 929              	 .file 4 "c:\\users\\niels\\documents\\github\\dsp\\software\\stm32basis\\gemeenschappelijk\\esefreertos\\h\\stdtaak.h"
   1:c:\users\niels\documents\github\dsp\software\stm32basis\gemeenschappelijk\esefreertos\h\stdtaak.h **** /*!
   2:c:\users\niels\documents\github\dsp\software\stm32basis\gemeenschappelijk\esefreertos\h\stdtaak.h **** @file
   3:c:\users\niels\documents\github\dsp\software\stm32basis\gemeenschappelijk\esefreertos\h\stdtaak.h **** API van de c++ schil voor gebruik van de FreeRTOS
   4:c:\users\niels\documents\github\dsp\software\stm32basis\gemeenschappelijk\esefreertos\h\stdtaak.h **** @version $Rev: 2892 $
   5:c:\users\niels\documents\github\dsp\software\stm32basis\gemeenschappelijk\esefreertos\h\stdtaak.h **** @author $Author: ewout $
   6:c:\users\niels\documents\github\dsp\software\stm32basis\gemeenschappelijk\esefreertos\h\stdtaak.h **** 
   7:c:\users\niels\documents\github\dsp\software\stm32basis\gemeenschappelijk\esefreertos\h\stdtaak.h **** @copyright Copyright 2017-2018 Hogeschool van Arnhem en Nijmegen, ir drs E.J Boks
   8:c:\users\niels\documents\github\dsp\software\stm32basis\gemeenschappelijk\esefreertos\h\stdtaak.h **** 
   9:c:\users\niels\documents\github\dsp\software\stm32basis\gemeenschappelijk\esefreertos\h\stdtaak.h **** $URL: http://svn.hanese.nl/docenten/svn/ewout/vakken/algemeen/software/STM32/STM32Basis/HAL/gemeens
  10:c:\users\niels\documents\github\dsp\software\stm32basis\gemeenschappelijk\esefreertos\h\stdtaak.h **** $Id: ESEBoardController.h 2892 2018-02-27 19:33:20Z ewout $
  11:c:\users\niels\documents\github\dsp\software\stm32basis\gemeenschappelijk\esefreertos\h\stdtaak.h **** ************************************************************************/
  12:c:\users\niels\documents\github\dsp\software\stm32basis\gemeenschappelijk\esefreertos\h\stdtaak.h **** 
  13:c:\users\niels\documents\github\dsp\software\stm32basis\gemeenschappelijk\esefreertos\h\stdtaak.h **** #ifndef ESE_BSP_STDTaak_H
  14:c:\users\niels\documents\github\dsp\software\stm32basis\gemeenschappelijk\esefreertos\h\stdtaak.h **** #define ESE_BSP_STDTaak_H
  15:c:\users\niels\documents\github\dsp\software\stm32basis\gemeenschappelijk\esefreertos\h\stdtaak.h **** 
  16:c:\users\niels\documents\github\dsp\software\stm32basis\gemeenschappelijk\esefreertos\h\stdtaak.h **** #include <thread.hpp>
  17:c:\users\niels\documents\github\dsp\software\stm32basis\gemeenschappelijk\esefreertos\h\stdtaak.h **** #include <queue.hpp>
  18:c:\users\niels\documents\github\dsp\software\stm32basis\gemeenschappelijk\esefreertos\h\stdtaak.h **** 
  19:c:\users\niels\documents\github\dsp\software\stm32basis\gemeenschappelijk\esefreertos\h\stdtaak.h **** #include <assert.h>
ARM GAS   			page 29


  20:c:\users\niels\documents\github\dsp\software\stm32basis\gemeenschappelijk\esefreertos\h\stdtaak.h **** #include <semaphore.hpp>
  21:c:\users\niels\documents\github\dsp\software\stm32basis\gemeenschappelijk\esefreertos\h\stdtaak.h **** #include <algdef.h>
  22:c:\users\niels\documents\github\dsp\software\stm32basis\gemeenschappelijk\esefreertos\h\stdtaak.h **** 
  23:c:\users\niels\documents\github\dsp\software\stm32basis\gemeenschappelijk\esefreertos\h\stdtaak.h **** using namespace cpp_freertos;
  24:c:\users\niels\documents\github\dsp\software\stm32basis\gemeenschappelijk\esefreertos\h\stdtaak.h **** 
  25:c:\users\niels\documents\github\dsp\software\stm32basis\gemeenschappelijk\esefreertos\h\stdtaak.h **** /*! @enum De taken prioriteiten.
  26:c:\users\niels\documents\github\dsp\software\stm32basis\gemeenschappelijk\esefreertos\h\stdtaak.h ****  * @note FreeRTOS prioriteiten zijn van laag (lager nummer) naar hoog (hoger nummer),
  27:c:\users\niels\documents\github\dsp\software\stm32basis\gemeenschappelijk\esefreertos\h\stdtaak.h ****  * dit in tegenstelling tot bijvoorbeeld Micrium UCOSII/III */
  28:c:\users\niels\documents\github\dsp\software\stm32basis\gemeenschappelijk\esefreertos\h\stdtaak.h **** enum class TaakPrio
  29:c:\users\niels\documents\github\dsp\software\stm32basis\gemeenschappelijk\esefreertos\h\stdtaak.h **** {
  30:c:\users\niels\documents\github\dsp\software\stm32basis\gemeenschappelijk\esefreertos\h\stdtaak.h **** 	Taak1=2,  /* lowest prio */
  31:c:\users\niels\documents\github\dsp\software\stm32basis\gemeenschappelijk\esefreertos\h\stdtaak.h **** 	Taak2,
  32:c:\users\niels\documents\github\dsp\software\stm32basis\gemeenschappelijk\esefreertos\h\stdtaak.h **** 	Taak3,
  33:c:\users\niels\documents\github\dsp\software\stm32basis\gemeenschappelijk\esefreertos\h\stdtaak.h **** 	Taak4,
  34:c:\users\niels\documents\github\dsp\software\stm32basis\gemeenschappelijk\esefreertos\h\stdtaak.h **** 	//Taak5, /* highest prio */
  35:c:\users\niels\documents\github\dsp\software\stm32basis\gemeenschappelijk\esefreertos\h\stdtaak.h **** 	Onbekend
  36:c:\users\niels\documents\github\dsp\software\stm32basis\gemeenschappelijk\esefreertos\h\stdtaak.h **** };
  37:c:\users\niels\documents\github\dsp\software\stm32basis\gemeenschappelijk\esefreertos\h\stdtaak.h **** 
  38:c:\users\niels\documents\github\dsp\software\stm32basis\gemeenschappelijk\esefreertos\h\stdtaak.h **** enum class MsgType
  39:c:\users\niels\documents\github\dsp\software\stm32basis\gemeenschappelijk\esefreertos\h\stdtaak.h **** {
  40:c:\users\niels\documents\github\dsp\software\stm32basis\gemeenschappelijk\esefreertos\h\stdtaak.h **** 	TouchGebeurd,
  41:c:\users\niels\documents\github\dsp\software\stm32basis\gemeenschappelijk\esefreertos\h\stdtaak.h **** 	ADCGebeurd,
  42:c:\users\niels\documents\github\dsp\software\stm32basis\gemeenschappelijk\esefreertos\h\stdtaak.h **** 	KnopGedrukt,
  43:c:\users\niels\documents\github\dsp\software\stm32basis\gemeenschappelijk\esefreertos\h\stdtaak.h **** 	StartStopGedrukt,
  44:c:\users\niels\documents\github\dsp\software\stm32basis\gemeenschappelijk\esefreertos\h\stdtaak.h **** 	SignaalKeuzeVeranderd,
  45:c:\users\niels\documents\github\dsp\software\stm32basis\gemeenschappelijk\esefreertos\h\stdtaak.h **** 	SignaalAmplitudeVeranderd,
  46:c:\users\niels\documents\github\dsp\software\stm32basis\gemeenschappelijk\esefreertos\h\stdtaak.h **** 	VerbindingGemaakt,
  47:c:\users\niels\documents\github\dsp\software\stm32basis\gemeenschappelijk\esefreertos\h\stdtaak.h **** 	VerbindingLosgemaakt,
  48:c:\users\niels\documents\github\dsp\software\stm32basis\gemeenschappelijk\esefreertos\h\stdtaak.h **** 	Onbekend
  49:c:\users\niels\documents\github\dsp\software\stm32basis\gemeenschappelijk\esefreertos\h\stdtaak.h **** };
  50:c:\users\niels\documents\github\dsp\software\stm32basis\gemeenschappelijk\esefreertos\h\stdtaak.h **** 
  51:c:\users\niels\documents\github\dsp\software\stm32basis\gemeenschappelijk\esefreertos\h\stdtaak.h **** template<const unsigned int Grootte>
  52:c:\users\niels\documents\github\dsp\software\stm32basis\gemeenschappelijk\esefreertos\h\stdtaak.h **** class StdTaakMsg
  53:c:\users\niels\documents\github\dsp\software\stm32basis\gemeenschappelijk\esefreertos\h\stdtaak.h **** {
  54:c:\users\niels\documents\github\dsp\software\stm32basis\gemeenschappelijk\esefreertos\h\stdtaak.h **** public:
  55:c:\users\niels\documents\github\dsp\software\stm32basis\gemeenschappelijk\esefreertos\h\stdtaak.h **** 	/*! @brief voor ontvangst */
  56:c:\users\niels\documents\github\dsp\software\stm32basis\gemeenschappelijk\esefreertos\h\stdtaak.h **** 	StdTaakMsg() : zender(TaakPrio::Onbekend),
 930              	 .loc 4 56 2
 931              	 .cfi_startproc
 932              	 
 933              	 
 934              	 
 935 0000 80B4     	 push {r7}
 936              	 .cfi_def_cfa_offset 4
 937              	 .cfi_offset 7,-4
 938 0002 83B0     	 sub sp,sp,#12
 939              	 .cfi_def_cfa_offset 16
 940 0004 00AF     	 add r7,sp,#0
 941              	 .cfi_def_cfa_register 7
 942 0006 7860     	 str r0,[r7,#4]
 943              	.LBB3:
  57:c:\users\niels\documents\github\dsp\software\stm32basis\gemeenschappelijk\esefreertos\h\stdtaak.h **** 	               ontvanger(TaakPrio::Onbekend),
  58:c:\users\niels\documents\github\dsp\software\stm32basis\gemeenschappelijk\esefreertos\h\stdtaak.h **** 	               type(MsgType::Onbekend)
 944              	 .loc 4 58 39
 945 0008 7B68     	 ldr r3,[r7,#4]
 946 000a 0622     	 movs r2,#6
 947 000c 1A60     	 str r2,[r3]
ARM GAS   			page 30


 948 000e 7B68     	 ldr r3,[r7,#4]
 949 0010 0622     	 movs r2,#6
 950 0012 5A60     	 str r2,[r3,#4]
 951 0014 7B68     	 ldr r3,[r7,#4]
 952 0016 0822     	 movs r2,#8
 953 0018 9A60     	 str r2,[r3,#8]
 954              	.LBE3:
  59:c:\users\niels\documents\github\dsp\software\stm32basis\gemeenschappelijk\esefreertos\h\stdtaak.h **** 	{
  60:c:\users\niels\documents\github\dsp\software\stm32basis\gemeenschappelijk\esefreertos\h\stdtaak.h **** 
  61:c:\users\niels\documents\github\dsp\software\stm32basis\gemeenschappelijk\esefreertos\h\stdtaak.h **** 	};
 955              	 .loc 4 61 2
 956 001a 7B68     	 ldr r3,[r7,#4]
 957 001c 1846     	 mov r0,r3
 958 001e 0C37     	 adds r7,r7,#12
 959              	 .cfi_def_cfa_offset 4
 960 0020 BD46     	 mov sp,r7
 961              	 .cfi_def_cfa_register 13
 962              	 
 963 0022 5DF8047B 	 ldr r7,[sp],#4
 964              	 .cfi_restore 7
 965              	 .cfi_def_cfa_offset 0
 966 0026 7047     	 bx lr
 967              	 .cfi_endproc
 968              	.LFE1557:
 969              	 .size _ZN10StdTaakMsgILj16EEC2Ev,.-_ZN10StdTaakMsgILj16EEC2Ev
 970              	 .weak _ZN10StdTaakMsgILj16EEC1Ev
 971              	 .thumb_set _ZN10StdTaakMsgILj16EEC1Ev,_ZN10StdTaakMsgILj16EEC2Ev
 972              	 .section .text._ZNK10StdTaakMsgILj16EE13geefOntvangerEv,"axG",%progbits,_ZNK10StdTaakMsgILj16EE13geefOntvangerEv,comdat
 973              	 .align 1
 974              	 .weak _ZNK10StdTaakMsgILj16EE13geefOntvangerEv
 975              	 .syntax unified
 976              	 .thumb
 977              	 .thumb_func
 978              	 .type _ZNK10StdTaakMsgILj16EE13geefOntvangerEv,%function
 979              	_ZNK10StdTaakMsgILj16EE13geefOntvangerEv:
 980              	.LFB1559:
  62:c:\users\niels\documents\github\dsp\software\stm32basis\gemeenschappelijk\esefreertos\h\stdtaak.h **** 
  63:c:\users\niels\documents\github\dsp\software\stm32basis\gemeenschappelijk\esefreertos\h\stdtaak.h **** 	/*! @brief voor verzenden */
  64:c:\users\niels\documents\github\dsp\software\stm32basis\gemeenschappelijk\esefreertos\h\stdtaak.h **** 	StdTaakMsg(const TaakPrio z,
  65:c:\users\niels\documents\github\dsp\software\stm32basis\gemeenschappelijk\esefreertos\h\stdtaak.h **** 	           const TaakPrio o,
  66:c:\users\niels\documents\github\dsp\software\stm32basis\gemeenschappelijk\esefreertos\h\stdtaak.h **** 	           const MsgType t) : zender(z),ontvanger(o),type(t)
  67:c:\users\niels\documents\github\dsp\software\stm32basis\gemeenschappelijk\esefreertos\h\stdtaak.h **** 	{
  68:c:\users\niels\documents\github\dsp\software\stm32basis\gemeenschappelijk\esefreertos\h\stdtaak.h **** 
  69:c:\users\niels\documents\github\dsp\software\stm32basis\gemeenschappelijk\esefreertos\h\stdtaak.h **** 	};
  70:c:\users\niels\documents\github\dsp\software\stm32basis\gemeenschappelijk\esefreertos\h\stdtaak.h **** 
  71:c:\users\niels\documents\github\dsp\software\stm32basis\gemeenschappelijk\esefreertos\h\stdtaak.h **** 	UInt32 operator [] (const Teller index) const
  72:c:\users\niels\documents\github\dsp\software\stm32basis\gemeenschappelijk\esefreertos\h\stdtaak.h **** 	{
  73:c:\users\niels\documents\github\dsp\software\stm32basis\gemeenschappelijk\esefreertos\h\stdtaak.h **** 		assert(index < Grootte);
  74:c:\users\niels\documents\github\dsp\software\stm32basis\gemeenschappelijk\esefreertos\h\stdtaak.h **** 		return(vracht[index]);
  75:c:\users\niels\documents\github\dsp\software\stm32basis\gemeenschappelijk\esefreertos\h\stdtaak.h **** 	};
  76:c:\users\niels\documents\github\dsp\software\stm32basis\gemeenschappelijk\esefreertos\h\stdtaak.h **** 
  77:c:\users\niels\documents\github\dsp\software\stm32basis\gemeenschappelijk\esefreertos\h\stdtaak.h **** 	void zetVracht(const Teller index,const UInt32 waarde)
  78:c:\users\niels\documents\github\dsp\software\stm32basis\gemeenschappelijk\esefreertos\h\stdtaak.h **** 	{
  79:c:\users\niels\documents\github\dsp\software\stm32basis\gemeenschappelijk\esefreertos\h\stdtaak.h **** 		assert(index < Grootte);
  80:c:\users\niels\documents\github\dsp\software\stm32basis\gemeenschappelijk\esefreertos\h\stdtaak.h **** 		vracht[index] = waarde;
  81:c:\users\niels\documents\github\dsp\software\stm32basis\gemeenschappelijk\esefreertos\h\stdtaak.h **** 	};
  82:c:\users\niels\documents\github\dsp\software\stm32basis\gemeenschappelijk\esefreertos\h\stdtaak.h **** 
ARM GAS   			page 31


  83:c:\users\niels\documents\github\dsp\software\stm32basis\gemeenschappelijk\esefreertos\h\stdtaak.h **** 	MsgType geefType() const
  84:c:\users\niels\documents\github\dsp\software\stm32basis\gemeenschappelijk\esefreertos\h\stdtaak.h **** 	{
  85:c:\users\niels\documents\github\dsp\software\stm32basis\gemeenschappelijk\esefreertos\h\stdtaak.h **** 		return(type);
  86:c:\users\niels\documents\github\dsp\software\stm32basis\gemeenschappelijk\esefreertos\h\stdtaak.h **** 	};
  87:c:\users\niels\documents\github\dsp\software\stm32basis\gemeenschappelijk\esefreertos\h\stdtaak.h **** 
  88:c:\users\niels\documents\github\dsp\software\stm32basis\gemeenschappelijk\esefreertos\h\stdtaak.h **** 	TaakPrio geefOntvanger() const
 981              	 .loc 4 88 11
 982              	 .cfi_startproc
 983              	 
 984              	 
 985              	 
 986 0000 80B4     	 push {r7}
 987              	 .cfi_def_cfa_offset 4
 988              	 .cfi_offset 7,-4
 989 0002 83B0     	 sub sp,sp,#12
 990              	 .cfi_def_cfa_offset 16
 991 0004 00AF     	 add r7,sp,#0
 992              	 .cfi_def_cfa_register 7
 993 0006 7860     	 str r0,[r7,#4]
  89:c:\users\niels\documents\github\dsp\software\stm32basis\gemeenschappelijk\esefreertos\h\stdtaak.h **** 	{
  90:c:\users\niels\documents\github\dsp\software\stm32basis\gemeenschappelijk\esefreertos\h\stdtaak.h **** 		return(ontvanger);
 994              	 .loc 4 90 19
 995 0008 7B68     	 ldr r3,[r7,#4]
 996 000a 5B68     	 ldr r3,[r3,#4]
  91:c:\users\niels\documents\github\dsp\software\stm32basis\gemeenschappelijk\esefreertos\h\stdtaak.h **** 	};
 997              	 .loc 4 91 2
 998 000c 1846     	 mov r0,r3
 999 000e 0C37     	 adds r7,r7,#12
 1000              	 .cfi_def_cfa_offset 4
 1001 0010 BD46     	 mov sp,r7
 1002              	 .cfi_def_cfa_register 13
 1003              	 
 1004 0012 5DF8047B 	 ldr r7,[sp],#4
 1005              	 .cfi_restore 7
 1006              	 .cfi_def_cfa_offset 0
 1007 0016 7047     	 bx lr
 1008              	 .cfi_endproc
 1009              	.LFE1559:
 1010              	 .size _ZNK10StdTaakMsgILj16EE13geefOntvangerEv,.-_ZNK10StdTaakMsgILj16EE13geefOntvangerEv
 1011              	 .section .text._ZNK10StdTaakMsgILj16EE8geefTypeEv,"axG",%progbits,_ZNK10StdTaakMsgILj16EE8geefTypeEv,comdat
 1012              	 .align 1
 1013              	 .weak _ZNK10StdTaakMsgILj16EE8geefTypeEv
 1014              	 .syntax unified
 1015              	 .thumb
 1016              	 .thumb_func
 1017              	 .type _ZNK10StdTaakMsgILj16EE8geefTypeEv,%function
 1018              	_ZNK10StdTaakMsgILj16EE8geefTypeEv:
 1019              	.LFB1560:
  83:c:\users\niels\documents\github\dsp\software\stm32basis\gemeenschappelijk\esefreertos\h\stdtaak.h **** 	{
 1020              	 .loc 4 83 10
 1021              	 .cfi_startproc
 1022              	 
 1023              	 
 1024              	 
 1025 0000 80B4     	 push {r7}
 1026              	 .cfi_def_cfa_offset 4
 1027              	 .cfi_offset 7,-4
ARM GAS   			page 32


 1028 0002 83B0     	 sub sp,sp,#12
 1029              	 .cfi_def_cfa_offset 16
 1030 0004 00AF     	 add r7,sp,#0
 1031              	 .cfi_def_cfa_register 7
 1032 0006 7860     	 str r0,[r7,#4]
  85:c:\users\niels\documents\github\dsp\software\stm32basis\gemeenschappelijk\esefreertos\h\stdtaak.h **** 	};
 1033              	 .loc 4 85 14
 1034 0008 7B68     	 ldr r3,[r7,#4]
 1035 000a 9B68     	 ldr r3,[r3,#8]
  86:c:\users\niels\documents\github\dsp\software\stm32basis\gemeenschappelijk\esefreertos\h\stdtaak.h **** 
 1036              	 .loc 4 86 2
 1037 000c 1846     	 mov r0,r3
 1038 000e 0C37     	 adds r7,r7,#12
 1039              	 .cfi_def_cfa_offset 4
 1040 0010 BD46     	 mov sp,r7
 1041              	 .cfi_def_cfa_register 13
 1042              	 
 1043 0012 5DF8047B 	 ldr r7,[sp],#4
 1044              	 .cfi_restore 7
 1045              	 .cfi_def_cfa_offset 0
 1046 0016 7047     	 bx lr
 1047              	 .cfi_endproc
 1048              	.LFE1560:
 1049              	 .size _ZNK10StdTaakMsgILj16EE8geefTypeEv,.-_ZNK10StdTaakMsgILj16EE8geefTypeEv
 1050              	 .section .text._ZNK10StdTaakMsgILj16EE10geefZenderEv,"axG",%progbits,_ZNK10StdTaakMsgILj16EE10geefZenderEv,comdat
 1051              	 .align 1
 1052              	 .weak _ZNK10StdTaakMsgILj16EE10geefZenderEv
 1053              	 .syntax unified
 1054              	 .thumb
 1055              	 .thumb_func
 1056              	 .type _ZNK10StdTaakMsgILj16EE10geefZenderEv,%function
 1057              	_ZNK10StdTaakMsgILj16EE10geefZenderEv:
 1058              	.LFB1561:
  92:c:\users\niels\documents\github\dsp\software\stm32basis\gemeenschappelijk\esefreertos\h\stdtaak.h **** 
  93:c:\users\niels\documents\github\dsp\software\stm32basis\gemeenschappelijk\esefreertos\h\stdtaak.h **** 	TaakPrio geefZender() const
 1059              	 .loc 4 93 11
 1060              	 .cfi_startproc
 1061              	 
 1062              	 
 1063              	 
 1064 0000 80B4     	 push {r7}
 1065              	 .cfi_def_cfa_offset 4
 1066              	 .cfi_offset 7,-4
 1067 0002 83B0     	 sub sp,sp,#12
 1068              	 .cfi_def_cfa_offset 16
 1069 0004 00AF     	 add r7,sp,#0
 1070              	 .cfi_def_cfa_register 7
 1071 0006 7860     	 str r0,[r7,#4]
  94:c:\users\niels\documents\github\dsp\software\stm32basis\gemeenschappelijk\esefreertos\h\stdtaak.h **** 	{
  95:c:\users\niels\documents\github\dsp\software\stm32basis\gemeenschappelijk\esefreertos\h\stdtaak.h **** 		return(zender);
 1072              	 .loc 4 95 16
 1073 0008 7B68     	 ldr r3,[r7,#4]
 1074 000a 1B68     	 ldr r3,[r3]
  96:c:\users\niels\documents\github\dsp\software\stm32basis\gemeenschappelijk\esefreertos\h\stdtaak.h **** 	};
 1075              	 .loc 4 96 2
 1076 000c 1846     	 mov r0,r3
 1077 000e 0C37     	 adds r7,r7,#12
ARM GAS   			page 33


 1078              	 .cfi_def_cfa_offset 4
 1079 0010 BD46     	 mov sp,r7
 1080              	 .cfi_def_cfa_register 13
 1081              	 
 1082 0012 5DF8047B 	 ldr r7,[sp],#4
 1083              	 .cfi_restore 7
 1084              	 .cfi_def_cfa_offset 0
 1085 0016 7047     	 bx lr
 1086              	 .cfi_endproc
 1087              	.LFE1561:
 1088              	 .size _ZNK10StdTaakMsgILj16EE10geefZenderEv,.-_ZNK10StdTaakMsgILj16EE10geefZenderEv
 1089              	 .weak _ZTV7StdTaak
 1090              	 .section .rodata._ZTV7StdTaak,"aG",%progbits,_ZTV7StdTaak,comdat
 1091              	 .align 2
 1092              	 .type _ZTV7StdTaak,%object
 1093              	 .size _ZTV7StdTaak,20
 1094              	_ZTV7StdTaak:
 1095 0000 00000000 	 .word 0
 1096 0004 00000000 	 .word 0
 1097 0008 00000000 	 .word 0
 1098 000c 00000000 	 .word 0
 1099 0010 00000000 	 .word __cxa_pure_virtual
 1100              	 .text
 1101              	.Letext0:
 1102              	 .file 5 "c:\\progra~2\\gnuarm~1\\102021~1.10\\arm-none-eabi\\include\\machine\\_default_types.h"
 1103              	 .file 6 "c:\\progra~2\\gnuarm~1\\102021~1.10\\lib\\gcc\\arm-none-eabi\\10.3.1\\include\\stddef.h"
 1104              	 .file 7 "c:\\progra~2\\gnuarm~1\\102021~1.10\\lib\\gcc\\arm-none-eabi\\10.3.1\\include\\stdarg.h"
 1105              	 .file 8 "c:\\progra~2\\gnuarm~1\\102021~1.10\\arm-none-eabi\\include\\sys\\_types.h"
 1106              	 .file 9 "c:\\progra~2\\gnuarm~1\\102021~1.10\\arm-none-eabi\\include\\sys\\reent.h"
 1107              	 .file 10 "c:\\progra~2\\gnuarm~1\\102021~1.10\\arm-none-eabi\\include\\sys\\lock.h"
 1108              	 .file 11 "c:\\progra~2\\gnuarm~1\\102021~1.10\\arm-none-eabi\\include\\sys\\_stdint.h"
 1109              	 .file 12 "c:\\progra~2\\gnuarm~1\\102021~1.10\\arm-none-eabi\\include\\stdio.h"
 1110              	 .file 13 "c:\\progra~2\\gnuarm~1\\102021~1.10\\arm-none-eabi\\include\\stdint.h"
 1111              	 .file 14 "c:\\progra~2\\gnuarm~1\\102021~1.10\\arm-none-eabi\\include\\c++\\10.3.1\\bits\\basic_string.h"
 1112              	 .file 15 "c:\\progra~2\\gnuarm~1\\102021~1.10\\arm-none-eabi\\include\\c++\\10.3.1\\bits\\cpp_type_traits.h"
 1113              	 .file 16 "c:\\progra~2\\gnuarm~1\\102021~1.10\\arm-none-eabi\\include\\c++\\10.3.1\\cmath"
 1114              	 .file 17 "c:\\progra~2\\gnuarm~1\\102021~1.10\\arm-none-eabi\\include\\c++\\10.3.1\\bits\\std_abs.h"
 1115              	 .file 18 "c:\\progra~2\\gnuarm~1\\102021~1.10\\arm-none-eabi\\include\\c++\\10.3.1\\bits\\exception_ptr.h"
 1116              	 .file 19 "c:\\progra~2\\gnuarm~1\\102021~1.10\\arm-none-eabi\\include\\c++\\10.3.1\\arm-none-eabi\\thumb\\v7e-m+fp\\hard\\bits\\c++config.h"
 1117              	 .file 20 "c:\\progra~2\\gnuarm~1\\102021~1.10\\arm-none-eabi\\include\\c++\\10.3.1\\bits\\stl_pair.h"
 1118              	 .file 21 "c:\\progra~2\\gnuarm~1\\102021~1.10\\arm-none-eabi\\include\\c++\\10.3.1\\type_traits"
 1119              	 .file 22 "c:\\progra~2\\gnuarm~1\\102021~1.10\\arm-none-eabi\\include\\c++\\10.3.1\\debug\\debug.h"
 1120              	 .file 23 "c:\\progra~2\\gnuarm~1\\102021~1.10\\arm-none-eabi\\include\\c++\\10.3.1\\cwchar"
 1121              	 .file 24 "c:\\progra~2\\gnuarm~1\\102021~1.10\\arm-none-eabi\\include\\c++\\10.3.1\\bits\\char_traits.h"
 1122              	 .file 25 "c:\\progra~2\\gnuarm~1\\102021~1.10\\arm-none-eabi\\include\\c++\\10.3.1\\cstdint"
 1123              	 .file 26 "c:\\progra~2\\gnuarm~1\\102021~1.10\\arm-none-eabi\\include\\c++\\10.3.1\\bits\\allocator.h"
 1124              	 .file 27 "c:\\progra~2\\gnuarm~1\\102021~1.10\\arm-none-eabi\\include\\c++\\10.3.1\\clocale"
 1125              	 .file 28 "c:\\progra~2\\gnuarm~1\\102021~1.10\\arm-none-eabi\\include\\c++\\10.3.1\\cstdlib"
 1126              	 .file 29 "c:\\progra~2\\gnuarm~1\\102021~1.10\\arm-none-eabi\\include\\c++\\10.3.1\\cstdio"
 1127              	 .file 30 "c:\\progra~2\\gnuarm~1\\102021~1.10\\arm-none-eabi\\include\\c++\\10.3.1\\bits\\alloc_traits.h"
 1128              	 .file 31 "c:\\progra~2\\gnuarm~1\\102021~1.10\\arm-none-eabi\\include\\c++\\10.3.1\\initializer_list"
 1129              	 .file 32 "c:\\progra~2\\gnuarm~1\\102021~1.10\\arm-none-eabi\\include\\c++\\10.3.1\\bits\\stringfwd.h"
 1130              	 .file 33 "c:\\progra~2\\gnuarm~1\\102021~1.10\\arm-none-eabi\\include\\c++\\10.3.1\\bits\\stl_iterator_base_types.h"
 1131              	 .file 34 "<built-in>"
 1132              	 .file 35 "c:\\progra~2\\gnuarm~1\\102021~1.10\\arm-none-eabi\\include\\c++\\10.3.1\\bits\\predefined_ops.h"
 1133              	 .file 36 "c:\\progra~2\\gnuarm~1\\102021~1.10\\arm-none-eabi\\include\\c++\\10.3.1\\ext\\new_allocator.h"
 1134              	 .file 37 "c:\\progra~2\\gnuarm~1\\102021~1.10\\arm-none-eabi\\include\\c++\\10.3.1\\ext\\alloc_traits.h"
ARM GAS   			page 34


 1135              	 .file 38 "c:\\progra~2\\gnuarm~1\\102021~1.10\\arm-none-eabi\\include\\c++\\10.3.1\\bits\\stl_iterator.h"
 1136              	 .file 39 "c:\\progra~2\\gnuarm~1\\102021~1.10\\arm-none-eabi\\include\\math.h"
 1137              	 .file 40 "c:\\progra~2\\gnuarm~1\\102021~1.10\\arm-none-eabi\\include\\stdlib.h"
 1138              	 .file 41 "c:\\progra~2\\gnuarm~1\\102021~1.10\\arm-none-eabi\\include\\c++\\10.3.1\\math.h"
 1139              	 .file 42 "c:\\users\\niels\\documents\\github\\dsp\\software\\algemeen\\h\\algdef.h"
 1140              	 .file 43 "c:\\progra~2\\gnuarm~1\\102021~1.10\\arm-none-eabi\\include\\wchar.h"
 1141              	 .file 44 "c:\\progra~2\\gnuarm~1\\102021~1.10\\arm-none-eabi\\include\\locale.h"
 1142              	 .file 45 "c:\\users\\niels\\documents\\github\\dsp\\software\\stm32basis\\hal\\gemeenschappelijk\\third_party\\freertos\\source\\portable\\gcc\\arm_cm4f\\portmacro.h"
 1143              	 .file 46 "c:\\users\\niels\\documents\\github\\dsp\\software\\stm32basis\\hal\\gemeenschappelijk\\third_party\\freertos\\source\\include\\task.h"
 1144              	 .file 47 "c:\\users\\niels\\documents\\github\\dsp\\software\\stm32basis\\hal\\gemeenschappelijk\\third_party\\freertos-addons-1.1.0\\c++\\source\\include\\mutex.hpp"
 1145              	 .file 48 "c:\\users\\niels\\documents\\github\\dsp\\software\\stm32basis\\hal\\gemeenschappelijk\\third_party\\freertos-addons-1.1.0\\c++\\source\\include\\queue.hpp"
 1146              	 .section .debug_info,"",%progbits
 1147              	.Ldebug_info0:
 1148 0000 DE6D0000 	 .4byte 0x6dde
 1149 0004 0400     	 .2byte 0x4
 1150 0006 00000000 	 .4byte .Ldebug_abbrev0
 1151 000a 04       	 .byte 0x4
 1152 000b 5A       	 .uleb128 0x5a
 1153 000c 97520000 	 .4byte .LASF1085
 1154 0010 04       	 .byte 0x4
 1155 0011 4B600000 	 .4byte .LASF1086
 1156 0015 FE090000 	 .4byte .LASF1087
 1157 0019 00000000 	 .4byte .Ldebug_ranges0+0
 1158 001d 00000000 	 .4byte 0
 1159 0021 00000000 	 .4byte .Ldebug_line0
 1160 0025 06       	 .uleb128 0x6
 1161 0026 9D670000 	 .4byte .LASF0
 1162 002a 05       	 .byte 0x5
 1163 002b 29       	 .byte 0x29
 1164 002c 17       	 .byte 0x17
 1165 002d 31000000 	 .4byte 0x31
 1166 0031 12       	 .uleb128 0x12
 1167 0032 01       	 .byte 0x1
 1168 0033 06       	 .byte 0x6
 1169 0034 C1370000 	 .4byte .LASF2
 1170 0038 06       	 .uleb128 0x6
 1171 0039 EA010000 	 .4byte .LASF1
 1172 003d 05       	 .byte 0x5
 1173 003e 2B       	 .byte 0x2b
 1174 003f 18       	 .byte 0x18
 1175 0040 44000000 	 .4byte 0x44
 1176 0044 12       	 .uleb128 0x12
 1177 0045 01       	 .byte 0x1
 1178 0046 08       	 .byte 0x8
 1179 0047 9D190000 	 .4byte .LASF3
 1180 004b 06       	 .uleb128 0x6
 1181 004c A8160000 	 .4byte .LASF4
 1182 0050 05       	 .byte 0x5
 1183 0051 37       	 .byte 0x37
 1184 0052 18       	 .byte 0x18
 1185 0053 57000000 	 .4byte 0x57
 1186 0057 12       	 .uleb128 0x12
 1187 0058 02       	 .byte 0x2
 1188 0059 05       	 .byte 0x5
 1189 005a D16A0000 	 .4byte .LASF5
 1190 005e 06       	 .uleb128 0x6
 1191 005f C4160000 	 .4byte .LASF6
ARM GAS   			page 35


 1192 0063 05       	 .byte 0x5
 1193 0064 39       	 .byte 0x39
 1194 0065 19       	 .byte 0x19
 1195 0066 6A000000 	 .4byte 0x6a
 1196 006a 12       	 .uleb128 0x12
 1197 006b 02       	 .byte 0x2
 1198 006c 07       	 .byte 0x7
 1199 006d AE370000 	 .4byte .LASF7
 1200 0071 06       	 .uleb128 0x6
 1201 0072 1E560000 	 .4byte .LASF8
 1202 0076 05       	 .byte 0x5
 1203 0077 4D       	 .byte 0x4d
 1204 0078 18       	 .byte 0x18
 1205 0079 7D000000 	 .4byte 0x7d
 1206 007d 12       	 .uleb128 0x12
 1207 007e 04       	 .byte 0x4
 1208 007f 05       	 .byte 0x5
 1209 0080 9E3F0000 	 .4byte .LASF9
 1210 0084 06       	 .uleb128 0x6
 1211 0085 33560000 	 .4byte .LASF10
 1212 0089 05       	 .byte 0x5
 1213 008a 4F       	 .byte 0x4f
 1214 008b 19       	 .byte 0x19
 1215 008c 90000000 	 .4byte 0x90
 1216 0090 12       	 .uleb128 0x12
 1217 0091 04       	 .byte 0x4
 1218 0092 07       	 .byte 0x7
 1219 0093 27460000 	 .4byte .LASF11
 1220 0097 0A       	 .uleb128 0xa
 1221 0098 90000000 	 .4byte 0x90
 1222 009c 06       	 .uleb128 0x6
 1223 009d B82D0000 	 .4byte .LASF12
 1224 00a1 05       	 .byte 0x5
 1225 00a2 67       	 .byte 0x67
 1226 00a3 18       	 .byte 0x18
 1227 00a4 A8000000 	 .4byte 0xa8
 1228 00a8 12       	 .uleb128 0x12
 1229 00a9 08       	 .byte 0x8
 1230 00aa 05       	 .byte 0x5
 1231 00ab 18610000 	 .4byte .LASF13
 1232 00af 06       	 .uleb128 0x6
 1233 00b0 D02D0000 	 .4byte .LASF14
 1234 00b4 05       	 .byte 0x5
 1235 00b5 69       	 .byte 0x69
 1236 00b6 19       	 .byte 0x19
 1237 00b7 BB000000 	 .4byte 0xbb
 1238 00bb 12       	 .uleb128 0x12
 1239 00bc 08       	 .byte 0x8
 1240 00bd 07       	 .byte 0x7
 1241 00be 755A0000 	 .4byte .LASF15
 1242 00c2 06       	 .uleb128 0x6
 1243 00c3 BF210000 	 .4byte .LASF16
 1244 00c7 05       	 .byte 0x5
 1245 00c8 86       	 .byte 0x86
 1246 00c9 1D       	 .byte 0x1d
 1247 00ca 31000000 	 .4byte 0x31
 1248 00ce 06       	 .uleb128 0x6
ARM GAS   			page 36


 1249 00cf F4400000 	 .4byte .LASF17
 1250 00d3 05       	 .byte 0x5
 1251 00d4 88       	 .byte 0x88
 1252 00d5 1E       	 .byte 0x1e
 1253 00d6 44000000 	 .4byte 0x44
 1254 00da 06       	 .uleb128 0x6
 1255 00db 62560000 	 .4byte .LASF18
 1256 00df 05       	 .byte 0x5
 1257 00e0 A0       	 .byte 0xa0
 1258 00e1 1E       	 .byte 0x1e
 1259 00e2 57000000 	 .4byte 0x57
 1260 00e6 06       	 .uleb128 0x6
 1261 00e7 BE3A0000 	 .4byte .LASF19
 1262 00eb 05       	 .byte 0x5
 1263 00ec A2       	 .byte 0xa2
 1264 00ed 1F       	 .byte 0x1f
 1265 00ee 6A000000 	 .4byte 0x6a
 1266 00f2 06       	 .uleb128 0x6
 1267 00f3 CB270000 	 .4byte .LASF20
 1268 00f7 05       	 .byte 0x5
 1269 00f8 B6       	 .byte 0xb6
 1270 00f9 1E       	 .byte 0x1e
 1271 00fa 7D000000 	 .4byte 0x7d
 1272 00fe 06       	 .uleb128 0x6
 1273 00ff 9C0E0000 	 .4byte .LASF21
 1274 0103 05       	 .byte 0x5
 1275 0104 B8       	 .byte 0xb8
 1276 0105 1F       	 .byte 0x1f
 1277 0106 90000000 	 .4byte 0x90
 1278 010a 06       	 .uleb128 0x6
 1279 010b CE000000 	 .4byte .LASF22
 1280 010f 05       	 .byte 0x5
 1281 0110 C8       	 .byte 0xc8
 1282 0111 1E       	 .byte 0x1e
 1283 0112 A8000000 	 .4byte 0xa8
 1284 0116 06       	 .uleb128 0x6
 1285 0117 A0540000 	 .4byte .LASF23
 1286 011b 05       	 .byte 0x5
 1287 011c CA       	 .byte 0xca
 1288 011d 1F       	 .byte 0x1f
 1289 011e BB000000 	 .4byte 0xbb
 1290 0122 06       	 .uleb128 0x6
 1291 0123 854A0000 	 .4byte .LASF24
 1292 0127 05       	 .byte 0x5
 1293 0128 D6       	 .byte 0xd6
 1294 0129 19       	 .byte 0x19
 1295 012a A8000000 	 .4byte 0xa8
 1296 012e 06       	 .uleb128 0x6
 1297 012f 88130000 	 .4byte .LASF25
 1298 0133 05       	 .byte 0x5
 1299 0134 DE       	 .byte 0xde
 1300 0135 1A       	 .byte 0x1a
 1301 0136 BB000000 	 .4byte 0xbb
 1302 013a 06       	 .uleb128 0x6
 1303 013b A8170000 	 .4byte .LASF26
 1304 013f 05       	 .byte 0x5
 1305 0140 E6       	 .byte 0xe6
ARM GAS   			page 37


 1306 0141 19       	 .byte 0x19
 1307 0142 46010000 	 .4byte 0x146
 1308 0146 5B       	 .uleb128 0x5b
 1309 0147 04       	 .byte 0x4
 1310 0148 05       	 .byte 0x5
 1311 0149 696E7400 	 .ascii "int\000"
 1312 014d 0A       	 .uleb128 0xa
 1313 014e 46010000 	 .4byte 0x146
 1314 0152 06       	 .uleb128 0x6
 1315 0153 BC4A0000 	 .4byte .LASF27
 1316 0157 05       	 .byte 0x5
 1317 0158 E8       	 .byte 0xe8
 1318 0159 1A       	 .byte 0x1a
 1319 015a 5E010000 	 .4byte 0x15e
 1320 015e 12       	 .uleb128 0x12
 1321 015f 04       	 .byte 0x4
 1322 0160 07       	 .byte 0x7
 1323 0161 06690000 	 .4byte .LASF28
 1324 0165 0A       	 .uleb128 0xa
 1325 0166 5E010000 	 .4byte 0x15e
 1326 016a 06       	 .uleb128 0x6
 1327 016b 14250000 	 .4byte .LASF29
 1328 016f 06       	 .byte 0x6
 1329 0170 D1       	 .byte 0xd1
 1330 0171 17       	 .byte 0x17
 1331 0172 5E010000 	 .4byte 0x15e
 1332 0176 12       	 .uleb128 0x12
 1333 0177 08       	 .byte 0x8
 1334 0178 04       	 .byte 0x4
 1335 0179 2E450000 	 .4byte .LASF30
 1336 017d 5C       	 .uleb128 0x5c
 1337 017e 6C2F0000 	 .4byte .LASF1088
 1338 0182 06       	 .uleb128 0x6
 1339 0183 47180000 	 .4byte .LASF31
 1340 0187 07       	 .byte 0x7
 1341 0188 28       	 .byte 0x28
 1342 0189 1B       	 .byte 0x1b
 1343 018a 8E010000 	 .4byte 0x18e
 1344 018e 5D       	 .uleb128 0x5d
 1345 018f 336C0000 	 .4byte .LASF728
 1346 0193 04       	 .byte 0x4
 1347 0194 22       	 .byte 0x22
 1348 0195 00       	 .byte 0
 1349 0196 A5010000 	 .4byte 0x1a5
 1350 019a 5E       	 .uleb128 0x5e
 1351 019b 245E0000 	 .4byte .LASF1089
 1352 019f A5010000 	 .4byte 0x1a5
 1353 01a3 00       	 .byte 0
 1354 01a4 00       	 .byte 0
 1355 01a5 5F       	 .uleb128 0x5f
 1356 01a6 04       	 .byte 0x4
 1357 01a7 17       	 .uleb128 0x17
 1358 01a8 5E2A0000 	 .4byte .LASF32
 1359 01ac 06       	 .byte 0x6
 1360 01ad 5E01     	 .2byte 0x15e
 1361 01af 17       	 .byte 0x17
 1362 01b0 5E010000 	 .4byte 0x15e
ARM GAS   			page 38


 1363 01b4 06       	 .uleb128 0x6
 1364 01b5 FC240000 	 .4byte .LASF33
 1365 01b9 08       	 .byte 0x8
 1366 01ba 2E       	 .byte 0x2e
 1367 01bb 0E       	 .byte 0xe
 1368 01bc 7D000000 	 .4byte 0x7d
 1369 01c0 06       	 .uleb128 0x6
 1370 01c1 2A520000 	 .4byte .LASF34
 1371 01c5 08       	 .byte 0x8
 1372 01c6 74       	 .byte 0x74
 1373 01c7 0E       	 .byte 0xe
 1374 01c8 7D000000 	 .4byte 0x7d
 1375 01cc 31       	 .uleb128 0x31
 1376 01cd 08       	 .byte 0x8
 1377 01ce 08       	 .byte 0x8
 1378 01cf A3       	 .byte 0xa3
 1379 01d0 01       	 .byte 0x1
 1380 01d1 7C2C0000 	 .4byte .LASF812
 1381 01d5 16020000 	 .4byte 0x216
 1382 01d9 43       	 .uleb128 0x43
 1383 01da 04       	 .byte 0x4
 1384 01db 08       	 .byte 0x8
 1385 01dc A6       	 .byte 0xa6
 1386 01dd 03       	 .byte 0x3
 1387 01de FB010000 	 .4byte 0x1fb
 1388 01e2 32       	 .uleb128 0x32
 1389 01e3 E03D0000 	 .4byte .LASF35
 1390 01e7 08       	 .byte 0x8
 1391 01e8 A7       	 .byte 0xa7
 1392 01e9 0C       	 .byte 0xc
 1393 01ea A7010000 	 .4byte 0x1a7
 1394 01ee 32       	 .uleb128 0x32
 1395 01ef B9290000 	 .4byte .LASF36
 1396 01f3 08       	 .byte 0x8
 1397 01f4 A8       	 .byte 0xa8
 1398 01f5 13       	 .byte 0x13
 1399 01f6 16020000 	 .4byte 0x216
 1400 01fa 00       	 .byte 0
 1401 01fb 08       	 .uleb128 0x8
 1402 01fc B3250000 	 .4byte .LASF37
 1403 0200 08       	 .byte 0x8
 1404 0201 A4       	 .byte 0xa4
 1405 0202 07       	 .byte 0x7
 1406 0203 46010000 	 .4byte 0x146
 1407 0207 00       	 .byte 0
 1408 0208 08       	 .uleb128 0x8
 1409 0209 F6560000 	 .4byte .LASF38
 1410 020d 08       	 .byte 0x8
 1411 020e A9       	 .byte 0xa9
 1412 020f 05       	 .byte 0x5
 1413 0210 D9010000 	 .4byte 0x1d9
 1414 0214 04       	 .byte 0x4
 1415 0215 00       	 .byte 0
 1416 0216 0F       	 .uleb128 0xf
 1417 0217 44000000 	 .4byte 0x44
 1418 021b 26020000 	 .4byte 0x226
 1419 021f 10       	 .uleb128 0x10
ARM GAS   			page 39


 1420 0220 5E010000 	 .4byte 0x15e
 1421 0224 03       	 .byte 0x3
 1422 0225 00       	 .byte 0
 1423 0226 06       	 .uleb128 0x6
 1424 0227 59540000 	 .4byte .LASF39
 1425 022b 08       	 .byte 0x8
 1426 022c AA       	 .byte 0xaa
 1427 022d 03       	 .byte 0x3
 1428 022e CC010000 	 .4byte 0x1cc
 1429 0232 06       	 .uleb128 0x6
 1430 0233 6E350000 	 .4byte .LASF40
 1431 0237 09       	 .byte 0x9
 1432 0238 16       	 .byte 0x16
 1433 0239 19       	 .byte 0x19
 1434 023a 90000000 	 .4byte 0x90
 1435 023e 06       	 .uleb128 0x6
 1436 023f E1150000 	 .4byte .LASF41
 1437 0243 0A       	 .byte 0xa
 1438 0244 22       	 .byte 0x22
 1439 0245 19       	 .byte 0x19
 1440 0246 4A020000 	 .4byte 0x24a
 1441 024a 09       	 .uleb128 0x9
 1442 024b 04       	 .byte 0x4
 1443 024c 50020000 	 .4byte 0x250
 1444 0250 44       	 .uleb128 0x44
 1445 0251 82110000 	 .4byte .LASF139
 1446 0255 06       	 .uleb128 0x6
 1447 0256 1D5F0000 	 .4byte .LASF42
 1448 025a 09       	 .byte 0x9
 1449 025b 23       	 .byte 0x23
 1450 025c 1B       	 .byte 0x1b
 1451 025d 3E020000 	 .4byte 0x23e
 1452 0261 1A       	 .uleb128 0x1a
 1453 0262 2E4A0000 	 .4byte .LASF47
 1454 0266 18       	 .byte 0x18
 1455 0267 09       	 .byte 0x9
 1456 0268 34       	 .byte 0x34
 1457 0269 08       	 .byte 0x8
 1458 026a BB020000 	 .4byte 0x2bb
 1459 026e 08       	 .uleb128 0x8
 1460 026f 402E0000 	 .4byte .LASF43
 1461 0273 09       	 .byte 0x9
 1462 0274 36       	 .byte 0x36
 1463 0275 13       	 .byte 0x13
 1464 0276 BB020000 	 .4byte 0x2bb
 1465 027a 00       	 .byte 0
 1466 027b 1B       	 .uleb128 0x1b
 1467 027c 5F6B00   	 .ascii "_k\000"
 1468 027f 09       	 .byte 0x9
 1469 0280 37       	 .byte 0x37
 1470 0281 07       	 .byte 0x7
 1471 0282 46010000 	 .4byte 0x146
 1472 0286 04       	 .byte 0x4
 1473 0287 08       	 .uleb128 0x8
 1474 0288 AB430000 	 .4byte .LASF44
 1475 028c 09       	 .byte 0x9
 1476 028d 37       	 .byte 0x37
ARM GAS   			page 40


 1477 028e 0B       	 .byte 0xb
 1478 028f 46010000 	 .4byte 0x146
 1479 0293 08       	 .byte 0x8
 1480 0294 08       	 .uleb128 0x8
 1481 0295 29670000 	 .4byte .LASF45
 1482 0299 09       	 .byte 0x9
 1483 029a 37       	 .byte 0x37
 1484 029b 14       	 .byte 0x14
 1485 029c 46010000 	 .4byte 0x146
 1486 02a0 0C       	 .byte 0xc
 1487 02a1 08       	 .uleb128 0x8
 1488 02a2 7B1A0000 	 .4byte .LASF46
 1489 02a6 09       	 .byte 0x9
 1490 02a7 37       	 .byte 0x37
 1491 02a8 1B       	 .byte 0x1b
 1492 02a9 46010000 	 .4byte 0x146
 1493 02ad 10       	 .byte 0x10
 1494 02ae 1B       	 .uleb128 0x1b
 1495 02af 5F7800   	 .ascii "_x\000"
 1496 02b2 09       	 .byte 0x9
 1497 02b3 38       	 .byte 0x38
 1498 02b4 0B       	 .byte 0xb
 1499 02b5 C1020000 	 .4byte 0x2c1
 1500 02b9 14       	 .byte 0x14
 1501 02ba 00       	 .byte 0
 1502 02bb 09       	 .uleb128 0x9
 1503 02bc 04       	 .byte 0x4
 1504 02bd 61020000 	 .4byte 0x261
 1505 02c1 0F       	 .uleb128 0xf
 1506 02c2 32020000 	 .4byte 0x232
 1507 02c6 D1020000 	 .4byte 0x2d1
 1508 02ca 10       	 .uleb128 0x10
 1509 02cb 5E010000 	 .4byte 0x15e
 1510 02cf 00       	 .byte 0
 1511 02d0 00       	 .byte 0
 1512 02d1 1A       	 .uleb128 0x1a
 1513 02d2 2D140000 	 .4byte .LASF48
 1514 02d6 24       	 .byte 0x24
 1515 02d7 09       	 .byte 0x9
 1516 02d8 3C       	 .byte 0x3c
 1517 02d9 08       	 .byte 0x8
 1518 02da 54030000 	 .4byte 0x354
 1519 02de 08       	 .uleb128 0x8
 1520 02df 81310000 	 .4byte .LASF49
 1521 02e3 09       	 .byte 0x9
 1522 02e4 3E       	 .byte 0x3e
 1523 02e5 09       	 .byte 0x9
 1524 02e6 46010000 	 .4byte 0x146
 1525 02ea 00       	 .byte 0
 1526 02eb 08       	 .uleb128 0x8
 1527 02ec 1B680000 	 .4byte .LASF50
 1528 02f0 09       	 .byte 0x9
 1529 02f1 3F       	 .byte 0x3f
 1530 02f2 09       	 .byte 0x9
 1531 02f3 46010000 	 .4byte 0x146
 1532 02f7 04       	 .byte 0x4
 1533 02f8 08       	 .uleb128 0x8
ARM GAS   			page 41


 1534 02f9 2D2A0000 	 .4byte .LASF51
 1535 02fd 09       	 .byte 0x9
 1536 02fe 40       	 .byte 0x40
 1537 02ff 09       	 .byte 0x9
 1538 0300 46010000 	 .4byte 0x146
 1539 0304 08       	 .byte 0x8
 1540 0305 08       	 .uleb128 0x8
 1541 0306 A82B0000 	 .4byte .LASF52
 1542 030a 09       	 .byte 0x9
 1543 030b 41       	 .byte 0x41
 1544 030c 09       	 .byte 0x9
 1545 030d 46010000 	 .4byte 0x146
 1546 0311 0C       	 .byte 0xc
 1547 0312 08       	 .uleb128 0x8
 1548 0313 9D040000 	 .4byte .LASF53
 1549 0317 09       	 .byte 0x9
 1550 0318 42       	 .byte 0x42
 1551 0319 09       	 .byte 0x9
 1552 031a 46010000 	 .4byte 0x146
 1553 031e 10       	 .byte 0x10
 1554 031f 08       	 .uleb128 0x8
 1555 0320 2A1E0000 	 .4byte .LASF54
 1556 0324 09       	 .byte 0x9
 1557 0325 43       	 .byte 0x43
 1558 0326 09       	 .byte 0x9
 1559 0327 46010000 	 .4byte 0x146
 1560 032b 14       	 .byte 0x14
 1561 032c 08       	 .uleb128 0x8
 1562 032d 86180000 	 .4byte .LASF55
 1563 0331 09       	 .byte 0x9
 1564 0332 44       	 .byte 0x44
 1565 0333 09       	 .byte 0x9
 1566 0334 46010000 	 .4byte 0x146
 1567 0338 18       	 .byte 0x18
 1568 0339 08       	 .uleb128 0x8
 1569 033a 98150000 	 .4byte .LASF56
 1570 033e 09       	 .byte 0x9
 1571 033f 45       	 .byte 0x45
 1572 0340 09       	 .byte 0x9
 1573 0341 46010000 	 .4byte 0x146
 1574 0345 1C       	 .byte 0x1c
 1575 0346 08       	 .uleb128 0x8
 1576 0347 9E180000 	 .4byte .LASF57
 1577 034b 09       	 .byte 0x9
 1578 034c 46       	 .byte 0x46
 1579 034d 09       	 .byte 0x9
 1580 034e 46010000 	 .4byte 0x146
 1581 0352 20       	 .byte 0x20
 1582 0353 00       	 .byte 0
 1583 0354 45       	 .uleb128 0x45
 1584 0355 F5310000 	 .4byte .LASF58
 1585 0359 0801     	 .2byte 0x108
 1586 035b 09       	 .byte 0x9
 1587 035c 4F       	 .byte 0x4f
 1588 035d 08       	 .byte 0x8
 1589 035e 99030000 	 .4byte 0x399
 1590 0362 08       	 .uleb128 0x8
ARM GAS   			page 42


 1591 0363 182C0000 	 .4byte .LASF59
 1592 0367 09       	 .byte 0x9
 1593 0368 50       	 .byte 0x50
 1594 0369 0A       	 .byte 0xa
 1595 036a 99030000 	 .4byte 0x399
 1596 036e 00       	 .byte 0
 1597 036f 08       	 .uleb128 0x8
 1598 0370 3B180000 	 .4byte .LASF60
 1599 0374 09       	 .byte 0x9
 1600 0375 51       	 .byte 0x51
 1601 0376 09       	 .byte 0x9
 1602 0377 99030000 	 .4byte 0x399
 1603 037b 80       	 .byte 0x80
 1604 037c 46       	 .uleb128 0x46
 1605 037d A6040000 	 .4byte .LASF61
 1606 0381 09       	 .byte 0x9
 1607 0382 53       	 .byte 0x53
 1608 0383 0A       	 .byte 0xa
 1609 0384 32020000 	 .4byte 0x232
 1610 0388 0001     	 .2byte 0x100
 1611 038a 46       	 .uleb128 0x46
 1612 038b 2A570000 	 .4byte .LASF62
 1613 038f 09       	 .byte 0x9
 1614 0390 56       	 .byte 0x56
 1615 0391 0A       	 .byte 0xa
 1616 0392 32020000 	 .4byte 0x232
 1617 0396 0401     	 .2byte 0x104
 1618 0398 00       	 .byte 0
 1619 0399 0F       	 .uleb128 0xf
 1620 039a A5010000 	 .4byte 0x1a5
 1621 039e A9030000 	 .4byte 0x3a9
 1622 03a2 10       	 .uleb128 0x10
 1623 03a3 5E010000 	 .4byte 0x15e
 1624 03a7 1F       	 .byte 0x1f
 1625 03a8 00       	 .byte 0
 1626 03a9 45       	 .uleb128 0x45
 1627 03aa 72020000 	 .4byte .LASF63
 1628 03ae 9001     	 .2byte 0x190
 1629 03b0 09       	 .byte 0x9
 1630 03b1 62       	 .byte 0x62
 1631 03b2 08       	 .byte 0x8
 1632 03b3 EC030000 	 .4byte 0x3ec
 1633 03b7 08       	 .uleb128 0x8
 1634 03b8 402E0000 	 .4byte .LASF43
 1635 03bc 09       	 .byte 0x9
 1636 03bd 63       	 .byte 0x63
 1637 03be 12       	 .byte 0x12
 1638 03bf EC030000 	 .4byte 0x3ec
 1639 03c3 00       	 .byte 0
 1640 03c4 08       	 .uleb128 0x8
 1641 03c5 2B050000 	 .4byte .LASF64
 1642 03c9 09       	 .byte 0x9
 1643 03ca 64       	 .byte 0x64
 1644 03cb 06       	 .byte 0x6
 1645 03cc 46010000 	 .4byte 0x146
 1646 03d0 04       	 .byte 0x4
 1647 03d1 08       	 .uleb128 0x8
ARM GAS   			page 43


 1648 03d2 2D540000 	 .4byte .LASF65
 1649 03d6 09       	 .byte 0x9
 1650 03d7 66       	 .byte 0x66
 1651 03d8 09       	 .byte 0x9
 1652 03d9 F2030000 	 .4byte 0x3f2
 1653 03dd 08       	 .byte 0x8
 1654 03de 08       	 .uleb128 0x8
 1655 03df F5310000 	 .4byte .LASF58
 1656 03e3 09       	 .byte 0x9
 1657 03e4 67       	 .byte 0x67
 1658 03e5 1E       	 .byte 0x1e
 1659 03e6 54030000 	 .4byte 0x354
 1660 03ea 88       	 .byte 0x88
 1661 03eb 00       	 .byte 0
 1662 03ec 09       	 .uleb128 0x9
 1663 03ed 04       	 .byte 0x4
 1664 03ee A9030000 	 .4byte 0x3a9
 1665 03f2 0F       	 .uleb128 0xf
 1666 03f3 02040000 	 .4byte 0x402
 1667 03f7 02040000 	 .4byte 0x402
 1668 03fb 10       	 .uleb128 0x10
 1669 03fc 5E010000 	 .4byte 0x15e
 1670 0400 1F       	 .byte 0x1f
 1671 0401 00       	 .byte 0
 1672 0402 09       	 .uleb128 0x9
 1673 0403 04       	 .byte 0x4
 1674 0404 08040000 	 .4byte 0x408
 1675 0408 60       	 .uleb128 0x60
 1676 0409 1A       	 .uleb128 0x1a
 1677 040a 223C0000 	 .4byte .LASF66
 1678 040e 08       	 .byte 0x8
 1679 040f 09       	 .byte 0x9
 1680 0410 7A       	 .byte 0x7a
 1681 0411 08       	 .byte 0x8
 1682 0412 31040000 	 .4byte 0x431
 1683 0416 08       	 .uleb128 0x8
 1684 0417 6A120000 	 .4byte .LASF67
 1685 041b 09       	 .byte 0x9
 1686 041c 7B       	 .byte 0x7b
 1687 041d 11       	 .byte 0x11
 1688 041e 31040000 	 .4byte 0x431
 1689 0422 00       	 .byte 0
 1690 0423 08       	 .uleb128 0x8
 1691 0424 7E1B0000 	 .4byte .LASF68
 1692 0428 09       	 .byte 0x9
 1693 0429 7C       	 .byte 0x7c
 1694 042a 06       	 .byte 0x6
 1695 042b 46010000 	 .4byte 0x146
 1696 042f 04       	 .byte 0x4
 1697 0430 00       	 .byte 0
 1698 0431 09       	 .uleb128 0x9
 1699 0432 04       	 .byte 0x4
 1700 0433 44000000 	 .4byte 0x44
 1701 0437 1A       	 .uleb128 0x1a
 1702 0438 F5530000 	 .4byte .LASF69
 1703 043c 68       	 .byte 0x68
 1704 043d 09       	 .byte 0x9
ARM GAS   			page 44


 1705 043e BA       	 .byte 0xba
 1706 043f 08       	 .byte 0x8
 1707 0440 7A050000 	 .4byte 0x57a
 1708 0444 1B       	 .uleb128 0x1b
 1709 0445 5F7000   	 .ascii "_p\000"
 1710 0448 09       	 .byte 0x9
 1711 0449 BB       	 .byte 0xbb
 1712 044a 12       	 .byte 0x12
 1713 044b 31040000 	 .4byte 0x431
 1714 044f 00       	 .byte 0
 1715 0450 1B       	 .uleb128 0x1b
 1716 0451 5F7200   	 .ascii "_r\000"
 1717 0454 09       	 .byte 0x9
 1718 0455 BC       	 .byte 0xbc
 1719 0456 07       	 .byte 0x7
 1720 0457 46010000 	 .4byte 0x146
 1721 045b 04       	 .byte 0x4
 1722 045c 1B       	 .uleb128 0x1b
 1723 045d 5F7700   	 .ascii "_w\000"
 1724 0460 09       	 .byte 0x9
 1725 0461 BD       	 .byte 0xbd
 1726 0462 07       	 .byte 0x7
 1727 0463 46010000 	 .4byte 0x146
 1728 0467 08       	 .byte 0x8
 1729 0468 08       	 .uleb128 0x8
 1730 0469 12070000 	 .4byte .LASF70
 1731 046d 09       	 .byte 0x9
 1732 046e BE       	 .byte 0xbe
 1733 046f 09       	 .byte 0x9
 1734 0470 57000000 	 .4byte 0x57
 1735 0474 0C       	 .byte 0xc
 1736 0475 08       	 .uleb128 0x8
 1737 0476 48520000 	 .4byte .LASF71
 1738 047a 09       	 .byte 0x9
 1739 047b BF       	 .byte 0xbf
 1740 047c 09       	 .byte 0x9
 1741 047d 57000000 	 .4byte 0x57
 1742 0481 0E       	 .byte 0xe
 1743 0482 1B       	 .uleb128 0x1b
 1744 0483 5F626600 	 .ascii "_bf\000"
 1745 0487 09       	 .byte 0x9
 1746 0488 C0       	 .byte 0xc0
 1747 0489 11       	 .byte 0x11
 1748 048a 09040000 	 .4byte 0x409
 1749 048e 10       	 .byte 0x10
 1750 048f 08       	 .uleb128 0x8
 1751 0490 AD0E0000 	 .4byte .LASF72
 1752 0494 09       	 .byte 0x9
 1753 0495 C1       	 .byte 0xc1
 1754 0496 07       	 .byte 0x7
 1755 0497 46010000 	 .4byte 0x146
 1756 049b 18       	 .byte 0x18
 1757 049c 08       	 .uleb128 0x8
 1758 049d 972E0000 	 .4byte .LASF73
 1759 04a1 09       	 .byte 0x9
 1760 04a2 C8       	 .byte 0xc8
 1761 04a3 0A       	 .byte 0xa
ARM GAS   			page 45


 1762 04a4 A5010000 	 .4byte 0x1a5
 1763 04a8 1C       	 .byte 0x1c
 1764 04a9 08       	 .uleb128 0x8
 1765 04aa 016B0000 	 .4byte .LASF74
 1766 04ae 09       	 .byte 0x9
 1767 04af CA       	 .byte 0xca
 1768 04b0 1D       	 .byte 0x1d
 1769 04b1 5F080000 	 .4byte 0x85f
 1770 04b5 20       	 .byte 0x20
 1771 04b6 08       	 .uleb128 0x8
 1772 04b7 E21B0000 	 .4byte .LASF75
 1773 04bb 09       	 .byte 0x9
 1774 04bc CC       	 .byte 0xcc
 1775 04bd 1D       	 .byte 0x1d
 1776 04be 8E080000 	 .4byte 0x88e
 1777 04c2 24       	 .byte 0x24
 1778 04c3 08       	 .uleb128 0x8
 1779 04c4 1B370000 	 .4byte .LASF76
 1780 04c8 09       	 .byte 0x9
 1781 04c9 CF       	 .byte 0xcf
 1782 04ca 0D       	 .byte 0xd
 1783 04cb B2080000 	 .4byte 0x8b2
 1784 04cf 28       	 .byte 0x28
 1785 04d0 08       	 .uleb128 0x8
 1786 04d1 4A470000 	 .4byte .LASF77
 1787 04d5 09       	 .byte 0x9
 1788 04d6 D0       	 .byte 0xd0
 1789 04d7 09       	 .byte 0x9
 1790 04d8 CC080000 	 .4byte 0x8cc
 1791 04dc 2C       	 .byte 0x2c
 1792 04dd 1B       	 .uleb128 0x1b
 1793 04de 5F756200 	 .ascii "_ub\000"
 1794 04e2 09       	 .byte 0x9
 1795 04e3 D3       	 .byte 0xd3
 1796 04e4 11       	 .byte 0x11
 1797 04e5 09040000 	 .4byte 0x409
 1798 04e9 30       	 .byte 0x30
 1799 04ea 1B       	 .uleb128 0x1b
 1800 04eb 5F757000 	 .ascii "_up\000"
 1801 04ef 09       	 .byte 0x9
 1802 04f0 D4       	 .byte 0xd4
 1803 04f1 12       	 .byte 0x12
 1804 04f2 31040000 	 .4byte 0x431
 1805 04f6 38       	 .byte 0x38
 1806 04f7 1B       	 .uleb128 0x1b
 1807 04f8 5F757200 	 .ascii "_ur\000"
 1808 04fc 09       	 .byte 0x9
 1809 04fd D5       	 .byte 0xd5
 1810 04fe 07       	 .byte 0x7
 1811 04ff 46010000 	 .4byte 0x146
 1812 0503 3C       	 .byte 0x3c
 1813 0504 08       	 .uleb128 0x8
 1814 0505 58500000 	 .4byte .LASF78
 1815 0509 09       	 .byte 0x9
 1816 050a D8       	 .byte 0xd8
 1817 050b 11       	 .byte 0x11
 1818 050c D2080000 	 .4byte 0x8d2
ARM GAS   			page 46


 1819 0510 40       	 .byte 0x40
 1820 0511 08       	 .uleb128 0x8
 1821 0512 8F080000 	 .4byte .LASF79
 1822 0516 09       	 .byte 0x9
 1823 0517 D9       	 .byte 0xd9
 1824 0518 11       	 .byte 0x11
 1825 0519 E2080000 	 .4byte 0x8e2
 1826 051d 43       	 .byte 0x43
 1827 051e 1B       	 .uleb128 0x1b
 1828 051f 5F6C6200 	 .ascii "_lb\000"
 1829 0523 09       	 .byte 0x9
 1830 0524 DC       	 .byte 0xdc
 1831 0525 11       	 .byte 0x11
 1832 0526 09040000 	 .4byte 0x409
 1833 052a 44       	 .byte 0x44
 1834 052b 08       	 .uleb128 0x8
 1835 052c 25500000 	 .4byte .LASF80
 1836 0530 09       	 .byte 0x9
 1837 0531 DF       	 .byte 0xdf
 1838 0532 07       	 .byte 0x7
 1839 0533 46010000 	 .4byte 0x146
 1840 0537 4C       	 .byte 0x4c
 1841 0538 08       	 .uleb128 0x8
 1842 0539 D73B0000 	 .4byte .LASF81
 1843 053d 09       	 .byte 0x9
 1844 053e E0       	 .byte 0xe0
 1845 053f 0A       	 .byte 0xa
 1846 0540 B4010000 	 .4byte 0x1b4
 1847 0544 50       	 .byte 0x50
 1848 0545 08       	 .uleb128 0x8
 1849 0546 B20F0000 	 .4byte .LASF82
 1850 054a 09       	 .byte 0x9
 1851 054b E3       	 .byte 0xe3
 1852 054c 12       	 .byte 0x12
 1853 054d 98050000 	 .4byte 0x598
 1854 0551 54       	 .byte 0x54
 1855 0552 08       	 .uleb128 0x8
 1856 0553 89080000 	 .4byte .LASF83
 1857 0557 09       	 .byte 0x9
 1858 0558 E7       	 .byte 0xe7
 1859 0559 0C       	 .byte 0xc
 1860 055a 55020000 	 .4byte 0x255
 1861 055e 58       	 .byte 0x58
 1862 055f 08       	 .uleb128 0x8
 1863 0560 50020000 	 .4byte .LASF84
 1864 0564 09       	 .byte 0x9
 1865 0565 E9       	 .byte 0xe9
 1866 0566 0E       	 .byte 0xe
 1867 0567 26020000 	 .4byte 0x226
 1868 056b 5C       	 .byte 0x5c
 1869 056c 08       	 .uleb128 0x8
 1870 056d 6B610000 	 .4byte .LASF85
 1871 0571 09       	 .byte 0x9
 1872 0572 EA       	 .byte 0xea
 1873 0573 09       	 .byte 0x9
 1874 0574 46010000 	 .4byte 0x146
 1875 0578 64       	 .byte 0x64
ARM GAS   			page 47


 1876 0579 00       	 .byte 0
 1877 057a 2B       	 .uleb128 0x2b
 1878 057b 46010000 	 .4byte 0x146
 1879 057f 98050000 	 .4byte 0x598
 1880 0583 01       	 .uleb128 0x1
 1881 0584 98050000 	 .4byte 0x598
 1882 0588 01       	 .uleb128 0x1
 1883 0589 A5010000 	 .4byte 0x1a5
 1884 058d 01       	 .uleb128 0x1
 1885 058e 48080000 	 .4byte 0x848
 1886 0592 01       	 .uleb128 0x1
 1887 0593 46010000 	 .4byte 0x146
 1888 0597 00       	 .byte 0
 1889 0598 09       	 .uleb128 0x9
 1890 0599 04       	 .byte 0x4
 1891 059a 9E050000 	 .4byte 0x59e
 1892 059e 61       	 .uleb128 0x61
 1893 059f AB110000 	 .4byte .LASF86
 1894 05a3 2804     	 .2byte 0x428
 1895 05a5 09       	 .byte 0x9
 1896 05a6 6502     	 .2byte 0x265
 1897 05a8 08       	 .byte 0x8
 1898 05a9 48080000 	 .4byte 0x848
 1899 05ad 62       	 .uleb128 0x62
 1900 05ae F0       	 .byte 0xf0
 1901 05af 09       	 .byte 0x9
 1902 05b0 8402     	 .2byte 0x284
 1903 05b2 05       	 .byte 0x5
 1904 05b3 0E070000 	 .4byte 0x70e
 1905 05b7 47       	 .uleb128 0x47
 1906 05b8 D0       	 .byte 0xd0
 1907 05b9 09       	 .byte 0x9
 1908 05ba 8602     	 .2byte 0x286
 1909 05bc 09       	 .byte 0x9
 1910 05bd CC060000 	 .4byte 0x6cc
 1911 05c1 0B       	 .uleb128 0xb
 1912 05c2 28170000 	 .4byte .LASF87
 1913 05c6 09       	 .byte 0x9
 1914 05c7 8702     	 .2byte 0x287
 1915 05c9 18       	 .byte 0x18
 1916 05ca 5E010000 	 .4byte 0x15e
 1917 05ce 00       	 .byte 0
 1918 05cf 0B       	 .uleb128 0xb
 1919 05d0 33360000 	 .4byte .LASF88
 1920 05d4 09       	 .byte 0x9
 1921 05d5 8802     	 .2byte 0x288
 1922 05d7 12       	 .byte 0x12
 1923 05d8 48080000 	 .4byte 0x848
 1924 05dc 04       	 .byte 0x4
 1925 05dd 0B       	 .uleb128 0xb
 1926 05de BF3D0000 	 .4byte .LASF89
 1927 05e2 09       	 .byte 0x9
 1928 05e3 8902     	 .2byte 0x289
 1929 05e5 10       	 .byte 0x10
 1930 05e6 8D090000 	 .4byte 0x98d
 1931 05ea 08       	 .byte 0x8
 1932 05eb 0B       	 .uleb128 0xb
ARM GAS   			page 48


 1933 05ec 1B250000 	 .4byte .LASF90
 1934 05f0 09       	 .byte 0x9
 1935 05f1 8A02     	 .2byte 0x28a
 1936 05f3 17       	 .byte 0x17
 1937 05f4 D1020000 	 .4byte 0x2d1
 1938 05f8 24       	 .byte 0x24
 1939 05f9 0B       	 .uleb128 0xb
 1940 05fa 275C0000 	 .4byte .LASF91
 1941 05fe 09       	 .byte 0x9
 1942 05ff 8B02     	 .2byte 0x28b
 1943 0601 0F       	 .byte 0xf
 1944 0602 46010000 	 .4byte 0x146
 1945 0606 48       	 .byte 0x48
 1946 0607 0B       	 .uleb128 0xb
 1947 0608 30420000 	 .4byte .LASF92
 1948 060c 09       	 .byte 0x9
 1949 060d 8C02     	 .2byte 0x28c
 1950 060f 2C       	 .byte 0x2c
 1951 0610 BB000000 	 .4byte 0xbb
 1952 0614 50       	 .byte 0x50
 1953 0615 0B       	 .uleb128 0xb
 1954 0616 13690000 	 .4byte .LASF93
 1955 061a 09       	 .byte 0x9
 1956 061b 8D02     	 .2byte 0x28d
 1957 061d 1A       	 .byte 0x1a
 1958 061e 44090000 	 .4byte 0x944
 1959 0622 58       	 .byte 0x58
 1960 0623 0B       	 .uleb128 0xb
 1961 0624 69500000 	 .4byte .LASF94
 1962 0628 09       	 .byte 0x9
 1963 0629 8E02     	 .2byte 0x28e
 1964 062b 16       	 .byte 0x16
 1965 062c 26020000 	 .4byte 0x226
 1966 0630 68       	 .byte 0x68
 1967 0631 0B       	 .uleb128 0xb
 1968 0632 B2120000 	 .4byte .LASF95
 1969 0636 09       	 .byte 0x9
 1970 0637 8F02     	 .2byte 0x28f
 1971 0639 16       	 .byte 0x16
 1972 063a 26020000 	 .4byte 0x226
 1973 063e 70       	 .byte 0x70
 1974 063f 0B       	 .uleb128 0xb
 1975 0640 02400000 	 .4byte .LASF96
 1976 0644 09       	 .byte 0x9
 1977 0645 9002     	 .2byte 0x290
 1978 0647 16       	 .byte 0x16
 1979 0648 26020000 	 .4byte 0x226
 1980 064c 78       	 .byte 0x78
 1981 064d 0B       	 .uleb128 0xb
 1982 064e 583C0000 	 .4byte .LASF97
 1983 0652 09       	 .byte 0x9
 1984 0653 9102     	 .2byte 0x291
 1985 0655 10       	 .byte 0x10
 1986 0656 9D090000 	 .4byte 0x99d
 1987 065a 80       	 .byte 0x80
 1988 065b 0B       	 .uleb128 0xb
 1989 065c 752E0000 	 .4byte .LASF98
ARM GAS   			page 49


 1990 0660 09       	 .byte 0x9
 1991 0661 9202     	 .2byte 0x292
 1992 0663 10       	 .byte 0x10
 1993 0664 AD090000 	 .4byte 0x9ad
 1994 0668 88       	 .byte 0x88
 1995 0669 0B       	 .uleb128 0xb
 1996 066a BF4B0000 	 .4byte .LASF99
 1997 066e 09       	 .byte 0x9
 1998 066f 9302     	 .2byte 0x293
 1999 0671 0F       	 .byte 0xf
 2000 0672 46010000 	 .4byte 0x146
 2001 0676 A0       	 .byte 0xa0
 2002 0677 0B       	 .uleb128 0xb
 2003 0678 0D210000 	 .4byte .LASF100
 2004 067c 09       	 .byte 0x9
 2005 067d 9402     	 .2byte 0x294
 2006 067f 16       	 .byte 0x16
 2007 0680 26020000 	 .4byte 0x226
 2008 0684 A4       	 .byte 0xa4
 2009 0685 0B       	 .uleb128 0xb
 2010 0686 C0290000 	 .4byte .LASF101
 2011 068a 09       	 .byte 0x9
 2012 068b 9502     	 .2byte 0x295
 2013 068d 16       	 .byte 0x16
 2014 068e 26020000 	 .4byte 0x226
 2015 0692 AC       	 .byte 0xac
 2016 0693 0B       	 .uleb128 0xb
 2017 0694 631A0000 	 .4byte .LASF102
 2018 0698 09       	 .byte 0x9
 2019 0699 9602     	 .2byte 0x296
 2020 069b 16       	 .byte 0x16
 2021 069c 26020000 	 .4byte 0x226
 2022 06a0 B4       	 .byte 0xb4
 2023 06a1 0B       	 .uleb128 0xb
 2024 06a2 D8320000 	 .4byte .LASF103
 2025 06a6 09       	 .byte 0x9
 2026 06a7 9702     	 .2byte 0x297
 2027 06a9 16       	 .byte 0x16
 2028 06aa 26020000 	 .4byte 0x226
 2029 06ae BC       	 .byte 0xbc
 2030 06af 0B       	 .uleb128 0xb
 2031 06b0 E63D0000 	 .4byte .LASF104
 2032 06b4 09       	 .byte 0x9
 2033 06b5 9802     	 .2byte 0x298
 2034 06b7 16       	 .byte 0x16
 2035 06b8 26020000 	 .4byte 0x226
 2036 06bc C4       	 .byte 0xc4
 2037 06bd 0B       	 .uleb128 0xb
 2038 06be 64540000 	 .4byte .LASF105
 2039 06c2 09       	 .byte 0x9
 2040 06c3 9902     	 .2byte 0x299
 2041 06c5 08       	 .byte 0x8
 2042 06c6 46010000 	 .4byte 0x146
 2043 06ca CC       	 .byte 0xcc
 2044 06cb 00       	 .byte 0
 2045 06cc 47       	 .uleb128 0x47
 2046 06cd F0       	 .byte 0xf0
ARM GAS   			page 50


 2047 06ce 09       	 .byte 0x9
 2048 06cf 9F02     	 .2byte 0x29f
 2049 06d1 09       	 .byte 0x9
 2050 06d2 F3060000 	 .4byte 0x6f3
 2051 06d6 0B       	 .uleb128 0xb
 2052 06d7 29420000 	 .4byte .LASF106
 2053 06db 09       	 .byte 0x9
 2054 06dc A102     	 .2byte 0x2a1
 2055 06de 1B       	 .byte 0x1b
 2056 06df BD090000 	 .4byte 0x9bd
 2057 06e3 00       	 .byte 0
 2058 06e4 0B       	 .uleb128 0xb
 2059 06e5 C8220000 	 .4byte .LASF107
 2060 06e9 09       	 .byte 0x9
 2061 06ea A202     	 .2byte 0x2a2
 2062 06ec 18       	 .byte 0x18
 2063 06ed CD090000 	 .4byte 0x9cd
 2064 06f1 78       	 .byte 0x78
 2065 06f2 00       	 .byte 0
 2066 06f3 48       	 .uleb128 0x48
 2067 06f4 AB110000 	 .4byte .LASF86
 2068 06f8 09       	 .byte 0x9
 2069 06f9 9A02     	 .2byte 0x29a
 2070 06fb 0B       	 .byte 0xb
 2071 06fc B7050000 	 .4byte 0x5b7
 2072 0700 48       	 .uleb128 0x48
 2073 0701 EA080000 	 .4byte .LASF108
 2074 0705 09       	 .byte 0x9
 2075 0706 A302     	 .2byte 0x2a3
 2076 0708 0B       	 .byte 0xb
 2077 0709 CC060000 	 .4byte 0x6cc
 2078 070d 00       	 .byte 0
 2079 070e 0B       	 .uleb128 0xb
 2080 070f 9A2B0000 	 .4byte .LASF109
 2081 0713 09       	 .byte 0x9
 2082 0714 6702     	 .2byte 0x267
 2083 0716 07       	 .byte 0x7
 2084 0717 46010000 	 .4byte 0x146
 2085 071b 00       	 .byte 0
 2086 071c 0B       	 .uleb128 0xb
 2087 071d A4220000 	 .4byte .LASF110
 2088 0721 09       	 .byte 0x9
 2089 0722 6C02     	 .2byte 0x26c
 2090 0724 0B       	 .byte 0xb
 2091 0725 3E090000 	 .4byte 0x93e
 2092 0729 04       	 .byte 0x4
 2093 072a 0B       	 .uleb128 0xb
 2094 072b AB190000 	 .4byte .LASF111
 2095 072f 09       	 .byte 0x9
 2096 0730 6C02     	 .2byte 0x26c
 2097 0732 14       	 .byte 0x14
 2098 0733 3E090000 	 .4byte 0x93e
 2099 0737 08       	 .byte 0x8
 2100 0738 0B       	 .uleb128 0xb
 2101 0739 15180000 	 .4byte .LASF112
 2102 073d 09       	 .byte 0x9
 2103 073e 6C02     	 .2byte 0x26c
ARM GAS   			page 51


 2104 0740 1E       	 .byte 0x1e
 2105 0741 3E090000 	 .4byte 0x93e
 2106 0745 0C       	 .byte 0xc
 2107 0746 0B       	 .uleb128 0xb
 2108 0747 26050000 	 .4byte .LASF113
 2109 074b 09       	 .byte 0x9
 2110 074c 6E02     	 .2byte 0x26e
 2111 074e 08       	 .byte 0x8
 2112 074f 46010000 	 .4byte 0x146
 2113 0753 10       	 .byte 0x10
 2114 0754 0B       	 .uleb128 0xb
 2115 0755 78410000 	 .4byte .LASF114
 2116 0759 09       	 .byte 0x9
 2117 075a 6F02     	 .2byte 0x26f
 2118 075c 08       	 .byte 0x8
 2119 075d DD090000 	 .4byte 0x9dd
 2120 0761 14       	 .byte 0x14
 2121 0762 0B       	 .uleb128 0xb
 2122 0763 A35D0000 	 .4byte .LASF115
 2123 0767 09       	 .byte 0x9
 2124 0768 7202     	 .2byte 0x272
 2125 076a 07       	 .byte 0x7
 2126 076b 46010000 	 .4byte 0x146
 2127 076f 30       	 .byte 0x30
 2128 0770 0B       	 .uleb128 0xb
 2129 0771 32630000 	 .4byte .LASF116
 2130 0775 09       	 .byte 0x9
 2131 0776 7302     	 .2byte 0x273
 2132 0778 16       	 .byte 0x16
 2133 0779 F2090000 	 .4byte 0x9f2
 2134 077d 34       	 .byte 0x34
 2135 077e 0B       	 .uleb128 0xb
 2136 077f 015E0000 	 .4byte .LASF117
 2137 0783 09       	 .byte 0x9
 2138 0784 7502     	 .2byte 0x275
 2139 0786 07       	 .byte 0x7
 2140 0787 46010000 	 .4byte 0x146
 2141 078b 38       	 .byte 0x38
 2142 078c 0B       	 .uleb128 0xb
 2143 078d A9500000 	 .4byte .LASF118
 2144 0791 09       	 .byte 0x9
 2145 0792 7702     	 .2byte 0x277
 2146 0794 0A       	 .byte 0xa
 2147 0795 030A0000 	 .4byte 0xa03
 2148 0799 3C       	 .byte 0x3c
 2149 079a 0B       	 .uleb128 0xb
 2150 079b 1D180000 	 .4byte .LASF119
 2151 079f 09       	 .byte 0x9
 2152 07a0 7A02     	 .2byte 0x27a
 2153 07a2 13       	 .byte 0x13
 2154 07a3 BB020000 	 .4byte 0x2bb
 2155 07a7 40       	 .byte 0x40
 2156 07a8 0B       	 .uleb128 0xb
 2157 07a9 E7170000 	 .4byte .LASF120
 2158 07ad 09       	 .byte 0x9
 2159 07ae 7B02     	 .2byte 0x27b
 2160 07b0 07       	 .byte 0x7
ARM GAS   			page 52


 2161 07b1 46010000 	 .4byte 0x146
 2162 07b5 44       	 .byte 0x44
 2163 07b6 0B       	 .uleb128 0xb
 2164 07b7 24580000 	 .4byte .LASF121
 2165 07bb 09       	 .byte 0x9
 2166 07bc 7C02     	 .2byte 0x27c
 2167 07be 13       	 .byte 0x13
 2168 07bf BB020000 	 .4byte 0x2bb
 2169 07c3 48       	 .byte 0x48
 2170 07c4 0B       	 .uleb128 0xb
 2171 07c5 683A0000 	 .4byte .LASF122
 2172 07c9 09       	 .byte 0x9
 2173 07ca 7D02     	 .2byte 0x27d
 2174 07cc 14       	 .byte 0x14
 2175 07cd 090A0000 	 .4byte 0xa09
 2176 07d1 4C       	 .byte 0x4c
 2177 07d2 0B       	 .uleb128 0xb
 2178 07d3 76070000 	 .4byte .LASF123
 2179 07d7 09       	 .byte 0x9
 2180 07d8 8002     	 .2byte 0x280
 2181 07da 07       	 .byte 0x7
 2182 07db 46010000 	 .4byte 0x146
 2183 07df 50       	 .byte 0x50
 2184 07e0 0B       	 .uleb128 0xb
 2185 07e1 DB270000 	 .4byte .LASF124
 2186 07e5 09       	 .byte 0x9
 2187 07e6 8102     	 .2byte 0x281
 2188 07e8 09       	 .byte 0x9
 2189 07e9 48080000 	 .4byte 0x848
 2190 07ed 54       	 .byte 0x54
 2191 07ee 0B       	 .uleb128 0xb
 2192 07ef 022B0000 	 .4byte .LASF125
 2193 07f3 09       	 .byte 0x9
 2194 07f4 A402     	 .2byte 0x2a4
 2195 07f6 07       	 .byte 0x7
 2196 07f7 AD050000 	 .4byte 0x5ad
 2197 07fb 58       	 .byte 0x58
 2198 07fc 2C       	 .uleb128 0x2c
 2199 07fd 72020000 	 .4byte .LASF63
 2200 0801 09       	 .byte 0x9
 2201 0802 A802     	 .2byte 0x2a8
 2202 0804 13       	 .byte 0x13
 2203 0805 EC030000 	 .4byte 0x3ec
 2204 0809 4801     	 .2byte 0x148
 2205 080b 2C       	 .uleb128 0x2c
 2206 080c 204B0000 	 .4byte .LASF126
 2207 0810 09       	 .byte 0x9
 2208 0811 A902     	 .2byte 0x2a9
 2209 0813 12       	 .byte 0x12
 2210 0814 A9030000 	 .4byte 0x3a9
 2211 0818 4C01     	 .2byte 0x14c
 2212 081a 2C       	 .uleb128 0x2c
 2213 081b B2070000 	 .4byte .LASF127
 2214 081f 09       	 .byte 0x9
 2215 0820 AD02     	 .2byte 0x2ad
 2216 0822 0C       	 .byte 0xc
 2217 0823 1A0A0000 	 .4byte 0xa1a
ARM GAS   			page 53


 2218 0827 DC02     	 .2byte 0x2dc
 2219 0829 2C       	 .uleb128 0x2c
 2220 082a 76500000 	 .4byte .LASF128
 2221 082e 09       	 .byte 0x9
 2222 082f B202     	 .2byte 0x2b2
 2223 0831 10       	 .byte 0x10
 2224 0832 FF080000 	 .4byte 0x8ff
 2225 0836 E002     	 .2byte 0x2e0
 2226 0838 2C       	 .uleb128 0x2c
 2227 0839 58120000 	 .4byte .LASF129
 2228 083d 09       	 .byte 0x9
 2229 083e B402     	 .2byte 0x2b4
 2230 0840 0A       	 .byte 0xa
 2231 0841 260A0000 	 .4byte 0xa26
 2232 0845 EC02     	 .2byte 0x2ec
 2233 0847 00       	 .byte 0
 2234 0848 09       	 .uleb128 0x9
 2235 0849 04       	 .byte 0x4
 2236 084a 53080000 	 .4byte 0x853
 2237 084e 0A       	 .uleb128 0xa
 2238 084f 48080000 	 .4byte 0x848
 2239 0853 12       	 .uleb128 0x12
 2240 0854 01       	 .byte 0x1
 2241 0855 08       	 .byte 0x8
 2242 0856 A8470000 	 .4byte .LASF130
 2243 085a 0A       	 .uleb128 0xa
 2244 085b 53080000 	 .4byte 0x853
 2245 085f 09       	 .uleb128 0x9
 2246 0860 04       	 .byte 0x4
 2247 0861 7A050000 	 .4byte 0x57a
 2248 0865 2B       	 .uleb128 0x2b
 2249 0866 46010000 	 .4byte 0x146
 2250 086a 83080000 	 .4byte 0x883
 2251 086e 01       	 .uleb128 0x1
 2252 086f 98050000 	 .4byte 0x598
 2253 0873 01       	 .uleb128 0x1
 2254 0874 A5010000 	 .4byte 0x1a5
 2255 0878 01       	 .uleb128 0x1
 2256 0879 83080000 	 .4byte 0x883
 2257 087d 01       	 .uleb128 0x1
 2258 087e 46010000 	 .4byte 0x146
 2259 0882 00       	 .byte 0
 2260 0883 09       	 .uleb128 0x9
 2261 0884 04       	 .byte 0x4
 2262 0885 5A080000 	 .4byte 0x85a
 2263 0889 0A       	 .uleb128 0xa
 2264 088a 83080000 	 .4byte 0x883
 2265 088e 09       	 .uleb128 0x9
 2266 088f 04       	 .byte 0x4
 2267 0890 65080000 	 .4byte 0x865
 2268 0894 2B       	 .uleb128 0x2b
 2269 0895 C0010000 	 .4byte 0x1c0
 2270 0899 B2080000 	 .4byte 0x8b2
 2271 089d 01       	 .uleb128 0x1
 2272 089e 98050000 	 .4byte 0x598
 2273 08a2 01       	 .uleb128 0x1
 2274 08a3 A5010000 	 .4byte 0x1a5
ARM GAS   			page 54


 2275 08a7 01       	 .uleb128 0x1
 2276 08a8 C0010000 	 .4byte 0x1c0
 2277 08ac 01       	 .uleb128 0x1
 2278 08ad 46010000 	 .4byte 0x146
 2279 08b1 00       	 .byte 0
 2280 08b2 09       	 .uleb128 0x9
 2281 08b3 04       	 .byte 0x4
 2282 08b4 94080000 	 .4byte 0x894
 2283 08b8 2B       	 .uleb128 0x2b
 2284 08b9 46010000 	 .4byte 0x146
 2285 08bd CC080000 	 .4byte 0x8cc
 2286 08c1 01       	 .uleb128 0x1
 2287 08c2 98050000 	 .4byte 0x598
 2288 08c6 01       	 .uleb128 0x1
 2289 08c7 A5010000 	 .4byte 0x1a5
 2290 08cb 00       	 .byte 0
 2291 08cc 09       	 .uleb128 0x9
 2292 08cd 04       	 .byte 0x4
 2293 08ce B8080000 	 .4byte 0x8b8
 2294 08d2 0F       	 .uleb128 0xf
 2295 08d3 44000000 	 .4byte 0x44
 2296 08d7 E2080000 	 .4byte 0x8e2
 2297 08db 10       	 .uleb128 0x10
 2298 08dc 5E010000 	 .4byte 0x15e
 2299 08e0 02       	 .byte 0x2
 2300 08e1 00       	 .byte 0
 2301 08e2 0F       	 .uleb128 0xf
 2302 08e3 44000000 	 .4byte 0x44
 2303 08e7 F2080000 	 .4byte 0x8f2
 2304 08eb 10       	 .uleb128 0x10
 2305 08ec 5E010000 	 .4byte 0x15e
 2306 08f0 00       	 .byte 0
 2307 08f1 00       	 .byte 0
 2308 08f2 17       	 .uleb128 0x17
 2309 08f3 51660000 	 .4byte .LASF131
 2310 08f7 09       	 .byte 0x9
 2311 08f8 2401     	 .2byte 0x124
 2312 08fa 1A       	 .byte 0x1a
 2313 08fb 37040000 	 .4byte 0x437
 2314 08ff 33       	 .uleb128 0x33
 2315 0900 1E480000 	 .4byte .LASF132
 2316 0904 0C       	 .byte 0xc
 2317 0905 09       	 .byte 0x9
 2318 0906 2801     	 .2byte 0x128
 2319 0908 08       	 .byte 0x8
 2320 0909 38090000 	 .4byte 0x938
 2321 090d 0B       	 .uleb128 0xb
 2322 090e 402E0000 	 .4byte .LASF43
 2323 0912 09       	 .byte 0x9
 2324 0913 2A01     	 .2byte 0x12a
 2325 0915 11       	 .byte 0x11
 2326 0916 38090000 	 .4byte 0x938
 2327 091a 00       	 .byte 0
 2328 091b 0B       	 .uleb128 0xb
 2329 091c 682B0000 	 .4byte .LASF133
 2330 0920 09       	 .byte 0x9
 2331 0921 2B01     	 .2byte 0x12b
ARM GAS   			page 55


 2332 0923 07       	 .byte 0x7
 2333 0924 46010000 	 .4byte 0x146
 2334 0928 04       	 .byte 0x4
 2335 0929 0B       	 .uleb128 0xb
 2336 092a 72410000 	 .4byte .LASF134
 2337 092e 09       	 .byte 0x9
 2338 092f 2C01     	 .2byte 0x12c
 2339 0931 0B       	 .byte 0xb
 2340 0932 3E090000 	 .4byte 0x93e
 2341 0936 08       	 .byte 0x8
 2342 0937 00       	 .byte 0
 2343 0938 09       	 .uleb128 0x9
 2344 0939 04       	 .byte 0x4
 2345 093a FF080000 	 .4byte 0x8ff
 2346 093e 09       	 .uleb128 0x9
 2347 093f 04       	 .byte 0x4
 2348 0940 F2080000 	 .4byte 0x8f2
 2349 0944 33       	 .uleb128 0x33
 2350 0945 186B0000 	 .4byte .LASF135
 2351 0949 0E       	 .byte 0xe
 2352 094a 09       	 .byte 0x9
 2353 094b 4401     	 .2byte 0x144
 2354 094d 08       	 .byte 0x8
 2355 094e 7D090000 	 .4byte 0x97d
 2356 0952 0B       	 .uleb128 0xb
 2357 0953 D0360000 	 .4byte .LASF136
 2358 0957 09       	 .byte 0x9
 2359 0958 4501     	 .2byte 0x145
 2360 095a 12       	 .byte 0x12
 2361 095b 7D090000 	 .4byte 0x97d
 2362 095f 00       	 .byte 0
 2363 0960 0B       	 .uleb128 0xb
 2364 0961 D31F0000 	 .4byte .LASF137
 2365 0965 09       	 .byte 0x9
 2366 0966 4601     	 .2byte 0x146
 2367 0968 12       	 .byte 0x12
 2368 0969 7D090000 	 .4byte 0x97d
 2369 096d 06       	 .byte 0x6
 2370 096e 0B       	 .uleb128 0xb
 2371 096f F70B0000 	 .4byte .LASF138
 2372 0973 09       	 .byte 0x9
 2373 0974 4701     	 .2byte 0x147
 2374 0976 12       	 .byte 0x12
 2375 0977 6A000000 	 .4byte 0x6a
 2376 097b 0C       	 .byte 0xc
 2377 097c 00       	 .byte 0
 2378 097d 0F       	 .uleb128 0xf
 2379 097e 6A000000 	 .4byte 0x6a
 2380 0982 8D090000 	 .4byte 0x98d
 2381 0986 10       	 .uleb128 0x10
 2382 0987 5E010000 	 .4byte 0x15e
 2383 098b 02       	 .byte 0x2
 2384 098c 00       	 .byte 0
 2385 098d 0F       	 .uleb128 0xf
 2386 098e 53080000 	 .4byte 0x853
 2387 0992 9D090000 	 .4byte 0x99d
 2388 0996 10       	 .uleb128 0x10
ARM GAS   			page 56


 2389 0997 5E010000 	 .4byte 0x15e
 2390 099b 19       	 .byte 0x19
 2391 099c 00       	 .byte 0
 2392 099d 0F       	 .uleb128 0xf
 2393 099e 53080000 	 .4byte 0x853
 2394 09a2 AD090000 	 .4byte 0x9ad
 2395 09a6 10       	 .uleb128 0x10
 2396 09a7 5E010000 	 .4byte 0x15e
 2397 09ab 07       	 .byte 0x7
 2398 09ac 00       	 .byte 0
 2399 09ad 0F       	 .uleb128 0xf
 2400 09ae 53080000 	 .4byte 0x853
 2401 09b2 BD090000 	 .4byte 0x9bd
 2402 09b6 10       	 .uleb128 0x10
 2403 09b7 5E010000 	 .4byte 0x15e
 2404 09bb 17       	 .byte 0x17
 2405 09bc 00       	 .byte 0
 2406 09bd 0F       	 .uleb128 0xf
 2407 09be 31040000 	 .4byte 0x431
 2408 09c2 CD090000 	 .4byte 0x9cd
 2409 09c6 10       	 .uleb128 0x10
 2410 09c7 5E010000 	 .4byte 0x15e
 2411 09cb 1D       	 .byte 0x1d
 2412 09cc 00       	 .byte 0
 2413 09cd 0F       	 .uleb128 0xf
 2414 09ce 5E010000 	 .4byte 0x15e
 2415 09d2 DD090000 	 .4byte 0x9dd
 2416 09d6 10       	 .uleb128 0x10
 2417 09d7 5E010000 	 .4byte 0x15e
 2418 09db 1D       	 .byte 0x1d
 2419 09dc 00       	 .byte 0
 2420 09dd 0F       	 .uleb128 0xf
 2421 09de 53080000 	 .4byte 0x853
 2422 09e2 ED090000 	 .4byte 0x9ed
 2423 09e6 10       	 .uleb128 0x10
 2424 09e7 5E010000 	 .4byte 0x15e
 2425 09eb 18       	 .byte 0x18
 2426 09ec 00       	 .byte 0
 2427 09ed 44       	 .uleb128 0x44
 2428 09ee 7E500000 	 .4byte .LASF140
 2429 09f2 09       	 .uleb128 0x9
 2430 09f3 04       	 .byte 0x4
 2431 09f4 ED090000 	 .4byte 0x9ed
 2432 09f8 49       	 .uleb128 0x49
 2433 09f9 030A0000 	 .4byte 0xa03
 2434 09fd 01       	 .uleb128 0x1
 2435 09fe 98050000 	 .4byte 0x598
 2436 0a02 00       	 .byte 0
 2437 0a03 09       	 .uleb128 0x9
 2438 0a04 04       	 .byte 0x4
 2439 0a05 F8090000 	 .4byte 0x9f8
 2440 0a09 09       	 .uleb128 0x9
 2441 0a0a 04       	 .byte 0x4
 2442 0a0b BB020000 	 .4byte 0x2bb
 2443 0a0f 49       	 .uleb128 0x49
 2444 0a10 1A0A0000 	 .4byte 0xa1a
 2445 0a14 01       	 .uleb128 0x1
ARM GAS   			page 57


 2446 0a15 46010000 	 .4byte 0x146
 2447 0a19 00       	 .byte 0
 2448 0a1a 09       	 .uleb128 0x9
 2449 0a1b 04       	 .byte 0x4
 2450 0a1c 200A0000 	 .4byte 0xa20
 2451 0a20 09       	 .uleb128 0x9
 2452 0a21 04       	 .byte 0x4
 2453 0a22 0F0A0000 	 .4byte 0xa0f
 2454 0a26 0F       	 .uleb128 0xf
 2455 0a27 F2080000 	 .4byte 0x8f2
 2456 0a2b 360A0000 	 .4byte 0xa36
 2457 0a2f 10       	 .uleb128 0x10
 2458 0a30 5E010000 	 .4byte 0x15e
 2459 0a34 02       	 .byte 0x2
 2460 0a35 00       	 .byte 0
 2461 0a36 06       	 .uleb128 0x6
 2462 0a37 49350000 	 .4byte .LASF141
 2463 0a3b 0B       	 .byte 0xb
 2464 0a3c 14       	 .byte 0x14
 2465 0a3d 12       	 .byte 0x12
 2466 0a3e 25000000 	 .4byte 0x25
 2467 0a42 06       	 .uleb128 0x6
 2468 0a43 00260000 	 .4byte .LASF142
 2469 0a47 0B       	 .byte 0xb
 2470 0a48 18       	 .byte 0x18
 2471 0a49 13       	 .byte 0x13
 2472 0a4a 38000000 	 .4byte 0x38
 2473 0a4e 06       	 .uleb128 0x6
 2474 0a4f 66370000 	 .4byte .LASF143
 2475 0a53 0B       	 .byte 0xb
 2476 0a54 20       	 .byte 0x20
 2477 0a55 13       	 .byte 0x13
 2478 0a56 4B000000 	 .4byte 0x4b
 2479 0a5a 06       	 .uleb128 0x6
 2480 0a5b 88050000 	 .4byte .LASF144
 2481 0a5f 0B       	 .byte 0xb
 2482 0a60 24       	 .byte 0x24
 2483 0a61 14       	 .byte 0x14
 2484 0a62 5E000000 	 .4byte 0x5e
 2485 0a66 06       	 .uleb128 0x6
 2486 0a67 C80B0000 	 .4byte .LASF145
 2487 0a6b 0B       	 .byte 0xb
 2488 0a6c 2C       	 .byte 0x2c
 2489 0a6d 13       	 .byte 0x13
 2490 0a6e 71000000 	 .4byte 0x71
 2491 0a72 06       	 .uleb128 0x6
 2492 0a73 F6420000 	 .4byte .LASF146
 2493 0a77 0B       	 .byte 0xb
 2494 0a78 30       	 .byte 0x30
 2495 0a79 14       	 .byte 0x14
 2496 0a7a 84000000 	 .4byte 0x84
 2497 0a7e 06       	 .uleb128 0x6
 2498 0a7f 66510000 	 .4byte .LASF147
 2499 0a83 0B       	 .byte 0xb
 2500 0a84 38       	 .byte 0x38
 2501 0a85 13       	 .byte 0x13
 2502 0a86 9C000000 	 .4byte 0x9c
ARM GAS   			page 58


 2503 0a8a 06       	 .uleb128 0x6
 2504 0a8b 171D0000 	 .4byte .LASF148
 2505 0a8f 0B       	 .byte 0xb
 2506 0a90 3C       	 .byte 0x3c
 2507 0a91 14       	 .byte 0x14
 2508 0a92 AF000000 	 .4byte 0xaf
 2509 0a96 06       	 .uleb128 0x6
 2510 0a97 D00B0000 	 .4byte .LASF149
 2511 0a9b 0B       	 .byte 0xb
 2512 0a9c 43       	 .byte 0x43
 2513 0a9d 14       	 .byte 0x14
 2514 0a9e 22010000 	 .4byte 0x122
 2515 0aa2 06       	 .uleb128 0x6
 2516 0aa3 F30C0000 	 .4byte .LASF150
 2517 0aa7 0B       	 .byte 0xb
 2518 0aa8 48       	 .byte 0x48
 2519 0aa9 15       	 .byte 0x15
 2520 0aaa 2E010000 	 .4byte 0x12e
 2521 0aae 06       	 .uleb128 0x6
 2522 0aaf 8E420000 	 .4byte .LASF151
 2523 0ab3 0B       	 .byte 0xb
 2524 0ab4 4D       	 .byte 0x4d
 2525 0ab5 14       	 .byte 0x14
 2526 0ab6 3A010000 	 .4byte 0x13a
 2527 0aba 06       	 .uleb128 0x6
 2528 0abb 81440000 	 .4byte .LASF152
 2529 0abf 0B       	 .byte 0xb
 2530 0ac0 52       	 .byte 0x52
 2531 0ac1 15       	 .byte 0x15
 2532 0ac2 52010000 	 .4byte 0x152
 2533 0ac6 06       	 .uleb128 0x6
 2534 0ac7 55240000 	 .4byte .LASF153
 2535 0acb 0C       	 .byte 0xc
 2536 0acc 42       	 .byte 0x42
 2537 0acd 10       	 .byte 0x10
 2538 0ace F2080000 	 .4byte 0x8f2
 2539 0ad2 06       	 .uleb128 0x6
 2540 0ad3 49020000 	 .4byte .LASF154
 2541 0ad7 0C       	 .byte 0xc
 2542 0ad8 49       	 .byte 0x49
 2543 0ad9 11       	 .byte 0x11
 2544 0ada C0010000 	 .4byte 0x1c0
 2545 0ade 0A       	 .uleb128 0xa
 2546 0adf D20A0000 	 .4byte 0xad2
 2547 0ae3 06       	 .uleb128 0x6
 2548 0ae4 0C300000 	 .4byte .LASF155
 2549 0ae8 0D       	 .byte 0xd
 2550 0ae9 15       	 .byte 0x15
 2551 0aea 18       	 .byte 0x18
 2552 0aeb C2000000 	 .4byte 0xc2
 2553 0aef 06       	 .uleb128 0x6
 2554 0af0 62520000 	 .4byte .LASF156
 2555 0af4 0D       	 .byte 0xd
 2556 0af5 16       	 .byte 0x16
 2557 0af6 19       	 .byte 0x19
 2558 0af7 CE000000 	 .4byte 0xce
 2559 0afb 06       	 .uleb128 0x6
ARM GAS   			page 59


 2560 0afc 66640000 	 .4byte .LASF157
 2561 0b00 0D       	 .byte 0xd
 2562 0b01 1B       	 .byte 0x1b
 2563 0b02 19       	 .byte 0x19
 2564 0b03 DA000000 	 .4byte 0xda
 2565 0b07 06       	 .uleb128 0x6
 2566 0b08 B0480000 	 .4byte .LASF158
 2567 0b0c 0D       	 .byte 0xd
 2568 0b0d 1C       	 .byte 0x1c
 2569 0b0e 1A       	 .byte 0x1a
 2570 0b0f E6000000 	 .4byte 0xe6
 2571 0b13 06       	 .uleb128 0x6
 2572 0b14 DE350000 	 .4byte .LASF159
 2573 0b18 0D       	 .byte 0xd
 2574 0b19 21       	 .byte 0x21
 2575 0b1a 19       	 .byte 0x19
 2576 0b1b F2000000 	 .4byte 0xf2
 2577 0b1f 06       	 .uleb128 0x6
 2578 0b20 8B1B0000 	 .4byte .LASF160
 2579 0b24 0D       	 .byte 0xd
 2580 0b25 22       	 .byte 0x22
 2581 0b26 1A       	 .byte 0x1a
 2582 0b27 FE000000 	 .4byte 0xfe
 2583 0b2b 06       	 .uleb128 0x6
 2584 0b2c 530F0000 	 .4byte .LASF161
 2585 0b30 0D       	 .byte 0xd
 2586 0b31 27       	 .byte 0x27
 2587 0b32 19       	 .byte 0x19
 2588 0b33 0A010000 	 .4byte 0x10a
 2589 0b37 06       	 .uleb128 0x6
 2590 0b38 EC2E0000 	 .4byte .LASF162
 2591 0b3c 0D       	 .byte 0xd
 2592 0b3d 28       	 .byte 0x28
 2593 0b3e 1A       	 .byte 0x1a
 2594 0b3f 16010000 	 .4byte 0x116
 2595 0b43 06       	 .uleb128 0x6
 2596 0b44 E25D0000 	 .4byte .LASF163
 2597 0b48 0D       	 .byte 0xd
 2598 0b49 33       	 .byte 0x33
 2599 0b4a 1E       	 .byte 0x1e
 2600 0b4b 46010000 	 .4byte 0x146
 2601 0b4f 06       	 .uleb128 0x6
 2602 0b50 156A0000 	 .4byte .LASF164
 2603 0b54 0D       	 .byte 0xd
 2604 0b55 34       	 .byte 0x34
 2605 0b56 1F       	 .byte 0x1f
 2606 0b57 5E010000 	 .4byte 0x15e
 2607 0b5b 06       	 .uleb128 0x6
 2608 0b5c 810F0000 	 .4byte .LASF165
 2609 0b60 0D       	 .byte 0xd
 2610 0b61 3D       	 .byte 0x3d
 2611 0b62 1F       	 .byte 0x1f
 2612 0b63 46010000 	 .4byte 0x146
 2613 0b67 06       	 .uleb128 0x6
 2614 0b68 D0350000 	 .4byte .LASF166
 2615 0b6c 0D       	 .byte 0xd
 2616 0b6d 3E       	 .byte 0x3e
ARM GAS   			page 60


 2617 0b6e 20       	 .byte 0x20
 2618 0b6f 5E010000 	 .4byte 0x15e
 2619 0b73 06       	 .uleb128 0x6
 2620 0b74 4D050000 	 .4byte .LASF167
 2621 0b78 0D       	 .byte 0xd
 2622 0b79 47       	 .byte 0x47
 2623 0b7a 1F       	 .byte 0x1f
 2624 0b7b 46010000 	 .4byte 0x146
 2625 0b7f 06       	 .uleb128 0x6
 2626 0b80 72080000 	 .4byte .LASF168
 2627 0b84 0D       	 .byte 0xd
 2628 0b85 48       	 .byte 0x48
 2629 0b86 20       	 .byte 0x20
 2630 0b87 5E010000 	 .4byte 0x15e
 2631 0b8b 06       	 .uleb128 0x6
 2632 0b8c 784A0000 	 .4byte .LASF169
 2633 0b90 0D       	 .byte 0xd
 2634 0b91 51       	 .byte 0x51
 2635 0b92 1F       	 .byte 0x1f
 2636 0b93 A8000000 	 .4byte 0xa8
 2637 0b97 06       	 .uleb128 0x6
 2638 0b98 8D4C0000 	 .4byte .LASF170
 2639 0b9c 0D       	 .byte 0xd
 2640 0b9d 52       	 .byte 0x52
 2641 0b9e 20       	 .byte 0x20
 2642 0b9f BB000000 	 .4byte 0xbb
 2643 0ba3 63       	 .uleb128 0x63
 2644 0ba4 73746400 	 .ascii "std\000"
 2645 0ba8 22       	 .byte 0x22
 2646 0ba9 00       	 .byte 0
 2647 0baa B6440000 	 .4byte 0x44b6
 2648 0bae 4A       	 .uleb128 0x4a
 2649 0baf CB690000 	 .4byte .LASF724
 2650 0bb3 13       	 .byte 0x13
 2651 0bb4 1E01     	 .2byte 0x11e
 2652 0bb6 41       	 .byte 0x41
 2653 0bb7 2A260000 	 .4byte 0x262a
 2654 0bbb 24       	 .uleb128 0x24
 2655 0bbc CD4D0000 	 .4byte .LASF641
 2656 0bc0 18       	 .byte 0x18
 2657 0bc1 0E       	 .byte 0xe
 2658 0bc2 55       	 .byte 0x55
 2659 0bc3 0B       	 .byte 0xb
 2660 0bc4 24260000 	 .4byte 0x2624
 2661 0bc8 1A       	 .uleb128 0x1a
 2662 0bc9 5D120000 	 .4byte .LASF171
 2663 0bcd 04       	 .byte 0x4
 2664 0bce 0E       	 .byte 0xe
 2665 0bcf 9E       	 .byte 0x9e
 2666 0bd0 0E       	 .byte 0xe
 2667 0bd1 390C0000 	 .4byte 0xc39
 2668 0bd5 4B       	 .uleb128 0x4b
 2669 0bd6 843F0000 	 .4byte 0x3f84
 2670 0bda 00       	 .byte 0
 2671 0bdb 1C       	 .uleb128 0x1c
 2672 0bdc 5D120000 	 .4byte .LASF171
 2673 0be0 0E       	 .byte 0xe
ARM GAS   			page 61


 2674 0be1 A4       	 .byte 0xa4
 2675 0be2 02       	 .byte 0x2
 2676 0be3 36060000 	 .4byte .LASF172
 2677 0be7 8F610000 	 .4byte 0x618f
 2678 0beb F30B0000 	 .4byte 0xbf3
 2679 0bef 030C0000 	 .4byte 0xc03
 2680 0bf3 03       	 .uleb128 0x3
 2681 0bf4 8F610000 	 .4byte 0x618f
 2682 0bf8 01       	 .uleb128 0x1
 2683 0bf9 390C0000 	 .4byte 0xc39
 2684 0bfd 01       	 .uleb128 0x1
 2685 0bfe B85A0000 	 .4byte 0x5ab8
 2686 0c02 00       	 .byte 0
 2687 0c03 1C       	 .uleb128 0x1c
 2688 0c04 5D120000 	 .4byte .LASF171
 2689 0c08 0E       	 .byte 0xe
 2690 0c09 A7       	 .byte 0xa7
 2691 0c0a 02       	 .byte 0x2
 2692 0c0b 97420000 	 .4byte .LASF173
 2693 0c0f 8F610000 	 .4byte 0x618f
 2694 0c13 1B0C0000 	 .4byte 0xc1b
 2695 0c17 2B0C0000 	 .4byte 0xc2b
 2696 0c1b 03       	 .uleb128 0x3
 2697 0c1c 8F610000 	 .4byte 0x618f
 2698 0c20 01       	 .uleb128 0x1
 2699 0c21 390C0000 	 .4byte 0xc39
 2700 0c25 01       	 .uleb128 0x1
 2701 0c26 95610000 	 .4byte 0x6195
 2702 0c2a 00       	 .byte 0
 2703 0c2b 08       	 .uleb128 0x8
 2704 0c2c B50A0000 	 .4byte .LASF174
 2705 0c30 0E       	 .byte 0xe
 2706 0c31 AB       	 .byte 0xab
 2707 0c32 0A       	 .byte 0xa
 2708 0c33 390C0000 	 .4byte 0xc39
 2709 0c37 00       	 .byte 0
 2710 0c38 00       	 .byte 0
 2711 0c39 11       	 .uleb128 0x11
 2712 0c3a 40360000 	 .4byte .LASF177
 2713 0c3e 0E       	 .byte 0xe
 2714 0c3f 64       	 .byte 0x64
 2715 0c40 30       	 .byte 0x30
 2716 0c41 AE470000 	 .4byte 0x47ae
 2717 0c45 01       	 .byte 0x1
 2718 0c46 43       	 .uleb128 0x43
 2719 0c47 10       	 .byte 0x10
 2720 0c48 0E       	 .byte 0xe
 2721 0c49 B4       	 .byte 0xb4
 2722 0c4a 07       	 .byte 0x7
 2723 0c4b 680C0000 	 .4byte 0xc68
 2724 0c4f 32       	 .uleb128 0x32
 2725 0c50 28550000 	 .4byte .LASF175
 2726 0c54 0E       	 .byte 0xe
 2727 0c55 B5       	 .byte 0xb5
 2728 0c56 13       	 .byte 0x13
 2729 0c57 9B610000 	 .4byte 0x619b
 2730 0c5b 32       	 .uleb128 0x32
ARM GAS   			page 62


 2731 0c5c 35580000 	 .4byte .LASF176
 2732 0c60 0E       	 .byte 0xe
 2733 0c61 B6       	 .byte 0xb6
 2734 0c62 13       	 .byte 0x13
 2735 0c63 680C0000 	 .4byte 0xc68
 2736 0c67 00       	 .byte 0
 2737 0c68 11       	 .uleb128 0x11
 2738 0c69 341E0000 	 .4byte .LASF178
 2739 0c6d 0E       	 .byte 0xe
 2740 0c6e 60       	 .byte 0x60
 2741 0c6f 32       	 .byte 0x32
 2742 0c70 C6470000 	 .4byte 0x47c6
 2743 0c74 01       	 .byte 0x1
 2744 0c75 0A       	 .uleb128 0xa
 2745 0c76 680C0000 	 .4byte 0xc68
 2746 0c7a 64       	 .uleb128 0x64
 2747 0c7b 206B0000 	 .4byte .LASF1090
 2748 0c7f 0E       	 .byte 0xe
 2749 0c80 6D       	 .byte 0x6d
 2750 0c81 1E       	 .byte 0x1e
 2751 0c82 750C0000 	 .4byte 0xc75
 2752 0c86 01       	 .byte 0x1
 2753 0c87 08       	 .uleb128 0x8
 2754 0c88 51470000 	 .4byte .LASF179
 2755 0c8c 0E       	 .byte 0xe
 2756 0c8d AE       	 .byte 0xae
 2757 0c8e 14       	 .byte 0x14
 2758 0c8f C80B0000 	 .4byte 0xbc8
 2759 0c93 00       	 .byte 0
 2760 0c94 08       	 .uleb128 0x8
 2761 0c95 FD530000 	 .4byte .LASF180
 2762 0c99 0E       	 .byte 0xe
 2763 0c9a AF       	 .byte 0xaf
 2764 0c9b 12       	 .byte 0x12
 2765 0c9c 680C0000 	 .4byte 0xc68
 2766 0ca0 04       	 .byte 0x4
 2767 0ca1 65       	 .uleb128 0x65
 2768 0ca2 460C0000 	 .4byte 0xc46
 2769 0ca6 08       	 .byte 0x8
 2770 0ca7 21       	 .uleb128 0x21
 2771 0ca8 D83D0000 	 .4byte .LASF181
 2772 0cac 0E       	 .byte 0xe
 2773 0cad BA       	 .byte 0xba
 2774 0cae 07       	 .byte 0x7
 2775 0caf 6E210000 	 .4byte .LASF183
 2776 0cb3 BB0C0000 	 .4byte 0xcbb
 2777 0cb7 C60C0000 	 .4byte 0xcc6
 2778 0cbb 03       	 .uleb128 0x3
 2779 0cbc AB610000 	 .4byte 0x61ab
 2780 0cc0 01       	 .uleb128 0x1
 2781 0cc1 390C0000 	 .4byte 0xc39
 2782 0cc5 00       	 .byte 0
 2783 0cc6 21       	 .uleb128 0x21
 2784 0cc7 7B510000 	 .4byte .LASF182
 2785 0ccb 0E       	 .byte 0xe
 2786 0ccc BE       	 .byte 0xbe
 2787 0ccd 07       	 .byte 0x7
ARM GAS   			page 63


 2788 0cce AA650000 	 .4byte .LASF184
 2789 0cd2 DA0C0000 	 .4byte 0xcda
 2790 0cd6 E50C0000 	 .4byte 0xce5
 2791 0cda 03       	 .uleb128 0x3
 2792 0cdb AB610000 	 .4byte 0x61ab
 2793 0cdf 01       	 .uleb128 0x1
 2794 0ce0 680C0000 	 .4byte 0xc68
 2795 0ce4 00       	 .byte 0
 2796 0ce5 1C       	 .uleb128 0x1c
 2797 0ce6 D83D0000 	 .4byte .LASF181
 2798 0cea 0E       	 .byte 0xe
 2799 0ceb C2       	 .byte 0xc2
 2800 0cec 07       	 .byte 0x7
 2801 0ced A4460000 	 .4byte .LASF185
 2802 0cf1 390C0000 	 .4byte 0xc39
 2803 0cf5 FD0C0000 	 .4byte 0xcfd
 2804 0cf9 030D0000 	 .4byte 0xd03
 2805 0cfd 03       	 .uleb128 0x3
 2806 0cfe B1610000 	 .4byte 0x61b1
 2807 0d02 00       	 .byte 0
 2808 0d03 1C       	 .uleb128 0x1c
 2809 0d04 21070000 	 .4byte .LASF186
 2810 0d08 0E       	 .byte 0xe
 2811 0d09 C6       	 .byte 0xc6
 2812 0d0a 07       	 .byte 0x7
 2813 0d0b 073B0000 	 .4byte .LASF187
 2814 0d0f 390C0000 	 .4byte 0xc39
 2815 0d13 1B0D0000 	 .4byte 0xd1b
 2816 0d17 210D0000 	 .4byte 0xd21
 2817 0d1b 03       	 .uleb128 0x3
 2818 0d1c AB610000 	 .4byte 0x61ab
 2819 0d20 00       	 .byte 0
 2820 0d21 11       	 .uleb128 0x11
 2821 0d22 85070000 	 .4byte .LASF188
 2822 0d26 0E       	 .byte 0xe
 2823 0d27 65       	 .byte 0x65
 2824 0d28 35       	 .byte 0x35
 2825 0d29 BA470000 	 .4byte 0x47ba
 2826 0d2d 01       	 .byte 0x1
 2827 0d2e 1C       	 .uleb128 0x1c
 2828 0d2f 21070000 	 .4byte .LASF186
 2829 0d33 0E       	 .byte 0xe
 2830 0d34 D0       	 .byte 0xd0
 2831 0d35 07       	 .byte 0x7
 2832 0d36 A34C0000 	 .4byte .LASF189
 2833 0d3a 210D0000 	 .4byte 0xd21
 2834 0d3e 460D0000 	 .4byte 0xd46
 2835 0d42 4C0D0000 	 .4byte 0xd4c
 2836 0d46 03       	 .uleb128 0x3
 2837 0d47 B1610000 	 .4byte 0x61b1
 2838 0d4b 00       	 .byte 0
 2839 0d4c 21       	 .uleb128 0x21
 2840 0d4d 904A0000 	 .4byte .LASF190
 2841 0d51 0E       	 .byte 0xe
 2842 0d52 DA       	 .byte 0xda
 2843 0d53 07       	 .byte 0x7
 2844 0d54 49420000 	 .4byte .LASF191
ARM GAS   			page 64


 2845 0d58 600D0000 	 .4byte 0xd60
 2846 0d5c 6B0D0000 	 .4byte 0xd6b
 2847 0d60 03       	 .uleb128 0x3
 2848 0d61 AB610000 	 .4byte 0x61ab
 2849 0d65 01       	 .uleb128 0x1
 2850 0d66 680C0000 	 .4byte 0xc68
 2851 0d6a 00       	 .byte 0
 2852 0d6b 21       	 .uleb128 0x21
 2853 0d6c F36A0000 	 .4byte .LASF192
 2854 0d70 0E       	 .byte 0xe
 2855 0d71 DE       	 .byte 0xde
 2856 0d72 07       	 .byte 0x7
 2857 0d73 9F2E0000 	 .4byte .LASF193
 2858 0d77 7F0D0000 	 .4byte 0xd7f
 2859 0d7b 8A0D0000 	 .4byte 0xd8a
 2860 0d7f 03       	 .uleb128 0x3
 2861 0d80 AB610000 	 .4byte 0x61ab
 2862 0d84 01       	 .uleb128 0x1
 2863 0d85 680C0000 	 .4byte 0xc68
 2864 0d89 00       	 .byte 0
 2865 0d8a 1C       	 .uleb128 0x1c
 2866 0d8b 62350000 	 .4byte .LASF194
 2867 0d8f 0E       	 .byte 0xe
 2868 0d90 E5       	 .byte 0xe5
 2869 0d91 07       	 .byte 0x7
 2870 0d92 11620000 	 .4byte .LASF195
 2871 0d96 4C4F0000 	 .4byte 0x4f4c
 2872 0d9a A20D0000 	 .4byte 0xda2
 2873 0d9e A80D0000 	 .4byte 0xda8
 2874 0da2 03       	 .uleb128 0x3
 2875 0da3 B1610000 	 .4byte 0x61b1
 2876 0da7 00       	 .byte 0
 2877 0da8 1C       	 .uleb128 0x1c
 2878 0da9 19110000 	 .4byte .LASF196
 2879 0dad 0E       	 .byte 0xe
 2880 0dae EA       	 .byte 0xea
 2881 0daf 07       	 .byte 0x7
 2882 0db0 E2040000 	 .4byte .LASF197
 2883 0db4 390C0000 	 .4byte 0xc39
 2884 0db8 C00D0000 	 .4byte 0xdc0
 2885 0dbc D00D0000 	 .4byte 0xdd0
 2886 0dc0 03       	 .uleb128 0x3
 2887 0dc1 AB610000 	 .4byte 0x61ab
 2888 0dc5 01       	 .uleb128 0x1
 2889 0dc6 B7610000 	 .4byte 0x61b7
 2890 0dca 01       	 .uleb128 0x1
 2891 0dcb 680C0000 	 .4byte 0xc68
 2892 0dcf 00       	 .byte 0
 2893 0dd0 21       	 .uleb128 0x21
 2894 0dd1 335A0000 	 .4byte .LASF198
 2895 0dd5 0E       	 .byte 0xe
 2896 0dd6 ED       	 .byte 0xed
 2897 0dd7 07       	 .byte 0x7
 2898 0dd8 9B090000 	 .4byte .LASF199
 2899 0ddc E40D0000 	 .4byte 0xde4
 2900 0de0 EA0D0000 	 .4byte 0xdea
 2901 0de4 03       	 .uleb128 0x3
ARM GAS   			page 65


 2902 0de5 AB610000 	 .4byte 0x61ab
 2903 0de9 00       	 .byte 0
 2904 0dea 21       	 .uleb128 0x21
 2905 0deb D5120000 	 .4byte .LASF200
 2906 0def 0E       	 .byte 0xe
 2907 0df0 F4       	 .byte 0xf4
 2908 0df1 07       	 .byte 0x7
 2909 0df2 32230000 	 .4byte .LASF201
 2910 0df6 FE0D0000 	 .4byte 0xdfe
 2911 0dfa 090E0000 	 .4byte 0xe09
 2912 0dfe 03       	 .uleb128 0x3
 2913 0dff AB610000 	 .4byte 0x61ab
 2914 0e03 01       	 .uleb128 0x1
 2915 0e04 680C0000 	 .4byte 0xc68
 2916 0e08 00       	 .byte 0
 2917 0e09 25       	 .uleb128 0x25
 2918 0e0a 94300000 	 .4byte .LASF202
 2919 0e0e 0E       	 .byte 0xe
 2920 0e0f 0A01     	 .2byte 0x10a
 2921 0e11 07       	 .byte 0x7
 2922 0e12 4C3F0000 	 .4byte .LASF204
 2923 0e16 1E0E0000 	 .4byte 0xe1e
 2924 0e1a 2E0E0000 	 .4byte 0xe2e
 2925 0e1e 03       	 .uleb128 0x3
 2926 0e1f AB610000 	 .4byte 0x61ab
 2927 0e23 01       	 .uleb128 0x1
 2928 0e24 680C0000 	 .4byte 0xc68
 2929 0e28 01       	 .uleb128 0x1
 2930 0e29 53080000 	 .4byte 0x853
 2931 0e2d 00       	 .byte 0
 2932 0e2e 25       	 .uleb128 0x25
 2933 0e2f 3E0C0000 	 .4byte .LASF203
 2934 0e33 0E       	 .byte 0xe
 2935 0e34 2301     	 .2byte 0x123
 2936 0e36 07       	 .byte 0x7
 2937 0e37 465D0000 	 .4byte .LASF205
 2938 0e3b 430E0000 	 .4byte 0xe43
 2939 0e3f 530E0000 	 .4byte 0xe53
 2940 0e43 03       	 .uleb128 0x3
 2941 0e44 AB610000 	 .4byte 0x61ab
 2942 0e48 01       	 .uleb128 0x1
 2943 0e49 680C0000 	 .4byte 0xc68
 2944 0e4d 01       	 .uleb128 0x1
 2945 0e4e 53080000 	 .4byte 0x853
 2946 0e52 00       	 .byte 0
 2947 0e53 11       	 .uleb128 0x11
 2948 0e54 47320000 	 .4byte .LASF206
 2949 0e58 0E       	 .byte 0xe
 2950 0e59 5F       	 .byte 0x5f
 2951 0e5a 23       	 .byte 0x23
 2952 0e5b 650E0000 	 .4byte 0xe65
 2953 0e5f 01       	 .byte 0x1
 2954 0e60 0A       	 .uleb128 0xa
 2955 0e61 530E0000 	 .4byte 0xe53
 2956 0e65 06       	 .uleb128 0x6
 2957 0e66 A66C0000 	 .4byte .LASF207
 2958 0e6a 0E       	 .byte 0xe
ARM GAS   			page 66


 2959 0e6b 58       	 .byte 0x58
 2960 0e6c 18       	 .byte 0x18
 2961 0e6d F7470000 	 .4byte 0x47f7
 2962 0e71 22       	 .uleb128 0x22
 2963 0e72 2C120000 	 .4byte .LASF208
 2964 0e76 0E       	 .byte 0xe
 2965 0e77 2601     	 .2byte 0x126
 2966 0e79 07       	 .byte 0x7
 2967 0e7a E91B0000 	 .4byte .LASF209
 2968 0e7e BD610000 	 .4byte 0x61bd
 2969 0e82 8A0E0000 	 .4byte 0xe8a
 2970 0e86 900E0000 	 .4byte 0xe90
 2971 0e8a 03       	 .uleb128 0x3
 2972 0e8b AB610000 	 .4byte 0x61ab
 2973 0e8f 00       	 .byte 0
 2974 0e90 22       	 .uleb128 0x22
 2975 0e91 2C120000 	 .4byte .LASF208
 2976 0e95 0E       	 .byte 0xe
 2977 0e96 2A01     	 .2byte 0x12a
 2978 0e98 07       	 .byte 0x7
 2979 0e99 B7330000 	 .4byte .LASF210
 2980 0e9d C3610000 	 .4byte 0x61c3
 2981 0ea1 A90E0000 	 .4byte 0xea9
 2982 0ea5 AF0E0000 	 .4byte 0xeaf
 2983 0ea9 03       	 .uleb128 0x3
 2984 0eaa B1610000 	 .4byte 0x61b1
 2985 0eae 00       	 .byte 0
 2986 0eaf 22       	 .uleb128 0x22
 2987 0eb0 3A630000 	 .4byte .LASF211
 2988 0eb4 0E       	 .byte 0xe
 2989 0eb5 3E01     	 .2byte 0x13e
 2990 0eb7 07       	 .byte 0x7
 2991 0eb8 640D0000 	 .4byte .LASF212
 2992 0ebc 680C0000 	 .4byte 0xc68
 2993 0ec0 C80E0000 	 .4byte 0xec8
 2994 0ec4 D80E0000 	 .4byte 0xed8
 2995 0ec8 03       	 .uleb128 0x3
 2996 0ec9 B1610000 	 .4byte 0x61b1
 2997 0ecd 01       	 .uleb128 0x1
 2998 0ece 680C0000 	 .4byte 0xc68
 2999 0ed2 01       	 .uleb128 0x1
 3000 0ed3 83080000 	 .4byte 0x883
 3001 0ed7 00       	 .byte 0
 3002 0ed8 25       	 .uleb128 0x25
 3003 0ed9 D4070000 	 .4byte .LASF213
 3004 0edd 0E       	 .byte 0xe
 3005 0ede 4801     	 .2byte 0x148
 3006 0ee0 07       	 .byte 0x7
 3007 0ee1 AC140000 	 .4byte .LASF214
 3008 0ee5 ED0E0000 	 .4byte 0xeed
 3009 0ee9 020F0000 	 .4byte 0xf02
 3010 0eed 03       	 .uleb128 0x3
 3011 0eee B1610000 	 .4byte 0x61b1
 3012 0ef2 01       	 .uleb128 0x1
 3013 0ef3 680C0000 	 .4byte 0xc68
 3014 0ef7 01       	 .uleb128 0x1
 3015 0ef8 680C0000 	 .4byte 0xc68
ARM GAS   			page 67


 3016 0efc 01       	 .uleb128 0x1
 3017 0efd 83080000 	 .4byte 0x883
 3018 0f01 00       	 .byte 0
 3019 0f02 22       	 .uleb128 0x22
 3020 0f03 6C2E0000 	 .4byte .LASF215
 3021 0f07 0E       	 .byte 0xe
 3022 0f08 5101     	 .2byte 0x151
 3023 0f0a 07       	 .byte 0x7
 3024 0f0b A7010000 	 .4byte .LASF216
 3025 0f0f 680C0000 	 .4byte 0xc68
 3026 0f13 1B0F0000 	 .4byte 0xf1b
 3027 0f17 2B0F0000 	 .4byte 0xf2b
 3028 0f1b 03       	 .uleb128 0x3
 3029 0f1c B1610000 	 .4byte 0x61b1
 3030 0f20 01       	 .uleb128 0x1
 3031 0f21 680C0000 	 .4byte 0xc68
 3032 0f25 01       	 .uleb128 0x1
 3033 0f26 680C0000 	 .4byte 0xc68
 3034 0f2a 00       	 .byte 0
 3035 0f2b 22       	 .uleb128 0x22
 3036 0f2c B2680000 	 .4byte .LASF217
 3037 0f30 0E       	 .byte 0xe
 3038 0f31 5901     	 .2byte 0x159
 3039 0f33 07       	 .byte 0x7
 3040 0f34 C31D0000 	 .4byte .LASF218
 3041 0f38 4C4F0000 	 .4byte 0x4f4c
 3042 0f3c 440F0000 	 .4byte 0xf44
 3043 0f40 4F0F0000 	 .4byte 0xf4f
 3044 0f44 03       	 .uleb128 0x3
 3045 0f45 B1610000 	 .4byte 0x61b1
 3046 0f49 01       	 .uleb128 0x1
 3047 0f4a 83080000 	 .4byte 0x883
 3048 0f4e 00       	 .byte 0
 3049 0f4f 1F       	 .uleb128 0x1f
 3050 0f50 FA140000 	 .4byte .LASF219
 3051 0f54 0E       	 .byte 0xe
 3052 0f55 6201     	 .2byte 0x162
 3053 0f57 07       	 .byte 0x7
 3054 0f58 D8640000 	 .4byte .LASF221
 3055 0f5c 700F0000 	 .4byte 0xf70
 3056 0f60 01       	 .uleb128 0x1
 3057 0f61 48080000 	 .4byte 0x848
 3058 0f65 01       	 .uleb128 0x1
 3059 0f66 83080000 	 .4byte 0x883
 3060 0f6a 01       	 .uleb128 0x1
 3061 0f6b 680C0000 	 .4byte 0xc68
 3062 0f6f 00       	 .byte 0
 3063 0f70 1F       	 .uleb128 0x1f
 3064 0f71 0A0B0000 	 .4byte .LASF220
 3065 0f75 0E       	 .byte 0xe
 3066 0f76 6B01     	 .2byte 0x16b
 3067 0f78 07       	 .byte 0x7
 3068 0f79 BB250000 	 .4byte .LASF222
 3069 0f7d 910F0000 	 .4byte 0xf91
 3070 0f81 01       	 .uleb128 0x1
 3071 0f82 48080000 	 .4byte 0x848
 3072 0f86 01       	 .uleb128 0x1
ARM GAS   			page 68


 3073 0f87 83080000 	 .4byte 0x883
 3074 0f8b 01       	 .uleb128 0x1
 3075 0f8c 680C0000 	 .4byte 0xc68
 3076 0f90 00       	 .byte 0
 3077 0f91 1F       	 .uleb128 0x1f
 3078 0f92 24680000 	 .4byte .LASF223
 3079 0f96 0E       	 .byte 0xe
 3080 0f97 7401     	 .2byte 0x174
 3081 0f99 07       	 .byte 0x7
 3082 0f9a 1B210000 	 .4byte .LASF224
 3083 0f9e B20F0000 	 .4byte 0xfb2
 3084 0fa2 01       	 .uleb128 0x1
 3085 0fa3 48080000 	 .4byte 0x848
 3086 0fa7 01       	 .uleb128 0x1
 3087 0fa8 680C0000 	 .4byte 0xc68
 3088 0fac 01       	 .uleb128 0x1
 3089 0fad 53080000 	 .4byte 0x853
 3090 0fb1 00       	 .byte 0
 3091 0fb2 1F       	 .uleb128 0x1f
 3092 0fb3 08570000 	 .4byte .LASF225
 3093 0fb7 0E       	 .byte 0xe
 3094 0fb8 8701     	 .2byte 0x187
 3095 0fba 07       	 .byte 0x7
 3096 0fbb 691E0000 	 .4byte .LASF226
 3097 0fbf D30F0000 	 .4byte 0xfd3
 3098 0fc3 01       	 .uleb128 0x1
 3099 0fc4 48080000 	 .4byte 0x848
 3100 0fc8 01       	 .uleb128 0x1
 3101 0fc9 D30F0000 	 .4byte 0xfd3
 3102 0fcd 01       	 .uleb128 0x1
 3103 0fce D30F0000 	 .4byte 0xfd3
 3104 0fd2 00       	 .byte 0
 3105 0fd3 11       	 .uleb128 0x11
 3106 0fd4 C21F0000 	 .4byte .LASF227
 3107 0fd8 0E       	 .byte 0xe
 3108 0fd9 66       	 .byte 0x66
 3109 0fda 44       	 .byte 0x44
 3110 0fdb 17480000 	 .4byte 0x4817
 3111 0fdf 01       	 .byte 0x1
 3112 0fe0 1F       	 .uleb128 0x1f
 3113 0fe1 08570000 	 .4byte .LASF225
 3114 0fe5 0E       	 .byte 0xe
 3115 0fe6 8B01     	 .2byte 0x18b
 3116 0fe8 07       	 .byte 0x7
 3117 0fe9 B6540000 	 .4byte .LASF228
 3118 0fed 01100000 	 .4byte 0x1001
 3119 0ff1 01       	 .uleb128 0x1
 3120 0ff2 48080000 	 .4byte 0x848
 3121 0ff6 01       	 .uleb128 0x1
 3122 0ff7 01100000 	 .4byte 0x1001
 3123 0ffb 01       	 .uleb128 0x1
 3124 0ffc 01100000 	 .4byte 0x1001
 3125 1000 00       	 .byte 0
 3126 1001 11       	 .uleb128 0x11
 3127 1002 61630000 	 .4byte .LASF229
 3128 1006 0E       	 .byte 0xe
 3129 1007 68       	 .byte 0x68
ARM GAS   			page 69


 3130 1008 08       	 .byte 0x8
 3131 1009 5E4A0000 	 .4byte 0x4a5e
 3132 100d 01       	 .byte 0x1
 3133 100e 1F       	 .uleb128 0x1f
 3134 100f 08570000 	 .4byte .LASF225
 3135 1013 0E       	 .byte 0xe
 3136 1014 9001     	 .2byte 0x190
 3137 1016 07       	 .byte 0x7
 3138 1017 CF020000 	 .4byte .LASF230
 3139 101b 2F100000 	 .4byte 0x102f
 3140 101f 01       	 .uleb128 0x1
 3141 1020 48080000 	 .4byte 0x848
 3142 1024 01       	 .uleb128 0x1
 3143 1025 48080000 	 .4byte 0x848
 3144 1029 01       	 .uleb128 0x1
 3145 102a 48080000 	 .4byte 0x848
 3146 102e 00       	 .byte 0
 3147 102f 1F       	 .uleb128 0x1f
 3148 1030 08570000 	 .4byte .LASF225
 3149 1034 0E       	 .byte 0xe
 3150 1035 9401     	 .2byte 0x194
 3151 1037 07       	 .byte 0x7
 3152 1038 C9340000 	 .4byte .LASF231
 3153 103c 50100000 	 .4byte 0x1050
 3154 1040 01       	 .uleb128 0x1
 3155 1041 48080000 	 .4byte 0x848
 3156 1045 01       	 .uleb128 0x1
 3157 1046 83080000 	 .4byte 0x883
 3158 104a 01       	 .uleb128 0x1
 3159 104b 83080000 	 .4byte 0x883
 3160 104f 00       	 .byte 0
 3161 1050 05       	 .uleb128 0x5
 3162 1051 B64F0000 	 .4byte .LASF232
 3163 1055 0E       	 .byte 0xe
 3164 1056 9901     	 .2byte 0x199
 3165 1058 07       	 .byte 0x7
 3166 1059 26610000 	 .4byte .LASF233
 3167 105d 46010000 	 .4byte 0x146
 3168 1061 70100000 	 .4byte 0x1070
 3169 1065 01       	 .uleb128 0x1
 3170 1066 680C0000 	 .4byte 0xc68
 3171 106a 01       	 .uleb128 0x1
 3172 106b 680C0000 	 .4byte 0xc68
 3173 106f 00       	 .byte 0
 3174 1070 25       	 .uleb128 0x25
 3175 1071 FE280000 	 .4byte .LASF234
 3176 1075 0E       	 .byte 0xe
 3177 1076 A601     	 .2byte 0x1a6
 3178 1078 07       	 .byte 0x7
 3179 1079 284F0000 	 .4byte .LASF235
 3180 107d 85100000 	 .4byte 0x1085
 3181 1081 90100000 	 .4byte 0x1090
 3182 1085 03       	 .uleb128 0x3
 3183 1086 AB610000 	 .4byte 0x61ab
 3184 108a 01       	 .uleb128 0x1
 3185 108b C9610000 	 .4byte 0x61c9
 3186 108f 00       	 .byte 0
ARM GAS   			page 70


 3187 1090 25       	 .uleb128 0x25
 3188 1091 50350000 	 .4byte .LASF236
 3189 1095 0E       	 .byte 0xe
 3190 1096 A901     	 .2byte 0x1a9
 3191 1098 07       	 .byte 0x7
 3192 1099 61160000 	 .4byte .LASF237
 3193 109d A5100000 	 .4byte 0x10a5
 3194 10a1 BF100000 	 .4byte 0x10bf
 3195 10a5 03       	 .uleb128 0x3
 3196 10a6 AB610000 	 .4byte 0x61ab
 3197 10aa 01       	 .uleb128 0x1
 3198 10ab 680C0000 	 .4byte 0xc68
 3199 10af 01       	 .uleb128 0x1
 3200 10b0 680C0000 	 .4byte 0xc68
 3201 10b4 01       	 .uleb128 0x1
 3202 10b5 83080000 	 .4byte 0x883
 3203 10b9 01       	 .uleb128 0x1
 3204 10ba 680C0000 	 .4byte 0xc68
 3205 10be 00       	 .byte 0
 3206 10bf 25       	 .uleb128 0x25
 3207 10c0 DF3C0000 	 .4byte .LASF238
 3208 10c4 0E       	 .byte 0xe
 3209 10c5 AD01     	 .2byte 0x1ad
 3210 10c7 07       	 .byte 0x7
 3211 10c8 70680000 	 .4byte .LASF239
 3212 10cc D4100000 	 .4byte 0x10d4
 3213 10d0 E4100000 	 .4byte 0x10e4
 3214 10d4 03       	 .uleb128 0x3
 3215 10d5 AB610000 	 .4byte 0x61ab
 3216 10d9 01       	 .uleb128 0x1
 3217 10da 680C0000 	 .4byte 0xc68
 3218 10de 01       	 .uleb128 0x1
 3219 10df 680C0000 	 .4byte 0xc68
 3220 10e3 00       	 .byte 0
 3221 10e4 04       	 .uleb128 0x4
 3222 10e5 C15E0000 	 .4byte .LASF240
 3223 10e9 0E       	 .byte 0xe
 3224 10ea B701     	 .2byte 0x1b7
 3225 10ec 07       	 .byte 0x7
 3226 10ed 6E4F0000 	 .4byte .LASF241
 3227 10f1 AB610000 	 .4byte 0x61ab
 3228 10f5 01       	 .byte 0x1
 3229 10f6 FE100000 	 .4byte 0x10fe
 3230 10fa 04110000 	 .4byte 0x1104
 3231 10fe 03       	 .uleb128 0x3
 3232 10ff AB610000 	 .4byte 0x61ab
 3233 1103 00       	 .byte 0
 3234 1104 3A       	 .uleb128 0x3a
 3235 1105 C15E0000 	 .4byte .LASF240
 3236 1109 0E       	 .byte 0xe
 3237 110a C001     	 .2byte 0x1c0
 3238 110c 07       	 .byte 0x7
 3239 110d 5F040000 	 .4byte .LASF768
 3240 1111 AB610000 	 .4byte 0x61ab
 3241 1115 01       	 .byte 0x1
 3242 1116 1E110000 	 .4byte 0x111e
 3243 111a 29110000 	 .4byte 0x1129
ARM GAS   			page 71


 3244 111e 03       	 .uleb128 0x3
 3245 111f AB610000 	 .4byte 0x61ab
 3246 1123 01       	 .uleb128 0x1
 3247 1124 B85A0000 	 .4byte 0x5ab8
 3248 1128 00       	 .byte 0
 3249 1129 04       	 .uleb128 0x4
 3250 112a C15E0000 	 .4byte .LASF240
 3251 112e 0E       	 .byte 0xe
 3252 112f C801     	 .2byte 0x1c8
 3253 1131 07       	 .byte 0x7
 3254 1132 84060000 	 .4byte .LASF242
 3255 1136 AB610000 	 .4byte 0x61ab
 3256 113a 01       	 .byte 0x1
 3257 113b 43110000 	 .4byte 0x1143
 3258 113f 4E110000 	 .4byte 0x114e
 3259 1143 03       	 .uleb128 0x3
 3260 1144 AB610000 	 .4byte 0x61ab
 3261 1148 01       	 .uleb128 0x1
 3262 1149 C9610000 	 .4byte 0x61c9
 3263 114d 00       	 .byte 0
 3264 114e 04       	 .uleb128 0x4
 3265 114f C15E0000 	 .4byte .LASF240
 3266 1153 0E       	 .byte 0xe
 3267 1154 D501     	 .2byte 0x1d5
 3268 1156 07       	 .byte 0x7
 3269 1157 15340000 	 .4byte .LASF243
 3270 115b AB610000 	 .4byte 0x61ab
 3271 115f 01       	 .byte 0x1
 3272 1160 68110000 	 .4byte 0x1168
 3273 1164 7D110000 	 .4byte 0x117d
 3274 1168 03       	 .uleb128 0x3
 3275 1169 AB610000 	 .4byte 0x61ab
 3276 116d 01       	 .uleb128 0x1
 3277 116e C9610000 	 .4byte 0x61c9
 3278 1172 01       	 .uleb128 0x1
 3279 1173 680C0000 	 .4byte 0xc68
 3280 1177 01       	 .uleb128 0x1
 3281 1178 B85A0000 	 .4byte 0x5ab8
 3282 117c 00       	 .byte 0
 3283 117d 04       	 .uleb128 0x4
 3284 117e C15E0000 	 .4byte .LASF240
 3285 1182 0E       	 .byte 0xe
 3286 1183 E401     	 .2byte 0x1e4
 3287 1185 07       	 .byte 0x7
 3288 1186 39440000 	 .4byte .LASF244
 3289 118a AB610000 	 .4byte 0x61ab
 3290 118e 01       	 .byte 0x1
 3291 118f 97110000 	 .4byte 0x1197
 3292 1193 AC110000 	 .4byte 0x11ac
 3293 1197 03       	 .uleb128 0x3
 3294 1198 AB610000 	 .4byte 0x61ab
 3295 119c 01       	 .uleb128 0x1
 3296 119d C9610000 	 .4byte 0x61c9
 3297 11a1 01       	 .uleb128 0x1
 3298 11a2 680C0000 	 .4byte 0xc68
 3299 11a6 01       	 .uleb128 0x1
 3300 11a7 680C0000 	 .4byte 0xc68
ARM GAS   			page 72


 3301 11ab 00       	 .byte 0
 3302 11ac 04       	 .uleb128 0x4
 3303 11ad C15E0000 	 .4byte .LASF240
 3304 11b1 0E       	 .byte 0xe
 3305 11b2 F401     	 .2byte 0x1f4
 3306 11b4 07       	 .byte 0x7
 3307 11b5 D6360000 	 .4byte .LASF245
 3308 11b9 AB610000 	 .4byte 0x61ab
 3309 11bd 01       	 .byte 0x1
 3310 11be C6110000 	 .4byte 0x11c6
 3311 11c2 E0110000 	 .4byte 0x11e0
 3312 11c6 03       	 .uleb128 0x3
 3313 11c7 AB610000 	 .4byte 0x61ab
 3314 11cb 01       	 .uleb128 0x1
 3315 11cc C9610000 	 .4byte 0x61c9
 3316 11d0 01       	 .uleb128 0x1
 3317 11d1 680C0000 	 .4byte 0xc68
 3318 11d5 01       	 .uleb128 0x1
 3319 11d6 680C0000 	 .4byte 0xc68
 3320 11da 01       	 .uleb128 0x1
 3321 11db B85A0000 	 .4byte 0x5ab8
 3322 11df 00       	 .byte 0
 3323 11e0 04       	 .uleb128 0x4
 3324 11e1 C15E0000 	 .4byte .LASF240
 3325 11e5 0E       	 .byte 0xe
 3326 11e6 0602     	 .2byte 0x206
 3327 11e8 07       	 .byte 0x7
 3328 11e9 2C480000 	 .4byte .LASF246
 3329 11ed AB610000 	 .4byte 0x61ab
 3330 11f1 01       	 .byte 0x1
 3331 11f2 FA110000 	 .4byte 0x11fa
 3332 11f6 0F120000 	 .4byte 0x120f
 3333 11fa 03       	 .uleb128 0x3
 3334 11fb AB610000 	 .4byte 0x61ab
 3335 11ff 01       	 .uleb128 0x1
 3336 1200 83080000 	 .4byte 0x883
 3337 1204 01       	 .uleb128 0x1
 3338 1205 680C0000 	 .4byte 0xc68
 3339 1209 01       	 .uleb128 0x1
 3340 120a B85A0000 	 .4byte 0x5ab8
 3341 120e 00       	 .byte 0
 3342 120f 04       	 .uleb128 0x4
 3343 1210 C15E0000 	 .4byte .LASF240
 3344 1214 0E       	 .byte 0xe
 3345 1215 1502     	 .2byte 0x215
 3346 1217 07       	 .byte 0x7
 3347 1218 5C360000 	 .4byte .LASF247
 3348 121c AB610000 	 .4byte 0x61ab
 3349 1220 01       	 .byte 0x1
 3350 1221 29120000 	 .4byte 0x1229
 3351 1225 39120000 	 .4byte 0x1239
 3352 1229 03       	 .uleb128 0x3
 3353 122a AB610000 	 .4byte 0x61ab
 3354 122e 01       	 .uleb128 0x1
 3355 122f 83080000 	 .4byte 0x883
 3356 1233 01       	 .uleb128 0x1
 3357 1234 B85A0000 	 .4byte 0x5ab8
ARM GAS   			page 73


 3358 1238 00       	 .byte 0
 3359 1239 04       	 .uleb128 0x4
 3360 123a C15E0000 	 .4byte .LASF240
 3361 123e 0E       	 .byte 0xe
 3362 123f 2902     	 .2byte 0x229
 3363 1241 07       	 .byte 0x7
 3364 1242 91050000 	 .4byte .LASF248
 3365 1246 AB610000 	 .4byte 0x61ab
 3366 124a 01       	 .byte 0x1
 3367 124b 53120000 	 .4byte 0x1253
 3368 124f 68120000 	 .4byte 0x1268
 3369 1253 03       	 .uleb128 0x3
 3370 1254 AB610000 	 .4byte 0x61ab
 3371 1258 01       	 .uleb128 0x1
 3372 1259 680C0000 	 .4byte 0xc68
 3373 125d 01       	 .uleb128 0x1
 3374 125e 53080000 	 .4byte 0x853
 3375 1262 01       	 .uleb128 0x1
 3376 1263 B85A0000 	 .4byte 0x5ab8
 3377 1267 00       	 .byte 0
 3378 1268 04       	 .uleb128 0x4
 3379 1269 C15E0000 	 .4byte .LASF240
 3380 126d 0E       	 .byte 0xe
 3381 126e 3502     	 .2byte 0x235
 3382 1270 07       	 .byte 0x7
 3383 1271 020F0000 	 .4byte .LASF249
 3384 1275 AB610000 	 .4byte 0x61ab
 3385 1279 01       	 .byte 0x1
 3386 127a 82120000 	 .4byte 0x1282
 3387 127e 8D120000 	 .4byte 0x128d
 3388 1282 03       	 .uleb128 0x3
 3389 1283 AB610000 	 .4byte 0x61ab
 3390 1287 01       	 .uleb128 0x1
 3391 1288 CF610000 	 .4byte 0x61cf
 3392 128c 00       	 .byte 0
 3393 128d 04       	 .uleb128 0x4
 3394 128e C15E0000 	 .4byte .LASF240
 3395 1292 0E       	 .byte 0xe
 3396 1293 5002     	 .2byte 0x250
 3397 1295 07       	 .byte 0x7
 3398 1296 95080000 	 .4byte .LASF250
 3399 129a AB610000 	 .4byte 0x61ab
 3400 129e 01       	 .byte 0x1
 3401 129f A7120000 	 .4byte 0x12a7
 3402 12a3 B7120000 	 .4byte 0x12b7
 3403 12a7 03       	 .uleb128 0x3
 3404 12a8 AB610000 	 .4byte 0x61ab
 3405 12ac 01       	 .uleb128 0x1
 3406 12ad 11430000 	 .4byte 0x4311
 3407 12b1 01       	 .uleb128 0x1
 3408 12b2 B85A0000 	 .4byte 0x5ab8
 3409 12b6 00       	 .byte 0
 3410 12b7 04       	 .uleb128 0x4
 3411 12b8 C15E0000 	 .4byte .LASF240
 3412 12bc 0E       	 .byte 0xe
 3413 12bd 5402     	 .2byte 0x254
 3414 12bf 07       	 .byte 0x7
ARM GAS   			page 74


 3415 12c0 18190000 	 .4byte .LASF251
 3416 12c4 AB610000 	 .4byte 0x61ab
 3417 12c8 01       	 .byte 0x1
 3418 12c9 D1120000 	 .4byte 0x12d1
 3419 12cd E1120000 	 .4byte 0x12e1
 3420 12d1 03       	 .uleb128 0x3
 3421 12d2 AB610000 	 .4byte 0x61ab
 3422 12d6 01       	 .uleb128 0x1
 3423 12d7 C9610000 	 .4byte 0x61c9
 3424 12db 01       	 .uleb128 0x1
 3425 12dc B85A0000 	 .4byte 0x5ab8
 3426 12e0 00       	 .byte 0
 3427 12e1 04       	 .uleb128 0x4
 3428 12e2 C15E0000 	 .4byte .LASF240
 3429 12e6 0E       	 .byte 0xe
 3430 12e7 5802     	 .2byte 0x258
 3431 12e9 07       	 .byte 0x7
 3432 12ea B3280000 	 .4byte .LASF252
 3433 12ee AB610000 	 .4byte 0x61ab
 3434 12f2 01       	 .byte 0x1
 3435 12f3 FB120000 	 .4byte 0x12fb
 3436 12f7 0B130000 	 .4byte 0x130b
 3437 12fb 03       	 .uleb128 0x3
 3438 12fc AB610000 	 .4byte 0x61ab
 3439 1300 01       	 .uleb128 0x1
 3440 1301 CF610000 	 .4byte 0x61cf
 3441 1305 01       	 .uleb128 0x1
 3442 1306 B85A0000 	 .4byte 0x5ab8
 3443 130a 00       	 .byte 0
 3444 130b 04       	 .uleb128 0x4
 3445 130c F0210000 	 .4byte .LASF253
 3446 1310 0E       	 .byte 0xe
 3447 1311 9E02     	 .2byte 0x29e
 3448 1313 07       	 .byte 0x7
 3449 1314 46170000 	 .4byte .LASF254
 3450 1318 A5010000 	 .4byte 0x1a5
 3451 131c 01       	 .byte 0x1
 3452 131d 25130000 	 .4byte 0x1325
 3453 1321 30130000 	 .4byte 0x1330
 3454 1325 03       	 .uleb128 0x3
 3455 1326 AB610000 	 .4byte 0x61ab
 3456 132a 03       	 .uleb128 0x3
 3457 132b 46010000 	 .4byte 0x146
 3458 132f 00       	 .byte 0
 3459 1330 04       	 .uleb128 0x4
 3460 1331 BA160000 	 .4byte .LASF255
 3461 1335 0E       	 .byte 0xe
 3462 1336 A602     	 .2byte 0x2a6
 3463 1338 07       	 .byte 0x7
 3464 1339 21370000 	 .4byte .LASF256
 3465 133d D5610000 	 .4byte 0x61d5
 3466 1341 01       	 .byte 0x1
 3467 1342 4A130000 	 .4byte 0x134a
 3468 1346 55130000 	 .4byte 0x1355
 3469 134a 03       	 .uleb128 0x3
 3470 134b AB610000 	 .4byte 0x61ab
 3471 134f 01       	 .uleb128 0x1
ARM GAS   			page 75


 3472 1350 C9610000 	 .4byte 0x61c9
 3473 1354 00       	 .byte 0
 3474 1355 04       	 .uleb128 0x4
 3475 1356 BA160000 	 .4byte .LASF255
 3476 135a 0E       	 .byte 0xe
 3477 135b B002     	 .2byte 0x2b0
 3478 135d 07       	 .byte 0x7
 3479 135e 70140000 	 .4byte .LASF257
 3480 1362 D5610000 	 .4byte 0x61d5
 3481 1366 01       	 .byte 0x1
 3482 1367 6F130000 	 .4byte 0x136f
 3483 136b 7A130000 	 .4byte 0x137a
 3484 136f 03       	 .uleb128 0x3
 3485 1370 AB610000 	 .4byte 0x61ab
 3486 1374 01       	 .uleb128 0x1
 3487 1375 83080000 	 .4byte 0x883
 3488 1379 00       	 .byte 0
 3489 137a 04       	 .uleb128 0x4
 3490 137b BA160000 	 .4byte .LASF255
 3491 137f 0E       	 .byte 0xe
 3492 1380 BB02     	 .2byte 0x2bb
 3493 1382 07       	 .byte 0x7
 3494 1383 A2150000 	 .4byte .LASF258
 3495 1387 D5610000 	 .4byte 0x61d5
 3496 138b 01       	 .byte 0x1
 3497 138c 94130000 	 .4byte 0x1394
 3498 1390 9F130000 	 .4byte 0x139f
 3499 1394 03       	 .uleb128 0x3
 3500 1395 AB610000 	 .4byte 0x61ab
 3501 1399 01       	 .uleb128 0x1
 3502 139a 53080000 	 .4byte 0x853
 3503 139e 00       	 .byte 0
 3504 139f 04       	 .uleb128 0x4
 3505 13a0 BA160000 	 .4byte .LASF255
 3506 13a4 0E       	 .byte 0xe
 3507 13a5 CC02     	 .2byte 0x2cc
 3508 13a7 07       	 .byte 0x7
 3509 13a8 0E600000 	 .4byte .LASF259
 3510 13ac D5610000 	 .4byte 0x61d5
 3511 13b0 01       	 .byte 0x1
 3512 13b1 B9130000 	 .4byte 0x13b9
 3513 13b5 C4130000 	 .4byte 0x13c4
 3514 13b9 03       	 .uleb128 0x3
 3515 13ba AB610000 	 .4byte 0x61ab
 3516 13be 01       	 .uleb128 0x1
 3517 13bf CF610000 	 .4byte 0x61cf
 3518 13c3 00       	 .byte 0
 3519 13c4 04       	 .uleb128 0x4
 3520 13c5 BA160000 	 .4byte .LASF255
 3521 13c9 0E       	 .byte 0xe
 3522 13ca 0B03     	 .2byte 0x30b
 3523 13cc 07       	 .byte 0x7
 3524 13cd C2060000 	 .4byte .LASF260
 3525 13d1 D5610000 	 .4byte 0x61d5
 3526 13d5 01       	 .byte 0x1
 3527 13d6 DE130000 	 .4byte 0x13de
 3528 13da E9130000 	 .4byte 0x13e9
ARM GAS   			page 76


 3529 13de 03       	 .uleb128 0x3
 3530 13df AB610000 	 .4byte 0x61ab
 3531 13e3 01       	 .uleb128 0x1
 3532 13e4 11430000 	 .4byte 0x4311
 3533 13e8 00       	 .byte 0
 3534 13e9 04       	 .uleb128 0x4
 3535 13ea DB6A0000 	 .4byte .LASF261
 3536 13ee 0E       	 .byte 0xe
 3537 13ef 2A03     	 .2byte 0x32a
 3538 13f1 07       	 .byte 0x7
 3539 13f2 195B0000 	 .4byte .LASF262
 3540 13f6 D30F0000 	 .4byte 0xfd3
 3541 13fa 01       	 .byte 0x1
 3542 13fb 03140000 	 .4byte 0x1403
 3543 13ff 09140000 	 .4byte 0x1409
 3544 1403 03       	 .uleb128 0x3
 3545 1404 AB610000 	 .4byte 0x61ab
 3546 1408 00       	 .byte 0
 3547 1409 04       	 .uleb128 0x4
 3548 140a DB6A0000 	 .4byte .LASF261
 3549 140e 0E       	 .byte 0xe
 3550 140f 3203     	 .2byte 0x332
 3551 1411 07       	 .byte 0x7
 3552 1412 90020000 	 .4byte .LASF263
 3553 1416 01100000 	 .4byte 0x1001
 3554 141a 01       	 .byte 0x1
 3555 141b 23140000 	 .4byte 0x1423
 3556 141f 29140000 	 .4byte 0x1429
 3557 1423 03       	 .uleb128 0x3
 3558 1424 B1610000 	 .4byte 0x61b1
 3559 1428 00       	 .byte 0
 3560 1429 34       	 .uleb128 0x34
 3561 142a 656E6400 	 .ascii "end\000"
 3562 142e 0E       	 .byte 0xe
 3563 142f 3A03     	 .2byte 0x33a
 3564 1431 07       	 .byte 0x7
 3565 1432 256B0000 	 .4byte .LASF264
 3566 1436 D30F0000 	 .4byte 0xfd3
 3567 143a 01       	 .byte 0x1
 3568 143b 43140000 	 .4byte 0x1443
 3569 143f 49140000 	 .4byte 0x1449
 3570 1443 03       	 .uleb128 0x3
 3571 1444 AB610000 	 .4byte 0x61ab
 3572 1448 00       	 .byte 0
 3573 1449 34       	 .uleb128 0x34
 3574 144a 656E6400 	 .ascii "end\000"
 3575 144e 0E       	 .byte 0xe
 3576 144f 4203     	 .2byte 0x342
 3577 1451 07       	 .byte 0x7
 3578 1452 93320000 	 .4byte .LASF265
 3579 1456 01100000 	 .4byte 0x1001
 3580 145a 01       	 .byte 0x1
 3581 145b 63140000 	 .4byte 0x1463
 3582 145f 69140000 	 .4byte 0x1469
 3583 1463 03       	 .uleb128 0x3
 3584 1464 B1610000 	 .4byte 0x61b1
 3585 1468 00       	 .byte 0
ARM GAS   			page 77


 3586 1469 11       	 .uleb128 0x11
 3587 146a 0E010000 	 .4byte .LASF266
 3588 146e 0E       	 .byte 0xe
 3589 146f 6A       	 .byte 0x6a
 3590 1470 30       	 .byte 0x30
 3591 1471 11440000 	 .4byte 0x4411
 3592 1475 01       	 .byte 0x1
 3593 1476 04       	 .uleb128 0x4
 3594 1477 6F2B0000 	 .4byte .LASF267
 3595 147b 0E       	 .byte 0xe
 3596 147c 4B03     	 .2byte 0x34b
 3597 147e 07       	 .byte 0x7
 3598 147f 731D0000 	 .4byte .LASF268
 3599 1483 69140000 	 .4byte 0x1469
 3600 1487 01       	 .byte 0x1
 3601 1488 90140000 	 .4byte 0x1490
 3602 148c 96140000 	 .4byte 0x1496
 3603 1490 03       	 .uleb128 0x3
 3604 1491 AB610000 	 .4byte 0x61ab
 3605 1495 00       	 .byte 0
 3606 1496 11       	 .uleb128 0x11
 3607 1497 944D0000 	 .4byte .LASF269
 3608 149b 0E       	 .byte 0xe
 3609 149c 69       	 .byte 0x69
 3610 149d 35       	 .byte 0x35
 3611 149e 16440000 	 .4byte 0x4416
 3612 14a2 01       	 .byte 0x1
 3613 14a3 04       	 .uleb128 0x4
 3614 14a4 6F2B0000 	 .4byte .LASF267
 3615 14a8 0E       	 .byte 0xe
 3616 14a9 5403     	 .2byte 0x354
 3617 14ab 07       	 .byte 0x7
 3618 14ac 01240000 	 .4byte .LASF270
 3619 14b0 96140000 	 .4byte 0x1496
 3620 14b4 01       	 .byte 0x1
 3621 14b5 BD140000 	 .4byte 0x14bd
 3622 14b9 C3140000 	 .4byte 0x14c3
 3623 14bd 03       	 .uleb128 0x3
 3624 14be B1610000 	 .4byte 0x61b1
 3625 14c2 00       	 .byte 0
 3626 14c3 04       	 .uleb128 0x4
 3627 14c4 DD1B0000 	 .4byte .LASF271
 3628 14c8 0E       	 .byte 0xe
 3629 14c9 5D03     	 .2byte 0x35d
 3630 14cb 07       	 .byte 0x7
 3631 14cc 5C590000 	 .4byte .LASF272
 3632 14d0 69140000 	 .4byte 0x1469
 3633 14d4 01       	 .byte 0x1
 3634 14d5 DD140000 	 .4byte 0x14dd
 3635 14d9 E3140000 	 .4byte 0x14e3
 3636 14dd 03       	 .uleb128 0x3
 3637 14de AB610000 	 .4byte 0x61ab
 3638 14e2 00       	 .byte 0
 3639 14e3 04       	 .uleb128 0x4
 3640 14e4 DD1B0000 	 .4byte .LASF271
 3641 14e8 0E       	 .byte 0xe
 3642 14e9 6603     	 .2byte 0x366
ARM GAS   			page 78


 3643 14eb 07       	 .byte 0x7
 3644 14ec 945A0000 	 .4byte .LASF273
 3645 14f0 96140000 	 .4byte 0x1496
 3646 14f4 01       	 .byte 0x1
 3647 14f5 FD140000 	 .4byte 0x14fd
 3648 14f9 03150000 	 .4byte 0x1503
 3649 14fd 03       	 .uleb128 0x3
 3650 14fe B1610000 	 .4byte 0x61b1
 3651 1502 00       	 .byte 0
 3652 1503 04       	 .uleb128 0x4
 3653 1504 392E0000 	 .4byte .LASF274
 3654 1508 0E       	 .byte 0xe
 3655 1509 6F03     	 .2byte 0x36f
 3656 150b 07       	 .byte 0x7
 3657 150c BD0E0000 	 .4byte .LASF275
 3658 1510 01100000 	 .4byte 0x1001
 3659 1514 01       	 .byte 0x1
 3660 1515 1D150000 	 .4byte 0x151d
 3661 1519 23150000 	 .4byte 0x1523
 3662 151d 03       	 .uleb128 0x3
 3663 151e B1610000 	 .4byte 0x61b1
 3664 1522 00       	 .byte 0
 3665 1523 04       	 .uleb128 0x4
 3666 1524 F73D0000 	 .4byte .LASF276
 3667 1528 0E       	 .byte 0xe
 3668 1529 7703     	 .2byte 0x377
 3669 152b 07       	 .byte 0x7
 3670 152c B0200000 	 .4byte .LASF277
 3671 1530 01100000 	 .4byte 0x1001
 3672 1534 01       	 .byte 0x1
 3673 1535 3D150000 	 .4byte 0x153d
 3674 1539 43150000 	 .4byte 0x1543
 3675 153d 03       	 .uleb128 0x3
 3676 153e B1610000 	 .4byte 0x61b1
 3677 1542 00       	 .byte 0
 3678 1543 04       	 .uleb128 0x4
 3679 1544 7B0B0000 	 .4byte .LASF278
 3680 1548 0E       	 .byte 0xe
 3681 1549 8003     	 .2byte 0x380
 3682 154b 07       	 .byte 0x7
 3683 154c 76100000 	 .4byte .LASF279
 3684 1550 96140000 	 .4byte 0x1496
 3685 1554 01       	 .byte 0x1
 3686 1555 5D150000 	 .4byte 0x155d
 3687 1559 63150000 	 .4byte 0x1563
 3688 155d 03       	 .uleb128 0x3
 3689 155e B1610000 	 .4byte 0x61b1
 3690 1562 00       	 .byte 0
 3691 1563 04       	 .uleb128 0x4
 3692 1564 8E2F0000 	 .4byte .LASF280
 3693 1568 0E       	 .byte 0xe
 3694 1569 8903     	 .2byte 0x389
 3695 156b 07       	 .byte 0x7
 3696 156c 83410000 	 .4byte .LASF281
 3697 1570 96140000 	 .4byte 0x1496
 3698 1574 01       	 .byte 0x1
 3699 1575 7D150000 	 .4byte 0x157d
ARM GAS   			page 79


 3700 1579 83150000 	 .4byte 0x1583
 3701 157d 03       	 .uleb128 0x3
 3702 157e B1610000 	 .4byte 0x61b1
 3703 1582 00       	 .byte 0
 3704 1583 04       	 .uleb128 0x4
 3705 1584 FD0E0000 	 .4byte .LASF282
 3706 1588 0E       	 .byte 0xe
 3707 1589 9203     	 .2byte 0x392
 3708 158b 07       	 .byte 0x7
 3709 158c 2A2B0000 	 .4byte .LASF283
 3710 1590 680C0000 	 .4byte 0xc68
 3711 1594 01       	 .byte 0x1
 3712 1595 9D150000 	 .4byte 0x159d
 3713 1599 A3150000 	 .4byte 0x15a3
 3714 159d 03       	 .uleb128 0x3
 3715 159e B1610000 	 .4byte 0x61b1
 3716 15a2 00       	 .byte 0
 3717 15a3 04       	 .uleb128 0x4
 3718 15a4 37070000 	 .4byte .LASF284
 3719 15a8 0E       	 .byte 0xe
 3720 15a9 9803     	 .2byte 0x398
 3721 15ab 07       	 .byte 0x7
 3722 15ac D1220000 	 .4byte .LASF285
 3723 15b0 680C0000 	 .4byte 0xc68
 3724 15b4 01       	 .byte 0x1
 3725 15b5 BD150000 	 .4byte 0x15bd
 3726 15b9 C3150000 	 .4byte 0x15c3
 3727 15bd 03       	 .uleb128 0x3
 3728 15be B1610000 	 .4byte 0x61b1
 3729 15c2 00       	 .byte 0
 3730 15c3 04       	 .uleb128 0x4
 3731 15c4 DF090000 	 .4byte .LASF286
 3732 15c8 0E       	 .byte 0xe
 3733 15c9 9D03     	 .2byte 0x39d
 3734 15cb 07       	 .byte 0x7
 3735 15cc DB5E0000 	 .4byte .LASF287
 3736 15d0 680C0000 	 .4byte 0xc68
 3737 15d4 01       	 .byte 0x1
 3738 15d5 DD150000 	 .4byte 0x15dd
 3739 15d9 E3150000 	 .4byte 0x15e3
 3740 15dd 03       	 .uleb128 0x3
 3741 15de B1610000 	 .4byte 0x61b1
 3742 15e2 00       	 .byte 0
 3743 15e3 20       	 .uleb128 0x20
 3744 15e4 F03A0000 	 .4byte .LASF288
 3745 15e8 0E       	 .byte 0xe
 3746 15e9 AB03     	 .2byte 0x3ab
 3747 15eb 07       	 .byte 0x7
 3748 15ec 6F390000 	 .4byte .LASF289
 3749 15f0 01       	 .byte 0x1
 3750 15f1 F9150000 	 .4byte 0x15f9
 3751 15f5 09160000 	 .4byte 0x1609
 3752 15f9 03       	 .uleb128 0x3
 3753 15fa AB610000 	 .4byte 0x61ab
 3754 15fe 01       	 .uleb128 0x1
 3755 15ff 680C0000 	 .4byte 0xc68
 3756 1603 01       	 .uleb128 0x1
ARM GAS   			page 80


 3757 1604 53080000 	 .4byte 0x853
 3758 1608 00       	 .byte 0
 3759 1609 20       	 .uleb128 0x20
 3760 160a F03A0000 	 .4byte .LASF288
 3761 160e 0E       	 .byte 0xe
 3762 160f B803     	 .2byte 0x3b8
 3763 1611 07       	 .byte 0x7
 3764 1612 DD5C0000 	 .4byte .LASF290
 3765 1616 01       	 .byte 0x1
 3766 1617 1F160000 	 .4byte 0x161f
 3767 161b 2A160000 	 .4byte 0x162a
 3768 161f 03       	 .uleb128 0x3
 3769 1620 AB610000 	 .4byte 0x61ab
 3770 1624 01       	 .uleb128 0x1
 3771 1625 680C0000 	 .4byte 0xc68
 3772 1629 00       	 .byte 0
 3773 162a 20       	 .uleb128 0x20
 3774 162b 2E680000 	 .4byte .LASF291
 3775 162f 0E       	 .byte 0xe
 3776 1630 BE03     	 .2byte 0x3be
 3777 1632 07       	 .byte 0x7
 3778 1633 E4070000 	 .4byte .LASF292
 3779 1637 01       	 .byte 0x1
 3780 1638 40160000 	 .4byte 0x1640
 3781 163c 46160000 	 .4byte 0x1646
 3782 1640 03       	 .uleb128 0x3
 3783 1641 AB610000 	 .4byte 0x61ab
 3784 1645 00       	 .byte 0
 3785 1646 04       	 .uleb128 0x4
 3786 1647 3C050000 	 .4byte .LASF293
 3787 164b 0E       	 .byte 0xe
 3788 164c D103     	 .2byte 0x3d1
 3789 164e 07       	 .byte 0x7
 3790 164f 3A2C0000 	 .4byte .LASF294
 3791 1653 680C0000 	 .4byte 0xc68
 3792 1657 01       	 .byte 0x1
 3793 1658 60160000 	 .4byte 0x1660
 3794 165c 66160000 	 .4byte 0x1666
 3795 1660 03       	 .uleb128 0x3
 3796 1661 B1610000 	 .4byte 0x61b1
 3797 1665 00       	 .byte 0
 3798 1666 20       	 .uleb128 0x20
 3799 1667 51450000 	 .4byte .LASF295
 3800 166b 0E       	 .byte 0xe
 3801 166c E903     	 .2byte 0x3e9
 3802 166e 07       	 .byte 0x7
 3803 166f 6E370000 	 .4byte .LASF296
 3804 1673 01       	 .byte 0x1
 3805 1674 7C160000 	 .4byte 0x167c
 3806 1678 87160000 	 .4byte 0x1687
 3807 167c 03       	 .uleb128 0x3
 3808 167d AB610000 	 .4byte 0x61ab
 3809 1681 01       	 .uleb128 0x1
 3810 1682 680C0000 	 .4byte 0xc68
 3811 1686 00       	 .byte 0
 3812 1687 20       	 .uleb128 0x20
 3813 1688 D1240000 	 .4byte .LASF297
ARM GAS   			page 81


 3814 168c 0E       	 .byte 0xe
 3815 168d EF03     	 .2byte 0x3ef
 3816 168f 07       	 .byte 0x7
 3817 1690 564D0000 	 .4byte .LASF298
 3818 1694 01       	 .byte 0x1
 3819 1695 9D160000 	 .4byte 0x169d
 3820 1699 A3160000 	 .4byte 0x16a3
 3821 169d 03       	 .uleb128 0x3
 3822 169e AB610000 	 .4byte 0x61ab
 3823 16a2 00       	 .byte 0
 3824 16a3 04       	 .uleb128 0x4
 3825 16a4 E1590000 	 .4byte .LASF299
 3826 16a8 0E       	 .byte 0xe
 3827 16a9 F703     	 .2byte 0x3f7
 3828 16ab 07       	 .byte 0x7
 3829 16ac 13410000 	 .4byte .LASF300
 3830 16b0 4C4F0000 	 .4byte 0x4f4c
 3831 16b4 01       	 .byte 0x1
 3832 16b5 BD160000 	 .4byte 0x16bd
 3833 16b9 C3160000 	 .4byte 0x16c3
 3834 16bd 03       	 .uleb128 0x3
 3835 16be B1610000 	 .4byte 0x61b1
 3836 16c2 00       	 .byte 0
 3837 16c3 11       	 .uleb128 0x11
 3838 16c4 CC4F0000 	 .4byte .LASF301
 3839 16c8 0E       	 .byte 0xe
 3840 16c9 63       	 .byte 0x63
 3841 16ca 37       	 .byte 0x37
 3842 16cb DE470000 	 .4byte 0x47de
 3843 16cf 01       	 .byte 0x1
 3844 16d0 04       	 .uleb128 0x4
 3845 16d1 AE300000 	 .4byte .LASF302
 3846 16d5 0E       	 .byte 0xe
 3847 16d6 0604     	 .2byte 0x406
 3848 16d8 07       	 .byte 0x7
 3849 16d9 295E0000 	 .4byte .LASF303
 3850 16dd C3160000 	 .4byte 0x16c3
 3851 16e1 01       	 .byte 0x1
 3852 16e2 EA160000 	 .4byte 0x16ea
 3853 16e6 F5160000 	 .4byte 0x16f5
 3854 16ea 03       	 .uleb128 0x3
 3855 16eb B1610000 	 .4byte 0x61b1
 3856 16ef 01       	 .uleb128 0x1
 3857 16f0 680C0000 	 .4byte 0xc68
 3858 16f4 00       	 .byte 0
 3859 16f5 11       	 .uleb128 0x11
 3860 16f6 F7650000 	 .4byte .LASF304
 3861 16fa 0E       	 .byte 0xe
 3862 16fb 62       	 .byte 0x62
 3863 16fc 32       	 .byte 0x32
 3864 16fd D2470000 	 .4byte 0x47d2
 3865 1701 01       	 .byte 0x1
 3866 1702 04       	 .uleb128 0x4
 3867 1703 AE300000 	 .4byte .LASF302
 3868 1707 0E       	 .byte 0xe
 3869 1708 1704     	 .2byte 0x417
 3870 170a 07       	 .byte 0x7
ARM GAS   			page 82


 3871 170b FF420000 	 .4byte .LASF305
 3872 170f F5160000 	 .4byte 0x16f5
 3873 1713 01       	 .byte 0x1
 3874 1714 1C170000 	 .4byte 0x171c
 3875 1718 27170000 	 .4byte 0x1727
 3876 171c 03       	 .uleb128 0x3
 3877 171d AB610000 	 .4byte 0x61ab
 3878 1721 01       	 .uleb128 0x1
 3879 1722 680C0000 	 .4byte 0xc68
 3880 1726 00       	 .byte 0
 3881 1727 34       	 .uleb128 0x34
 3882 1728 617400   	 .ascii "at\000"
 3883 172b 0E       	 .byte 0xe
 3884 172c 2C04     	 .2byte 0x42c
 3885 172e 07       	 .byte 0x7
 3886 172f 6A6A0000 	 .4byte .LASF306
 3887 1733 C3160000 	 .4byte 0x16c3
 3888 1737 01       	 .byte 0x1
 3889 1738 40170000 	 .4byte 0x1740
 3890 173c 4B170000 	 .4byte 0x174b
 3891 1740 03       	 .uleb128 0x3
 3892 1741 B1610000 	 .4byte 0x61b1
 3893 1745 01       	 .uleb128 0x1
 3894 1746 680C0000 	 .4byte 0xc68
 3895 174a 00       	 .byte 0
 3896 174b 34       	 .uleb128 0x34
 3897 174c 617400   	 .ascii "at\000"
 3898 174f 0E       	 .byte 0xe
 3899 1750 4104     	 .2byte 0x441
 3900 1752 07       	 .byte 0x7
 3901 1753 81640000 	 .4byte .LASF307
 3902 1757 F5160000 	 .4byte 0x16f5
 3903 175b 01       	 .byte 0x1
 3904 175c 64170000 	 .4byte 0x1764
 3905 1760 6F170000 	 .4byte 0x176f
 3906 1764 03       	 .uleb128 0x3
 3907 1765 AB610000 	 .4byte 0x61ab
 3908 1769 01       	 .uleb128 0x1
 3909 176a 680C0000 	 .4byte 0xc68
 3910 176e 00       	 .byte 0
 3911 176f 04       	 .uleb128 0x4
 3912 1770 E9260000 	 .4byte .LASF308
 3913 1774 0E       	 .byte 0xe
 3914 1775 5104     	 .2byte 0x451
 3915 1777 07       	 .byte 0x7
 3916 1778 32140000 	 .4byte .LASF309
 3917 177c F5160000 	 .4byte 0x16f5
 3918 1780 01       	 .byte 0x1
 3919 1781 89170000 	 .4byte 0x1789
 3920 1785 8F170000 	 .4byte 0x178f
 3921 1789 03       	 .uleb128 0x3
 3922 178a AB610000 	 .4byte 0x61ab
 3923 178e 00       	 .byte 0
 3924 178f 04       	 .uleb128 0x4
 3925 1790 E9260000 	 .4byte .LASF308
 3926 1794 0E       	 .byte 0xe
 3927 1795 5C04     	 .2byte 0x45c
ARM GAS   			page 83


 3928 1797 07       	 .byte 0x7
 3929 1798 61660000 	 .4byte .LASF310
 3930 179c C3160000 	 .4byte 0x16c3
 3931 17a0 01       	 .byte 0x1
 3932 17a1 A9170000 	 .4byte 0x17a9
 3933 17a5 AF170000 	 .4byte 0x17af
 3934 17a9 03       	 .uleb128 0x3
 3935 17aa B1610000 	 .4byte 0x61b1
 3936 17ae 00       	 .byte 0
 3937 17af 04       	 .uleb128 0x4
 3938 17b0 6A390000 	 .4byte .LASF311
 3939 17b4 0E       	 .byte 0xe
 3940 17b5 6704     	 .2byte 0x467
 3941 17b7 07       	 .byte 0x7
 3942 17b8 616B0000 	 .4byte .LASF312
 3943 17bc F5160000 	 .4byte 0x16f5
 3944 17c0 01       	 .byte 0x1
 3945 17c1 C9170000 	 .4byte 0x17c9
 3946 17c5 CF170000 	 .4byte 0x17cf
 3947 17c9 03       	 .uleb128 0x3
 3948 17ca AB610000 	 .4byte 0x61ab
 3949 17ce 00       	 .byte 0
 3950 17cf 04       	 .uleb128 0x4
 3951 17d0 6A390000 	 .4byte .LASF311
 3952 17d4 0E       	 .byte 0xe
 3953 17d5 7204     	 .2byte 0x472
 3954 17d7 07       	 .byte 0x7
 3955 17d8 28000000 	 .4byte .LASF313
 3956 17dc C3160000 	 .4byte 0x16c3
 3957 17e0 01       	 .byte 0x1
 3958 17e1 E9170000 	 .4byte 0x17e9
 3959 17e5 EF170000 	 .4byte 0x17ef
 3960 17e9 03       	 .uleb128 0x3
 3961 17ea B1610000 	 .4byte 0x61b1
 3962 17ee 00       	 .byte 0
 3963 17ef 04       	 .uleb128 0x4
 3964 17f0 71460000 	 .4byte .LASF314
 3965 17f4 0E       	 .byte 0xe
 3966 17f5 8004     	 .2byte 0x480
 3967 17f7 07       	 .byte 0x7
 3968 17f8 861A0000 	 .4byte .LASF315
 3969 17fc D5610000 	 .4byte 0x61d5
 3970 1800 01       	 .byte 0x1
 3971 1801 09180000 	 .4byte 0x1809
 3972 1805 14180000 	 .4byte 0x1814
 3973 1809 03       	 .uleb128 0x3
 3974 180a AB610000 	 .4byte 0x61ab
 3975 180e 01       	 .uleb128 0x1
 3976 180f C9610000 	 .4byte 0x61c9
 3977 1813 00       	 .byte 0
 3978 1814 04       	 .uleb128 0x4
 3979 1815 71460000 	 .4byte .LASF314
 3980 1819 0E       	 .byte 0xe
 3981 181a 8904     	 .2byte 0x489
 3982 181c 07       	 .byte 0x7
 3983 181d 75690000 	 .4byte .LASF316
 3984 1821 D5610000 	 .4byte 0x61d5
ARM GAS   			page 84


 3985 1825 01       	 .byte 0x1
 3986 1826 2E180000 	 .4byte 0x182e
 3987 182a 39180000 	 .4byte 0x1839
 3988 182e 03       	 .uleb128 0x3
 3989 182f AB610000 	 .4byte 0x61ab
 3990 1833 01       	 .uleb128 0x1
 3991 1834 83080000 	 .4byte 0x883
 3992 1838 00       	 .byte 0
 3993 1839 04       	 .uleb128 0x4
 3994 183a 71460000 	 .4byte .LASF314
 3995 183e 0E       	 .byte 0xe
 3996 183f 9204     	 .2byte 0x492
 3997 1841 07       	 .byte 0x7
 3998 1842 9D510000 	 .4byte .LASF317
 3999 1846 D5610000 	 .4byte 0x61d5
 4000 184a 01       	 .byte 0x1
 4001 184b 53180000 	 .4byte 0x1853
 4002 184f 5E180000 	 .4byte 0x185e
 4003 1853 03       	 .uleb128 0x3
 4004 1854 AB610000 	 .4byte 0x61ab
 4005 1858 01       	 .uleb128 0x1
 4006 1859 53080000 	 .4byte 0x853
 4007 185d 00       	 .byte 0
 4008 185e 04       	 .uleb128 0x4
 4009 185f 71460000 	 .4byte .LASF314
 4010 1863 0E       	 .byte 0xe
 4011 1864 9F04     	 .2byte 0x49f
 4012 1866 07       	 .byte 0x7
 4013 1867 E36B0000 	 .4byte .LASF318
 4014 186b D5610000 	 .4byte 0x61d5
 4015 186f 01       	 .byte 0x1
 4016 1870 78180000 	 .4byte 0x1878
 4017 1874 83180000 	 .4byte 0x1883
 4018 1878 03       	 .uleb128 0x3
 4019 1879 AB610000 	 .4byte 0x61ab
 4020 187d 01       	 .uleb128 0x1
 4021 187e 11430000 	 .4byte 0x4311
 4022 1882 00       	 .byte 0
 4023 1883 04       	 .uleb128 0x4
 4024 1884 363E0000 	 .4byte .LASF319
 4025 1888 0E       	 .byte 0xe
 4026 1889 B504     	 .2byte 0x4b5
 4027 188b 07       	 .byte 0x7
 4028 188c 0D270000 	 .4byte .LASF320
 4029 1890 D5610000 	 .4byte 0x61d5
 4030 1894 01       	 .byte 0x1
 4031 1895 9D180000 	 .4byte 0x189d
 4032 1899 A8180000 	 .4byte 0x18a8
 4033 189d 03       	 .uleb128 0x3
 4034 189e AB610000 	 .4byte 0x61ab
 4035 18a2 01       	 .uleb128 0x1
 4036 18a3 C9610000 	 .4byte 0x61c9
 4037 18a7 00       	 .byte 0
 4038 18a8 04       	 .uleb128 0x4
 4039 18a9 363E0000 	 .4byte .LASF319
 4040 18ad 0E       	 .byte 0xe
 4041 18ae C604     	 .2byte 0x4c6
ARM GAS   			page 85


 4042 18b0 07       	 .byte 0x7
 4043 18b1 3D3E0000 	 .4byte .LASF321
 4044 18b5 D5610000 	 .4byte 0x61d5
 4045 18b9 01       	 .byte 0x1
 4046 18ba C2180000 	 .4byte 0x18c2
 4047 18be D7180000 	 .4byte 0x18d7
 4048 18c2 03       	 .uleb128 0x3
 4049 18c3 AB610000 	 .4byte 0x61ab
 4050 18c7 01       	 .uleb128 0x1
 4051 18c8 C9610000 	 .4byte 0x61c9
 4052 18cc 01       	 .uleb128 0x1
 4053 18cd 680C0000 	 .4byte 0xc68
 4054 18d1 01       	 .uleb128 0x1
 4055 18d2 680C0000 	 .4byte 0xc68
 4056 18d6 00       	 .byte 0
 4057 18d7 04       	 .uleb128 0x4
 4058 18d8 363E0000 	 .4byte .LASF319
 4059 18dc 0E       	 .byte 0xe
 4060 18dd D204     	 .2byte 0x4d2
 4061 18df 07       	 .byte 0x7
 4062 18e0 5B190000 	 .4byte .LASF322
 4063 18e4 D5610000 	 .4byte 0x61d5
 4064 18e8 01       	 .byte 0x1
 4065 18e9 F1180000 	 .4byte 0x18f1
 4066 18ed 01190000 	 .4byte 0x1901
 4067 18f1 03       	 .uleb128 0x3
 4068 18f2 AB610000 	 .4byte 0x61ab
 4069 18f6 01       	 .uleb128 0x1
 4070 18f7 83080000 	 .4byte 0x883
 4071 18fb 01       	 .uleb128 0x1
 4072 18fc 680C0000 	 .4byte 0xc68
 4073 1900 00       	 .byte 0
 4074 1901 04       	 .uleb128 0x4
 4075 1902 363E0000 	 .4byte .LASF319
 4076 1906 0E       	 .byte 0xe
 4077 1907 DF04     	 .2byte 0x4df
 4078 1909 07       	 .byte 0x7
 4079 190a 23290000 	 .4byte .LASF323
 4080 190e D5610000 	 .4byte 0x61d5
 4081 1912 01       	 .byte 0x1
 4082 1913 1B190000 	 .4byte 0x191b
 4083 1917 26190000 	 .4byte 0x1926
 4084 191b 03       	 .uleb128 0x3
 4085 191c AB610000 	 .4byte 0x61ab
 4086 1920 01       	 .uleb128 0x1
 4087 1921 83080000 	 .4byte 0x883
 4088 1925 00       	 .byte 0
 4089 1926 04       	 .uleb128 0x4
 4090 1927 363E0000 	 .4byte .LASF319
 4091 192b 0E       	 .byte 0xe
 4092 192c F004     	 .2byte 0x4f0
 4093 192e 07       	 .byte 0x7
 4094 192f 26640000 	 .4byte .LASF324
 4095 1933 D5610000 	 .4byte 0x61d5
 4096 1937 01       	 .byte 0x1
 4097 1938 40190000 	 .4byte 0x1940
 4098 193c 50190000 	 .4byte 0x1950
ARM GAS   			page 86


 4099 1940 03       	 .uleb128 0x3
 4100 1941 AB610000 	 .4byte 0x61ab
 4101 1945 01       	 .uleb128 0x1
 4102 1946 680C0000 	 .4byte 0xc68
 4103 194a 01       	 .uleb128 0x1
 4104 194b 53080000 	 .4byte 0x853
 4105 194f 00       	 .byte 0
 4106 1950 04       	 .uleb128 0x4
 4107 1951 363E0000 	 .4byte .LASF319
 4108 1955 0E       	 .byte 0xe
 4109 1956 FA04     	 .2byte 0x4fa
 4110 1958 07       	 .byte 0x7
 4111 1959 850C0000 	 .4byte .LASF325
 4112 195d D5610000 	 .4byte 0x61d5
 4113 1961 01       	 .byte 0x1
 4114 1962 6A190000 	 .4byte 0x196a
 4115 1966 75190000 	 .4byte 0x1975
 4116 196a 03       	 .uleb128 0x3
 4117 196b AB610000 	 .4byte 0x61ab
 4118 196f 01       	 .uleb128 0x1
 4119 1970 11430000 	 .4byte 0x4311
 4120 1974 00       	 .byte 0
 4121 1975 20       	 .uleb128 0x20
 4122 1976 AB5B0000 	 .4byte .LASF326
 4123 197a 0E       	 .byte 0xe
 4124 197b 3505     	 .2byte 0x535
 4125 197d 07       	 .byte 0x7
 4126 197e B92B0000 	 .4byte .LASF327
 4127 1982 01       	 .byte 0x1
 4128 1983 8B190000 	 .4byte 0x198b
 4129 1987 96190000 	 .4byte 0x1996
 4130 198b 03       	 .uleb128 0x3
 4131 198c AB610000 	 .4byte 0x61ab
 4132 1990 01       	 .uleb128 0x1
 4133 1991 53080000 	 .4byte 0x853
 4134 1995 00       	 .byte 0
 4135 1996 04       	 .uleb128 0x4
 4136 1997 841B0000 	 .4byte .LASF328
 4137 199b 0E       	 .byte 0xe
 4138 199c 4405     	 .2byte 0x544
 4139 199e 07       	 .byte 0x7
 4140 199f 97440000 	 .4byte .LASF329
 4141 19a3 D5610000 	 .4byte 0x61d5
 4142 19a7 01       	 .byte 0x1
 4143 19a8 B0190000 	 .4byte 0x19b0
 4144 19ac BB190000 	 .4byte 0x19bb
 4145 19b0 03       	 .uleb128 0x3
 4146 19b1 AB610000 	 .4byte 0x61ab
 4147 19b5 01       	 .uleb128 0x1
 4148 19b6 C9610000 	 .4byte 0x61c9
 4149 19ba 00       	 .byte 0
 4150 19bb 04       	 .uleb128 0x4
 4151 19bc 841B0000 	 .4byte .LASF328
 4152 19c0 0E       	 .byte 0xe
 4153 19c1 7105     	 .2byte 0x571
 4154 19c3 07       	 .byte 0x7
 4155 19c4 BE680000 	 .4byte .LASF330
ARM GAS   			page 87


 4156 19c8 D5610000 	 .4byte 0x61d5
 4157 19cc 01       	 .byte 0x1
 4158 19cd D5190000 	 .4byte 0x19d5
 4159 19d1 E0190000 	 .4byte 0x19e0
 4160 19d5 03       	 .uleb128 0x3
 4161 19d6 AB610000 	 .4byte 0x61ab
 4162 19da 01       	 .uleb128 0x1
 4163 19db CF610000 	 .4byte 0x61cf
 4164 19df 00       	 .byte 0
 4165 19e0 04       	 .uleb128 0x4
 4166 19e1 841B0000 	 .4byte .LASF328
 4167 19e5 0E       	 .byte 0xe
 4168 19e6 8805     	 .2byte 0x588
 4169 19e8 07       	 .byte 0x7
 4170 19e9 88490000 	 .4byte .LASF331
 4171 19ed D5610000 	 .4byte 0x61d5
 4172 19f1 01       	 .byte 0x1
 4173 19f2 FA190000 	 .4byte 0x19fa
 4174 19f6 0F1A0000 	 .4byte 0x1a0f
 4175 19fa 03       	 .uleb128 0x3
 4176 19fb AB610000 	 .4byte 0x61ab
 4177 19ff 01       	 .uleb128 0x1
 4178 1a00 C9610000 	 .4byte 0x61c9
 4179 1a04 01       	 .uleb128 0x1
 4180 1a05 680C0000 	 .4byte 0xc68
 4181 1a09 01       	 .uleb128 0x1
 4182 1a0a 680C0000 	 .4byte 0xc68
 4183 1a0e 00       	 .byte 0
 4184 1a0f 04       	 .uleb128 0x4
 4185 1a10 841B0000 	 .4byte .LASF328
 4186 1a14 0E       	 .byte 0xe
 4187 1a15 9805     	 .2byte 0x598
 4188 1a17 07       	 .byte 0x7
 4189 1a18 FC0B0000 	 .4byte .LASF332
 4190 1a1c D5610000 	 .4byte 0x61d5
 4191 1a20 01       	 .byte 0x1
 4192 1a21 291A0000 	 .4byte 0x1a29
 4193 1a25 391A0000 	 .4byte 0x1a39
 4194 1a29 03       	 .uleb128 0x3
 4195 1a2a AB610000 	 .4byte 0x61ab
 4196 1a2e 01       	 .uleb128 0x1
 4197 1a2f 83080000 	 .4byte 0x883
 4198 1a33 01       	 .uleb128 0x1
 4199 1a34 680C0000 	 .4byte 0xc68
 4200 1a38 00       	 .byte 0
 4201 1a39 04       	 .uleb128 0x4
 4202 1a3a 841B0000 	 .4byte .LASF328
 4203 1a3e 0E       	 .byte 0xe
 4204 1a3f A805     	 .2byte 0x5a8
 4205 1a41 07       	 .byte 0x7
 4206 1a42 C90A0000 	 .4byte .LASF333
 4207 1a46 D5610000 	 .4byte 0x61d5
 4208 1a4a 01       	 .byte 0x1
 4209 1a4b 531A0000 	 .4byte 0x1a53
 4210 1a4f 5E1A0000 	 .4byte 0x1a5e
 4211 1a53 03       	 .uleb128 0x3
 4212 1a54 AB610000 	 .4byte 0x61ab
ARM GAS   			page 88


 4213 1a58 01       	 .uleb128 0x1
 4214 1a59 83080000 	 .4byte 0x883
 4215 1a5d 00       	 .byte 0
 4216 1a5e 04       	 .uleb128 0x4
 4217 1a5f 841B0000 	 .4byte .LASF328
 4218 1a63 0E       	 .byte 0xe
 4219 1a64 B905     	 .2byte 0x5b9
 4220 1a66 07       	 .byte 0x7
 4221 1a67 2B080000 	 .4byte .LASF334
 4222 1a6b D5610000 	 .4byte 0x61d5
 4223 1a6f 01       	 .byte 0x1
 4224 1a70 781A0000 	 .4byte 0x1a78
 4225 1a74 881A0000 	 .4byte 0x1a88
 4226 1a78 03       	 .uleb128 0x3
 4227 1a79 AB610000 	 .4byte 0x61ab
 4228 1a7d 01       	 .uleb128 0x1
 4229 1a7e 680C0000 	 .4byte 0xc68
 4230 1a82 01       	 .uleb128 0x1
 4231 1a83 53080000 	 .4byte 0x853
 4232 1a87 00       	 .byte 0
 4233 1a88 04       	 .uleb128 0x4
 4234 1a89 841B0000 	 .4byte .LASF328
 4235 1a8d 0E       	 .byte 0xe
 4236 1a8e D505     	 .2byte 0x5d5
 4237 1a90 07       	 .byte 0x7
 4238 1a91 294B0000 	 .4byte .LASF335
 4239 1a95 D5610000 	 .4byte 0x61d5
 4240 1a99 01       	 .byte 0x1
 4241 1a9a A21A0000 	 .4byte 0x1aa2
 4242 1a9e AD1A0000 	 .4byte 0x1aad
 4243 1aa2 03       	 .uleb128 0x3
 4244 1aa3 AB610000 	 .4byte 0x61ab
 4245 1aa7 01       	 .uleb128 0x1
 4246 1aa8 11430000 	 .4byte 0x4311
 4247 1aac 00       	 .byte 0
 4248 1aad 04       	 .uleb128 0x4
 4249 1aae BF480000 	 .4byte .LASF336
 4250 1ab2 0E       	 .byte 0xe
 4251 1ab3 0B06     	 .2byte 0x60b
 4252 1ab5 07       	 .byte 0x7
 4253 1ab6 62340000 	 .4byte .LASF337
 4254 1aba D30F0000 	 .4byte 0xfd3
 4255 1abe 01       	 .byte 0x1
 4256 1abf C71A0000 	 .4byte 0x1ac7
 4257 1ac3 DC1A0000 	 .4byte 0x1adc
 4258 1ac7 03       	 .uleb128 0x3
 4259 1ac8 AB610000 	 .4byte 0x61ab
 4260 1acc 01       	 .uleb128 0x1
 4261 1acd 01100000 	 .4byte 0x1001
 4262 1ad1 01       	 .uleb128 0x1
 4263 1ad2 680C0000 	 .4byte 0xc68
 4264 1ad6 01       	 .uleb128 0x1
 4265 1ad7 53080000 	 .4byte 0x853
 4266 1adb 00       	 .byte 0
 4267 1adc 04       	 .uleb128 0x4
 4268 1add BF480000 	 .4byte .LASF336
 4269 1ae1 0E       	 .byte 0xe
ARM GAS   			page 89


 4270 1ae2 5906     	 .2byte 0x659
 4271 1ae4 07       	 .byte 0x7
 4272 1ae5 9B130000 	 .4byte .LASF338
 4273 1ae9 D30F0000 	 .4byte 0xfd3
 4274 1aed 01       	 .byte 0x1
 4275 1aee F61A0000 	 .4byte 0x1af6
 4276 1af2 061B0000 	 .4byte 0x1b06
 4277 1af6 03       	 .uleb128 0x3
 4278 1af7 AB610000 	 .4byte 0x61ab
 4279 1afb 01       	 .uleb128 0x1
 4280 1afc 01100000 	 .4byte 0x1001
 4281 1b00 01       	 .uleb128 0x1
 4282 1b01 11430000 	 .4byte 0x4311
 4283 1b05 00       	 .byte 0
 4284 1b06 04       	 .uleb128 0x4
 4285 1b07 BF480000 	 .4byte .LASF336
 4286 1b0b 0E       	 .byte 0xe
 4287 1b0c 7406     	 .2byte 0x674
 4288 1b0e 07       	 .byte 0x7
 4289 1b0f CA450000 	 .4byte .LASF339
 4290 1b13 D5610000 	 .4byte 0x61d5
 4291 1b17 01       	 .byte 0x1
 4292 1b18 201B0000 	 .4byte 0x1b20
 4293 1b1c 301B0000 	 .4byte 0x1b30
 4294 1b20 03       	 .uleb128 0x3
 4295 1b21 AB610000 	 .4byte 0x61ab
 4296 1b25 01       	 .uleb128 0x1
 4297 1b26 680C0000 	 .4byte 0xc68
 4298 1b2a 01       	 .uleb128 0x1
 4299 1b2b C9610000 	 .4byte 0x61c9
 4300 1b2f 00       	 .byte 0
 4301 1b30 04       	 .uleb128 0x4
 4302 1b31 BF480000 	 .4byte .LASF336
 4303 1b35 0E       	 .byte 0xe
 4304 1b36 8B06     	 .2byte 0x68b
 4305 1b38 07       	 .byte 0x7
 4306 1b39 F3370000 	 .4byte .LASF340
 4307 1b3d D5610000 	 .4byte 0x61d5
 4308 1b41 01       	 .byte 0x1
 4309 1b42 4A1B0000 	 .4byte 0x1b4a
 4310 1b46 641B0000 	 .4byte 0x1b64
 4311 1b4a 03       	 .uleb128 0x3
 4312 1b4b AB610000 	 .4byte 0x61ab
 4313 1b4f 01       	 .uleb128 0x1
 4314 1b50 680C0000 	 .4byte 0xc68
 4315 1b54 01       	 .uleb128 0x1
 4316 1b55 C9610000 	 .4byte 0x61c9
 4317 1b59 01       	 .uleb128 0x1
 4318 1b5a 680C0000 	 .4byte 0xc68
 4319 1b5e 01       	 .uleb128 0x1
 4320 1b5f 680C0000 	 .4byte 0xc68
 4321 1b63 00       	 .byte 0
 4322 1b64 04       	 .uleb128 0x4
 4323 1b65 BF480000 	 .4byte .LASF336
 4324 1b69 0E       	 .byte 0xe
 4325 1b6a A206     	 .2byte 0x6a2
 4326 1b6c 07       	 .byte 0x7
ARM GAS   			page 90


 4327 1b6d 07160000 	 .4byte .LASF341
 4328 1b71 D5610000 	 .4byte 0x61d5
 4329 1b75 01       	 .byte 0x1
 4330 1b76 7E1B0000 	 .4byte 0x1b7e
 4331 1b7a 931B0000 	 .4byte 0x1b93
 4332 1b7e 03       	 .uleb128 0x3
 4333 1b7f AB610000 	 .4byte 0x61ab
 4334 1b83 01       	 .uleb128 0x1
 4335 1b84 680C0000 	 .4byte 0xc68
 4336 1b88 01       	 .uleb128 0x1
 4337 1b89 83080000 	 .4byte 0x883
 4338 1b8d 01       	 .uleb128 0x1
 4339 1b8e 680C0000 	 .4byte 0xc68
 4340 1b92 00       	 .byte 0
 4341 1b93 04       	 .uleb128 0x4
 4342 1b94 BF480000 	 .4byte .LASF336
 4343 1b98 0E       	 .byte 0xe
 4344 1b99 B506     	 .2byte 0x6b5
 4345 1b9b 07       	 .byte 0x7
 4346 1b9c 0F4E0000 	 .4byte .LASF342
 4347 1ba0 D5610000 	 .4byte 0x61d5
 4348 1ba4 01       	 .byte 0x1
 4349 1ba5 AD1B0000 	 .4byte 0x1bad
 4350 1ba9 BD1B0000 	 .4byte 0x1bbd
 4351 1bad 03       	 .uleb128 0x3
 4352 1bae AB610000 	 .4byte 0x61ab
 4353 1bb2 01       	 .uleb128 0x1
 4354 1bb3 680C0000 	 .4byte 0xc68
 4355 1bb7 01       	 .uleb128 0x1
 4356 1bb8 83080000 	 .4byte 0x883
 4357 1bbc 00       	 .byte 0
 4358 1bbd 04       	 .uleb128 0x4
 4359 1bbe BF480000 	 .4byte .LASF336
 4360 1bc2 0E       	 .byte 0xe
 4361 1bc3 CD06     	 .2byte 0x6cd
 4362 1bc5 07       	 .byte 0x7
 4363 1bc6 2C1F0000 	 .4byte .LASF343
 4364 1bca D5610000 	 .4byte 0x61d5
 4365 1bce 01       	 .byte 0x1
 4366 1bcf D71B0000 	 .4byte 0x1bd7
 4367 1bd3 EC1B0000 	 .4byte 0x1bec
 4368 1bd7 03       	 .uleb128 0x3
 4369 1bd8 AB610000 	 .4byte 0x61ab
 4370 1bdc 01       	 .uleb128 0x1
 4371 1bdd 680C0000 	 .4byte 0xc68
 4372 1be1 01       	 .uleb128 0x1
 4373 1be2 680C0000 	 .4byte 0xc68
 4374 1be6 01       	 .uleb128 0x1
 4375 1be7 53080000 	 .4byte 0x853
 4376 1beb 00       	 .byte 0
 4377 1bec 04       	 .uleb128 0x4
 4378 1bed BF480000 	 .4byte .LASF336
 4379 1bf1 0E       	 .byte 0xe
 4380 1bf2 DF06     	 .2byte 0x6df
 4381 1bf4 07       	 .byte 0x7
 4382 1bf5 AE550000 	 .4byte .LASF344
 4383 1bf9 D30F0000 	 .4byte 0xfd3
ARM GAS   			page 91


 4384 1bfd 01       	 .byte 0x1
 4385 1bfe 061C0000 	 .4byte 0x1c06
 4386 1c02 161C0000 	 .4byte 0x1c16
 4387 1c06 03       	 .uleb128 0x3
 4388 1c07 AB610000 	 .4byte 0x61ab
 4389 1c0b 01       	 .uleb128 0x1
 4390 1c0c 161C0000 	 .4byte 0x1c16
 4391 1c10 01       	 .uleb128 0x1
 4392 1c11 53080000 	 .4byte 0x853
 4393 1c15 00       	 .byte 0
 4394 1c16 11       	 .uleb128 0x11
 4395 1c17 D0260000 	 .4byte .LASF345
 4396 1c1b 0E       	 .byte 0xe
 4397 1c1c 74       	 .byte 0x74
 4398 1c1d 1E       	 .byte 0x1e
 4399 1c1e 01100000 	 .4byte 0x1001
 4400 1c22 02       	 .byte 0x2
 4401 1c23 04       	 .uleb128 0x4
 4402 1c24 20540000 	 .4byte .LASF346
 4403 1c28 0E       	 .byte 0xe
 4404 1c29 1B07     	 .2byte 0x71b
 4405 1c2b 07       	 .byte 0x7
 4406 1c2c 14040000 	 .4byte .LASF347
 4407 1c30 D5610000 	 .4byte 0x61d5
 4408 1c34 01       	 .byte 0x1
 4409 1c35 3D1C0000 	 .4byte 0x1c3d
 4410 1c39 4D1C0000 	 .4byte 0x1c4d
 4411 1c3d 03       	 .uleb128 0x3
 4412 1c3e AB610000 	 .4byte 0x61ab
 4413 1c42 01       	 .uleb128 0x1
 4414 1c43 680C0000 	 .4byte 0xc68
 4415 1c47 01       	 .uleb128 0x1
 4416 1c48 680C0000 	 .4byte 0xc68
 4417 1c4c 00       	 .byte 0
 4418 1c4d 04       	 .uleb128 0x4
 4419 1c4e 20540000 	 .4byte .LASF346
 4420 1c52 0E       	 .byte 0xe
 4421 1c53 2E07     	 .2byte 0x72e
 4422 1c55 07       	 .byte 0x7
 4423 1c56 B7670000 	 .4byte .LASF348
 4424 1c5a D30F0000 	 .4byte 0xfd3
 4425 1c5e 01       	 .byte 0x1
 4426 1c5f 671C0000 	 .4byte 0x1c67
 4427 1c63 721C0000 	 .4byte 0x1c72
 4428 1c67 03       	 .uleb128 0x3
 4429 1c68 AB610000 	 .4byte 0x61ab
 4430 1c6c 01       	 .uleb128 0x1
 4431 1c6d 161C0000 	 .4byte 0x1c16
 4432 1c71 00       	 .byte 0
 4433 1c72 04       	 .uleb128 0x4
 4434 1c73 20540000 	 .4byte .LASF346
 4435 1c77 0E       	 .byte 0xe
 4436 1c78 4107     	 .2byte 0x741
 4437 1c7a 07       	 .byte 0x7
 4438 1c7b B55B0000 	 .4byte .LASF349
 4439 1c7f D30F0000 	 .4byte 0xfd3
 4440 1c83 01       	 .byte 0x1
ARM GAS   			page 92


 4441 1c84 8C1C0000 	 .4byte 0x1c8c
 4442 1c88 9C1C0000 	 .4byte 0x1c9c
 4443 1c8c 03       	 .uleb128 0x3
 4444 1c8d AB610000 	 .4byte 0x61ab
 4445 1c91 01       	 .uleb128 0x1
 4446 1c92 161C0000 	 .4byte 0x1c16
 4447 1c96 01       	 .uleb128 0x1
 4448 1c97 161C0000 	 .4byte 0x1c16
 4449 1c9b 00       	 .byte 0
 4450 1c9c 20       	 .uleb128 0x20
 4451 1c9d 8A320000 	 .4byte .LASF350
 4452 1ca1 0E       	 .byte 0xe
 4453 1ca2 5407     	 .2byte 0x754
 4454 1ca4 07       	 .byte 0x7
 4455 1ca5 104C0000 	 .4byte .LASF351
 4456 1ca9 01       	 .byte 0x1
 4457 1caa B21C0000 	 .4byte 0x1cb2
 4458 1cae B81C0000 	 .4byte 0x1cb8
 4459 1cb2 03       	 .uleb128 0x3
 4460 1cb3 AB610000 	 .4byte 0x61ab
 4461 1cb7 00       	 .byte 0
 4462 1cb8 04       	 .uleb128 0x4
 4463 1cb9 F40D0000 	 .4byte .LASF352
 4464 1cbd 0E       	 .byte 0xe
 4465 1cbe 6D07     	 .2byte 0x76d
 4466 1cc0 07       	 .byte 0x7
 4467 1cc1 350B0000 	 .4byte .LASF353
 4468 1cc5 D5610000 	 .4byte 0x61d5
 4469 1cc9 01       	 .byte 0x1
 4470 1cca D21C0000 	 .4byte 0x1cd2
 4471 1cce E71C0000 	 .4byte 0x1ce7
 4472 1cd2 03       	 .uleb128 0x3
 4473 1cd3 AB610000 	 .4byte 0x61ab
 4474 1cd7 01       	 .uleb128 0x1
 4475 1cd8 680C0000 	 .4byte 0xc68
 4476 1cdc 01       	 .uleb128 0x1
 4477 1cdd 680C0000 	 .4byte 0xc68
 4478 1ce1 01       	 .uleb128 0x1
 4479 1ce2 C9610000 	 .4byte 0x61c9
 4480 1ce6 00       	 .byte 0
 4481 1ce7 04       	 .uleb128 0x4
 4482 1ce8 F40D0000 	 .4byte .LASF352
 4483 1cec 0E       	 .byte 0xe
 4484 1ced 8307     	 .2byte 0x783
 4485 1cef 07       	 .byte 0x7
 4486 1cf0 A0660000 	 .4byte .LASF354
 4487 1cf4 D5610000 	 .4byte 0x61d5
 4488 1cf8 01       	 .byte 0x1
 4489 1cf9 011D0000 	 .4byte 0x1d01
 4490 1cfd 201D0000 	 .4byte 0x1d20
 4491 1d01 03       	 .uleb128 0x3
 4492 1d02 AB610000 	 .4byte 0x61ab
 4493 1d06 01       	 .uleb128 0x1
 4494 1d07 680C0000 	 .4byte 0xc68
 4495 1d0b 01       	 .uleb128 0x1
 4496 1d0c 680C0000 	 .4byte 0xc68
 4497 1d10 01       	 .uleb128 0x1
ARM GAS   			page 93


 4498 1d11 C9610000 	 .4byte 0x61c9
 4499 1d15 01       	 .uleb128 0x1
 4500 1d16 680C0000 	 .4byte 0xc68
 4501 1d1a 01       	 .uleb128 0x1
 4502 1d1b 680C0000 	 .4byte 0xc68
 4503 1d1f 00       	 .byte 0
 4504 1d20 04       	 .uleb128 0x4
 4505 1d21 F40D0000 	 .4byte .LASF352
 4506 1d25 0E       	 .byte 0xe
 4507 1d26 9C07     	 .2byte 0x79c
 4508 1d28 07       	 .byte 0x7
 4509 1d29 E5460000 	 .4byte .LASF355
 4510 1d2d D5610000 	 .4byte 0x61d5
 4511 1d31 01       	 .byte 0x1
 4512 1d32 3A1D0000 	 .4byte 0x1d3a
 4513 1d36 541D0000 	 .4byte 0x1d54
 4514 1d3a 03       	 .uleb128 0x3
 4515 1d3b AB610000 	 .4byte 0x61ab
 4516 1d3f 01       	 .uleb128 0x1
 4517 1d40 680C0000 	 .4byte 0xc68
 4518 1d44 01       	 .uleb128 0x1
 4519 1d45 680C0000 	 .4byte 0xc68
 4520 1d49 01       	 .uleb128 0x1
 4521 1d4a 83080000 	 .4byte 0x883
 4522 1d4e 01       	 .uleb128 0x1
 4523 1d4f 680C0000 	 .4byte 0xc68
 4524 1d53 00       	 .byte 0
 4525 1d54 04       	 .uleb128 0x4
 4526 1d55 F40D0000 	 .4byte .LASF352
 4527 1d59 0E       	 .byte 0xe
 4528 1d5a B507     	 .2byte 0x7b5
 4529 1d5c 07       	 .byte 0x7
 4530 1d5d 243A0000 	 .4byte .LASF356
 4531 1d61 D5610000 	 .4byte 0x61d5
 4532 1d65 01       	 .byte 0x1
 4533 1d66 6E1D0000 	 .4byte 0x1d6e
 4534 1d6a 831D0000 	 .4byte 0x1d83
 4535 1d6e 03       	 .uleb128 0x3
 4536 1d6f AB610000 	 .4byte 0x61ab
 4537 1d73 01       	 .uleb128 0x1
 4538 1d74 680C0000 	 .4byte 0xc68
 4539 1d78 01       	 .uleb128 0x1
 4540 1d79 680C0000 	 .4byte 0xc68
 4541 1d7d 01       	 .uleb128 0x1
 4542 1d7e 83080000 	 .4byte 0x883
 4543 1d82 00       	 .byte 0
 4544 1d83 04       	 .uleb128 0x4
 4545 1d84 F40D0000 	 .4byte .LASF352
 4546 1d88 0E       	 .byte 0xe
 4547 1d89 CD07     	 .2byte 0x7cd
 4548 1d8b 07       	 .byte 0x7
 4549 1d8c 4D280000 	 .4byte .LASF357
 4550 1d90 D5610000 	 .4byte 0x61d5
 4551 1d94 01       	 .byte 0x1
 4552 1d95 9D1D0000 	 .4byte 0x1d9d
 4553 1d99 B71D0000 	 .4byte 0x1db7
 4554 1d9d 03       	 .uleb128 0x3
ARM GAS   			page 94


 4555 1d9e AB610000 	 .4byte 0x61ab
 4556 1da2 01       	 .uleb128 0x1
 4557 1da3 680C0000 	 .4byte 0xc68
 4558 1da7 01       	 .uleb128 0x1
 4559 1da8 680C0000 	 .4byte 0xc68
 4560 1dac 01       	 .uleb128 0x1
 4561 1dad 680C0000 	 .4byte 0xc68
 4562 1db1 01       	 .uleb128 0x1
 4563 1db2 53080000 	 .4byte 0x853
 4564 1db6 00       	 .byte 0
 4565 1db7 04       	 .uleb128 0x4
 4566 1db8 F40D0000 	 .4byte .LASF352
 4567 1dbc 0E       	 .byte 0xe
 4568 1dbd DF07     	 .2byte 0x7df
 4569 1dbf 07       	 .byte 0x7
 4570 1dc0 02150000 	 .4byte .LASF358
 4571 1dc4 D5610000 	 .4byte 0x61d5
 4572 1dc8 01       	 .byte 0x1
 4573 1dc9 D11D0000 	 .4byte 0x1dd1
 4574 1dcd E61D0000 	 .4byte 0x1de6
 4575 1dd1 03       	 .uleb128 0x3
 4576 1dd2 AB610000 	 .4byte 0x61ab
 4577 1dd6 01       	 .uleb128 0x1
 4578 1dd7 161C0000 	 .4byte 0x1c16
 4579 1ddb 01       	 .uleb128 0x1
 4580 1ddc 161C0000 	 .4byte 0x1c16
 4581 1de0 01       	 .uleb128 0x1
 4582 1de1 C9610000 	 .4byte 0x61c9
 4583 1de5 00       	 .byte 0
 4584 1de6 04       	 .uleb128 0x4
 4585 1de7 F40D0000 	 .4byte .LASF352
 4586 1deb 0E       	 .byte 0xe
 4587 1dec F307     	 .2byte 0x7f3
 4588 1dee 07       	 .byte 0x7
 4589 1def 0A310000 	 .4byte .LASF359
 4590 1df3 D5610000 	 .4byte 0x61d5
 4591 1df7 01       	 .byte 0x1
 4592 1df8 001E0000 	 .4byte 0x1e00
 4593 1dfc 1A1E0000 	 .4byte 0x1e1a
 4594 1e00 03       	 .uleb128 0x3
 4595 1e01 AB610000 	 .4byte 0x61ab
 4596 1e05 01       	 .uleb128 0x1
 4597 1e06 161C0000 	 .4byte 0x1c16
 4598 1e0a 01       	 .uleb128 0x1
 4599 1e0b 161C0000 	 .4byte 0x1c16
 4600 1e0f 01       	 .uleb128 0x1
 4601 1e10 83080000 	 .4byte 0x883
 4602 1e14 01       	 .uleb128 0x1
 4603 1e15 680C0000 	 .4byte 0xc68
 4604 1e19 00       	 .byte 0
 4605 1e1a 04       	 .uleb128 0x4
 4606 1e1b F40D0000 	 .4byte .LASF352
 4607 1e1f 0E       	 .byte 0xe
 4608 1e20 0908     	 .2byte 0x809
 4609 1e22 07       	 .byte 0x7
 4610 1e23 4C3D0000 	 .4byte .LASF360
 4611 1e27 D5610000 	 .4byte 0x61d5
ARM GAS   			page 95


 4612 1e2b 01       	 .byte 0x1
 4613 1e2c 341E0000 	 .4byte 0x1e34
 4614 1e30 491E0000 	 .4byte 0x1e49
 4615 1e34 03       	 .uleb128 0x3
 4616 1e35 AB610000 	 .4byte 0x61ab
 4617 1e39 01       	 .uleb128 0x1
 4618 1e3a 161C0000 	 .4byte 0x1c16
 4619 1e3e 01       	 .uleb128 0x1
 4620 1e3f 161C0000 	 .4byte 0x1c16
 4621 1e43 01       	 .uleb128 0x1
 4622 1e44 83080000 	 .4byte 0x883
 4623 1e48 00       	 .byte 0
 4624 1e49 04       	 .uleb128 0x4
 4625 1e4a F40D0000 	 .4byte .LASF352
 4626 1e4e 0E       	 .byte 0xe
 4627 1e4f 1E08     	 .2byte 0x81e
 4628 1e51 07       	 .byte 0x7
 4629 1e52 331C0000 	 .4byte .LASF361
 4630 1e56 D5610000 	 .4byte 0x61d5
 4631 1e5a 01       	 .byte 0x1
 4632 1e5b 631E0000 	 .4byte 0x1e63
 4633 1e5f 7D1E0000 	 .4byte 0x1e7d
 4634 1e63 03       	 .uleb128 0x3
 4635 1e64 AB610000 	 .4byte 0x61ab
 4636 1e68 01       	 .uleb128 0x1
 4637 1e69 161C0000 	 .4byte 0x1c16
 4638 1e6d 01       	 .uleb128 0x1
 4639 1e6e 161C0000 	 .4byte 0x1c16
 4640 1e72 01       	 .uleb128 0x1
 4641 1e73 680C0000 	 .4byte 0xc68
 4642 1e77 01       	 .uleb128 0x1
 4643 1e78 53080000 	 .4byte 0x853
 4644 1e7c 00       	 .byte 0
 4645 1e7d 04       	 .uleb128 0x4
 4646 1e7e F40D0000 	 .4byte .LASF352
 4647 1e82 0E       	 .byte 0xe
 4648 1e83 5708     	 .2byte 0x857
 4649 1e85 07       	 .byte 0x7
 4650 1e86 59260000 	 .4byte .LASF362
 4651 1e8a D5610000 	 .4byte 0x61d5
 4652 1e8e 01       	 .byte 0x1
 4653 1e8f 971E0000 	 .4byte 0x1e97
 4654 1e93 B11E0000 	 .4byte 0x1eb1
 4655 1e97 03       	 .uleb128 0x3
 4656 1e98 AB610000 	 .4byte 0x61ab
 4657 1e9c 01       	 .uleb128 0x1
 4658 1e9d 161C0000 	 .4byte 0x1c16
 4659 1ea1 01       	 .uleb128 0x1
 4660 1ea2 161C0000 	 .4byte 0x1c16
 4661 1ea6 01       	 .uleb128 0x1
 4662 1ea7 48080000 	 .4byte 0x848
 4663 1eab 01       	 .uleb128 0x1
 4664 1eac 48080000 	 .4byte 0x848
 4665 1eb0 00       	 .byte 0
 4666 1eb1 04       	 .uleb128 0x4
 4667 1eb2 F40D0000 	 .4byte .LASF352
 4668 1eb6 0E       	 .byte 0xe
ARM GAS   			page 96


 4669 1eb7 6208     	 .2byte 0x862
 4670 1eb9 07       	 .byte 0x7
 4671 1eba B5390000 	 .4byte .LASF363
 4672 1ebe D5610000 	 .4byte 0x61d5
 4673 1ec2 01       	 .byte 0x1
 4674 1ec3 CB1E0000 	 .4byte 0x1ecb
 4675 1ec7 E51E0000 	 .4byte 0x1ee5
 4676 1ecb 03       	 .uleb128 0x3
 4677 1ecc AB610000 	 .4byte 0x61ab
 4678 1ed0 01       	 .uleb128 0x1
 4679 1ed1 161C0000 	 .4byte 0x1c16
 4680 1ed5 01       	 .uleb128 0x1
 4681 1ed6 161C0000 	 .4byte 0x1c16
 4682 1eda 01       	 .uleb128 0x1
 4683 1edb 83080000 	 .4byte 0x883
 4684 1edf 01       	 .uleb128 0x1
 4685 1ee0 83080000 	 .4byte 0x883
 4686 1ee4 00       	 .byte 0
 4687 1ee5 04       	 .uleb128 0x4
 4688 1ee6 F40D0000 	 .4byte .LASF352
 4689 1eea 0E       	 .byte 0xe
 4690 1eeb 6D08     	 .2byte 0x86d
 4691 1eed 07       	 .byte 0x7
 4692 1eee C60F0000 	 .4byte .LASF364
 4693 1ef2 D5610000 	 .4byte 0x61d5
 4694 1ef6 01       	 .byte 0x1
 4695 1ef7 FF1E0000 	 .4byte 0x1eff
 4696 1efb 191F0000 	 .4byte 0x1f19
 4697 1eff 03       	 .uleb128 0x3
 4698 1f00 AB610000 	 .4byte 0x61ab
 4699 1f04 01       	 .uleb128 0x1
 4700 1f05 161C0000 	 .4byte 0x1c16
 4701 1f09 01       	 .uleb128 0x1
 4702 1f0a 161C0000 	 .4byte 0x1c16
 4703 1f0e 01       	 .uleb128 0x1
 4704 1f0f D30F0000 	 .4byte 0xfd3
 4705 1f13 01       	 .uleb128 0x1
 4706 1f14 D30F0000 	 .4byte 0xfd3
 4707 1f18 00       	 .byte 0
 4708 1f19 04       	 .uleb128 0x4
 4709 1f1a F40D0000 	 .4byte .LASF352
 4710 1f1e 0E       	 .byte 0xe
 4711 1f1f 7808     	 .2byte 0x878
 4712 1f21 07       	 .byte 0x7
 4713 1f22 265F0000 	 .4byte .LASF365
 4714 1f26 D5610000 	 .4byte 0x61d5
 4715 1f2a 01       	 .byte 0x1
 4716 1f2b 331F0000 	 .4byte 0x1f33
 4717 1f2f 4D1F0000 	 .4byte 0x1f4d
 4718 1f33 03       	 .uleb128 0x3
 4719 1f34 AB610000 	 .4byte 0x61ab
 4720 1f38 01       	 .uleb128 0x1
 4721 1f39 161C0000 	 .4byte 0x1c16
 4722 1f3d 01       	 .uleb128 0x1
 4723 1f3e 161C0000 	 .4byte 0x1c16
 4724 1f42 01       	 .uleb128 0x1
 4725 1f43 01100000 	 .4byte 0x1001
ARM GAS   			page 97


 4726 1f47 01       	 .uleb128 0x1
 4727 1f48 01100000 	 .4byte 0x1001
 4728 1f4c 00       	 .byte 0
 4729 1f4d 04       	 .uleb128 0x4
 4730 1f4e F40D0000 	 .4byte .LASF352
 4731 1f52 0E       	 .byte 0xe
 4732 1f53 9108     	 .2byte 0x891
 4733 1f55 15       	 .byte 0x15
 4734 1f56 6B620000 	 .4byte .LASF366
 4735 1f5a D5610000 	 .4byte 0x61d5
 4736 1f5e 01       	 .byte 0x1
 4737 1f5f 671F0000 	 .4byte 0x1f67
 4738 1f63 7C1F0000 	 .4byte 0x1f7c
 4739 1f67 03       	 .uleb128 0x3
 4740 1f68 AB610000 	 .4byte 0x61ab
 4741 1f6c 01       	 .uleb128 0x1
 4742 1f6d 01100000 	 .4byte 0x1001
 4743 1f71 01       	 .uleb128 0x1
 4744 1f72 01100000 	 .4byte 0x1001
 4745 1f76 01       	 .uleb128 0x1
 4746 1f77 11430000 	 .4byte 0x4311
 4747 1f7b 00       	 .byte 0
 4748 1f7c 22       	 .uleb128 0x22
 4749 1f7d 5C620000 	 .4byte .LASF367
 4750 1f81 0E       	 .byte 0xe
 4751 1f82 DB08     	 .2byte 0x8db
 4752 1f84 07       	 .byte 0x7
 4753 1f85 5D470000 	 .4byte .LASF368
 4754 1f89 D5610000 	 .4byte 0x61d5
 4755 1f8d 951F0000 	 .4byte 0x1f95
 4756 1f91 AF1F0000 	 .4byte 0x1faf
 4757 1f95 03       	 .uleb128 0x3
 4758 1f96 AB610000 	 .4byte 0x61ab
 4759 1f9a 01       	 .uleb128 0x1
 4760 1f9b 680C0000 	 .4byte 0xc68
 4761 1f9f 01       	 .uleb128 0x1
 4762 1fa0 680C0000 	 .4byte 0xc68
 4763 1fa4 01       	 .uleb128 0x1
 4764 1fa5 680C0000 	 .4byte 0xc68
 4765 1fa9 01       	 .uleb128 0x1
 4766 1faa 53080000 	 .4byte 0x853
 4767 1fae 00       	 .byte 0
 4768 1faf 22       	 .uleb128 0x22
 4769 1fb0 EB560000 	 .4byte .LASF369
 4770 1fb4 0E       	 .byte 0xe
 4771 1fb5 DF08     	 .2byte 0x8df
 4772 1fb7 07       	 .byte 0x7
 4773 1fb8 DA1A0000 	 .4byte .LASF370
 4774 1fbc D5610000 	 .4byte 0x61d5
 4775 1fc0 C81F0000 	 .4byte 0x1fc8
 4776 1fc4 E21F0000 	 .4byte 0x1fe2
 4777 1fc8 03       	 .uleb128 0x3
 4778 1fc9 AB610000 	 .4byte 0x61ab
 4779 1fcd 01       	 .uleb128 0x1
 4780 1fce 680C0000 	 .4byte 0xc68
 4781 1fd2 01       	 .uleb128 0x1
 4782 1fd3 680C0000 	 .4byte 0xc68
ARM GAS   			page 98


 4783 1fd7 01       	 .uleb128 0x1
 4784 1fd8 83080000 	 .4byte 0x883
 4785 1fdc 01       	 .uleb128 0x1
 4786 1fdd 680C0000 	 .4byte 0xc68
 4787 1fe1 00       	 .byte 0
 4788 1fe2 22       	 .uleb128 0x22
 4789 1fe3 004C0000 	 .4byte .LASF371
 4790 1fe7 0E       	 .byte 0xe
 4791 1fe8 E308     	 .2byte 0x8e3
 4792 1fea 07       	 .byte 0x7
 4793 1feb 775E0000 	 .4byte .LASF372
 4794 1fef D5610000 	 .4byte 0x61d5
 4795 1ff3 FB1F0000 	 .4byte 0x1ffb
 4796 1ff7 0B200000 	 .4byte 0x200b
 4797 1ffb 03       	 .uleb128 0x3
 4798 1ffc AB610000 	 .4byte 0x61ab
 4799 2000 01       	 .uleb128 0x1
 4800 2001 83080000 	 .4byte 0x883
 4801 2005 01       	 .uleb128 0x1
 4802 2006 680C0000 	 .4byte 0xc68
 4803 200a 00       	 .byte 0
 4804 200b 04       	 .uleb128 0x4
 4805 200c DF3E0000 	 .4byte .LASF373
 4806 2010 0E       	 .byte 0xe
 4807 2011 F408     	 .2byte 0x8f4
 4808 2013 07       	 .byte 0x7
 4809 2014 FC0D0000 	 .4byte .LASF374
 4810 2018 680C0000 	 .4byte 0xc68
 4811 201c 01       	 .byte 0x1
 4812 201d 25200000 	 .4byte 0x2025
 4813 2021 3A200000 	 .4byte 0x203a
 4814 2025 03       	 .uleb128 0x3
 4815 2026 B1610000 	 .4byte 0x61b1
 4816 202a 01       	 .uleb128 0x1
 4817 202b 48080000 	 .4byte 0x848
 4818 202f 01       	 .uleb128 0x1
 4819 2030 680C0000 	 .4byte 0xc68
 4820 2034 01       	 .uleb128 0x1
 4821 2035 680C0000 	 .4byte 0xc68
 4822 2039 00       	 .byte 0
 4823 203a 20       	 .uleb128 0x20
 4824 203b 5A1D0000 	 .4byte .LASF375
 4825 203f 0E       	 .byte 0xe
 4826 2040 FE08     	 .2byte 0x8fe
 4827 2042 07       	 .byte 0x7
 4828 2043 AD470000 	 .4byte .LASF376
 4829 2047 01       	 .byte 0x1
 4830 2048 50200000 	 .4byte 0x2050
 4831 204c 5B200000 	 .4byte 0x205b
 4832 2050 03       	 .uleb128 0x3
 4833 2051 AB610000 	 .4byte 0x61ab
 4834 2055 01       	 .uleb128 0x1
 4835 2056 D5610000 	 .4byte 0x61d5
 4836 205a 00       	 .byte 0
 4837 205b 04       	 .uleb128 0x4
 4838 205c C64F0000 	 .4byte .LASF377
 4839 2060 0E       	 .byte 0xe
ARM GAS   			page 99


 4840 2061 0809     	 .2byte 0x908
 4841 2063 07       	 .byte 0x7
 4842 2064 F3620000 	 .4byte .LASF378
 4843 2068 83080000 	 .4byte 0x883
 4844 206c 01       	 .byte 0x1
 4845 206d 75200000 	 .4byte 0x2075
 4846 2071 7B200000 	 .4byte 0x207b
 4847 2075 03       	 .uleb128 0x3
 4848 2076 B1610000 	 .4byte 0x61b1
 4849 207a 00       	 .byte 0
 4850 207b 04       	 .uleb128 0x4
 4851 207c 72560000 	 .4byte .LASF379
 4852 2080 0E       	 .byte 0xe
 4853 2081 1409     	 .2byte 0x914
 4854 2083 07       	 .byte 0x7
 4855 2084 B3430000 	 .4byte .LASF380
 4856 2088 83080000 	 .4byte 0x883
 4857 208c 01       	 .byte 0x1
 4858 208d 95200000 	 .4byte 0x2095
 4859 2091 9B200000 	 .4byte 0x209b
 4860 2095 03       	 .uleb128 0x3
 4861 2096 B1610000 	 .4byte 0x61b1
 4862 209a 00       	 .byte 0
 4863 209b 04       	 .uleb128 0x4
 4864 209c 462E0000 	 .4byte .LASF381
 4865 20a0 0E       	 .byte 0xe
 4866 20a1 2709     	 .2byte 0x927
 4867 20a3 07       	 .byte 0x7
 4868 20a4 99590000 	 .4byte .LASF382
 4869 20a8 530E0000 	 .4byte 0xe53
 4870 20ac 01       	 .byte 0x1
 4871 20ad B5200000 	 .4byte 0x20b5
 4872 20b1 BB200000 	 .4byte 0x20bb
 4873 20b5 03       	 .uleb128 0x3
 4874 20b6 B1610000 	 .4byte 0x61b1
 4875 20ba 00       	 .byte 0
 4876 20bb 04       	 .uleb128 0x4
 4877 20bc 7C310000 	 .4byte .LASF383
 4878 20c0 0E       	 .byte 0xe
 4879 20c1 3709     	 .2byte 0x937
 4880 20c3 07       	 .byte 0x7
 4881 20c4 801F0000 	 .4byte .LASF384
 4882 20c8 680C0000 	 .4byte 0xc68
 4883 20cc 01       	 .byte 0x1
 4884 20cd D5200000 	 .4byte 0x20d5
 4885 20d1 EA200000 	 .4byte 0x20ea
 4886 20d5 03       	 .uleb128 0x3
 4887 20d6 B1610000 	 .4byte 0x61b1
 4888 20da 01       	 .uleb128 0x1
 4889 20db 83080000 	 .4byte 0x883
 4890 20df 01       	 .uleb128 0x1
 4891 20e0 680C0000 	 .4byte 0xc68
 4892 20e4 01       	 .uleb128 0x1
 4893 20e5 680C0000 	 .4byte 0xc68
 4894 20e9 00       	 .byte 0
 4895 20ea 04       	 .uleb128 0x4
 4896 20eb 7C310000 	 .4byte .LASF383
ARM GAS   			page 100


 4897 20ef 0E       	 .byte 0xe
 4898 20f0 4509     	 .2byte 0x945
 4899 20f2 07       	 .byte 0x7
 4900 20f3 E0490000 	 .4byte .LASF385
 4901 20f7 680C0000 	 .4byte 0xc68
 4902 20fb 01       	 .byte 0x1
 4903 20fc 04210000 	 .4byte 0x2104
 4904 2100 14210000 	 .4byte 0x2114
 4905 2104 03       	 .uleb128 0x3
 4906 2105 B1610000 	 .4byte 0x61b1
 4907 2109 01       	 .uleb128 0x1
 4908 210a C9610000 	 .4byte 0x61c9
 4909 210e 01       	 .uleb128 0x1
 4910 210f 680C0000 	 .4byte 0xc68
 4911 2113 00       	 .byte 0
 4912 2114 04       	 .uleb128 0x4
 4913 2115 7C310000 	 .4byte .LASF383
 4914 2119 0E       	 .byte 0xe
 4915 211a 6509     	 .2byte 0x965
 4916 211c 07       	 .byte 0x7
 4917 211d E8660000 	 .4byte .LASF386
 4918 2121 680C0000 	 .4byte 0xc68
 4919 2125 01       	 .byte 0x1
 4920 2126 2E210000 	 .4byte 0x212e
 4921 212a 3E210000 	 .4byte 0x213e
 4922 212e 03       	 .uleb128 0x3
 4923 212f B1610000 	 .4byte 0x61b1
 4924 2133 01       	 .uleb128 0x1
 4925 2134 83080000 	 .4byte 0x883
 4926 2138 01       	 .uleb128 0x1
 4927 2139 680C0000 	 .4byte 0xc68
 4928 213d 00       	 .byte 0
 4929 213e 04       	 .uleb128 0x4
 4930 213f 7C310000 	 .4byte .LASF383
 4931 2143 0E       	 .byte 0xe
 4932 2144 7609     	 .2byte 0x976
 4933 2146 07       	 .byte 0x7
 4934 2147 1E390000 	 .4byte .LASF387
 4935 214b 680C0000 	 .4byte 0xc68
 4936 214f 01       	 .byte 0x1
 4937 2150 58210000 	 .4byte 0x2158
 4938 2154 68210000 	 .4byte 0x2168
 4939 2158 03       	 .uleb128 0x3
 4940 2159 B1610000 	 .4byte 0x61b1
 4941 215d 01       	 .uleb128 0x1
 4942 215e 53080000 	 .4byte 0x853
 4943 2162 01       	 .uleb128 0x1
 4944 2163 680C0000 	 .4byte 0xc68
 4945 2167 00       	 .byte 0
 4946 2168 04       	 .uleb128 0x4
 4947 2169 11130000 	 .4byte .LASF388
 4948 216d 0E       	 .byte 0xe
 4949 216e 8309     	 .2byte 0x983
 4950 2170 07       	 .byte 0x7
 4951 2171 D0030000 	 .4byte .LASF389
 4952 2175 680C0000 	 .4byte 0xc68
 4953 2179 01       	 .byte 0x1
ARM GAS   			page 101


 4954 217a 82210000 	 .4byte 0x2182
 4955 217e 92210000 	 .4byte 0x2192
 4956 2182 03       	 .uleb128 0x3
 4957 2183 B1610000 	 .4byte 0x61b1
 4958 2187 01       	 .uleb128 0x1
 4959 2188 C9610000 	 .4byte 0x61c9
 4960 218c 01       	 .uleb128 0x1
 4961 218d 680C0000 	 .4byte 0xc68
 4962 2191 00       	 .byte 0
 4963 2192 04       	 .uleb128 0x4
 4964 2193 11130000 	 .4byte .LASF388
 4965 2197 0E       	 .byte 0xe
 4966 2198 A509     	 .2byte 0x9a5
 4967 219a 07       	 .byte 0x7
 4968 219b 5B380000 	 .4byte .LASF390
 4969 219f 680C0000 	 .4byte 0xc68
 4970 21a3 01       	 .byte 0x1
 4971 21a4 AC210000 	 .4byte 0x21ac
 4972 21a8 C1210000 	 .4byte 0x21c1
 4973 21ac 03       	 .uleb128 0x3
 4974 21ad B1610000 	 .4byte 0x61b1
 4975 21b1 01       	 .uleb128 0x1
 4976 21b2 83080000 	 .4byte 0x883
 4977 21b6 01       	 .uleb128 0x1
 4978 21b7 680C0000 	 .4byte 0xc68
 4979 21bb 01       	 .uleb128 0x1
 4980 21bc 680C0000 	 .4byte 0xc68
 4981 21c0 00       	 .byte 0
 4982 21c1 04       	 .uleb128 0x4
 4983 21c2 11130000 	 .4byte .LASF388
 4984 21c6 0E       	 .byte 0xe
 4985 21c7 B309     	 .2byte 0x9b3
 4986 21c9 07       	 .byte 0x7
 4987 21ca 364A0000 	 .4byte .LASF391
 4988 21ce 680C0000 	 .4byte 0xc68
 4989 21d2 01       	 .byte 0x1
 4990 21d3 DB210000 	 .4byte 0x21db
 4991 21d7 EB210000 	 .4byte 0x21eb
 4992 21db 03       	 .uleb128 0x3
 4993 21dc B1610000 	 .4byte 0x61b1
 4994 21e0 01       	 .uleb128 0x1
 4995 21e1 83080000 	 .4byte 0x883
 4996 21e5 01       	 .uleb128 0x1
 4997 21e6 680C0000 	 .4byte 0xc68
 4998 21ea 00       	 .byte 0
 4999 21eb 04       	 .uleb128 0x4
 5000 21ec 11130000 	 .4byte .LASF388
 5001 21f0 0E       	 .byte 0xe
 5002 21f1 C409     	 .2byte 0x9c4
 5003 21f3 07       	 .byte 0x7
 5004 21f4 D1610000 	 .4byte .LASF392
 5005 21f8 680C0000 	 .4byte 0xc68
 5006 21fc 01       	 .byte 0x1
 5007 21fd 05220000 	 .4byte 0x2205
 5008 2201 15220000 	 .4byte 0x2215
 5009 2205 03       	 .uleb128 0x3
 5010 2206 B1610000 	 .4byte 0x61b1
ARM GAS   			page 102


 5011 220a 01       	 .uleb128 0x1
 5012 220b 53080000 	 .4byte 0x853
 5013 220f 01       	 .uleb128 0x1
 5014 2210 680C0000 	 .4byte 0xc68
 5015 2214 00       	 .byte 0
 5016 2215 04       	 .uleb128 0x4
 5017 2216 776D0000 	 .4byte .LASF393
 5018 221a 0E       	 .byte 0xe
 5019 221b D209     	 .2byte 0x9d2
 5020 221d 07       	 .byte 0x7
 5021 221e 823E0000 	 .4byte .LASF394
 5022 2222 680C0000 	 .4byte 0xc68
 5023 2226 01       	 .byte 0x1
 5024 2227 2F220000 	 .4byte 0x222f
 5025 222b 3F220000 	 .4byte 0x223f
 5026 222f 03       	 .uleb128 0x3
 5027 2230 B1610000 	 .4byte 0x61b1
 5028 2234 01       	 .uleb128 0x1
 5029 2235 C9610000 	 .4byte 0x61c9
 5030 2239 01       	 .uleb128 0x1
 5031 223a 680C0000 	 .4byte 0xc68
 5032 223e 00       	 .byte 0
 5033 223f 04       	 .uleb128 0x4
 5034 2240 776D0000 	 .4byte .LASF393
 5035 2244 0E       	 .byte 0xe
 5036 2245 F509     	 .2byte 0x9f5
 5037 2247 07       	 .byte 0x7
 5038 2248 723A0000 	 .4byte .LASF395
 5039 224c 680C0000 	 .4byte 0xc68
 5040 2250 01       	 .byte 0x1
 5041 2251 59220000 	 .4byte 0x2259
 5042 2255 6E220000 	 .4byte 0x226e
 5043 2259 03       	 .uleb128 0x3
 5044 225a B1610000 	 .4byte 0x61b1
 5045 225e 01       	 .uleb128 0x1
 5046 225f 83080000 	 .4byte 0x883
 5047 2263 01       	 .uleb128 0x1
 5048 2264 680C0000 	 .4byte 0xc68
 5049 2268 01       	 .uleb128 0x1
 5050 2269 680C0000 	 .4byte 0xc68
 5051 226d 00       	 .byte 0
 5052 226e 04       	 .uleb128 0x4
 5053 226f 776D0000 	 .4byte .LASF393
 5054 2273 0E       	 .byte 0xe
 5055 2274 030A     	 .2byte 0xa03
 5056 2276 07       	 .byte 0x7
 5057 2277 A90D0000 	 .4byte .LASF396
 5058 227b 680C0000 	 .4byte 0xc68
 5059 227f 01       	 .byte 0x1
 5060 2280 88220000 	 .4byte 0x2288
 5061 2284 98220000 	 .4byte 0x2298
 5062 2288 03       	 .uleb128 0x3
 5063 2289 B1610000 	 .4byte 0x61b1
 5064 228d 01       	 .uleb128 0x1
 5065 228e 83080000 	 .4byte 0x883
 5066 2292 01       	 .uleb128 0x1
 5067 2293 680C0000 	 .4byte 0xc68
ARM GAS   			page 103


 5068 2297 00       	 .byte 0
 5069 2298 04       	 .uleb128 0x4
 5070 2299 776D0000 	 .4byte .LASF393
 5071 229d 0E       	 .byte 0xe
 5072 229e 170A     	 .2byte 0xa17
 5073 22a0 07       	 .byte 0x7
 5074 22a1 3D0E0000 	 .4byte .LASF397
 5075 22a5 680C0000 	 .4byte 0xc68
 5076 22a9 01       	 .byte 0x1
 5077 22aa B2220000 	 .4byte 0x22b2
 5078 22ae C2220000 	 .4byte 0x22c2
 5079 22b2 03       	 .uleb128 0x3
 5080 22b3 B1610000 	 .4byte 0x61b1
 5081 22b7 01       	 .uleb128 0x1
 5082 22b8 53080000 	 .4byte 0x853
 5083 22bc 01       	 .uleb128 0x1
 5084 22bd 680C0000 	 .4byte 0xc68
 5085 22c1 00       	 .byte 0
 5086 22c2 04       	 .uleb128 0x4
 5087 22c3 19640000 	 .4byte .LASF398
 5088 22c7 0E       	 .byte 0xe
 5089 22c8 260A     	 .2byte 0xa26
 5090 22ca 07       	 .byte 0x7
 5091 22cb 78450000 	 .4byte .LASF399
 5092 22cf 680C0000 	 .4byte 0xc68
 5093 22d3 01       	 .byte 0x1
 5094 22d4 DC220000 	 .4byte 0x22dc
 5095 22d8 EC220000 	 .4byte 0x22ec
 5096 22dc 03       	 .uleb128 0x3
 5097 22dd B1610000 	 .4byte 0x61b1
 5098 22e1 01       	 .uleb128 0x1
 5099 22e2 C9610000 	 .4byte 0x61c9
 5100 22e6 01       	 .uleb128 0x1
 5101 22e7 680C0000 	 .4byte 0xc68
 5102 22eb 00       	 .byte 0
 5103 22ec 04       	 .uleb128 0x4
 5104 22ed 19640000 	 .4byte .LASF398
 5105 22f1 0E       	 .byte 0xe
 5106 22f2 490A     	 .2byte 0xa49
 5107 22f4 07       	 .byte 0x7
 5108 22f5 E9270000 	 .4byte .LASF400
 5109 22f9 680C0000 	 .4byte 0xc68
 5110 22fd 01       	 .byte 0x1
 5111 22fe 06230000 	 .4byte 0x2306
 5112 2302 1B230000 	 .4byte 0x231b
 5113 2306 03       	 .uleb128 0x3
 5114 2307 B1610000 	 .4byte 0x61b1
 5115 230b 01       	 .uleb128 0x1
 5116 230c 83080000 	 .4byte 0x883
 5117 2310 01       	 .uleb128 0x1
 5118 2311 680C0000 	 .4byte 0xc68
 5119 2315 01       	 .uleb128 0x1
 5120 2316 680C0000 	 .4byte 0xc68
 5121 231a 00       	 .byte 0
 5122 231b 04       	 .uleb128 0x4
 5123 231c 19640000 	 .4byte .LASF398
 5124 2320 0E       	 .byte 0xe
ARM GAS   			page 104


 5125 2321 570A     	 .2byte 0xa57
 5126 2323 07       	 .byte 0x7
 5127 2324 B3190000 	 .4byte .LASF401
 5128 2328 680C0000 	 .4byte 0xc68
 5129 232c 01       	 .byte 0x1
 5130 232d 35230000 	 .4byte 0x2335
 5131 2331 45230000 	 .4byte 0x2345
 5132 2335 03       	 .uleb128 0x3
 5133 2336 B1610000 	 .4byte 0x61b1
 5134 233a 01       	 .uleb128 0x1
 5135 233b 83080000 	 .4byte 0x883
 5136 233f 01       	 .uleb128 0x1
 5137 2340 680C0000 	 .4byte 0xc68
 5138 2344 00       	 .byte 0
 5139 2345 04       	 .uleb128 0x4
 5140 2346 19640000 	 .4byte .LASF398
 5141 234a 0E       	 .byte 0xe
 5142 234b 6B0A     	 .2byte 0xa6b
 5143 234d 07       	 .byte 0x7
 5144 234e 226A0000 	 .4byte .LASF402
 5145 2352 680C0000 	 .4byte 0xc68
 5146 2356 01       	 .byte 0x1
 5147 2357 5F230000 	 .4byte 0x235f
 5148 235b 6F230000 	 .4byte 0x236f
 5149 235f 03       	 .uleb128 0x3
 5150 2360 B1610000 	 .4byte 0x61b1
 5151 2364 01       	 .uleb128 0x1
 5152 2365 53080000 	 .4byte 0x853
 5153 2369 01       	 .uleb128 0x1
 5154 236a 680C0000 	 .4byte 0xc68
 5155 236e 00       	 .byte 0
 5156 236f 04       	 .uleb128 0x4
 5157 2370 BE360000 	 .4byte .LASF403
 5158 2374 0E       	 .byte 0xe
 5159 2375 790A     	 .2byte 0xa79
 5160 2377 07       	 .byte 0x7
 5161 2378 652A0000 	 .4byte .LASF404
 5162 237c 680C0000 	 .4byte 0xc68
 5163 2380 01       	 .byte 0x1
 5164 2381 89230000 	 .4byte 0x2389
 5165 2385 99230000 	 .4byte 0x2399
 5166 2389 03       	 .uleb128 0x3
 5167 238a B1610000 	 .4byte 0x61b1
 5168 238e 01       	 .uleb128 0x1
 5169 238f C9610000 	 .4byte 0x61c9
 5170 2393 01       	 .uleb128 0x1
 5171 2394 680C0000 	 .4byte 0xc68
 5172 2398 00       	 .byte 0
 5173 2399 04       	 .uleb128 0x4
 5174 239a BE360000 	 .4byte .LASF403
 5175 239e 0E       	 .byte 0xe
 5176 239f 9C0A     	 .2byte 0xa9c
 5177 23a1 07       	 .byte 0x7
 5178 23a2 01660000 	 .4byte .LASF405
 5179 23a6 680C0000 	 .4byte 0xc68
 5180 23aa 01       	 .byte 0x1
 5181 23ab B3230000 	 .4byte 0x23b3
ARM GAS   			page 105


 5182 23af C8230000 	 .4byte 0x23c8
 5183 23b3 03       	 .uleb128 0x3
 5184 23b4 B1610000 	 .4byte 0x61b1
 5185 23b8 01       	 .uleb128 0x1
 5186 23b9 83080000 	 .4byte 0x883
 5187 23bd 01       	 .uleb128 0x1
 5188 23be 680C0000 	 .4byte 0xc68
 5189 23c2 01       	 .uleb128 0x1
 5190 23c3 680C0000 	 .4byte 0xc68
 5191 23c7 00       	 .byte 0
 5192 23c8 04       	 .uleb128 0x4
 5193 23c9 BE360000 	 .4byte .LASF403
 5194 23cd 0E       	 .byte 0xe
 5195 23ce AA0A     	 .2byte 0xaaa
 5196 23d0 07       	 .byte 0x7
 5197 23d1 C9600000 	 .4byte .LASF406
 5198 23d5 680C0000 	 .4byte 0xc68
 5199 23d9 01       	 .byte 0x1
 5200 23da E2230000 	 .4byte 0x23e2
 5201 23de F2230000 	 .4byte 0x23f2
 5202 23e2 03       	 .uleb128 0x3
 5203 23e3 B1610000 	 .4byte 0x61b1
 5204 23e7 01       	 .uleb128 0x1
 5205 23e8 83080000 	 .4byte 0x883
 5206 23ec 01       	 .uleb128 0x1
 5207 23ed 680C0000 	 .4byte 0xc68
 5208 23f1 00       	 .byte 0
 5209 23f2 04       	 .uleb128 0x4
 5210 23f3 BE360000 	 .4byte .LASF403
 5211 23f7 0E       	 .byte 0xe
 5212 23f8 BC0A     	 .2byte 0xabc
 5213 23fa 07       	 .byte 0x7
 5214 23fb DA440000 	 .4byte .LASF407
 5215 23ff 680C0000 	 .4byte 0xc68
 5216 2403 01       	 .byte 0x1
 5217 2404 0C240000 	 .4byte 0x240c
 5218 2408 1C240000 	 .4byte 0x241c
 5219 240c 03       	 .uleb128 0x3
 5220 240d B1610000 	 .4byte 0x61b1
 5221 2411 01       	 .uleb128 0x1
 5222 2412 53080000 	 .4byte 0x853
 5223 2416 01       	 .uleb128 0x1
 5224 2417 680C0000 	 .4byte 0xc68
 5225 241b 00       	 .byte 0
 5226 241c 04       	 .uleb128 0x4
 5227 241d BC070000 	 .4byte .LASF408
 5228 2421 0E       	 .byte 0xe
 5229 2422 CB0A     	 .2byte 0xacb
 5230 2424 07       	 .byte 0x7
 5231 2425 3B400000 	 .4byte .LASF409
 5232 2429 680C0000 	 .4byte 0xc68
 5233 242d 01       	 .byte 0x1
 5234 242e 36240000 	 .4byte 0x2436
 5235 2432 46240000 	 .4byte 0x2446
 5236 2436 03       	 .uleb128 0x3
 5237 2437 B1610000 	 .4byte 0x61b1
 5238 243b 01       	 .uleb128 0x1
ARM GAS   			page 106


 5239 243c C9610000 	 .4byte 0x61c9
 5240 2440 01       	 .uleb128 0x1
 5241 2441 680C0000 	 .4byte 0xc68
 5242 2445 00       	 .byte 0
 5243 2446 04       	 .uleb128 0x4
 5244 2447 BC070000 	 .4byte .LASF408
 5245 244b 0E       	 .byte 0xe
 5246 244c EE0A     	 .2byte 0xaee
 5247 244e 07       	 .byte 0x7
 5248 244f CB480000 	 .4byte .LASF410
 5249 2453 680C0000 	 .4byte 0xc68
 5250 2457 01       	 .byte 0x1
 5251 2458 60240000 	 .4byte 0x2460
 5252 245c 75240000 	 .4byte 0x2475
 5253 2460 03       	 .uleb128 0x3
 5254 2461 B1610000 	 .4byte 0x61b1
 5255 2465 01       	 .uleb128 0x1
 5256 2466 83080000 	 .4byte 0x883
 5257 246a 01       	 .uleb128 0x1
 5258 246b 680C0000 	 .4byte 0xc68
 5259 246f 01       	 .uleb128 0x1
 5260 2470 680C0000 	 .4byte 0xc68
 5261 2474 00       	 .byte 0
 5262 2475 04       	 .uleb128 0x4
 5263 2476 BC070000 	 .4byte .LASF408
 5264 247a 0E       	 .byte 0xe
 5265 247b FC0A     	 .2byte 0xafc
 5266 247d 07       	 .byte 0x7
 5267 247e CA180000 	 .4byte .LASF411
 5268 2482 680C0000 	 .4byte 0xc68
 5269 2486 01       	 .byte 0x1
 5270 2487 8F240000 	 .4byte 0x248f
 5271 248b 9F240000 	 .4byte 0x249f
 5272 248f 03       	 .uleb128 0x3
 5273 2490 B1610000 	 .4byte 0x61b1
 5274 2494 01       	 .uleb128 0x1
 5275 2495 83080000 	 .4byte 0x883
 5276 2499 01       	 .uleb128 0x1
 5277 249a 680C0000 	 .4byte 0xc68
 5278 249e 00       	 .byte 0
 5279 249f 04       	 .uleb128 0x4
 5280 24a0 BC070000 	 .4byte .LASF408
 5281 24a4 0E       	 .byte 0xe
 5282 24a5 0E0B     	 .2byte 0xb0e
 5283 24a7 07       	 .byte 0x7
 5284 24a8 0D260000 	 .4byte .LASF412
 5285 24ac 680C0000 	 .4byte 0xc68
 5286 24b0 01       	 .byte 0x1
 5287 24b1 B9240000 	 .4byte 0x24b9
 5288 24b5 C9240000 	 .4byte 0x24c9
 5289 24b9 03       	 .uleb128 0x3
 5290 24ba B1610000 	 .4byte 0x61b1
 5291 24be 01       	 .uleb128 0x1
 5292 24bf 53080000 	 .4byte 0x853
 5293 24c3 01       	 .uleb128 0x1
 5294 24c4 680C0000 	 .4byte 0xc68
 5295 24c8 00       	 .byte 0
ARM GAS   			page 107


 5296 24c9 04       	 .uleb128 0x4
 5297 24ca 63180000 	 .4byte .LASF413
 5298 24ce 0E       	 .byte 0xe
 5299 24cf 1E0B     	 .2byte 0xb1e
 5300 24d1 07       	 .byte 0x7
 5301 24d2 65270000 	 .4byte .LASF414
 5302 24d6 BB0B0000 	 .4byte 0xbbb
 5303 24da 01       	 .byte 0x1
 5304 24db E3240000 	 .4byte 0x24e3
 5305 24df F3240000 	 .4byte 0x24f3
 5306 24e3 03       	 .uleb128 0x3
 5307 24e4 B1610000 	 .4byte 0x61b1
 5308 24e8 01       	 .uleb128 0x1
 5309 24e9 680C0000 	 .4byte 0xc68
 5310 24ed 01       	 .uleb128 0x1
 5311 24ee 680C0000 	 .4byte 0xc68
 5312 24f2 00       	 .byte 0
 5313 24f3 04       	 .uleb128 0x4
 5314 24f4 C1600000 	 .4byte .LASF415
 5315 24f8 0E       	 .byte 0xe
 5316 24f9 310B     	 .2byte 0xb31
 5317 24fb 07       	 .byte 0x7
 5318 24fc D4100000 	 .4byte .LASF416
 5319 2500 46010000 	 .4byte 0x146
 5320 2504 01       	 .byte 0x1
 5321 2505 0D250000 	 .4byte 0x250d
 5322 2509 18250000 	 .4byte 0x2518
 5323 250d 03       	 .uleb128 0x3
 5324 250e B1610000 	 .4byte 0x61b1
 5325 2512 01       	 .uleb128 0x1
 5326 2513 C9610000 	 .4byte 0x61c9
 5327 2517 00       	 .byte 0
 5328 2518 04       	 .uleb128 0x4
 5329 2519 C1600000 	 .4byte .LASF415
 5330 251d 0E       	 .byte 0xe
 5331 251e 8E0B     	 .2byte 0xb8e
 5332 2520 07       	 .byte 0x7
 5333 2521 F03E0000 	 .4byte .LASF417
 5334 2525 46010000 	 .4byte 0x146
 5335 2529 01       	 .byte 0x1
 5336 252a 32250000 	 .4byte 0x2532
 5337 252e 47250000 	 .4byte 0x2547
 5338 2532 03       	 .uleb128 0x3
 5339 2533 B1610000 	 .4byte 0x61b1
 5340 2537 01       	 .uleb128 0x1
 5341 2538 680C0000 	 .4byte 0xc68
 5342 253c 01       	 .uleb128 0x1
 5343 253d 680C0000 	 .4byte 0xc68
 5344 2541 01       	 .uleb128 0x1
 5345 2542 C9610000 	 .4byte 0x61c9
 5346 2546 00       	 .byte 0
 5347 2547 04       	 .uleb128 0x4
 5348 2548 C1600000 	 .4byte .LASF415
 5349 254c 0E       	 .byte 0xe
 5350 254d A80B     	 .2byte 0xba8
 5351 254f 07       	 .byte 0x7
 5352 2550 DF160000 	 .4byte .LASF418
ARM GAS   			page 108


 5353 2554 46010000 	 .4byte 0x146
 5354 2558 01       	 .byte 0x1
 5355 2559 61250000 	 .4byte 0x2561
 5356 255d 80250000 	 .4byte 0x2580
 5357 2561 03       	 .uleb128 0x3
 5358 2562 B1610000 	 .4byte 0x61b1
 5359 2566 01       	 .uleb128 0x1
 5360 2567 680C0000 	 .4byte 0xc68
 5361 256b 01       	 .uleb128 0x1
 5362 256c 680C0000 	 .4byte 0xc68
 5363 2570 01       	 .uleb128 0x1
 5364 2571 C9610000 	 .4byte 0x61c9
 5365 2575 01       	 .uleb128 0x1
 5366 2576 680C0000 	 .4byte 0xc68
 5367 257a 01       	 .uleb128 0x1
 5368 257b 680C0000 	 .4byte 0xc68
 5369 257f 00       	 .byte 0
 5370 2580 04       	 .uleb128 0x4
 5371 2581 C1600000 	 .4byte .LASF415
 5372 2585 0E       	 .byte 0xe
 5373 2586 BA0B     	 .2byte 0xbba
 5374 2588 07       	 .byte 0x7
 5375 2589 FD0C0000 	 .4byte .LASF419
 5376 258d 46010000 	 .4byte 0x146
 5377 2591 01       	 .byte 0x1
 5378 2592 9A250000 	 .4byte 0x259a
 5379 2596 A5250000 	 .4byte 0x25a5
 5380 259a 03       	 .uleb128 0x3
 5381 259b B1610000 	 .4byte 0x61b1
 5382 259f 01       	 .uleb128 0x1
 5383 25a0 83080000 	 .4byte 0x883
 5384 25a4 00       	 .byte 0
 5385 25a5 04       	 .uleb128 0x4
 5386 25a6 C1600000 	 .4byte .LASF415
 5387 25aa 0E       	 .byte 0xe
 5388 25ab D20B     	 .2byte 0xbd2
 5389 25ad 07       	 .byte 0x7
 5390 25ae 272F0000 	 .4byte .LASF420
 5391 25b2 46010000 	 .4byte 0x146
 5392 25b6 01       	 .byte 0x1
 5393 25b7 BF250000 	 .4byte 0x25bf
 5394 25bb D4250000 	 .4byte 0x25d4
 5395 25bf 03       	 .uleb128 0x3
 5396 25c0 B1610000 	 .4byte 0x61b1
 5397 25c4 01       	 .uleb128 0x1
 5398 25c5 680C0000 	 .4byte 0xc68
 5399 25c9 01       	 .uleb128 0x1
 5400 25ca 680C0000 	 .4byte 0xc68
 5401 25ce 01       	 .uleb128 0x1
 5402 25cf 83080000 	 .4byte 0x883
 5403 25d3 00       	 .byte 0
 5404 25d4 04       	 .uleb128 0x4
 5405 25d5 C1600000 	 .4byte .LASF415
 5406 25d9 0E       	 .byte 0xe
 5407 25da ED0B     	 .2byte 0xbed
 5408 25dc 07       	 .byte 0x7
 5409 25dd 575B0000 	 .4byte .LASF421
ARM GAS   			page 109


 5410 25e1 46010000 	 .4byte 0x146
 5411 25e5 01       	 .byte 0x1
 5412 25e6 EE250000 	 .4byte 0x25ee
 5413 25ea 08260000 	 .4byte 0x2608
 5414 25ee 03       	 .uleb128 0x3
 5415 25ef B1610000 	 .4byte 0x61b1
 5416 25f3 01       	 .uleb128 0x1
 5417 25f4 680C0000 	 .4byte 0xc68
 5418 25f8 01       	 .uleb128 0x1
 5419 25f9 680C0000 	 .4byte 0xc68
 5420 25fd 01       	 .uleb128 0x1
 5421 25fe 83080000 	 .4byte 0x883
 5422 2602 01       	 .uleb128 0x1
 5423 2603 680C0000 	 .4byte 0xc68
 5424 2607 00       	 .byte 0
 5425 2608 23       	 .uleb128 0x23
 5426 2609 98650000 	 .4byte .LASF425
 5427 260d 53080000 	 .4byte 0x853
 5428 2611 4C       	 .uleb128 0x4c
 5429 2612 79440000 	 .4byte .LASF422
 5430 2616 AB3C0000 	 .4byte 0x3cab
 5431 261a 4C       	 .uleb128 0x4c
 5432 261b 9D460000 	 .4byte .LASF423
 5433 261f 843F0000 	 .4byte 0x3f84
 5434 2623 00       	 .byte 0
 5435 2624 0A       	 .uleb128 0xa
 5436 2625 BB0B0000 	 .4byte 0xbbb
 5437 2629 00       	 .byte 0
 5438 262a 35       	 .uleb128 0x35
 5439 262b 13       	 .byte 0x13
 5440 262c 1E01     	 .2byte 0x11e
 5441 262e 41       	 .byte 0x41
 5442 262f AE0B0000 	 .4byte 0xbae
 5443 2633 1A       	 .uleb128 0x1a
 5444 2634 35550000 	 .4byte .LASF424
 5445 2638 01       	 .byte 0x1
 5446 2639 0F       	 .byte 0xf
 5447 263a 7F       	 .byte 0x7f
 5448 263b 0C       	 .byte 0xc
 5449 263c 5F260000 	 .4byte 0x265f
 5450 2640 3B       	 .uleb128 0x3b
 5451 2641 07       	 .byte 0x7
 5452 2642 01       	 .byte 0x1
 5453 2643 44000000 	 .4byte 0x44
 5454 2647 0F       	 .byte 0xf
 5455 2648 81       	 .byte 0x81
 5456 2649 0C       	 .byte 0xc
 5457 264a 55260000 	 .4byte 0x2655
 5458 264e 0E       	 .uleb128 0xe
 5459 264f F6560000 	 .4byte .LASF38
 5460 2653 00       	 .byte 0
 5461 2654 00       	 .byte 0
 5462 2655 26       	 .uleb128 0x26
 5463 2656 5F547000 	 .ascii "_Tp\000"
 5464 265a 76010000 	 .4byte 0x176
 5465 265e 00       	 .byte 0
 5466 265f 1A       	 .uleb128 0x1a
ARM GAS   			page 110


 5467 2660 C0120000 	 .4byte .LASF426
 5468 2664 01       	 .byte 0x1
 5469 2665 0F       	 .byte 0xf
 5470 2666 7F       	 .byte 0x7f
 5471 2667 0C       	 .byte 0xc
 5472 2668 8B260000 	 .4byte 0x268b
 5473 266c 3B       	 .uleb128 0x3b
 5474 266d 07       	 .byte 0x7
 5475 266e 01       	 .byte 0x1
 5476 266f 44000000 	 .4byte 0x44
 5477 2673 0F       	 .byte 0xf
 5478 2674 81       	 .byte 0x81
 5479 2675 0C       	 .byte 0xc
 5480 2676 81260000 	 .4byte 0x2681
 5481 267a 0E       	 .uleb128 0xe
 5482 267b F6560000 	 .4byte .LASF38
 5483 267f 00       	 .byte 0
 5484 2680 00       	 .byte 0
 5485 2681 26       	 .uleb128 0x26
 5486 2682 5F547000 	 .ascii "_Tp\000"
 5487 2686 A64C0000 	 .4byte 0x4ca6
 5488 268a 00       	 .byte 0
 5489 268b 1A       	 .uleb128 0x1a
 5490 268c 615A0000 	 .4byte .LASF427
 5491 2690 01       	 .byte 0x1
 5492 2691 0F       	 .byte 0xf
 5493 2692 7F       	 .byte 0x7f
 5494 2693 0C       	 .byte 0xc
 5495 2694 B7260000 	 .4byte 0x26b7
 5496 2698 3B       	 .uleb128 0x3b
 5497 2699 07       	 .byte 0x7
 5498 269a 01       	 .byte 0x1
 5499 269b 44000000 	 .4byte 0x44
 5500 269f 0F       	 .byte 0xf
 5501 26a0 81       	 .byte 0x81
 5502 26a1 0C       	 .byte 0xc
 5503 26a2 AD260000 	 .4byte 0x26ad
 5504 26a6 0E       	 .uleb128 0xe
 5505 26a7 F6560000 	 .4byte .LASF38
 5506 26ab 00       	 .byte 0
 5507 26ac 00       	 .byte 0
 5508 26ad 26       	 .uleb128 0x26
 5509 26ae 5F547000 	 .ascii "_Tp\000"
 5510 26b2 AD4C0000 	 .4byte 0x4cad
 5511 26b6 00       	 .byte 0
 5512 26b7 18       	 .uleb128 0x18
 5513 26b8 10       	 .byte 0x10
 5514 26b9 2904     	 .2byte 0x429
 5515 26bb 0B       	 .byte 0xb
 5516 26bc C54C0000 	 .4byte 0x4cc5
 5517 26c0 18       	 .uleb128 0x18
 5518 26c1 10       	 .byte 0x10
 5519 26c2 2A04     	 .2byte 0x42a
 5520 26c4 0B       	 .byte 0xb
 5521 26c5 B94C0000 	 .4byte 0x4cb9
 5522 26c9 1E       	 .uleb128 0x1e
 5523 26ca 61627300 	 .ascii "abs\000"
ARM GAS   			page 111


 5524 26ce 11       	 .byte 0x11
 5525 26cf 4F       	 .byte 0x4f
 5526 26d0 03       	 .byte 0x3
 5527 26d1 45490000 	 .4byte .LASF428
 5528 26d5 76010000 	 .4byte 0x176
 5529 26d9 E3260000 	 .4byte 0x26e3
 5530 26dd 01       	 .uleb128 0x1
 5531 26de 76010000 	 .4byte 0x176
 5532 26e2 00       	 .byte 0
 5533 26e3 1E       	 .uleb128 0x1e
 5534 26e4 61627300 	 .ascii "abs\000"
 5535 26e8 11       	 .byte 0x11
 5536 26e9 4B       	 .byte 0x4b
 5537 26ea 03       	 .byte 0x3
 5538 26eb 4F490000 	 .4byte .LASF429
 5539 26ef AD4C0000 	 .4byte 0x4cad
 5540 26f3 FD260000 	 .4byte 0x26fd
 5541 26f7 01       	 .uleb128 0x1
 5542 26f8 AD4C0000 	 .4byte 0x4cad
 5543 26fc 00       	 .byte 0
 5544 26fd 1E       	 .uleb128 0x1e
 5545 26fe 61627300 	 .ascii "abs\000"
 5546 2702 11       	 .byte 0x11
 5547 2703 47       	 .byte 0x47
 5548 2704 03       	 .byte 0x3
 5549 2705 3B490000 	 .4byte .LASF430
 5550 2709 A64C0000 	 .4byte 0x4ca6
 5551 270d 17270000 	 .4byte 0x2717
 5552 2711 01       	 .uleb128 0x1
 5553 2712 A64C0000 	 .4byte 0x4ca6
 5554 2716 00       	 .byte 0
 5555 2717 1E       	 .uleb128 0x1e
 5556 2718 61627300 	 .ascii "abs\000"
 5557 271c 11       	 .byte 0x11
 5558 271d 3D       	 .byte 0x3d
 5559 271e 03       	 .byte 0x3
 5560 271f B8180000 	 .4byte .LASF431
 5561 2723 A8000000 	 .4byte 0xa8
 5562 2727 31270000 	 .4byte 0x2731
 5563 272b 01       	 .uleb128 0x1
 5564 272c A8000000 	 .4byte 0xa8
 5565 2730 00       	 .byte 0
 5566 2731 1E       	 .uleb128 0x1e
 5567 2732 61627300 	 .ascii "abs\000"
 5568 2736 11       	 .byte 0x11
 5569 2737 38       	 .byte 0x38
 5570 2738 03       	 .byte 0x3
 5571 2739 7E490000 	 .4byte .LASF432
 5572 273d 7D000000 	 .4byte 0x7d
 5573 2741 4B270000 	 .4byte 0x274b
 5574 2745 01       	 .uleb128 0x1
 5575 2746 7D000000 	 .4byte 0x7d
 5576 274a 00       	 .byte 0
 5577 274b 15       	 .uleb128 0x15
 5578 274c B9300000 	 .4byte .LASF433
 5579 2750 10       	 .byte 0x10
 5580 2751 5B       	 .byte 0x5b
ARM GAS   			page 112


 5581 2752 03       	 .byte 0x3
 5582 2753 5A6D0000 	 .4byte .LASF434
 5583 2757 76010000 	 .4byte 0x176
 5584 275b 65270000 	 .4byte 0x2765
 5585 275f 01       	 .uleb128 0x1
 5586 2760 76010000 	 .4byte 0x176
 5587 2764 00       	 .byte 0
 5588 2765 15       	 .uleb128 0x15
 5589 2766 B9300000 	 .4byte .LASF433
 5590 276a 10       	 .byte 0x10
 5591 276b 57       	 .byte 0x57
 5592 276c 03       	 .byte 0x3
 5593 276d 656D0000 	 .4byte .LASF435
 5594 2771 AD4C0000 	 .4byte 0x4cad
 5595 2775 7F270000 	 .4byte 0x277f
 5596 2779 01       	 .uleb128 0x1
 5597 277a AD4C0000 	 .4byte 0x4cad
 5598 277e 00       	 .byte 0
 5599 277f 15       	 .uleb128 0x15
 5600 2780 57620000 	 .4byte .LASF436
 5601 2784 10       	 .byte 0x10
 5602 2785 6E       	 .byte 0x6e
 5603 2786 03       	 .byte 0x3
 5604 2787 AF040000 	 .4byte .LASF437
 5605 278b 76010000 	 .4byte 0x176
 5606 278f 99270000 	 .4byte 0x2799
 5607 2793 01       	 .uleb128 0x1
 5608 2794 76010000 	 .4byte 0x176
 5609 2798 00       	 .byte 0
 5610 2799 15       	 .uleb128 0x15
 5611 279a 57620000 	 .4byte .LASF436
 5612 279e 10       	 .byte 0x10
 5613 279f 6A       	 .byte 0x6a
 5614 27a0 03       	 .byte 0x3
 5615 27a1 BA040000 	 .4byte .LASF438
 5616 27a5 AD4C0000 	 .4byte 0x4cad
 5617 27a9 B3270000 	 .4byte 0x27b3
 5618 27ad 01       	 .uleb128 0x1
 5619 27ae AD4C0000 	 .4byte 0x4cad
 5620 27b2 00       	 .byte 0
 5621 27b3 15       	 .uleb128 0x15
 5622 27b4 EE5D0000 	 .4byte .LASF439
 5623 27b8 10       	 .byte 0x10
 5624 27b9 81       	 .byte 0x81
 5625 27ba 03       	 .byte 0x3
 5626 27bb 32520000 	 .4byte .LASF440
 5627 27bf 76010000 	 .4byte 0x176
 5628 27c3 CD270000 	 .4byte 0x27cd
 5629 27c7 01       	 .uleb128 0x1
 5630 27c8 76010000 	 .4byte 0x176
 5631 27cc 00       	 .byte 0
 5632 27cd 15       	 .uleb128 0x15
 5633 27ce EE5D0000 	 .4byte .LASF439
 5634 27d2 10       	 .byte 0x10
 5635 27d3 7D       	 .byte 0x7d
 5636 27d4 03       	 .byte 0x3
 5637 27d5 3D520000 	 .4byte .LASF441
ARM GAS   			page 113


 5638 27d9 AD4C0000 	 .4byte 0x4cad
 5639 27dd E7270000 	 .4byte 0x27e7
 5640 27e1 01       	 .uleb128 0x1
 5641 27e2 AD4C0000 	 .4byte 0x4cad
 5642 27e6 00       	 .byte 0
 5643 27e7 15       	 .uleb128 0x15
 5644 27e8 85290000 	 .4byte .LASF442
 5645 27ec 10       	 .byte 0x10
 5646 27ed 94       	 .byte 0x94
 5647 27ee 03       	 .byte 0x3
 5648 27ef EB000000 	 .4byte .LASF443
 5649 27f3 76010000 	 .4byte 0x176
 5650 27f7 06280000 	 .4byte 0x2806
 5651 27fb 01       	 .uleb128 0x1
 5652 27fc 76010000 	 .4byte 0x176
 5653 2800 01       	 .uleb128 0x1
 5654 2801 76010000 	 .4byte 0x176
 5655 2805 00       	 .byte 0
 5656 2806 15       	 .uleb128 0x15
 5657 2807 85290000 	 .4byte .LASF442
 5658 280b 10       	 .byte 0x10
 5659 280c 90       	 .byte 0x90
 5660 280d 03       	 .byte 0x3
 5661 280e 3C020000 	 .4byte .LASF444
 5662 2812 AD4C0000 	 .4byte 0x4cad
 5663 2816 25280000 	 .4byte 0x2825
 5664 281a 01       	 .uleb128 0x1
 5665 281b AD4C0000 	 .4byte 0x4cad
 5666 281f 01       	 .uleb128 0x1
 5667 2820 AD4C0000 	 .4byte 0x4cad
 5668 2824 00       	 .byte 0
 5669 2825 1E       	 .uleb128 0x1e
 5670 2826 636F7300 	 .ascii "cos\000"
 5671 282a 10       	 .byte 0x10
 5672 282b BC       	 .byte 0xbc
 5673 282c 03       	 .byte 0x3
 5674 282d 43630000 	 .4byte .LASF445
 5675 2831 76010000 	 .4byte 0x176
 5676 2835 3F280000 	 .4byte 0x283f
 5677 2839 01       	 .uleb128 0x1
 5678 283a 76010000 	 .4byte 0x176
 5679 283e 00       	 .byte 0
 5680 283f 1E       	 .uleb128 0x1e
 5681 2840 636F7300 	 .ascii "cos\000"
 5682 2844 10       	 .byte 0x10
 5683 2845 B8       	 .byte 0xb8
 5684 2846 03       	 .byte 0x3
 5685 2847 4D630000 	 .4byte .LASF446
 5686 284b AD4C0000 	 .4byte 0x4cad
 5687 284f 59280000 	 .4byte 0x2859
 5688 2853 01       	 .uleb128 0x1
 5689 2854 AD4C0000 	 .4byte 0x4cad
 5690 2858 00       	 .byte 0
 5691 2859 19       	 .uleb128 0x19
 5692 285a 73696E00 	 .ascii "sin\000"
 5693 285e 10       	 .byte 0x10
 5694 285f AD01     	 .2byte 0x1ad
ARM GAS   			page 114


 5695 2861 03       	 .byte 0x3
 5696 2862 E1690000 	 .4byte .LASF447
 5697 2866 76010000 	 .4byte 0x176
 5698 286a 74280000 	 .4byte 0x2874
 5699 286e 01       	 .uleb128 0x1
 5700 286f 76010000 	 .4byte 0x176
 5701 2873 00       	 .byte 0
 5702 2874 19       	 .uleb128 0x19
 5703 2875 73696E00 	 .ascii "sin\000"
 5704 2879 10       	 .byte 0x10
 5705 287a A901     	 .2byte 0x1a9
 5706 287c 03       	 .byte 0x3
 5707 287d EB690000 	 .4byte .LASF448
 5708 2881 AD4C0000 	 .4byte 0x4cad
 5709 2885 8F280000 	 .4byte 0x288f
 5710 2889 01       	 .uleb128 0x1
 5711 288a AD4C0000 	 .4byte 0x4cad
 5712 288e 00       	 .byte 0
 5713 288f 19       	 .uleb128 0x19
 5714 2890 74616E00 	 .ascii "tan\000"
 5715 2894 10       	 .byte 0x10
 5716 2895 E601     	 .2byte 0x1e6
 5717 2897 03       	 .byte 0x3
 5718 2898 1A5E0000 	 .4byte .LASF449
 5719 289c 76010000 	 .4byte 0x176
 5720 28a0 AA280000 	 .4byte 0x28aa
 5721 28a4 01       	 .uleb128 0x1
 5722 28a5 76010000 	 .4byte 0x176
 5723 28a9 00       	 .byte 0
 5724 28aa 19       	 .uleb128 0x19
 5725 28ab 74616E00 	 .ascii "tan\000"
 5726 28af 10       	 .byte 0x10
 5727 28b0 E201     	 .2byte 0x1e2
 5728 28b2 03       	 .byte 0x3
 5729 28b3 ED470000 	 .4byte .LASF450
 5730 28b7 AD4C0000 	 .4byte 0x4cad
 5731 28bb C5280000 	 .4byte 0x28c5
 5732 28bf 01       	 .uleb128 0x1
 5733 28c0 AD4C0000 	 .4byte 0x4cad
 5734 28c4 00       	 .byte 0
 5735 28c5 15       	 .uleb128 0x15
 5736 28c6 FE560000 	 .4byte .LASF451
 5737 28ca 10       	 .byte 0x10
 5738 28cb CF       	 .byte 0xcf
 5739 28cc 03       	 .byte 0x3
 5740 28cd 25400000 	 .4byte .LASF452
 5741 28d1 76010000 	 .4byte 0x176
 5742 28d5 DF280000 	 .4byte 0x28df
 5743 28d9 01       	 .uleb128 0x1
 5744 28da 76010000 	 .4byte 0x176
 5745 28de 00       	 .byte 0
 5746 28df 15       	 .uleb128 0x15
 5747 28e0 FE560000 	 .4byte .LASF451
 5748 28e4 10       	 .byte 0x10
 5749 28e5 CB       	 .byte 0xcb
 5750 28e6 03       	 .byte 0x3
 5751 28e7 30400000 	 .4byte .LASF453
ARM GAS   			page 115


 5752 28eb AD4C0000 	 .4byte 0x4cad
 5753 28ef F9280000 	 .4byte 0x28f9
 5754 28f3 01       	 .uleb128 0x1
 5755 28f4 AD4C0000 	 .4byte 0x4cad
 5756 28f8 00       	 .byte 0
 5757 28f9 05       	 .uleb128 0x5
 5758 28fa F7240000 	 .4byte .LASF454
 5759 28fe 10       	 .byte 0x10
 5760 28ff C001     	 .2byte 0x1c0
 5761 2901 03       	 .byte 0x3
 5762 2902 C41A0000 	 .4byte .LASF455
 5763 2906 76010000 	 .4byte 0x176
 5764 290a 14290000 	 .4byte 0x2914
 5765 290e 01       	 .uleb128 0x1
 5766 290f 76010000 	 .4byte 0x176
 5767 2913 00       	 .byte 0
 5768 2914 05       	 .uleb128 0x5
 5769 2915 F7240000 	 .4byte .LASF454
 5770 2919 10       	 .byte 0x10
 5771 291a BC01     	 .2byte 0x1bc
 5772 291c 03       	 .byte 0x3
 5773 291d CF1A0000 	 .4byte .LASF456
 5774 2921 AD4C0000 	 .4byte 0x4cad
 5775 2925 2F290000 	 .4byte 0x292f
 5776 2929 01       	 .uleb128 0x1
 5777 292a AD4C0000 	 .4byte 0x4cad
 5778 292e 00       	 .byte 0
 5779 292f 05       	 .uleb128 0x5
 5780 2930 03570000 	 .4byte .LASF457
 5781 2934 10       	 .byte 0x10
 5782 2935 F901     	 .2byte 0x1f9
 5783 2937 03       	 .byte 0x3
 5784 2938 F94A0000 	 .4byte .LASF458
 5785 293c 76010000 	 .4byte 0x176
 5786 2940 4A290000 	 .4byte 0x294a
 5787 2944 01       	 .uleb128 0x1
 5788 2945 76010000 	 .4byte 0x176
 5789 2949 00       	 .byte 0
 5790 294a 05       	 .uleb128 0x5
 5791 294b 03570000 	 .4byte .LASF457
 5792 294f 10       	 .byte 0x10
 5793 2950 F501     	 .2byte 0x1f5
 5794 2952 03       	 .byte 0x3
 5795 2953 044B0000 	 .4byte .LASF459
 5796 2957 AD4C0000 	 .4byte 0x4cad
 5797 295b 65290000 	 .4byte 0x2965
 5798 295f 01       	 .uleb128 0x1
 5799 2960 AD4C0000 	 .4byte 0x4cad
 5800 2964 00       	 .byte 0
 5801 2965 1E       	 .uleb128 0x1e
 5802 2966 65787000 	 .ascii "exp\000"
 5803 296a 10       	 .byte 0x10
 5804 296b E2       	 .byte 0xe2
 5805 296c 03       	 .byte 0x3
 5806 296d 9C4A0000 	 .4byte .LASF460
 5807 2971 76010000 	 .4byte 0x176
 5808 2975 7F290000 	 .4byte 0x297f
ARM GAS   			page 116


 5809 2979 01       	 .uleb128 0x1
 5810 297a 76010000 	 .4byte 0x176
 5811 297e 00       	 .byte 0
 5812 297f 1E       	 .uleb128 0x1e
 5813 2980 65787000 	 .ascii "exp\000"
 5814 2984 10       	 .byte 0x10
 5815 2985 DE       	 .byte 0xde
 5816 2986 03       	 .byte 0x3
 5817 2987 A64A0000 	 .4byte .LASF461
 5818 298b AD4C0000 	 .4byte 0x4cad
 5819 298f 99290000 	 .4byte 0x2999
 5820 2993 01       	 .uleb128 0x1
 5821 2994 AD4C0000 	 .4byte 0x4cad
 5822 2998 00       	 .byte 0
 5823 2999 05       	 .uleb128 0x5
 5824 299a AF390000 	 .4byte .LASF462
 5825 299e 10       	 .byte 0x10
 5826 299f 3001     	 .2byte 0x130
 5827 29a1 03       	 .byte 0x3
 5828 29a2 3E5A0000 	 .4byte .LASF463
 5829 29a6 76010000 	 .4byte 0x176
 5830 29aa B9290000 	 .4byte 0x29b9
 5831 29ae 01       	 .uleb128 0x1
 5832 29af 76010000 	 .4byte 0x176
 5833 29b3 01       	 .uleb128 0x1
 5834 29b4 724E0000 	 .4byte 0x4e72
 5835 29b8 00       	 .byte 0
 5836 29b9 05       	 .uleb128 0x5
 5837 29ba AF390000 	 .4byte .LASF462
 5838 29be 10       	 .byte 0x10
 5839 29bf 2C01     	 .2byte 0x12c
 5840 29c1 03       	 .byte 0x3
 5841 29c2 CA640000 	 .4byte .LASF464
 5842 29c6 AD4C0000 	 .4byte 0x4cad
 5843 29ca D9290000 	 .4byte 0x29d9
 5844 29ce 01       	 .uleb128 0x1
 5845 29cf AD4C0000 	 .4byte 0x4cad
 5846 29d3 01       	 .uleb128 0x1
 5847 29d4 724E0000 	 .4byte 0x4e72
 5848 29d8 00       	 .byte 0
 5849 29d9 05       	 .uleb128 0x5
 5850 29da 18480000 	 .4byte .LASF465
 5851 29de 10       	 .byte 0x10
 5852 29df 4301     	 .2byte 0x143
 5853 29e1 03       	 .byte 0x3
 5854 29e2 B6400000 	 .4byte .LASF466
 5855 29e6 76010000 	 .4byte 0x176
 5856 29ea F9290000 	 .4byte 0x29f9
 5857 29ee 01       	 .uleb128 0x1
 5858 29ef 76010000 	 .4byte 0x176
 5859 29f3 01       	 .uleb128 0x1
 5860 29f4 46010000 	 .4byte 0x146
 5861 29f8 00       	 .byte 0
 5862 29f9 05       	 .uleb128 0x5
 5863 29fa 18480000 	 .4byte .LASF465
 5864 29fe 10       	 .byte 0x10
 5865 29ff 3F01     	 .2byte 0x13f
ARM GAS   			page 117


 5866 2a01 03       	 .byte 0x3
 5867 2a02 74640000 	 .4byte .LASF467
 5868 2a06 AD4C0000 	 .4byte 0x4cad
 5869 2a0a 192A0000 	 .4byte 0x2a19
 5870 2a0e 01       	 .uleb128 0x1
 5871 2a0f AD4C0000 	 .4byte 0x4cad
 5872 2a13 01       	 .uleb128 0x1
 5873 2a14 46010000 	 .4byte 0x146
 5874 2a18 00       	 .byte 0
 5875 2a19 19       	 .uleb128 0x19
 5876 2a1a 6C6F6700 	 .ascii "log\000"
 5877 2a1e 10       	 .byte 0x10
 5878 2a1f 5601     	 .2byte 0x156
 5879 2a21 03       	 .byte 0x3
 5880 2a22 6F050000 	 .4byte .LASF468
 5881 2a26 76010000 	 .4byte 0x176
 5882 2a2a 342A0000 	 .4byte 0x2a34
 5883 2a2e 01       	 .uleb128 0x1
 5884 2a2f 76010000 	 .4byte 0x176
 5885 2a33 00       	 .byte 0
 5886 2a34 19       	 .uleb128 0x19
 5887 2a35 6C6F6700 	 .ascii "log\000"
 5888 2a39 10       	 .byte 0x10
 5889 2a3a 5201     	 .2byte 0x152
 5890 2a3c 03       	 .byte 0x3
 5891 2a3d 79050000 	 .4byte .LASF469
 5892 2a41 AD4C0000 	 .4byte 0x4cad
 5893 2a45 4F2A0000 	 .4byte 0x2a4f
 5894 2a49 01       	 .uleb128 0x1
 5895 2a4a AD4C0000 	 .4byte 0x4cad
 5896 2a4e 00       	 .byte 0
 5897 2a4f 05       	 .uleb128 0x5
 5898 2a50 00000000 	 .4byte .LASF470
 5899 2a54 10       	 .byte 0x10
 5900 2a55 6901     	 .2byte 0x169
 5901 2a57 03       	 .byte 0x3
 5902 2a58 DB370000 	 .4byte .LASF471
 5903 2a5c 76010000 	 .4byte 0x176
 5904 2a60 6A2A0000 	 .4byte 0x2a6a
 5905 2a64 01       	 .uleb128 0x1
 5906 2a65 76010000 	 .4byte 0x176
 5907 2a69 00       	 .byte 0
 5908 2a6a 05       	 .uleb128 0x5
 5909 2a6b 00000000 	 .4byte .LASF470
 5910 2a6f 10       	 .byte 0x10
 5911 2a70 6501     	 .2byte 0x165
 5912 2a72 03       	 .byte 0x3
 5913 2a73 E7370000 	 .4byte .LASF472
 5914 2a77 AD4C0000 	 .4byte 0x4cad
 5915 2a7b 852A0000 	 .4byte 0x2a85
 5916 2a7f 01       	 .uleb128 0x1
 5917 2a80 AD4C0000 	 .4byte 0x4cad
 5918 2a84 00       	 .byte 0
 5919 2a85 05       	 .uleb128 0x5
 5920 2a86 82200000 	 .4byte .LASF473
 5921 2a8a 10       	 .byte 0x10
 5922 2a8b 7C01     	 .2byte 0x17c
ARM GAS   			page 118


 5923 2a8d 03       	 .byte 0x3
 5924 2a8e 895C0000 	 .4byte .LASF474
 5925 2a92 76010000 	 .4byte 0x176
 5926 2a96 A52A0000 	 .4byte 0x2aa5
 5927 2a9a 01       	 .uleb128 0x1
 5928 2a9b 76010000 	 .4byte 0x176
 5929 2a9f 01       	 .uleb128 0x1
 5930 2aa0 B84E0000 	 .4byte 0x4eb8
 5931 2aa4 00       	 .byte 0
 5932 2aa5 05       	 .uleb128 0x5
 5933 2aa6 82200000 	 .4byte .LASF473
 5934 2aaa 10       	 .byte 0x10
 5935 2aab 7801     	 .2byte 0x178
 5936 2aad 03       	 .byte 0x3
 5937 2aae 90670000 	 .4byte .LASF475
 5938 2ab2 AD4C0000 	 .4byte 0x4cad
 5939 2ab6 C52A0000 	 .4byte 0x2ac5
 5940 2aba 01       	 .uleb128 0x1
 5941 2abb AD4C0000 	 .4byte 0x4cad
 5942 2abf 01       	 .uleb128 0x1
 5943 2ac0 C64E0000 	 .4byte 0x4ec6
 5944 2ac4 00       	 .byte 0
 5945 2ac5 19       	 .uleb128 0x19
 5946 2ac6 706F7700 	 .ascii "pow\000"
 5947 2aca 10       	 .byte 0x10
 5948 2acb 8801     	 .2byte 0x188
 5949 2acd 03       	 .byte 0x3
 5950 2ace 7A030000 	 .4byte .LASF476
 5951 2ad2 76010000 	 .4byte 0x176
 5952 2ad6 E52A0000 	 .4byte 0x2ae5
 5953 2ada 01       	 .uleb128 0x1
 5954 2adb 76010000 	 .4byte 0x176
 5955 2adf 01       	 .uleb128 0x1
 5956 2ae0 76010000 	 .4byte 0x176
 5957 2ae4 00       	 .byte 0
 5958 2ae5 19       	 .uleb128 0x19
 5959 2ae6 706F7700 	 .ascii "pow\000"
 5960 2aea 10       	 .byte 0x10
 5961 2aeb 8401     	 .2byte 0x184
 5962 2aed 03       	 .byte 0x3
 5963 2aee 5A050000 	 .4byte .LASF477
 5964 2af2 AD4C0000 	 .4byte 0x4cad
 5965 2af6 052B0000 	 .4byte 0x2b05
 5966 2afa 01       	 .uleb128 0x1
 5967 2afb AD4C0000 	 .4byte 0x4cad
 5968 2aff 01       	 .uleb128 0x1
 5969 2b00 AD4C0000 	 .4byte 0x4cad
 5970 2b04 00       	 .byte 0
 5971 2b05 05       	 .uleb128 0x5
 5972 2b06 076B0000 	 .4byte .LASF478
 5973 2b0a 10       	 .byte 0x10
 5974 2b0b D301     	 .2byte 0x1d3
 5975 2b0d 03       	 .byte 0x3
 5976 2b0e 59490000 	 .4byte .LASF479
 5977 2b12 76010000 	 .4byte 0x176
 5978 2b16 202B0000 	 .4byte 0x2b20
 5979 2b1a 01       	 .uleb128 0x1
ARM GAS   			page 119


 5980 2b1b 76010000 	 .4byte 0x176
 5981 2b1f 00       	 .byte 0
 5982 2b20 05       	 .uleb128 0x5
 5983 2b21 076B0000 	 .4byte .LASF478
 5984 2b25 10       	 .byte 0x10
 5985 2b26 CF01     	 .2byte 0x1cf
 5986 2b28 03       	 .byte 0x3
 5987 2b29 64490000 	 .4byte .LASF480
 5988 2b2d AD4C0000 	 .4byte 0x4cad
 5989 2b31 3B2B0000 	 .4byte 0x2b3b
 5990 2b35 01       	 .uleb128 0x1
 5991 2b36 AD4C0000 	 .4byte 0x4cad
 5992 2b3a 00       	 .byte 0
 5993 2b3b 15       	 .uleb128 0x15
 5994 2b3c 28360000 	 .4byte .LASF481
 5995 2b40 10       	 .byte 0x10
 5996 2b41 A9       	 .byte 0xa9
 5997 2b42 03       	 .byte 0x3
 5998 2b43 F35F0000 	 .4byte .LASF482
 5999 2b47 76010000 	 .4byte 0x176
 6000 2b4b 552B0000 	 .4byte 0x2b55
 6001 2b4f 01       	 .uleb128 0x1
 6002 2b50 76010000 	 .4byte 0x176
 6003 2b54 00       	 .byte 0
 6004 2b55 15       	 .uleb128 0x15
 6005 2b56 28360000 	 .4byte .LASF481
 6006 2b5a 10       	 .byte 0x10
 6007 2b5b A5       	 .byte 0xa5
 6008 2b5c 03       	 .byte 0x3
 6009 2b5d FE5F0000 	 .4byte .LASF483
 6010 2b61 AD4C0000 	 .4byte 0x4cad
 6011 2b65 6F2B0000 	 .4byte 0x2b6f
 6012 2b69 01       	 .uleb128 0x1
 6013 2b6a AD4C0000 	 .4byte 0x4cad
 6014 2b6e 00       	 .byte 0
 6015 2b6f 15       	 .uleb128 0x15
 6016 2b70 77310000 	 .4byte .LASF484
 6017 2b74 10       	 .byte 0x10
 6018 2b75 F5       	 .byte 0xf5
 6019 2b76 03       	 .byte 0x3
 6020 2b77 65240000 	 .4byte .LASF485
 6021 2b7b 76010000 	 .4byte 0x176
 6022 2b7f 892B0000 	 .4byte 0x2b89
 6023 2b83 01       	 .uleb128 0x1
 6024 2b84 76010000 	 .4byte 0x176
 6025 2b88 00       	 .byte 0
 6026 2b89 15       	 .uleb128 0x15
 6027 2b8a 77310000 	 .4byte .LASF484
 6028 2b8e 10       	 .byte 0x10
 6029 2b8f F1       	 .byte 0xf1
 6030 2b90 03       	 .byte 0x3
 6031 2b91 70240000 	 .4byte .LASF486
 6032 2b95 AD4C0000 	 .4byte 0x4cad
 6033 2b99 A32B0000 	 .4byte 0x2ba3
 6034 2b9d 01       	 .uleb128 0x1
 6035 2b9e AD4C0000 	 .4byte 0x4cad
 6036 2ba2 00       	 .byte 0
ARM GAS   			page 120


 6037 2ba3 05       	 .uleb128 0x5
 6038 2ba4 E81F0000 	 .4byte .LASF487
 6039 2ba8 10       	 .byte 0x10
 6040 2ba9 0801     	 .2byte 0x108
 6041 2bab 03       	 .byte 0x3
 6042 2bac B3500000 	 .4byte .LASF488
 6043 2bb0 76010000 	 .4byte 0x176
 6044 2bb4 BE2B0000 	 .4byte 0x2bbe
 6045 2bb8 01       	 .uleb128 0x1
 6046 2bb9 76010000 	 .4byte 0x176
 6047 2bbd 00       	 .byte 0
 6048 2bbe 05       	 .uleb128 0x5
 6049 2bbf E81F0000 	 .4byte .LASF487
 6050 2bc3 10       	 .byte 0x10
 6051 2bc4 0401     	 .2byte 0x104
 6052 2bc6 03       	 .byte 0x3
 6053 2bc7 BF500000 	 .4byte .LASF489
 6054 2bcb AD4C0000 	 .4byte 0x4cad
 6055 2bcf D92B0000 	 .4byte 0x2bd9
 6056 2bd3 01       	 .uleb128 0x1
 6057 2bd4 AD4C0000 	 .4byte 0x4cad
 6058 2bd8 00       	 .byte 0
 6059 2bd9 05       	 .uleb128 0x5
 6060 2bda 1E5A0000 	 .4byte .LASF490
 6061 2bde 10       	 .byte 0x10
 6062 2bdf 1B01     	 .2byte 0x11b
 6063 2be1 03       	 .byte 0x3
 6064 2be2 163C0000 	 .4byte .LASF491
 6065 2be6 76010000 	 .4byte 0x176
 6066 2bea F92B0000 	 .4byte 0x2bf9
 6067 2bee 01       	 .uleb128 0x1
 6068 2bef 76010000 	 .4byte 0x176
 6069 2bf3 01       	 .uleb128 0x1
 6070 2bf4 76010000 	 .4byte 0x176
 6071 2bf8 00       	 .byte 0
 6072 2bf9 05       	 .uleb128 0x5
 6073 2bfa 1E5A0000 	 .4byte .LASF490
 6074 2bfe 10       	 .byte 0x10
 6075 2bff 1701     	 .2byte 0x117
 6076 2c01 03       	 .byte 0x3
 6077 2c02 CC3D0000 	 .4byte .LASF492
 6078 2c06 AD4C0000 	 .4byte 0x4cad
 6079 2c0a 192C0000 	 .4byte 0x2c19
 6080 2c0e 01       	 .uleb128 0x1
 6081 2c0f AD4C0000 	 .4byte 0x4cad
 6082 2c13 01       	 .uleb128 0x1
 6083 2c14 AD4C0000 	 .4byte 0x4cad
 6084 2c18 00       	 .byte 0
 6085 2c19 05       	 .uleb128 0x5
 6086 2c1a 832F0000 	 .4byte .LASF493
 6087 2c1e 10       	 .byte 0x10
 6088 2c1f 2302     	 .2byte 0x223
 6089 2c21 03       	 .byte 0x3
 6090 2c22 C8410000 	 .4byte .LASF494
 6091 2c26 46010000 	 .4byte 0x146
 6092 2c2a 342C0000 	 .4byte 0x2c34
 6093 2c2e 01       	 .uleb128 0x1
ARM GAS   			page 121


 6094 2c2f 76010000 	 .4byte 0x176
 6095 2c33 00       	 .byte 0
 6096 2c34 05       	 .uleb128 0x5
 6097 2c35 832F0000 	 .4byte .LASF493
 6098 2c39 10       	 .byte 0x10
 6099 2c3a 1E02     	 .2byte 0x21e
 6100 2c3c 03       	 .byte 0x3
 6101 2c3d F23B0000 	 .4byte .LASF495
 6102 2c41 46010000 	 .4byte 0x146
 6103 2c45 4F2C0000 	 .4byte 0x2c4f
 6104 2c49 01       	 .uleb128 0x1
 6105 2c4a A64C0000 	 .4byte 0x4ca6
 6106 2c4e 00       	 .byte 0
 6107 2c4f 05       	 .uleb128 0x5
 6108 2c50 832F0000 	 .4byte .LASF493
 6109 2c54 10       	 .byte 0x10
 6110 2c55 1902     	 .2byte 0x219
 6111 2c57 03       	 .byte 0x3
 6112 2c58 043C0000 	 .4byte .LASF496
 6113 2c5c 46010000 	 .4byte 0x146
 6114 2c60 6A2C0000 	 .4byte 0x2c6a
 6115 2c64 01       	 .uleb128 0x1
 6116 2c65 AD4C0000 	 .4byte 0x4cad
 6117 2c69 00       	 .byte 0
 6118 2c6a 05       	 .uleb128 0x5
 6119 2c6b 67680000 	 .4byte .LASF497
 6120 2c6f 10       	 .byte 0x10
 6121 2c70 3A02     	 .2byte 0x23a
 6122 2c72 03       	 .byte 0x3
 6123 2c73 0E120000 	 .4byte .LASF498
 6124 2c77 4C4F0000 	 .4byte 0x4f4c
 6125 2c7b 852C0000 	 .4byte 0x2c85
 6126 2c7f 01       	 .uleb128 0x1
 6127 2c80 76010000 	 .4byte 0x176
 6128 2c84 00       	 .byte 0
 6129 2c85 05       	 .uleb128 0x5
 6130 2c86 67680000 	 .4byte .LASF497
 6131 2c8a 10       	 .byte 0x10
 6132 2c8b 3602     	 .2byte 0x236
 6133 2c8d 03       	 .byte 0x3
 6134 2c8e FF110000 	 .4byte .LASF499
 6135 2c92 4C4F0000 	 .4byte 0x4f4c
 6136 2c96 A02C0000 	 .4byte 0x2ca0
 6137 2c9a 01       	 .uleb128 0x1
 6138 2c9b A64C0000 	 .4byte 0x4ca6
 6139 2c9f 00       	 .byte 0
 6140 2ca0 05       	 .uleb128 0x5
 6141 2ca1 67680000 	 .4byte .LASF497
 6142 2ca5 10       	 .byte 0x10
 6143 2ca6 3202     	 .2byte 0x232
 6144 2ca8 03       	 .byte 0x3
 6145 2ca9 1D120000 	 .4byte .LASF500
 6146 2cad 4C4F0000 	 .4byte 0x4f4c
 6147 2cb1 BB2C0000 	 .4byte 0x2cbb
 6148 2cb5 01       	 .uleb128 0x1
 6149 2cb6 AD4C0000 	 .4byte 0x4cad
 6150 2cba 00       	 .byte 0
ARM GAS   			page 122


 6151 2cbb 05       	 .uleb128 0x5
 6152 2cbc 85150000 	 .4byte .LASF501
 6153 2cc0 10       	 .byte 0x10
 6154 2cc1 5502     	 .2byte 0x255
 6155 2cc3 03       	 .byte 0x3
 6156 2cc4 9A0F0000 	 .4byte .LASF502
 6157 2cc8 4C4F0000 	 .4byte 0x4f4c
 6158 2ccc D62C0000 	 .4byte 0x2cd6
 6159 2cd0 01       	 .uleb128 0x1
 6160 2cd1 76010000 	 .4byte 0x176
 6161 2cd5 00       	 .byte 0
 6162 2cd6 05       	 .uleb128 0x5
 6163 2cd7 85150000 	 .4byte .LASF501
 6164 2cdb 10       	 .byte 0x10
 6165 2cdc 5002     	 .2byte 0x250
 6166 2cde 03       	 .byte 0x3
 6167 2cdf 8E0F0000 	 .4byte .LASF503
 6168 2ce3 4C4F0000 	 .4byte 0x4f4c
 6169 2ce7 F12C0000 	 .4byte 0x2cf1
 6170 2ceb 01       	 .uleb128 0x1
 6171 2cec A64C0000 	 .4byte 0x4ca6
 6172 2cf0 00       	 .byte 0
 6173 2cf1 05       	 .uleb128 0x5
 6174 2cf2 85150000 	 .4byte .LASF501
 6175 2cf6 10       	 .byte 0x10
 6176 2cf7 4802     	 .2byte 0x248
 6177 2cf9 03       	 .byte 0x3
 6178 2cfa A60F0000 	 .4byte .LASF504
 6179 2cfe 4C4F0000 	 .4byte 0x4f4c
 6180 2d02 0C2D0000 	 .4byte 0x2d0c
 6181 2d06 01       	 .uleb128 0x1
 6182 2d07 AD4C0000 	 .4byte 0x4cad
 6183 2d0b 00       	 .byte 0
 6184 2d0c 05       	 .uleb128 0x5
 6185 2d0d 03320000 	 .4byte .LASF505
 6186 2d11 10       	 .byte 0x10
 6187 2d12 7002     	 .2byte 0x270
 6188 2d14 03       	 .byte 0x3
 6189 2d15 602E0000 	 .4byte .LASF506
 6190 2d19 4C4F0000 	 .4byte 0x4f4c
 6191 2d1d 272D0000 	 .4byte 0x2d27
 6192 2d21 01       	 .uleb128 0x1
 6193 2d22 76010000 	 .4byte 0x176
 6194 2d26 00       	 .byte 0
 6195 2d27 05       	 .uleb128 0x5
 6196 2d28 03320000 	 .4byte .LASF505
 6197 2d2c 10       	 .byte 0x10
 6198 2d2d 6B02     	 .2byte 0x26b
 6199 2d2f 03       	 .byte 0x3
 6200 2d30 542E0000 	 .4byte .LASF507
 6201 2d34 4C4F0000 	 .4byte 0x4f4c
 6202 2d38 422D0000 	 .4byte 0x2d42
 6203 2d3c 01       	 .uleb128 0x1
 6204 2d3d A64C0000 	 .4byte 0x4ca6
 6205 2d41 00       	 .byte 0
 6206 2d42 05       	 .uleb128 0x5
 6207 2d43 03320000 	 .4byte .LASF505
ARM GAS   			page 123


 6208 2d47 10       	 .byte 0x10
 6209 2d48 6302     	 .2byte 0x263
 6210 2d4a 03       	 .byte 0x3
 6211 2d4b 53040000 	 .4byte .LASF508
 6212 2d4f 4C4F0000 	 .4byte 0x4f4c
 6213 2d53 5D2D0000 	 .4byte 0x2d5d
 6214 2d57 01       	 .uleb128 0x1
 6215 2d58 AD4C0000 	 .4byte 0x4cad
 6216 2d5c 00       	 .byte 0
 6217 2d5d 05       	 .uleb128 0x5
 6218 2d5e EB400000 	 .4byte .LASF509
 6219 2d62 10       	 .byte 0x10
 6220 2d63 8602     	 .2byte 0x286
 6221 2d65 03       	 .byte 0x3
 6222 2d66 E80B0000 	 .4byte .LASF510
 6223 2d6a 4C4F0000 	 .4byte 0x4f4c
 6224 2d6e 782D0000 	 .4byte 0x2d78
 6225 2d72 01       	 .uleb128 0x1
 6226 2d73 76010000 	 .4byte 0x176
 6227 2d77 00       	 .byte 0
 6228 2d78 05       	 .uleb128 0x5
 6229 2d79 EB400000 	 .4byte .LASF509
 6230 2d7d 10       	 .byte 0x10
 6231 2d7e 8202     	 .2byte 0x282
 6232 2d80 03       	 .byte 0x3
 6233 2d81 D90B0000 	 .4byte .LASF511
 6234 2d85 4C4F0000 	 .4byte 0x4f4c
 6235 2d89 932D0000 	 .4byte 0x2d93
 6236 2d8d 01       	 .uleb128 0x1
 6237 2d8e A64C0000 	 .4byte 0x4ca6
 6238 2d92 00       	 .byte 0
 6239 2d93 05       	 .uleb128 0x5
 6240 2d94 EB400000 	 .4byte .LASF509
 6241 2d98 10       	 .byte 0x10
 6242 2d99 7E02     	 .2byte 0x27e
 6243 2d9b 03       	 .byte 0x3
 6244 2d9c B9220000 	 .4byte .LASF512
 6245 2da0 4C4F0000 	 .4byte 0x4f4c
 6246 2da4 AE2D0000 	 .4byte 0x2dae
 6247 2da8 01       	 .uleb128 0x1
 6248 2da9 AD4C0000 	 .4byte 0x4cad
 6249 2dad 00       	 .byte 0
 6250 2dae 05       	 .uleb128 0x5
 6251 2daf 19070000 	 .4byte .LASF513
 6252 2db3 10       	 .byte 0x10
 6253 2db4 9D02     	 .2byte 0x29d
 6254 2db6 03       	 .byte 0x3
 6255 2db7 AB220000 	 .4byte .LASF514
 6256 2dbb 4C4F0000 	 .4byte 0x4f4c
 6257 2dbf C92D0000 	 .4byte 0x2dc9
 6258 2dc3 01       	 .uleb128 0x1
 6259 2dc4 76010000 	 .4byte 0x176
 6260 2dc8 00       	 .byte 0
 6261 2dc9 05       	 .uleb128 0x5
 6262 2dca 19070000 	 .4byte .LASF513
 6263 2dce 10       	 .byte 0x10
 6264 2dcf 9902     	 .2byte 0x299
ARM GAS   			page 124


 6265 2dd1 03       	 .byte 0x3
 6266 2dd2 B80F0000 	 .4byte .LASF515
 6267 2dd6 4C4F0000 	 .4byte 0x4f4c
 6268 2dda E42D0000 	 .4byte 0x2de4
 6269 2dde 01       	 .uleb128 0x1
 6270 2ddf A64C0000 	 .4byte 0x4ca6
 6271 2de3 00       	 .byte 0
 6272 2de4 05       	 .uleb128 0x5
 6273 2de5 19070000 	 .4byte .LASF513
 6274 2de9 10       	 .byte 0x10
 6275 2dea 9502     	 .2byte 0x295
 6276 2dec 03       	 .byte 0x3
 6277 2ded 3E100000 	 .4byte .LASF516
 6278 2df1 4C4F0000 	 .4byte 0x4f4c
 6279 2df5 FF2D0000 	 .4byte 0x2dff
 6280 2df9 01       	 .uleb128 0x1
 6281 2dfa AD4C0000 	 .4byte 0x4cad
 6282 2dfe 00       	 .byte 0
 6283 2dff 05       	 .uleb128 0x5
 6284 2e00 65050000 	 .4byte .LASF517
 6285 2e04 10       	 .byte 0x10
 6286 2e05 B302     	 .2byte 0x2b3
 6287 2e07 03       	 .byte 0x3
 6288 2e08 03250000 	 .4byte .LASF518
 6289 2e0c 4C4F0000 	 .4byte 0x4f4c
 6290 2e10 1F2E0000 	 .4byte 0x2e1f
 6291 2e14 01       	 .uleb128 0x1
 6292 2e15 76010000 	 .4byte 0x176
 6293 2e19 01       	 .uleb128 0x1
 6294 2e1a 76010000 	 .4byte 0x176
 6295 2e1e 00       	 .byte 0
 6296 2e1f 05       	 .uleb128 0x5
 6297 2e20 65050000 	 .4byte .LASF517
 6298 2e24 10       	 .byte 0x10
 6299 2e25 AF02     	 .2byte 0x2af
 6300 2e27 03       	 .byte 0x3
 6301 2e28 F0230000 	 .4byte .LASF519
 6302 2e2c 4C4F0000 	 .4byte 0x4f4c
 6303 2e30 3F2E0000 	 .4byte 0x2e3f
 6304 2e34 01       	 .uleb128 0x1
 6305 2e35 A64C0000 	 .4byte 0x4ca6
 6306 2e39 01       	 .uleb128 0x1
 6307 2e3a A64C0000 	 .4byte 0x4ca6
 6308 2e3e 00       	 .byte 0
 6309 2e3f 05       	 .uleb128 0x5
 6310 2e40 65050000 	 .4byte .LASF517
 6311 2e44 10       	 .byte 0x10
 6312 2e45 AB02     	 .2byte 0x2ab
 6313 2e47 03       	 .byte 0x3
 6314 2e48 BA270000 	 .4byte .LASF520
 6315 2e4c 4C4F0000 	 .4byte 0x4f4c
 6316 2e50 5F2E0000 	 .4byte 0x2e5f
 6317 2e54 01       	 .uleb128 0x1
 6318 2e55 AD4C0000 	 .4byte 0x4cad
 6319 2e59 01       	 .uleb128 0x1
 6320 2e5a AD4C0000 	 .4byte 0x4cad
 6321 2e5e 00       	 .byte 0
ARM GAS   			page 125


 6322 2e5f 05       	 .uleb128 0x5
 6323 2e60 AB4D0000 	 .4byte .LASF521
 6324 2e64 10       	 .byte 0x10
 6325 2e65 CD02     	 .2byte 0x2cd
 6326 2e67 03       	 .byte 0x3
 6327 2e68 7B240000 	 .4byte .LASF522
 6328 2e6c 4C4F0000 	 .4byte 0x4f4c
 6329 2e70 7F2E0000 	 .4byte 0x2e7f
 6330 2e74 01       	 .uleb128 0x1
 6331 2e75 76010000 	 .4byte 0x176
 6332 2e79 01       	 .uleb128 0x1
 6333 2e7a 76010000 	 .4byte 0x176
 6334 2e7e 00       	 .byte 0
 6335 2e7f 05       	 .uleb128 0x5
 6336 2e80 AB4D0000 	 .4byte .LASF521
 6337 2e84 10       	 .byte 0x10
 6338 2e85 C902     	 .2byte 0x2c9
 6339 2e87 03       	 .byte 0x3
 6340 2e88 1B230000 	 .4byte .LASF523
 6341 2e8c 4C4F0000 	 .4byte 0x4f4c
 6342 2e90 9F2E0000 	 .4byte 0x2e9f
 6343 2e94 01       	 .uleb128 0x1
 6344 2e95 A64C0000 	 .4byte 0x4ca6
 6345 2e99 01       	 .uleb128 0x1
 6346 2e9a A64C0000 	 .4byte 0x4ca6
 6347 2e9e 00       	 .byte 0
 6348 2e9f 05       	 .uleb128 0x5
 6349 2ea0 AB4D0000 	 .4byte .LASF521
 6350 2ea4 10       	 .byte 0x10
 6351 2ea5 C502     	 .2byte 0x2c5
 6352 2ea7 03       	 .byte 0x3
 6353 2ea8 EF260000 	 .4byte .LASF524
 6354 2eac 4C4F0000 	 .4byte 0x4f4c
 6355 2eb0 BF2E0000 	 .4byte 0x2ebf
 6356 2eb4 01       	 .uleb128 0x1
 6357 2eb5 AD4C0000 	 .4byte 0x4cad
 6358 2eb9 01       	 .uleb128 0x1
 6359 2eba AD4C0000 	 .4byte 0x4cad
 6360 2ebe 00       	 .byte 0
 6361 2ebf 05       	 .uleb128 0x5
 6362 2ec0 D35F0000 	 .4byte .LASF525
 6363 2ec4 10       	 .byte 0x10
 6364 2ec5 E702     	 .2byte 0x2e7
 6365 2ec7 03       	 .byte 0x3
 6366 2ec8 50270000 	 .4byte .LASF526
 6367 2ecc 4C4F0000 	 .4byte 0x4f4c
 6368 2ed0 DF2E0000 	 .4byte 0x2edf
 6369 2ed4 01       	 .uleb128 0x1
 6370 2ed5 76010000 	 .4byte 0x176
 6371 2ed9 01       	 .uleb128 0x1
 6372 2eda 76010000 	 .4byte 0x176
 6373 2ede 00       	 .byte 0
 6374 2edf 05       	 .uleb128 0x5
 6375 2ee0 D35F0000 	 .4byte .LASF525
 6376 2ee4 10       	 .byte 0x10
 6377 2ee5 E302     	 .2byte 0x2e3
 6378 2ee7 03       	 .byte 0x3
ARM GAS   			page 126


 6379 2ee8 A6350000 	 .4byte .LASF527
 6380 2eec 4C4F0000 	 .4byte 0x4f4c
 6381 2ef0 FF2E0000 	 .4byte 0x2eff
 6382 2ef4 01       	 .uleb128 0x1
 6383 2ef5 A64C0000 	 .4byte 0x4ca6
 6384 2ef9 01       	 .uleb128 0x1
 6385 2efa A64C0000 	 .4byte 0x4ca6
 6386 2efe 00       	 .byte 0
 6387 2eff 05       	 .uleb128 0x5
 6388 2f00 D35F0000 	 .4byte .LASF525
 6389 2f04 10       	 .byte 0x10
 6390 2f05 DF02     	 .2byte 0x2df
 6391 2f07 03       	 .byte 0x3
 6392 2f08 CD370000 	 .4byte .LASF528
 6393 2f0c 4C4F0000 	 .4byte 0x4f4c
 6394 2f10 1F2F0000 	 .4byte 0x2f1f
 6395 2f14 01       	 .uleb128 0x1
 6396 2f15 AD4C0000 	 .4byte 0x4cad
 6397 2f19 01       	 .uleb128 0x1
 6398 2f1a AD4C0000 	 .4byte 0x4cad
 6399 2f1e 00       	 .byte 0
 6400 2f1f 05       	 .uleb128 0x5
 6401 2f20 29580000 	 .4byte .LASF529
 6402 2f24 10       	 .byte 0x10
 6403 2f25 0103     	 .2byte 0x301
 6404 2f27 03       	 .byte 0x3
 6405 2f28 8C540000 	 .4byte .LASF530
 6406 2f2c 4C4F0000 	 .4byte 0x4f4c
 6407 2f30 3F2F0000 	 .4byte 0x2f3f
 6408 2f34 01       	 .uleb128 0x1
 6409 2f35 76010000 	 .4byte 0x176
 6410 2f39 01       	 .uleb128 0x1
 6411 2f3a 76010000 	 .4byte 0x176
 6412 2f3e 00       	 .byte 0
 6413 2f3f 05       	 .uleb128 0x5
 6414 2f40 29580000 	 .4byte .LASF529
 6415 2f44 10       	 .byte 0x10
 6416 2f45 FD02     	 .2byte 0x2fd
 6417 2f47 03       	 .byte 0x3
 6418 2f48 4E520000 	 .4byte .LASF531
 6419 2f4c 4C4F0000 	 .4byte 0x4f4c
 6420 2f50 5F2F0000 	 .4byte 0x2f5f
 6421 2f54 01       	 .uleb128 0x1
 6422 2f55 A64C0000 	 .4byte 0x4ca6
 6423 2f59 01       	 .uleb128 0x1
 6424 2f5a A64C0000 	 .4byte 0x4ca6
 6425 2f5e 00       	 .byte 0
 6426 2f5f 05       	 .uleb128 0x5
 6427 2f60 29580000 	 .4byte .LASF529
 6428 2f64 10       	 .byte 0x10
 6429 2f65 F902     	 .2byte 0x2f9
 6430 2f67 03       	 .byte 0x3
 6431 2f68 16570000 	 .4byte .LASF532
 6432 2f6c 4C4F0000 	 .4byte 0x4f4c
 6433 2f70 7F2F0000 	 .4byte 0x2f7f
 6434 2f74 01       	 .uleb128 0x1
 6435 2f75 AD4C0000 	 .4byte 0x4cad
ARM GAS   			page 127


 6436 2f79 01       	 .uleb128 0x1
 6437 2f7a AD4C0000 	 .4byte 0x4cad
 6438 2f7e 00       	 .byte 0
 6439 2f7f 05       	 .uleb128 0x5
 6440 2f80 0C5E0000 	 .4byte .LASF533
 6441 2f84 10       	 .byte 0x10
 6442 2f85 1B03     	 .2byte 0x31b
 6443 2f87 03       	 .byte 0x3
 6444 2f88 2E010000 	 .4byte .LASF534
 6445 2f8c 4C4F0000 	 .4byte 0x4f4c
 6446 2f90 9F2F0000 	 .4byte 0x2f9f
 6447 2f94 01       	 .uleb128 0x1
 6448 2f95 76010000 	 .4byte 0x176
 6449 2f99 01       	 .uleb128 0x1
 6450 2f9a 76010000 	 .4byte 0x176
 6451 2f9e 00       	 .byte 0
 6452 2f9f 05       	 .uleb128 0x5
 6453 2fa0 0C5E0000 	 .4byte .LASF533
 6454 2fa4 10       	 .byte 0x10
 6455 2fa5 1703     	 .2byte 0x317
 6456 2fa7 03       	 .byte 0x3
 6457 2fa8 12000000 	 .4byte .LASF535
 6458 2fac 4C4F0000 	 .4byte 0x4f4c
 6459 2fb0 BF2F0000 	 .4byte 0x2fbf
 6460 2fb4 01       	 .uleb128 0x1
 6461 2fb5 A64C0000 	 .4byte 0x4ca6
 6462 2fb9 01       	 .uleb128 0x1
 6463 2fba A64C0000 	 .4byte 0x4ca6
 6464 2fbe 00       	 .byte 0
 6465 2fbf 05       	 .uleb128 0x5
 6466 2fc0 0C5E0000 	 .4byte .LASF533
 6467 2fc4 10       	 .byte 0x10
 6468 2fc5 1303     	 .2byte 0x313
 6469 2fc7 03       	 .byte 0x3
 6470 2fc8 7A020000 	 .4byte .LASF536
 6471 2fcc 4C4F0000 	 .4byte 0x4f4c
 6472 2fd0 DF2F0000 	 .4byte 0x2fdf
 6473 2fd4 01       	 .uleb128 0x1
 6474 2fd5 AD4C0000 	 .4byte 0x4cad
 6475 2fd9 01       	 .uleb128 0x1
 6476 2fda AD4C0000 	 .4byte 0x4cad
 6477 2fde 00       	 .byte 0
 6478 2fdf 05       	 .uleb128 0x5
 6479 2fe0 30050000 	 .4byte .LASF537
 6480 2fe4 10       	 .byte 0x10
 6481 2fe5 3503     	 .2byte 0x335
 6482 2fe7 03       	 .byte 0x3
 6483 2fe8 39430000 	 .4byte .LASF538
 6484 2fec 4C4F0000 	 .4byte 0x4f4c
 6485 2ff0 FF2F0000 	 .4byte 0x2fff
 6486 2ff4 01       	 .uleb128 0x1
 6487 2ff5 76010000 	 .4byte 0x176
 6488 2ff9 01       	 .uleb128 0x1
 6489 2ffa 76010000 	 .4byte 0x176
 6490 2ffe 00       	 .byte 0
 6491 2fff 05       	 .uleb128 0x5
 6492 3000 30050000 	 .4byte .LASF537
ARM GAS   			page 128


 6493 3004 10       	 .byte 0x10
 6494 3005 3103     	 .2byte 0x331
 6495 3007 03       	 .byte 0x3
 6496 3008 5E410000 	 .4byte .LASF539
 6497 300c 4C4F0000 	 .4byte 0x4f4c
 6498 3010 1F300000 	 .4byte 0x301f
 6499 3014 01       	 .uleb128 0x1
 6500 3015 A64C0000 	 .4byte 0x4ca6
 6501 3019 01       	 .uleb128 0x1
 6502 301a A64C0000 	 .4byte 0x4ca6
 6503 301e 00       	 .byte 0
 6504 301f 05       	 .uleb128 0x5
 6505 3020 30050000 	 .4byte .LASF537
 6506 3024 10       	 .byte 0x10
 6507 3025 2D03     	 .2byte 0x32d
 6508 3027 03       	 .byte 0x3
 6509 3028 0E460000 	 .4byte .LASF540
 6510 302c 4C4F0000 	 .4byte 0x4f4c
 6511 3030 3F300000 	 .4byte 0x303f
 6512 3034 01       	 .uleb128 0x1
 6513 3035 AD4C0000 	 .4byte 0x4cad
 6514 3039 01       	 .uleb128 0x1
 6515 303a AD4C0000 	 .4byte 0x4cad
 6516 303e 00       	 .byte 0
 6517 303f 05       	 .uleb128 0x5
 6518 3040 43420000 	 .4byte .LASF541
 6519 3044 10       	 .byte 0x10
 6520 3045 C204     	 .2byte 0x4c2
 6521 3047 03       	 .byte 0x3
 6522 3048 9B250000 	 .4byte .LASF542
 6523 304c 76010000 	 .4byte 0x176
 6524 3050 5A300000 	 .4byte 0x305a
 6525 3054 01       	 .uleb128 0x1
 6526 3055 76010000 	 .4byte 0x176
 6527 3059 00       	 .byte 0
 6528 305a 05       	 .uleb128 0x5
 6529 305b 43420000 	 .4byte .LASF541
 6530 305f 10       	 .byte 0x10
 6531 3060 BE04     	 .2byte 0x4be
 6532 3062 03       	 .byte 0x3
 6533 3063 A7250000 	 .4byte .LASF543
 6534 3067 AD4C0000 	 .4byte 0x4cad
 6535 306b 75300000 	 .4byte 0x3075
 6536 306f 01       	 .uleb128 0x1
 6537 3070 AD4C0000 	 .4byte 0x4cad
 6538 3074 00       	 .byte 0
 6539 3075 05       	 .uleb128 0x5
 6540 3076 2A490000 	 .4byte .LASF544
 6541 307a 10       	 .byte 0x10
 6542 307b D404     	 .2byte 0x4d4
 6543 307d 03       	 .byte 0x3
 6544 307e 952D0000 	 .4byte .LASF545
 6545 3082 76010000 	 .4byte 0x176
 6546 3086 90300000 	 .4byte 0x3090
 6547 308a 01       	 .uleb128 0x1
 6548 308b 76010000 	 .4byte 0x176
 6549 308f 00       	 .byte 0
ARM GAS   			page 129


 6550 3090 05       	 .uleb128 0x5
 6551 3091 2A490000 	 .4byte .LASF544
 6552 3095 10       	 .byte 0x10
 6553 3096 D004     	 .2byte 0x4d0
 6554 3098 03       	 .byte 0x3
 6555 3099 A12D0000 	 .4byte .LASF546
 6556 309d AD4C0000 	 .4byte 0x4cad
 6557 30a1 AB300000 	 .4byte 0x30ab
 6558 30a5 01       	 .uleb128 0x1
 6559 30a6 AD4C0000 	 .4byte 0x4cad
 6560 30aa 00       	 .byte 0
 6561 30ab 05       	 .uleb128 0x5
 6562 30ac 072B0000 	 .4byte .LASF547
 6563 30b0 10       	 .byte 0x10
 6564 30b1 E604     	 .2byte 0x4e6
 6565 30b3 03       	 .byte 0x3
 6566 30b4 56560000 	 .4byte .LASF548
 6567 30b8 76010000 	 .4byte 0x176
 6568 30bc C6300000 	 .4byte 0x30c6
 6569 30c0 01       	 .uleb128 0x1
 6570 30c1 76010000 	 .4byte 0x176
 6571 30c5 00       	 .byte 0
 6572 30c6 05       	 .uleb128 0x5
 6573 30c7 072B0000 	 .4byte .LASF547
 6574 30cb 10       	 .byte 0x10
 6575 30cc E204     	 .2byte 0x4e2
 6576 30ce 03       	 .byte 0x3
 6577 30cf 645E0000 	 .4byte .LASF549
 6578 30d3 AD4C0000 	 .4byte 0x4cad
 6579 30d7 E1300000 	 .4byte 0x30e1
 6580 30db 01       	 .uleb128 0x1
 6581 30dc AD4C0000 	 .4byte 0x4cad
 6582 30e0 00       	 .byte 0
 6583 30e1 05       	 .uleb128 0x5
 6584 30e2 48280000 	 .4byte .LASF550
 6585 30e6 10       	 .byte 0x10
 6586 30e7 F804     	 .2byte 0x4f8
 6587 30e9 03       	 .byte 0x3
 6588 30ea 01300000 	 .4byte .LASF551
 6589 30ee 76010000 	 .4byte 0x176
 6590 30f2 FC300000 	 .4byte 0x30fc
 6591 30f6 01       	 .uleb128 0x1
 6592 30f7 76010000 	 .4byte 0x176
 6593 30fb 00       	 .byte 0
 6594 30fc 05       	 .uleb128 0x5
 6595 30fd 48280000 	 .4byte .LASF550
 6596 3101 10       	 .byte 0x10
 6597 3102 F404     	 .2byte 0x4f4
 6598 3104 03       	 .byte 0x3
 6599 3105 E8090000 	 .4byte .LASF552
 6600 3109 AD4C0000 	 .4byte 0x4cad
 6601 310d 17310000 	 .4byte 0x3117
 6602 3111 01       	 .uleb128 0x1
 6603 3112 AD4C0000 	 .4byte 0x4cad
 6604 3116 00       	 .byte 0
 6605 3117 05       	 .uleb128 0x5
 6606 3118 02340000 	 .4byte .LASF553
ARM GAS   			page 130


 6607 311c 10       	 .byte 0x10
 6608 311d 0A05     	 .2byte 0x50a
 6609 311f 03       	 .byte 0x3
 6610 3120 A7580000 	 .4byte .LASF554
 6611 3124 76010000 	 .4byte 0x176
 6612 3128 37310000 	 .4byte 0x3137
 6613 312c 01       	 .uleb128 0x1
 6614 312d 76010000 	 .4byte 0x176
 6615 3131 01       	 .uleb128 0x1
 6616 3132 76010000 	 .4byte 0x176
 6617 3136 00       	 .byte 0
 6618 3137 05       	 .uleb128 0x5
 6619 3138 02340000 	 .4byte .LASF553
 6620 313c 10       	 .byte 0x10
 6621 313d 0605     	 .2byte 0x506
 6622 313f 03       	 .byte 0x3
 6623 3140 E7590000 	 .4byte .LASF555
 6624 3144 AD4C0000 	 .4byte 0x4cad
 6625 3148 57310000 	 .4byte 0x3157
 6626 314c 01       	 .uleb128 0x1
 6627 314d AD4C0000 	 .4byte 0x4cad
 6628 3151 01       	 .uleb128 0x1
 6629 3152 AD4C0000 	 .4byte 0x4cad
 6630 3156 00       	 .byte 0
 6631 3157 19       	 .uleb128 0x19
 6632 3158 65726600 	 .ascii "erf\000"
 6633 315c 10       	 .byte 0x10
 6634 315d 1E05     	 .2byte 0x51e
 6635 315f 03       	 .byte 0x3
 6636 3160 49680000 	 .4byte .LASF556
 6637 3164 76010000 	 .4byte 0x176
 6638 3168 72310000 	 .4byte 0x3172
 6639 316c 01       	 .uleb128 0x1
 6640 316d 76010000 	 .4byte 0x176
 6641 3171 00       	 .byte 0
 6642 3172 19       	 .uleb128 0x19
 6643 3173 65726600 	 .ascii "erf\000"
 6644 3177 10       	 .byte 0x10
 6645 3178 1A05     	 .2byte 0x51a
 6646 317a 03       	 .byte 0x3
 6647 317b 53680000 	 .4byte .LASF557
 6648 317f AD4C0000 	 .4byte 0x4cad
 6649 3183 8D310000 	 .4byte 0x318d
 6650 3187 01       	 .uleb128 0x1
 6651 3188 AD4C0000 	 .4byte 0x4cad
 6652 318c 00       	 .byte 0
 6653 318d 05       	 .uleb128 0x5
 6654 318e C6480000 	 .4byte .LASF558
 6655 3192 10       	 .byte 0x10
 6656 3193 3005     	 .2byte 0x530
 6657 3195 03       	 .byte 0x3
 6658 3196 78250000 	 .4byte .LASF559
 6659 319a 76010000 	 .4byte 0x176
 6660 319e A8310000 	 .4byte 0x31a8
 6661 31a2 01       	 .uleb128 0x1
 6662 31a3 76010000 	 .4byte 0x176
 6663 31a7 00       	 .byte 0
ARM GAS   			page 131


 6664 31a8 05       	 .uleb128 0x5
 6665 31a9 C6480000 	 .4byte .LASF558
 6666 31ad 10       	 .byte 0x10
 6667 31ae 2C05     	 .2byte 0x52c
 6668 31b0 03       	 .byte 0x3
 6669 31b1 83250000 	 .4byte .LASF560
 6670 31b5 AD4C0000 	 .4byte 0x4cad
 6671 31b9 C3310000 	 .4byte 0x31c3
 6672 31bd 01       	 .uleb128 0x1
 6673 31be AD4C0000 	 .4byte 0x4cad
 6674 31c2 00       	 .byte 0
 6675 31c3 05       	 .uleb128 0x5
 6676 31c4 E72C0000 	 .4byte .LASF561
 6677 31c8 10       	 .byte 0x10
 6678 31c9 4205     	 .2byte 0x542
 6679 31cb 03       	 .byte 0x3
 6680 31cc FB2B0000 	 .4byte .LASF562
 6681 31d0 76010000 	 .4byte 0x176
 6682 31d4 DE310000 	 .4byte 0x31de
 6683 31d8 01       	 .uleb128 0x1
 6684 31d9 76010000 	 .4byte 0x176
 6685 31dd 00       	 .byte 0
 6686 31de 05       	 .uleb128 0x5
 6687 31df E72C0000 	 .4byte .LASF561
 6688 31e3 10       	 .byte 0x10
 6689 31e4 3E05     	 .2byte 0x53e
 6690 31e6 03       	 .byte 0x3
 6691 31e7 062C0000 	 .4byte .LASF563
 6692 31eb AD4C0000 	 .4byte 0x4cad
 6693 31ef F9310000 	 .4byte 0x31f9
 6694 31f3 01       	 .uleb128 0x1
 6695 31f4 AD4C0000 	 .4byte 0x4cad
 6696 31f8 00       	 .byte 0
 6697 31f9 05       	 .uleb128 0x5
 6698 31fa 06000000 	 .4byte .LASF564
 6699 31fe 10       	 .byte 0x10
 6700 31ff 5405     	 .2byte 0x554
 6701 3201 03       	 .byte 0x3
 6702 3202 89500000 	 .4byte .LASF565
 6703 3206 76010000 	 .4byte 0x176
 6704 320a 14320000 	 .4byte 0x3214
 6705 320e 01       	 .uleb128 0x1
 6706 320f 76010000 	 .4byte 0x176
 6707 3213 00       	 .byte 0
 6708 3214 05       	 .uleb128 0x5
 6709 3215 06000000 	 .4byte .LASF564
 6710 3219 10       	 .byte 0x10
 6711 321a 5005     	 .2byte 0x550
 6712 321c 03       	 .byte 0x3
 6713 321d 95500000 	 .4byte .LASF566
 6714 3221 AD4C0000 	 .4byte 0x4cad
 6715 3225 2F320000 	 .4byte 0x322f
 6716 3229 01       	 .uleb128 0x1
 6717 322a AD4C0000 	 .4byte 0x4cad
 6718 322e 00       	 .byte 0
 6719 322f 05       	 .uleb128 0x5
 6720 3230 9E5D0000 	 .4byte .LASF567
ARM GAS   			page 132


 6721 3234 10       	 .byte 0x10
 6722 3235 6605     	 .2byte 0x566
 6723 3237 03       	 .byte 0x3
 6724 3238 C14D0000 	 .4byte .LASF568
 6725 323c 76010000 	 .4byte 0x176
 6726 3240 4F320000 	 .4byte 0x324f
 6727 3244 01       	 .uleb128 0x1
 6728 3245 76010000 	 .4byte 0x176
 6729 3249 01       	 .uleb128 0x1
 6730 324a 76010000 	 .4byte 0x176
 6731 324e 00       	 .byte 0
 6732 324f 05       	 .uleb128 0x5
 6733 3250 9E5D0000 	 .4byte .LASF567
 6734 3254 10       	 .byte 0x10
 6735 3255 6205     	 .2byte 0x562
 6736 3257 03       	 .byte 0x3
 6737 3258 6A070000 	 .4byte .LASF569
 6738 325c AD4C0000 	 .4byte 0x4cad
 6739 3260 6F320000 	 .4byte 0x326f
 6740 3264 01       	 .uleb128 0x1
 6741 3265 AD4C0000 	 .4byte 0x4cad
 6742 3269 01       	 .uleb128 0x1
 6743 326a AD4C0000 	 .4byte 0x4cad
 6744 326e 00       	 .byte 0
 6745 326f 19       	 .uleb128 0x19
 6746 3270 666D6100 	 .ascii "fma\000"
 6747 3274 10       	 .byte 0x10
 6748 3275 7A05     	 .2byte 0x57a
 6749 3277 03       	 .byte 0x3
 6750 3278 B04A0000 	 .4byte .LASF570
 6751 327c 76010000 	 .4byte 0x176
 6752 3280 94320000 	 .4byte 0x3294
 6753 3284 01       	 .uleb128 0x1
 6754 3285 76010000 	 .4byte 0x176
 6755 3289 01       	 .uleb128 0x1
 6756 328a 76010000 	 .4byte 0x176
 6757 328e 01       	 .uleb128 0x1
 6758 328f 76010000 	 .4byte 0x176
 6759 3293 00       	 .byte 0
 6760 3294 19       	 .uleb128 0x19
 6761 3295 666D6100 	 .ascii "fma\000"
 6762 3299 10       	 .byte 0x10
 6763 329a 7605     	 .2byte 0x576
 6764 329c 03       	 .byte 0x3
 6765 329d D3580000 	 .4byte .LASF571
 6766 32a1 AD4C0000 	 .4byte 0x4cad
 6767 32a5 B9320000 	 .4byte 0x32b9
 6768 32a9 01       	 .uleb128 0x1
 6769 32aa AD4C0000 	 .4byte 0x4cad
 6770 32ae 01       	 .uleb128 0x1
 6771 32af AD4C0000 	 .4byte 0x4cad
 6772 32b3 01       	 .uleb128 0x1
 6773 32b4 AD4C0000 	 .4byte 0x4cad
 6774 32b8 00       	 .byte 0
 6775 32b9 05       	 .uleb128 0x5
 6776 32ba 993F0000 	 .4byte .LASF572
 6777 32be 10       	 .byte 0x10
ARM GAS   			page 133


 6778 32bf 8E05     	 .2byte 0x58e
 6779 32c1 03       	 .byte 0x3
 6780 32c2 85510000 	 .4byte .LASF573
 6781 32c6 76010000 	 .4byte 0x176
 6782 32ca D9320000 	 .4byte 0x32d9
 6783 32ce 01       	 .uleb128 0x1
 6784 32cf 76010000 	 .4byte 0x176
 6785 32d3 01       	 .uleb128 0x1
 6786 32d4 76010000 	 .4byte 0x176
 6787 32d8 00       	 .byte 0
 6788 32d9 05       	 .uleb128 0x5
 6789 32da 993F0000 	 .4byte .LASF572
 6790 32de 10       	 .byte 0x10
 6791 32df 8A05     	 .2byte 0x58a
 6792 32e1 03       	 .byte 0x3
 6793 32e2 4D540000 	 .4byte .LASF574
 6794 32e6 AD4C0000 	 .4byte 0x4cad
 6795 32ea F9320000 	 .4byte 0x32f9
 6796 32ee 01       	 .uleb128 0x1
 6797 32ef AD4C0000 	 .4byte 0x4cad
 6798 32f3 01       	 .uleb128 0x1
 6799 32f4 AD4C0000 	 .4byte 0x4cad
 6800 32f8 00       	 .byte 0
 6801 32f9 05       	 .uleb128 0x5
 6802 32fa C14F0000 	 .4byte .LASF575
 6803 32fe 10       	 .byte 0x10
 6804 32ff A205     	 .2byte 0x5a2
 6805 3301 03       	 .byte 0x3
 6806 3302 8B440000 	 .4byte .LASF576
 6807 3306 76010000 	 .4byte 0x176
 6808 330a 19330000 	 .4byte 0x3319
 6809 330e 01       	 .uleb128 0x1
 6810 330f 76010000 	 .4byte 0x176
 6811 3313 01       	 .uleb128 0x1
 6812 3314 76010000 	 .4byte 0x176
 6813 3318 00       	 .byte 0
 6814 3319 05       	 .uleb128 0x5
 6815 331a C14F0000 	 .4byte .LASF575
 6816 331e 10       	 .byte 0x10
 6817 331f 9E05     	 .2byte 0x59e
 6818 3321 03       	 .byte 0x3
 6819 3322 E63B0000 	 .4byte .LASF577
 6820 3326 AD4C0000 	 .4byte 0x4cad
 6821 332a 39330000 	 .4byte 0x3339
 6822 332e 01       	 .uleb128 0x1
 6823 332f AD4C0000 	 .4byte 0x4cad
 6824 3333 01       	 .uleb128 0x1
 6825 3334 AD4C0000 	 .4byte 0x4cad
 6826 3338 00       	 .byte 0
 6827 3339 05       	 .uleb128 0x5
 6828 333a 41320000 	 .4byte .LASF578
 6829 333e 10       	 .byte 0x10
 6830 333f B605     	 .2byte 0x5b6
 6831 3341 03       	 .byte 0x3
 6832 3342 9A010000 	 .4byte .LASF579
 6833 3346 76010000 	 .4byte 0x176
 6834 334a 59330000 	 .4byte 0x3359
ARM GAS   			page 134


 6835 334e 01       	 .uleb128 0x1
 6836 334f 76010000 	 .4byte 0x176
 6837 3353 01       	 .uleb128 0x1
 6838 3354 76010000 	 .4byte 0x176
 6839 3358 00       	 .byte 0
 6840 3359 05       	 .uleb128 0x5
 6841 335a 41320000 	 .4byte .LASF578
 6842 335e 10       	 .byte 0x10
 6843 335f B205     	 .2byte 0x5b2
 6844 3361 03       	 .byte 0x3
 6845 3362 B75F0000 	 .4byte .LASF580
 6846 3366 AD4C0000 	 .4byte 0x4cad
 6847 336a 79330000 	 .4byte 0x3379
 6848 336e 01       	 .uleb128 0x1
 6849 336f AD4C0000 	 .4byte 0x4cad
 6850 3373 01       	 .uleb128 0x1
 6851 3374 AD4C0000 	 .4byte 0x4cad
 6852 3378 00       	 .byte 0
 6853 3379 05       	 .uleb128 0x5
 6854 337a 6D1D0000 	 .4byte .LASF581
 6855 337e 10       	 .byte 0x10
 6856 337f CA05     	 .2byte 0x5ca
 6857 3381 03       	 .byte 0x3
 6858 3382 120B0000 	 .4byte .LASF582
 6859 3386 46010000 	 .4byte 0x146
 6860 338a 94330000 	 .4byte 0x3394
 6861 338e 01       	 .uleb128 0x1
 6862 338f 76010000 	 .4byte 0x176
 6863 3393 00       	 .byte 0
 6864 3394 05       	 .uleb128 0x5
 6865 3395 6D1D0000 	 .4byte .LASF581
 6866 3399 10       	 .byte 0x10
 6867 339a C605     	 .2byte 0x5c6
 6868 339c 03       	 .byte 0x3
 6869 339d 1E0B0000 	 .4byte .LASF583
 6870 33a1 46010000 	 .4byte 0x146
 6871 33a5 AF330000 	 .4byte 0x33af
 6872 33a9 01       	 .uleb128 0x1
 6873 33aa AD4C0000 	 .4byte 0x4cad
 6874 33ae 00       	 .byte 0
 6875 33af 05       	 .uleb128 0x5
 6876 33b0 E25F0000 	 .4byte .LASF584
 6877 33b4 10       	 .byte 0x10
 6878 33b5 DD05     	 .2byte 0x5dd
 6879 33b7 03       	 .byte 0x3
 6880 33b8 202C0000 	 .4byte .LASF585
 6881 33bc 76010000 	 .4byte 0x176
 6882 33c0 CA330000 	 .4byte 0x33ca
 6883 33c4 01       	 .uleb128 0x1
 6884 33c5 76010000 	 .4byte 0x176
 6885 33c9 00       	 .byte 0
 6886 33ca 05       	 .uleb128 0x5
 6887 33cb E25F0000 	 .4byte .LASF584
 6888 33cf 10       	 .byte 0x10
 6889 33d0 D905     	 .2byte 0x5d9
 6890 33d2 03       	 .byte 0x3
 6891 33d3 2D2C0000 	 .4byte .LASF586
ARM GAS   			page 135


 6892 33d7 AD4C0000 	 .4byte 0x4cad
 6893 33db E5330000 	 .4byte 0x33e5
 6894 33df 01       	 .uleb128 0x1
 6895 33e0 AD4C0000 	 .4byte 0x4cad
 6896 33e4 00       	 .byte 0
 6897 33e5 05       	 .uleb128 0x5
 6898 33e6 0B1E0000 	 .4byte .LASF587
 6899 33ea 10       	 .byte 0x10
 6900 33eb EF05     	 .2byte 0x5ef
 6901 33ed 03       	 .byte 0x3
 6902 33ee 4A010000 	 .4byte .LASF588
 6903 33f2 A8000000 	 .4byte 0xa8
 6904 33f6 00340000 	 .4byte 0x3400
 6905 33fa 01       	 .uleb128 0x1
 6906 33fb 76010000 	 .4byte 0x176
 6907 33ff 00       	 .byte 0
 6908 3400 05       	 .uleb128 0x5
 6909 3401 0B1E0000 	 .4byte .LASF587
 6910 3405 10       	 .byte 0x10
 6911 3406 EB05     	 .2byte 0x5eb
 6912 3408 03       	 .byte 0x3
 6913 3409 57010000 	 .4byte .LASF589
 6914 340d A8000000 	 .4byte 0xa8
 6915 3411 1B340000 	 .4byte 0x341b
 6916 3415 01       	 .uleb128 0x1
 6917 3416 AD4C0000 	 .4byte 0x4cad
 6918 341a 00       	 .byte 0
 6919 341b 05       	 .uleb128 0x5
 6920 341c B7580000 	 .4byte .LASF590
 6921 3420 10       	 .byte 0x10
 6922 3421 0106     	 .2byte 0x601
 6923 3423 03       	 .byte 0x3
 6924 3424 7A330000 	 .4byte .LASF591
 6925 3428 A8000000 	 .4byte 0xa8
 6926 342c 36340000 	 .4byte 0x3436
 6927 3430 01       	 .uleb128 0x1
 6928 3431 76010000 	 .4byte 0x176
 6929 3435 00       	 .byte 0
 6930 3436 05       	 .uleb128 0x5
 6931 3437 B7580000 	 .4byte .LASF590
 6932 343b 10       	 .byte 0x10
 6933 343c FD05     	 .2byte 0x5fd
 6934 343e 03       	 .byte 0x3
 6935 343f 88330000 	 .4byte .LASF592
 6936 3443 A8000000 	 .4byte 0xa8
 6937 3447 51340000 	 .4byte 0x3451
 6938 344b 01       	 .uleb128 0x1
 6939 344c AD4C0000 	 .4byte 0x4cad
 6940 3450 00       	 .byte 0
 6941 3451 05       	 .uleb128 0x5
 6942 3452 1F010000 	 .4byte .LASF593
 6943 3456 10       	 .byte 0x10
 6944 3457 1306     	 .2byte 0x613
 6945 3459 03       	 .byte 0x3
 6946 345a 343D0000 	 .4byte .LASF594
 6947 345e 76010000 	 .4byte 0x176
 6948 3462 6C340000 	 .4byte 0x346c
ARM GAS   			page 136


 6949 3466 01       	 .uleb128 0x1
 6950 3467 76010000 	 .4byte 0x176
 6951 346b 00       	 .byte 0
 6952 346c 05       	 .uleb128 0x5
 6953 346d 1F010000 	 .4byte .LASF593
 6954 3471 10       	 .byte 0x10
 6955 3472 0F06     	 .2byte 0x60f
 6956 3474 03       	 .byte 0x3
 6957 3475 403D0000 	 .4byte .LASF595
 6958 3479 AD4C0000 	 .4byte 0x4cad
 6959 347d 87340000 	 .4byte 0x3487
 6960 3481 01       	 .uleb128 0x1
 6961 3482 AD4C0000 	 .4byte 0x4cad
 6962 3486 00       	 .byte 0
 6963 3487 05       	 .uleb128 0x5
 6964 3488 B1540000 	 .4byte .LASF596
 6965 348c 10       	 .byte 0x10
 6966 348d 2606     	 .2byte 0x626
 6967 348f 03       	 .byte 0x3
 6968 3490 3F2A0000 	 .4byte .LASF597
 6969 3494 76010000 	 .4byte 0x176
 6970 3498 A2340000 	 .4byte 0x34a2
 6971 349c 01       	 .uleb128 0x1
 6972 349d 76010000 	 .4byte 0x176
 6973 34a1 00       	 .byte 0
 6974 34a2 05       	 .uleb128 0x5
 6975 34a3 B1540000 	 .4byte .LASF596
 6976 34a7 10       	 .byte 0x10
 6977 34a8 2206     	 .2byte 0x622
 6978 34aa 03       	 .byte 0x3
 6979 34ab 4A2A0000 	 .4byte .LASF598
 6980 34af AD4C0000 	 .4byte 0x4cad
 6981 34b3 BD340000 	 .4byte 0x34bd
 6982 34b7 01       	 .uleb128 0x1
 6983 34b8 AD4C0000 	 .4byte 0x4cad
 6984 34bc 00       	 .byte 0
 6985 34bd 05       	 .uleb128 0x5
 6986 34be 77560000 	 .4byte .LASF599
 6987 34c2 10       	 .byte 0x10
 6988 34c3 3806     	 .2byte 0x638
 6989 34c5 03       	 .byte 0x3
 6990 34c6 E0120000 	 .4byte .LASF600
 6991 34ca 76010000 	 .4byte 0x176
 6992 34ce D8340000 	 .4byte 0x34d8
 6993 34d2 01       	 .uleb128 0x1
 6994 34d3 76010000 	 .4byte 0x176
 6995 34d7 00       	 .byte 0
 6996 34d8 05       	 .uleb128 0x5
 6997 34d9 77560000 	 .4byte .LASF599
 6998 34dd 10       	 .byte 0x10
 6999 34de 3406     	 .2byte 0x634
 7000 34e0 03       	 .byte 0x3
 7001 34e1 EB120000 	 .4byte .LASF601
 7002 34e5 AD4C0000 	 .4byte 0x4cad
 7003 34e9 F3340000 	 .4byte 0x34f3
 7004 34ed 01       	 .uleb128 0x1
 7005 34ee AD4C0000 	 .4byte 0x4cad
ARM GAS   			page 137


 7006 34f2 00       	 .byte 0
 7007 34f3 05       	 .uleb128 0x5
 7008 34f4 C4450000 	 .4byte .LASF602
 7009 34f8 10       	 .byte 0x10
 7010 34f9 4A06     	 .2byte 0x64a
 7011 34fb 03       	 .byte 0x3
 7012 34fc DA300000 	 .4byte .LASF603
 7013 3500 7D000000 	 .4byte 0x7d
 7014 3504 0E350000 	 .4byte 0x350e
 7015 3508 01       	 .uleb128 0x1
 7016 3509 76010000 	 .4byte 0x176
 7017 350d 00       	 .byte 0
 7018 350e 05       	 .uleb128 0x5
 7019 350f C4450000 	 .4byte .LASF602
 7020 3513 10       	 .byte 0x10
 7021 3514 4606     	 .2byte 0x646
 7022 3516 03       	 .byte 0x3
 7023 3517 E6300000 	 .4byte .LASF604
 7024 351b 7D000000 	 .4byte 0x7d
 7025 351f 29350000 	 .4byte 0x3529
 7026 3523 01       	 .uleb128 0x1
 7027 3524 AD4C0000 	 .4byte 0x4cad
 7028 3528 00       	 .byte 0
 7029 3529 05       	 .uleb128 0x5
 7030 352a 705E0000 	 .4byte .LASF605
 7031 352e 10       	 .byte 0x10
 7032 352f 5C06     	 .2byte 0x65c
 7033 3531 03       	 .byte 0x3
 7034 3532 BC2A0000 	 .4byte .LASF606
 7035 3536 7D000000 	 .4byte 0x7d
 7036 353a 44350000 	 .4byte 0x3544
 7037 353e 01       	 .uleb128 0x1
 7038 353f 76010000 	 .4byte 0x176
 7039 3543 00       	 .byte 0
 7040 3544 05       	 .uleb128 0x5
 7041 3545 705E0000 	 .4byte .LASF605
 7042 3549 10       	 .byte 0x10
 7043 354a 5806     	 .2byte 0x658
 7044 354c 03       	 .byte 0x3
 7045 354d C92A0000 	 .4byte .LASF607
 7046 3551 7D000000 	 .4byte 0x7d
 7047 3555 5F350000 	 .4byte 0x355f
 7048 3559 01       	 .uleb128 0x1
 7049 355a AD4C0000 	 .4byte 0x4cad
 7050 355e 00       	 .byte 0
 7051 355f 05       	 .uleb128 0x5
 7052 3560 11230000 	 .4byte .LASF608
 7053 3564 10       	 .byte 0x10
 7054 3565 6E06     	 .2byte 0x66e
 7055 3567 03       	 .byte 0x3
 7056 3568 2A250000 	 .4byte .LASF609
 7057 356c 76010000 	 .4byte 0x176
 7058 3570 7A350000 	 .4byte 0x357a
 7059 3574 01       	 .uleb128 0x1
 7060 3575 76010000 	 .4byte 0x176
 7061 3579 00       	 .byte 0
 7062 357a 05       	 .uleb128 0x5
ARM GAS   			page 138


 7063 357b 11230000 	 .4byte .LASF608
 7064 357f 10       	 .byte 0x10
 7065 3580 6A06     	 .2byte 0x66a
 7066 3582 03       	 .byte 0x3
 7067 3583 3A250000 	 .4byte .LASF610
 7068 3587 AD4C0000 	 .4byte 0x4cad
 7069 358b 95350000 	 .4byte 0x3595
 7070 358f 01       	 .uleb128 0x1
 7071 3590 AD4C0000 	 .4byte 0x4cad
 7072 3594 00       	 .byte 0
 7073 3595 05       	 .uleb128 0x5
 7074 3596 07360000 	 .4byte .LASF611
 7075 359a 10       	 .byte 0x10
 7076 359b 8006     	 .2byte 0x680
 7077 359d 03       	 .byte 0x3
 7078 359e A6670000 	 .4byte .LASF612
 7079 35a2 76010000 	 .4byte 0x176
 7080 35a6 B5350000 	 .4byte 0x35b5
 7081 35aa 01       	 .uleb128 0x1
 7082 35ab 76010000 	 .4byte 0x176
 7083 35af 01       	 .uleb128 0x1
 7084 35b0 76010000 	 .4byte 0x176
 7085 35b4 00       	 .byte 0
 7086 35b5 05       	 .uleb128 0x5
 7087 35b6 07360000 	 .4byte .LASF611
 7088 35ba 10       	 .byte 0x10
 7089 35bb 7C06     	 .2byte 0x67c
 7090 35bd 03       	 .byte 0x3
 7091 35be B1690000 	 .4byte .LASF613
 7092 35c2 AD4C0000 	 .4byte 0x4cad
 7093 35c6 D5350000 	 .4byte 0x35d5
 7094 35ca 01       	 .uleb128 0x1
 7095 35cb AD4C0000 	 .4byte 0x4cad
 7096 35cf 01       	 .uleb128 0x1
 7097 35d0 AD4C0000 	 .4byte 0x4cad
 7098 35d4 00       	 .byte 0
 7099 35d5 05       	 .uleb128 0x5
 7100 35d6 28560000 	 .4byte .LASF614
 7101 35da 10       	 .byte 0x10
 7102 35db 9406     	 .2byte 0x694
 7103 35dd 03       	 .byte 0x3
 7104 35de 7C460000 	 .4byte .LASF615
 7105 35e2 76010000 	 .4byte 0x176
 7106 35e6 F5350000 	 .4byte 0x35f5
 7107 35ea 01       	 .uleb128 0x1
 7108 35eb 76010000 	 .4byte 0x176
 7109 35ef 01       	 .uleb128 0x1
 7110 35f0 76010000 	 .4byte 0x176
 7111 35f4 00       	 .byte 0
 7112 35f5 05       	 .uleb128 0x5
 7113 35f6 28560000 	 .4byte .LASF614
 7114 35fa 10       	 .byte 0x10
 7115 35fb 9006     	 .2byte 0x690
 7116 35fd 03       	 .byte 0x3
 7117 35fe 97480000 	 .4byte .LASF616
 7118 3602 AD4C0000 	 .4byte 0x4cad
 7119 3606 15360000 	 .4byte 0x3615
ARM GAS   			page 139


 7120 360a 01       	 .uleb128 0x1
 7121 360b AD4C0000 	 .4byte 0x4cad
 7122 360f 01       	 .uleb128 0x1
 7123 3610 76010000 	 .4byte 0x176
 7124 3614 00       	 .byte 0
 7125 3615 05       	 .uleb128 0x5
 7126 3616 F1430000 	 .4byte .LASF617
 7127 361a 10       	 .byte 0x10
 7128 361b A606     	 .2byte 0x6a6
 7129 361d 03       	 .byte 0x3
 7130 361e AE4B0000 	 .4byte .LASF618
 7131 3622 76010000 	 .4byte 0x176
 7132 3626 35360000 	 .4byte 0x3635
 7133 362a 01       	 .uleb128 0x1
 7134 362b 76010000 	 .4byte 0x176
 7135 362f 01       	 .uleb128 0x1
 7136 3630 76010000 	 .4byte 0x176
 7137 3634 00       	 .byte 0
 7138 3635 05       	 .uleb128 0x5
 7139 3636 F1430000 	 .4byte .LASF617
 7140 363a 10       	 .byte 0x10
 7141 363b A206     	 .2byte 0x6a2
 7142 363d 03       	 .byte 0x3
 7143 363e 8D5D0000 	 .4byte .LASF619
 7144 3642 AD4C0000 	 .4byte 0x4cad
 7145 3646 55360000 	 .4byte 0x3655
 7146 364a 01       	 .uleb128 0x1
 7147 364b AD4C0000 	 .4byte 0x4cad
 7148 364f 01       	 .uleb128 0x1
 7149 3650 AD4C0000 	 .4byte 0x4cad
 7150 3654 00       	 .byte 0
 7151 3655 05       	 .uleb128 0x5
 7152 3656 06270000 	 .4byte .LASF620
 7153 365a 10       	 .byte 0x10
 7154 365b BA06     	 .2byte 0x6ba
 7155 365d 03       	 .byte 0x3
 7156 365e 19420000 	 .4byte .LASF621
 7157 3662 76010000 	 .4byte 0x176
 7158 3666 7A360000 	 .4byte 0x367a
 7159 366a 01       	 .uleb128 0x1
 7160 366b 76010000 	 .4byte 0x176
 7161 366f 01       	 .uleb128 0x1
 7162 3670 76010000 	 .4byte 0x176
 7163 3674 01       	 .uleb128 0x1
 7164 3675 724E0000 	 .4byte 0x4e72
 7165 3679 00       	 .byte 0
 7166 367a 05       	 .uleb128 0x5
 7167 367b 06270000 	 .4byte .LASF620
 7168 367f 10       	 .byte 0x10
 7169 3680 B606     	 .2byte 0x6b6
 7170 3682 03       	 .byte 0x3
 7171 3683 CF160000 	 .4byte .LASF622
 7172 3687 AD4C0000 	 .4byte 0x4cad
 7173 368b 9F360000 	 .4byte 0x369f
 7174 368f 01       	 .uleb128 0x1
 7175 3690 AD4C0000 	 .4byte 0x4cad
 7176 3694 01       	 .uleb128 0x1
ARM GAS   			page 140


 7177 3695 AD4C0000 	 .4byte 0x4cad
 7178 3699 01       	 .uleb128 0x1
 7179 369a 724E0000 	 .4byte 0x4e72
 7180 369e 00       	 .byte 0
 7181 369f 05       	 .uleb128 0x5
 7182 36a0 22460000 	 .4byte .LASF623
 7183 36a4 10       	 .byte 0x10
 7184 36a5 CE06     	 .2byte 0x6ce
 7185 36a7 03       	 .byte 0x3
 7186 36a8 860E0000 	 .4byte .LASF624
 7187 36ac 76010000 	 .4byte 0x176
 7188 36b0 BA360000 	 .4byte 0x36ba
 7189 36b4 01       	 .uleb128 0x1
 7190 36b5 76010000 	 .4byte 0x176
 7191 36b9 00       	 .byte 0
 7192 36ba 05       	 .uleb128 0x5
 7193 36bb 22460000 	 .4byte .LASF623
 7194 36bf 10       	 .byte 0x10
 7195 36c0 CA06     	 .2byte 0x6ca
 7196 36c2 03       	 .byte 0x3
 7197 36c3 910E0000 	 .4byte .LASF625
 7198 36c7 AD4C0000 	 .4byte 0x4cad
 7199 36cb D5360000 	 .4byte 0x36d5
 7200 36cf 01       	 .uleb128 0x1
 7201 36d0 AD4C0000 	 .4byte 0x4cad
 7202 36d4 00       	 .byte 0
 7203 36d5 05       	 .uleb128 0x5
 7204 36d6 AA480000 	 .4byte .LASF626
 7205 36da 10       	 .byte 0x10
 7206 36db E006     	 .2byte 0x6e0
 7207 36dd 03       	 .byte 0x3
 7208 36de 065A0000 	 .4byte .LASF627
 7209 36e2 76010000 	 .4byte 0x176
 7210 36e6 F0360000 	 .4byte 0x36f0
 7211 36ea 01       	 .uleb128 0x1
 7212 36eb 76010000 	 .4byte 0x176
 7213 36ef 00       	 .byte 0
 7214 36f0 05       	 .uleb128 0x5
 7215 36f1 AA480000 	 .4byte .LASF626
 7216 36f5 10       	 .byte 0x10
 7217 36f6 DC06     	 .2byte 0x6dc
 7218 36f8 03       	 .byte 0x3
 7219 36f9 125A0000 	 .4byte .LASF628
 7220 36fd AD4C0000 	 .4byte 0x4cad
 7221 3701 0B370000 	 .4byte 0x370b
 7222 3705 01       	 .uleb128 0x1
 7223 3706 AD4C0000 	 .4byte 0x4cad
 7224 370a 00       	 .byte 0
 7225 370b 05       	 .uleb128 0x5
 7226 370c 72330000 	 .4byte .LASF629
 7227 3710 10       	 .byte 0x10
 7228 3711 F206     	 .2byte 0x6f2
 7229 3713 03       	 .byte 0x3
 7230 3714 80170000 	 .4byte .LASF630
 7231 3718 76010000 	 .4byte 0x176
 7232 371c 2B370000 	 .4byte 0x372b
 7233 3720 01       	 .uleb128 0x1
ARM GAS   			page 141


 7234 3721 76010000 	 .4byte 0x176
 7235 3725 01       	 .uleb128 0x1
 7236 3726 7D000000 	 .4byte 0x7d
 7237 372a 00       	 .byte 0
 7238 372b 05       	 .uleb128 0x5
 7239 372c 72330000 	 .4byte .LASF629
 7240 3730 10       	 .byte 0x10
 7241 3731 EE06     	 .2byte 0x6ee
 7242 3733 03       	 .byte 0x3
 7243 3734 A9180000 	 .4byte .LASF631
 7244 3738 AD4C0000 	 .4byte 0x4cad
 7245 373c 4B370000 	 .4byte 0x374b
 7246 3740 01       	 .uleb128 0x1
 7247 3741 AD4C0000 	 .4byte 0x4cad
 7248 3745 01       	 .uleb128 0x1
 7249 3746 7D000000 	 .4byte 0x7d
 7250 374a 00       	 .byte 0
 7251 374b 05       	 .uleb128 0x5
 7252 374c B60E0000 	 .4byte .LASF632
 7253 3750 10       	 .byte 0x10
 7254 3751 0407     	 .2byte 0x704
 7255 3753 03       	 .byte 0x3
 7256 3754 CD490000 	 .4byte .LASF633
 7257 3758 76010000 	 .4byte 0x176
 7258 375c 6B370000 	 .4byte 0x376b
 7259 3760 01       	 .uleb128 0x1
 7260 3761 76010000 	 .4byte 0x176
 7261 3765 01       	 .uleb128 0x1
 7262 3766 46010000 	 .4byte 0x146
 7263 376a 00       	 .byte 0
 7264 376b 05       	 .uleb128 0x5
 7265 376c B60E0000 	 .4byte .LASF632
 7266 3770 10       	 .byte 0x10
 7267 3771 0007     	 .2byte 0x700
 7268 3773 03       	 .byte 0x3
 7269 3774 8E4B0000 	 .4byte .LASF634
 7270 3778 AD4C0000 	 .4byte 0x4cad
 7271 377c 8B370000 	 .4byte 0x378b
 7272 3780 01       	 .uleb128 0x1
 7273 3781 AD4C0000 	 .4byte 0x4cad
 7274 3785 01       	 .uleb128 0x1
 7275 3786 46010000 	 .4byte 0x146
 7276 378a 00       	 .byte 0
 7277 378b 05       	 .uleb128 0x5
 7278 378c 4A450000 	 .4byte .LASF635
 7279 3790 10       	 .byte 0x10
 7280 3791 1607     	 .2byte 0x716
 7281 3793 03       	 .byte 0x3
 7282 3794 5B0C0000 	 .4byte .LASF636
 7283 3798 76010000 	 .4byte 0x176
 7284 379c A6370000 	 .4byte 0x37a6
 7285 37a0 01       	 .uleb128 0x1
 7286 37a1 76010000 	 .4byte 0x176
 7287 37a5 00       	 .byte 0
 7288 37a6 05       	 .uleb128 0x5
 7289 37a7 4A450000 	 .4byte .LASF635
 7290 37ab 10       	 .byte 0x10
ARM GAS   			page 142


 7291 37ac 1207     	 .2byte 0x712
 7292 37ae 03       	 .byte 0x3
 7293 37af 680C0000 	 .4byte .LASF637
 7294 37b3 AD4C0000 	 .4byte 0x4cad
 7295 37b7 C1370000 	 .4byte 0x37c1
 7296 37bb 01       	 .uleb128 0x1
 7297 37bc AD4C0000 	 .4byte 0x4cad
 7298 37c0 00       	 .byte 0
 7299 37c1 05       	 .uleb128 0x5
 7300 37c2 75510000 	 .4byte .LASF638
 7301 37c6 10       	 .byte 0x10
 7302 37c7 2807     	 .2byte 0x728
 7303 37c9 03       	 .byte 0x3
 7304 37ca B7110000 	 .4byte .LASF639
 7305 37ce 76010000 	 .4byte 0x176
 7306 37d2 DC370000 	 .4byte 0x37dc
 7307 37d6 01       	 .uleb128 0x1
 7308 37d7 76010000 	 .4byte 0x176
 7309 37db 00       	 .byte 0
 7310 37dc 05       	 .uleb128 0x5
 7311 37dd 75510000 	 .4byte .LASF638
 7312 37e1 10       	 .byte 0x10
 7313 37e2 2407     	 .2byte 0x724
 7314 37e4 03       	 .byte 0x3
 7315 37e5 C3110000 	 .4byte .LASF640
 7316 37e9 AD4C0000 	 .4byte 0x4cad
 7317 37ed F7370000 	 .4byte 0x37f7
 7318 37f1 01       	 .uleb128 0x1
 7319 37f2 AD4C0000 	 .4byte 0x4cad
 7320 37f6 00       	 .byte 0
 7321 37f7 3C       	 .uleb128 0x3c
 7322 37f8 955F0000 	 .4byte .LASF730
 7323 37fc 12       	 .byte 0x12
 7324 37fd 35       	 .byte 0x35
 7325 37fe 0D       	 .byte 0xd
 7326 37ff F2390000 	 .4byte 0x39f2
 7327 3803 24       	 .uleb128 0x24
 7328 3804 D3690000 	 .4byte .LASF642
 7329 3808 04       	 .byte 0x4
 7330 3809 12       	 .byte 0x12
 7331 380a 50       	 .byte 0x50
 7332 380b 0B       	 .byte 0xb
 7333 380c E4390000 	 .4byte 0x39e4
 7334 3810 08       	 .uleb128 0x8
 7335 3811 A66A0000 	 .4byte .LASF643
 7336 3815 12       	 .byte 0x12
 7337 3816 52       	 .byte 0x52
 7338 3817 0D       	 .byte 0xd
 7339 3818 A5010000 	 .4byte 0x1a5
 7340 381c 00       	 .byte 0
 7341 381d 66       	 .uleb128 0x66
 7342 381e D3690000 	 .4byte .LASF642
 7343 3822 12       	 .byte 0x12
 7344 3823 54       	 .byte 0x54
 7345 3824 10       	 .byte 0x10
 7346 3825 8B400000 	 .4byte .LASF650
 7347 3829 24530000 	 .4byte 0x5324
ARM GAS   			page 143


 7348 382d 35380000 	 .4byte 0x3835
 7349 3831 40380000 	 .4byte 0x3840
 7350 3835 03       	 .uleb128 0x3
 7351 3836 24530000 	 .4byte 0x5324
 7352 383a 01       	 .uleb128 0x1
 7353 383b A5010000 	 .4byte 0x1a5
 7354 383f 00       	 .byte 0
 7355 3840 21       	 .uleb128 0x21
 7356 3841 B21D0000 	 .4byte .LASF644
 7357 3845 12       	 .byte 0x12
 7358 3846 56       	 .byte 0x56
 7359 3847 0C       	 .byte 0xc
 7360 3848 F64E0000 	 .4byte .LASF645
 7361 384c 54380000 	 .4byte 0x3854
 7362 3850 5A380000 	 .4byte 0x385a
 7363 3854 03       	 .uleb128 0x3
 7364 3855 24530000 	 .4byte 0x5324
 7365 3859 00       	 .byte 0
 7366 385a 21       	 .uleb128 0x21
 7367 385b 293D0000 	 .4byte .LASF646
 7368 385f 12       	 .byte 0x12
 7369 3860 57       	 .byte 0x57
 7370 3861 0C       	 .byte 0xc
 7371 3862 CC4B0000 	 .4byte .LASF647
 7372 3866 6E380000 	 .4byte 0x386e
 7373 386a 74380000 	 .4byte 0x3874
 7374 386e 03       	 .uleb128 0x3
 7375 386f 24530000 	 .4byte 0x5324
 7376 3873 00       	 .byte 0
 7377 3874 1C       	 .uleb128 0x1c
 7378 3875 A6360000 	 .4byte .LASF648
 7379 3879 12       	 .byte 0x12
 7380 387a 59       	 .byte 0x59
 7381 387b 0D       	 .byte 0xd
 7382 387c CF110000 	 .4byte .LASF649
 7383 3880 A5010000 	 .4byte 0x1a5
 7384 3884 8C380000 	 .4byte 0x388c
 7385 3888 92380000 	 .4byte 0x3892
 7386 388c 03       	 .uleb128 0x3
 7387 388d 2A530000 	 .4byte 0x532a
 7388 3891 00       	 .byte 0
 7389 3892 0C       	 .uleb128 0xc
 7390 3893 D3690000 	 .4byte .LASF642
 7391 3897 12       	 .byte 0x12
 7392 3898 61       	 .byte 0x61
 7393 3899 07       	 .byte 0x7
 7394 389a F4380000 	 .4byte .LASF651
 7395 389e 24530000 	 .4byte 0x5324
 7396 38a2 01       	 .byte 0x1
 7397 38a3 AB380000 	 .4byte 0x38ab
 7398 38a7 B1380000 	 .4byte 0x38b1
 7399 38ab 03       	 .uleb128 0x3
 7400 38ac 24530000 	 .4byte 0x5324
 7401 38b0 00       	 .byte 0
 7402 38b1 0C       	 .uleb128 0xc
 7403 38b2 D3690000 	 .4byte .LASF642
 7404 38b6 12       	 .byte 0x12
ARM GAS   			page 144


 7405 38b7 63       	 .byte 0x63
 7406 38b8 07       	 .byte 0x7
 7407 38b9 C84E0000 	 .4byte .LASF652
 7408 38bd 24530000 	 .4byte 0x5324
 7409 38c1 01       	 .byte 0x1
 7410 38c2 CA380000 	 .4byte 0x38ca
 7411 38c6 D5380000 	 .4byte 0x38d5
 7412 38ca 03       	 .uleb128 0x3
 7413 38cb 24530000 	 .4byte 0x5324
 7414 38cf 01       	 .uleb128 0x1
 7415 38d0 30530000 	 .4byte 0x5330
 7416 38d4 00       	 .byte 0
 7417 38d5 0C       	 .uleb128 0xc
 7418 38d6 D3690000 	 .4byte .LASF642
 7419 38da 12       	 .byte 0x12
 7420 38db 66       	 .byte 0x66
 7421 38dc 07       	 .byte 0x7
 7422 38dd BC170000 	 .4byte .LASF653
 7423 38e1 24530000 	 .4byte 0x5324
 7424 38e5 01       	 .byte 0x1
 7425 38e6 EE380000 	 .4byte 0x38ee
 7426 38ea F9380000 	 .4byte 0x38f9
 7427 38ee 03       	 .uleb128 0x3
 7428 38ef 24530000 	 .4byte 0x5324
 7429 38f3 01       	 .uleb128 0x1
 7430 38f4 103A0000 	 .4byte 0x3a10
 7431 38f8 00       	 .byte 0
 7432 38f9 0C       	 .uleb128 0xc
 7433 38fa D3690000 	 .4byte .LASF642
 7434 38fe 12       	 .byte 0x12
 7435 38ff 6A       	 .byte 0x6a
 7436 3900 07       	 .byte 0x7
 7437 3901 50580000 	 .4byte .LASF654
 7438 3905 24530000 	 .4byte 0x5324
 7439 3909 01       	 .byte 0x1
 7440 390a 12390000 	 .4byte 0x3912
 7441 390e 1D390000 	 .4byte 0x391d
 7442 3912 03       	 .uleb128 0x3
 7443 3913 24530000 	 .4byte 0x5324
 7444 3917 01       	 .uleb128 0x1
 7445 3918 36530000 	 .4byte 0x5336
 7446 391c 00       	 .byte 0
 7447 391d 0C       	 .uleb128 0xc
 7448 391e BA160000 	 .4byte .LASF255
 7449 3922 12       	 .byte 0x12
 7450 3923 77       	 .byte 0x77
 7451 3924 07       	 .byte 0x7
 7452 3925 8B290000 	 .4byte .LASF655
 7453 3929 3C530000 	 .4byte 0x533c
 7454 392d 01       	 .byte 0x1
 7455 392e 36390000 	 .4byte 0x3936
 7456 3932 41390000 	 .4byte 0x3941
 7457 3936 03       	 .uleb128 0x3
 7458 3937 24530000 	 .4byte 0x5324
 7459 393b 01       	 .uleb128 0x1
 7460 393c 30530000 	 .4byte 0x5330
 7461 3940 00       	 .byte 0
ARM GAS   			page 145


 7462 3941 0C       	 .uleb128 0xc
 7463 3942 BA160000 	 .4byte .LASF255
 7464 3946 12       	 .byte 0x12
 7465 3947 7B       	 .byte 0x7b
 7466 3948 07       	 .byte 0x7
 7467 3949 71220000 	 .4byte .LASF656
 7468 394d 3C530000 	 .4byte 0x533c
 7469 3951 01       	 .byte 0x1
 7470 3952 5A390000 	 .4byte 0x395a
 7471 3956 65390000 	 .4byte 0x3965
 7472 395a 03       	 .uleb128 0x3
 7473 395b 24530000 	 .4byte 0x5324
 7474 395f 01       	 .uleb128 0x1
 7475 3960 36530000 	 .4byte 0x5336
 7476 3964 00       	 .byte 0
 7477 3965 0C       	 .uleb128 0xc
 7478 3966 6F490000 	 .4byte .LASF657
 7479 396a 12       	 .byte 0x12
 7480 396b 82       	 .byte 0x82
 7481 396c 07       	 .byte 0x7
 7482 396d C31C0000 	 .4byte .LASF658
 7483 3971 A5010000 	 .4byte 0x1a5
 7484 3975 01       	 .byte 0x1
 7485 3976 7E390000 	 .4byte 0x397e
 7486 397a 89390000 	 .4byte 0x3989
 7487 397e 03       	 .uleb128 0x3
 7488 397f 24530000 	 .4byte 0x5324
 7489 3983 03       	 .uleb128 0x3
 7490 3984 46010000 	 .4byte 0x146
 7491 3988 00       	 .byte 0
 7492 3989 36       	 .uleb128 0x36
 7493 398a 5A1D0000 	 .4byte .LASF375
 7494 398e 12       	 .byte 0x12
 7495 398f 85       	 .byte 0x85
 7496 3990 07       	 .byte 0x7
 7497 3991 CB500000 	 .4byte .LASF659
 7498 3995 01       	 .byte 0x1
 7499 3996 9E390000 	 .4byte 0x399e
 7500 399a A9390000 	 .4byte 0x39a9
 7501 399e 03       	 .uleb128 0x3
 7502 399f 24530000 	 .4byte 0x5324
 7503 39a3 01       	 .uleb128 0x1
 7504 39a4 3C530000 	 .4byte 0x533c
 7505 39a8 00       	 .byte 0
 7506 39a9 67       	 .uleb128 0x67
 7507 39aa 8D090000 	 .4byte .LASF660
 7508 39ae 12       	 .byte 0x12
 7509 39af 91       	 .byte 0x91
 7510 39b0 10       	 .byte 0x10
 7511 39b1 D62A0000 	 .4byte .LASF696
 7512 39b5 4C4F0000 	 .4byte 0x4f4c
 7513 39b9 01       	 .byte 0x1
 7514 39ba C2390000 	 .4byte 0x39c2
 7515 39be C8390000 	 .4byte 0x39c8
 7516 39c2 03       	 .uleb128 0x3
 7517 39c3 2A530000 	 .4byte 0x532a
 7518 39c7 00       	 .byte 0
ARM GAS   			page 146


 7519 39c8 3D       	 .uleb128 0x3d
 7520 39c9 373F0000 	 .4byte .LASF661
 7521 39cd 12       	 .byte 0x12
 7522 39ce 9A       	 .byte 0x9a
 7523 39cf 07       	 .byte 0x7
 7524 39d0 DA410000 	 .4byte .LASF662
 7525 39d4 42530000 	 .4byte 0x5342
 7526 39d8 01       	 .byte 0x1
 7527 39d9 DD390000 	 .4byte 0x39dd
 7528 39dd 03       	 .uleb128 0x3
 7529 39de 2A530000 	 .4byte 0x532a
 7530 39e2 00       	 .byte 0
 7531 39e3 00       	 .byte 0
 7532 39e4 0A       	 .uleb128 0xa
 7533 39e5 03380000 	 .4byte 0x3803
 7534 39e9 02       	 .uleb128 0x2
 7535 39ea 12       	 .byte 0x12
 7536 39eb 4A       	 .byte 0x4a
 7537 39ec 10       	 .byte 0x10
 7538 39ed FA390000 	 .4byte 0x39fa
 7539 39f1 00       	 .byte 0
 7540 39f2 02       	 .uleb128 0x2
 7541 39f3 12       	 .byte 0x12
 7542 39f4 3A       	 .byte 0x3a
 7543 39f5 1A       	 .byte 0x1a
 7544 39f6 03380000 	 .4byte 0x3803
 7545 39fa 68       	 .uleb128 0x68
 7546 39fb 9C4B0000 	 .4byte .LASF663
 7547 39ff 12       	 .byte 0x12
 7548 3a00 46       	 .byte 0x46
 7549 3a01 08       	 .byte 0x8
 7550 3a02 B4230000 	 .4byte .LASF664
 7551 3a06 103A0000 	 .4byte 0x3a10
 7552 3a0a 01       	 .uleb128 0x1
 7553 3a0b 03380000 	 .4byte 0x3803
 7554 3a0f 00       	 .byte 0
 7555 3a10 17       	 .uleb128 0x17
 7556 3a11 57630000 	 .4byte .LASF665
 7557 3a15 13       	 .byte 0x13
 7558 3a16 0C01     	 .2byte 0x10c
 7559 3a18 1D       	 .byte 0x1d
 7560 3a19 7D010000 	 .4byte 0x17d
 7561 3a1d 37       	 .uleb128 0x37
 7562 3a1e BC5D0000 	 .4byte .LASF720
 7563 3a22 0A       	 .uleb128 0xa
 7564 3a23 1D3A0000 	 .4byte 0x3a1d
 7565 3a27 17       	 .uleb128 0x17
 7566 3a28 14250000 	 .4byte .LASF29
 7567 3a2c 13       	 .byte 0x13
 7568 3a2d 0801     	 .2byte 0x108
 7569 3a2f 1A       	 .byte 0x1a
 7570 3a30 5E010000 	 .4byte 0x15e
 7571 3a34 69       	 .uleb128 0x69
 7572 3a35 41240000 	 .4byte .LASF668
 7573 3a39 15       	 .byte 0x15
 7574 3a3a 680A     	 .2byte 0xa68
 7575 3a3c 0D       	 .byte 0xd
ARM GAS   			page 147


 7576 3a3d 1A       	 .uleb128 0x1a
 7577 3a3e 25180000 	 .4byte .LASF666
 7578 3a42 01       	 .byte 0x1
 7579 3a43 14       	 .byte 0x14
 7580 3a44 50       	 .byte 0x50
 7581 3a45 0A       	 .byte 0xa
 7582 3a46 663A0000 	 .4byte 0x3a66
 7583 3a4a 6A       	 .uleb128 0x6a
 7584 3a4b 25180000 	 .4byte .LASF666
 7585 3a4f 14       	 .byte 0x14
 7586 3a50 50       	 .byte 0x50
 7587 3a51 2B       	 .byte 0x2b
 7588 3a52 D25A0000 	 .4byte .LASF667
 7589 3a56 62530000 	 .4byte 0x5362
 7590 3a5a 01       	 .byte 0x1
 7591 3a5b 5F3A0000 	 .4byte 0x3a5f
 7592 3a5f 03       	 .uleb128 0x3
 7593 3a60 62530000 	 .4byte 0x5362
 7594 3a64 00       	 .byte 0
 7595 3a65 00       	 .byte 0
 7596 3a66 0A       	 .uleb128 0xa
 7597 3a67 3D3A0000 	 .4byte 0x3a3d
 7598 3a6b 6B       	 .uleb128 0x6b
 7599 3a6c 76350000 	 .4byte .LASF1091
 7600 3a70 14       	 .byte 0x14
 7601 3a71 53       	 .byte 0x53
 7602 3a72 35       	 .byte 0x35
 7603 3a73 663A0000 	 .4byte 0x3a66
 7604 3a77 01       	 .byte 0x1
 7605 3a78 00       	 .byte 0
 7606 3a79 4D       	 .uleb128 0x4d
 7607 3a7a 45050000 	 .4byte .LASF669
 7608 3a7e 16       	 .byte 0x16
 7609 3a7f 32       	 .byte 0x32
 7610 3a80 0D       	 .byte 0xd
 7611 3a81 02       	 .uleb128 0x2
 7612 3a82 17       	 .byte 0x17
 7613 3a83 40       	 .byte 0x40
 7614 3a84 0B       	 .byte 0xb
 7615 3a85 82530000 	 .4byte 0x5382
 7616 3a89 02       	 .uleb128 0x2
 7617 3a8a 17       	 .byte 0x17
 7618 3a8b 8D       	 .byte 0x8d
 7619 3a8c 0B       	 .byte 0xb
 7620 3a8d A7010000 	 .4byte 0x1a7
 7621 3a91 02       	 .uleb128 0x2
 7622 3a92 17       	 .byte 0x17
 7623 3a93 8F       	 .byte 0x8f
 7624 3a94 0B       	 .byte 0xb
 7625 3a95 93530000 	 .4byte 0x5393
 7626 3a99 02       	 .uleb128 0x2
 7627 3a9a 17       	 .byte 0x17
 7628 3a9b 90       	 .byte 0x90
 7629 3a9c 0B       	 .byte 0xb
 7630 3a9d A9530000 	 .4byte 0x53a9
 7631 3aa1 02       	 .uleb128 0x2
 7632 3aa2 17       	 .byte 0x17
ARM GAS   			page 148


 7633 3aa3 91       	 .byte 0x91
 7634 3aa4 0B       	 .byte 0xb
 7635 3aa5 BF530000 	 .4byte 0x53bf
 7636 3aa9 02       	 .uleb128 0x2
 7637 3aaa 17       	 .byte 0x17
 7638 3aab 92       	 .byte 0x92
 7639 3aac 0B       	 .byte 0xb
 7640 3aad E5530000 	 .4byte 0x53e5
 7641 3ab1 02       	 .uleb128 0x2
 7642 3ab2 17       	 .byte 0x17
 7643 3ab3 93       	 .byte 0x93
 7644 3ab4 0B       	 .byte 0xb
 7645 3ab5 00540000 	 .4byte 0x5400
 7646 3ab9 02       	 .uleb128 0x2
 7647 3aba 17       	 .byte 0x17
 7648 3abb 94       	 .byte 0x94
 7649 3abc 0B       	 .byte 0xb
 7650 3abd 21540000 	 .4byte 0x5421
 7651 3ac1 02       	 .uleb128 0x2
 7652 3ac2 17       	 .byte 0x17
 7653 3ac3 95       	 .byte 0x95
 7654 3ac4 0B       	 .byte 0xb
 7655 3ac5 3C540000 	 .4byte 0x543c
 7656 3ac9 02       	 .uleb128 0x2
 7657 3aca 17       	 .byte 0x17
 7658 3acb 96       	 .byte 0x96
 7659 3acc 0B       	 .byte 0xb
 7660 3acd 59540000 	 .4byte 0x5459
 7661 3ad1 02       	 .uleb128 0x2
 7662 3ad2 17       	 .byte 0x17
 7663 3ad3 97       	 .byte 0x97
 7664 3ad4 0B       	 .byte 0xb
 7665 3ad5 76540000 	 .4byte 0x5476
 7666 3ad9 02       	 .uleb128 0x2
 7667 3ada 17       	 .byte 0x17
 7668 3adb 98       	 .byte 0x98
 7669 3adc 0B       	 .byte 0xb
 7670 3add 8C540000 	 .4byte 0x548c
 7671 3ae1 02       	 .uleb128 0x2
 7672 3ae2 17       	 .byte 0x17
 7673 3ae3 99       	 .byte 0x99
 7674 3ae4 0B       	 .byte 0xb
 7675 3ae5 98540000 	 .4byte 0x5498
 7676 3ae9 02       	 .uleb128 0x2
 7677 3aea 17       	 .byte 0x17
 7678 3aeb 9A       	 .byte 0x9a
 7679 3aec 0B       	 .byte 0xb
 7680 3aed BE540000 	 .4byte 0x54be
 7681 3af1 02       	 .uleb128 0x2
 7682 3af2 17       	 .byte 0x17
 7683 3af3 9B       	 .byte 0x9b
 7684 3af4 0B       	 .byte 0xb
 7685 3af5 E3540000 	 .4byte 0x54e3
 7686 3af9 02       	 .uleb128 0x2
 7687 3afa 17       	 .byte 0x17
 7688 3afb 9C       	 .byte 0x9c
 7689 3afc 0B       	 .byte 0xb
ARM GAS   			page 149


 7690 3afd FF540000 	 .4byte 0x54ff
 7691 3b01 02       	 .uleb128 0x2
 7692 3b02 17       	 .byte 0x17
 7693 3b03 9D       	 .byte 0x9d
 7694 3b04 0B       	 .byte 0xb
 7695 3b05 2A550000 	 .4byte 0x552a
 7696 3b09 02       	 .uleb128 0x2
 7697 3b0a 17       	 .byte 0x17
 7698 3b0b 9E       	 .byte 0x9e
 7699 3b0c 0B       	 .byte 0xb
 7700 3b0d 45550000 	 .4byte 0x5545
 7701 3b11 02       	 .uleb128 0x2
 7702 3b12 17       	 .byte 0x17
 7703 3b13 A0       	 .byte 0xa0
 7704 3b14 0B       	 .byte 0xb
 7705 3b15 5B550000 	 .4byte 0x555b
 7706 3b19 02       	 .uleb128 0x2
 7707 3b1a 17       	 .byte 0x17
 7708 3b1b A2       	 .byte 0xa2
 7709 3b1c 0B       	 .byte 0xb
 7710 3b1d 7D550000 	 .4byte 0x557d
 7711 3b21 02       	 .uleb128 0x2
 7712 3b22 17       	 .byte 0x17
 7713 3b23 A3       	 .byte 0xa3
 7714 3b24 0B       	 .byte 0xb
 7715 3b25 9A550000 	 .4byte 0x559a
 7716 3b29 02       	 .uleb128 0x2
 7717 3b2a 17       	 .byte 0x17
 7718 3b2b A4       	 .byte 0xa4
 7719 3b2c 0B       	 .byte 0xb
 7720 3b2d B5550000 	 .4byte 0x55b5
 7721 3b31 02       	 .uleb128 0x2
 7722 3b32 17       	 .byte 0x17
 7723 3b33 A6       	 .byte 0xa6
 7724 3b34 0B       	 .byte 0xb
 7725 3b35 D6550000 	 .4byte 0x55d6
 7726 3b39 02       	 .uleb128 0x2
 7727 3b3a 17       	 .byte 0x17
 7728 3b3b A9       	 .byte 0xa9
 7729 3b3c 0B       	 .byte 0xb
 7730 3b3d F7550000 	 .4byte 0x55f7
 7731 3b41 02       	 .uleb128 0x2
 7732 3b42 17       	 .byte 0x17
 7733 3b43 AC       	 .byte 0xac
 7734 3b44 0B       	 .byte 0xb
 7735 3b45 1D560000 	 .4byte 0x561d
 7736 3b49 02       	 .uleb128 0x2
 7737 3b4a 17       	 .byte 0x17
 7738 3b4b AE       	 .byte 0xae
 7739 3b4c 0B       	 .byte 0xb
 7740 3b4d 3E560000 	 .4byte 0x563e
 7741 3b51 02       	 .uleb128 0x2
 7742 3b52 17       	 .byte 0x17
 7743 3b53 B0       	 .byte 0xb0
 7744 3b54 0B       	 .byte 0xb
 7745 3b55 5A560000 	 .4byte 0x565a
 7746 3b59 02       	 .uleb128 0x2
ARM GAS   			page 150


 7747 3b5a 17       	 .byte 0x17
 7748 3b5b B2       	 .byte 0xb2
 7749 3b5c 0B       	 .byte 0xb
 7750 3b5d 76560000 	 .4byte 0x5676
 7751 3b61 02       	 .uleb128 0x2
 7752 3b62 17       	 .byte 0x17
 7753 3b63 B3       	 .byte 0xb3
 7754 3b64 0B       	 .byte 0xb
 7755 3b65 96560000 	 .4byte 0x5696
 7756 3b69 02       	 .uleb128 0x2
 7757 3b6a 17       	 .byte 0x17
 7758 3b6b B4       	 .byte 0xb4
 7759 3b6c 0B       	 .byte 0xb
 7760 3b6d B1560000 	 .4byte 0x56b1
 7761 3b71 02       	 .uleb128 0x2
 7762 3b72 17       	 .byte 0x17
 7763 3b73 B5       	 .byte 0xb5
 7764 3b74 0B       	 .byte 0xb
 7765 3b75 CC560000 	 .4byte 0x56cc
 7766 3b79 02       	 .uleb128 0x2
 7767 3b7a 17       	 .byte 0x17
 7768 3b7b B6       	 .byte 0xb6
 7769 3b7c 0B       	 .byte 0xb
 7770 3b7d E7560000 	 .4byte 0x56e7
 7771 3b81 02       	 .uleb128 0x2
 7772 3b82 17       	 .byte 0x17
 7773 3b83 B7       	 .byte 0xb7
 7774 3b84 0B       	 .byte 0xb
 7775 3b85 02570000 	 .4byte 0x5702
 7776 3b89 02       	 .uleb128 0x2
 7777 3b8a 17       	 .byte 0x17
 7778 3b8b B8       	 .byte 0xb8
 7779 3b8c 0B       	 .byte 0xb
 7780 3b8d 1D570000 	 .4byte 0x571d
 7781 3b91 02       	 .uleb128 0x2
 7782 3b92 17       	 .byte 0x17
 7783 3b93 B9       	 .byte 0xb9
 7784 3b94 0B       	 .byte 0xb
 7785 3b95 51570000 	 .4byte 0x5751
 7786 3b99 02       	 .uleb128 0x2
 7787 3b9a 17       	 .byte 0x17
 7788 3b9b BA       	 .byte 0xba
 7789 3b9c 0B       	 .byte 0xb
 7790 3b9d 67570000 	 .4byte 0x5767
 7791 3ba1 02       	 .uleb128 0x2
 7792 3ba2 17       	 .byte 0x17
 7793 3ba3 BB       	 .byte 0xbb
 7794 3ba4 0B       	 .byte 0xb
 7795 3ba5 87570000 	 .4byte 0x5787
 7796 3ba9 02       	 .uleb128 0x2
 7797 3baa 17       	 .byte 0x17
 7798 3bab BC       	 .byte 0xbc
 7799 3bac 0B       	 .byte 0xb
 7800 3bad A7570000 	 .4byte 0x57a7
 7801 3bb1 02       	 .uleb128 0x2
 7802 3bb2 17       	 .byte 0x17
 7803 3bb3 BD       	 .byte 0xbd
ARM GAS   			page 151


 7804 3bb4 0B       	 .byte 0xb
 7805 3bb5 C7570000 	 .4byte 0x57c7
 7806 3bb9 02       	 .uleb128 0x2
 7807 3bba 17       	 .byte 0x17
 7808 3bbb BE       	 .byte 0xbe
 7809 3bbc 0B       	 .byte 0xb
 7810 3bbd F2570000 	 .4byte 0x57f2
 7811 3bc1 02       	 .uleb128 0x2
 7812 3bc2 17       	 .byte 0x17
 7813 3bc3 BF       	 .byte 0xbf
 7814 3bc4 0B       	 .byte 0xb
 7815 3bc5 0D580000 	 .4byte 0x580d
 7816 3bc9 02       	 .uleb128 0x2
 7817 3bca 17       	 .byte 0x17
 7818 3bcb C1       	 .byte 0xc1
 7819 3bcc 0B       	 .byte 0xb
 7820 3bcd 2E580000 	 .4byte 0x582e
 7821 3bd1 02       	 .uleb128 0x2
 7822 3bd2 17       	 .byte 0x17
 7823 3bd3 C3       	 .byte 0xc3
 7824 3bd4 0B       	 .byte 0xb
 7825 3bd5 49580000 	 .4byte 0x5849
 7826 3bd9 02       	 .uleb128 0x2
 7827 3bda 17       	 .byte 0x17
 7828 3bdb C4       	 .byte 0xc4
 7829 3bdc 0B       	 .byte 0xb
 7830 3bdd 69580000 	 .4byte 0x5869
 7831 3be1 02       	 .uleb128 0x2
 7832 3be2 17       	 .byte 0x17
 7833 3be3 C5       	 .byte 0xc5
 7834 3be4 0B       	 .byte 0xb
 7835 3be5 89580000 	 .4byte 0x5889
 7836 3be9 02       	 .uleb128 0x2
 7837 3bea 17       	 .byte 0x17
 7838 3beb C6       	 .byte 0xc6
 7839 3bec 0B       	 .byte 0xb
 7840 3bed A9580000 	 .4byte 0x58a9
 7841 3bf1 02       	 .uleb128 0x2
 7842 3bf2 17       	 .byte 0x17
 7843 3bf3 C7       	 .byte 0xc7
 7844 3bf4 0B       	 .byte 0xb
 7845 3bf5 C9580000 	 .4byte 0x58c9
 7846 3bf9 02       	 .uleb128 0x2
 7847 3bfa 17       	 .byte 0x17
 7848 3bfb C8       	 .byte 0xc8
 7849 3bfc 0B       	 .byte 0xb
 7850 3bfd DF580000 	 .4byte 0x58df
 7851 3c01 02       	 .uleb128 0x2
 7852 3c02 17       	 .byte 0x17
 7853 3c03 C9       	 .byte 0xc9
 7854 3c04 0B       	 .byte 0xb
 7855 3c05 FF580000 	 .4byte 0x58ff
 7856 3c09 02       	 .uleb128 0x2
 7857 3c0a 17       	 .byte 0x17
 7858 3c0b CA       	 .byte 0xca
 7859 3c0c 0B       	 .byte 0xb
 7860 3c0d 1F590000 	 .4byte 0x591f
ARM GAS   			page 152


 7861 3c11 02       	 .uleb128 0x2
 7862 3c12 17       	 .byte 0x17
 7863 3c13 CB       	 .byte 0xcb
 7864 3c14 0B       	 .byte 0xb
 7865 3c15 3F590000 	 .4byte 0x593f
 7866 3c19 02       	 .uleb128 0x2
 7867 3c1a 17       	 .byte 0x17
 7868 3c1b CC       	 .byte 0xcc
 7869 3c1c 0B       	 .byte 0xb
 7870 3c1d 5F590000 	 .4byte 0x595f
 7871 3c21 02       	 .uleb128 0x2
 7872 3c22 17       	 .byte 0x17
 7873 3c23 CD       	 .byte 0xcd
 7874 3c24 0B       	 .byte 0xb
 7875 3c25 77590000 	 .4byte 0x5977
 7876 3c29 02       	 .uleb128 0x2
 7877 3c2a 17       	 .byte 0x17
 7878 3c2b CE       	 .byte 0xce
 7879 3c2c 0B       	 .byte 0xb
 7880 3c2d 8F590000 	 .4byte 0x598f
 7881 3c31 02       	 .uleb128 0x2
 7882 3c32 17       	 .byte 0x17
 7883 3c33 CF       	 .byte 0xcf
 7884 3c34 0B       	 .byte 0xb
 7885 3c35 AA590000 	 .4byte 0x59aa
 7886 3c39 02       	 .uleb128 0x2
 7887 3c3a 17       	 .byte 0x17
 7888 3c3b D0       	 .byte 0xd0
 7889 3c3c 0B       	 .byte 0xb
 7890 3c3d C5590000 	 .4byte 0x59c5
 7891 3c41 02       	 .uleb128 0x2
 7892 3c42 17       	 .byte 0x17
 7893 3c43 D1       	 .byte 0xd1
 7894 3c44 0B       	 .byte 0xb
 7895 3c45 E0590000 	 .4byte 0x59e0
 7896 3c49 02       	 .uleb128 0x2
 7897 3c4a 17       	 .byte 0x17
 7898 3c4b D2       	 .byte 0xd2
 7899 3c4c 0B       	 .byte 0xb
 7900 3c4d FB590000 	 .4byte 0x59fb
 7901 3c51 18       	 .uleb128 0x18
 7902 3c52 17       	 .byte 0x17
 7903 3c53 0B01     	 .2byte 0x10b
 7904 3c55 16       	 .byte 0x16
 7905 3c56 1B5A0000 	 .4byte 0x5a1b
 7906 3c5a 18       	 .uleb128 0x18
 7907 3c5b 17       	 .byte 0x17
 7908 3c5c 0C01     	 .2byte 0x10c
 7909 3c5e 16       	 .byte 0x16
 7910 3c5f 365A0000 	 .4byte 0x5a36
 7911 3c63 18       	 .uleb128 0x18
 7912 3c64 17       	 .byte 0x17
 7913 3c65 0D01     	 .2byte 0x10d
 7914 3c67 16       	 .byte 0x16
 7915 3c68 565A0000 	 .4byte 0x5a56
 7916 3c6c 18       	 .uleb128 0x18
 7917 3c6d 17       	 .byte 0x17
ARM GAS   			page 153


 7918 3c6e 1B01     	 .2byte 0x11b
 7919 3c70 0E       	 .byte 0xe
 7920 3c71 2E580000 	 .4byte 0x582e
 7921 3c75 18       	 .uleb128 0x18
 7922 3c76 17       	 .byte 0x17
 7923 3c77 1E01     	 .2byte 0x11e
 7924 3c79 0E       	 .byte 0xe
 7925 3c7a D6550000 	 .4byte 0x55d6
 7926 3c7e 18       	 .uleb128 0x18
 7927 3c7f 17       	 .byte 0x17
 7928 3c80 2101     	 .2byte 0x121
 7929 3c82 0E       	 .byte 0xe
 7930 3c83 1D560000 	 .4byte 0x561d
 7931 3c87 18       	 .uleb128 0x18
 7932 3c88 17       	 .byte 0x17
 7933 3c89 2401     	 .2byte 0x124
 7934 3c8b 0E       	 .byte 0xe
 7935 3c8c 5A560000 	 .4byte 0x565a
 7936 3c90 18       	 .uleb128 0x18
 7937 3c91 17       	 .byte 0x17
 7938 3c92 2801     	 .2byte 0x128
 7939 3c94 0E       	 .byte 0xe
 7940 3c95 1B5A0000 	 .4byte 0x5a1b
 7941 3c99 18       	 .uleb128 0x18
 7942 3c9a 17       	 .byte 0x17
 7943 3c9b 2901     	 .2byte 0x129
 7944 3c9d 0E       	 .byte 0xe
 7945 3c9e 365A0000 	 .4byte 0x5a36
 7946 3ca2 18       	 .uleb128 0x18
 7947 3ca3 17       	 .byte 0x17
 7948 3ca4 2A01     	 .2byte 0x12a
 7949 3ca6 0E       	 .byte 0xe
 7950 3ca7 565A0000 	 .4byte 0x5a56
 7951 3cab 33       	 .uleb128 0x33
 7952 3cac B4350000 	 .4byte .LASF670
 7953 3cb0 01       	 .byte 0x1
 7954 3cb1 18       	 .byte 0x18
 7955 3cb2 3C01     	 .2byte 0x13c
 7956 3cb4 0C       	 .byte 0xc
 7957 3cb5 973E0000 	 .4byte 0x3e97
 7958 3cb9 1F       	 .uleb128 0x1f
 7959 3cba 841B0000 	 .4byte .LASF328
 7960 3cbe 18       	 .byte 0x18
 7961 3cbf 4801     	 .2byte 0x148
 7962 3cc1 07       	 .byte 0x7
 7963 3cc2 26350000 	 .4byte .LASF671
 7964 3cc6 D53C0000 	 .4byte 0x3cd5
 7965 3cca 01       	 .uleb128 0x1
 7966 3ccb 765A0000 	 .4byte 0x5a76
 7967 3ccf 01       	 .uleb128 0x1
 7968 3cd0 7C5A0000 	 .4byte 0x5a7c
 7969 3cd4 00       	 .byte 0
 7970 3cd5 17       	 .uleb128 0x17
 7971 3cd6 90010000 	 .4byte .LASF672
 7972 3cda 18       	 .byte 0x18
 7973 3cdb 3E01     	 .2byte 0x13e
 7974 3cdd 21       	 .byte 0x21
ARM GAS   			page 154


 7975 3cde 53080000 	 .4byte 0x853
 7976 3ce2 0A       	 .uleb128 0xa
 7977 3ce3 D53C0000 	 .4byte 0x3cd5
 7978 3ce7 19       	 .uleb128 0x19
 7979 3ce8 657100   	 .ascii "eq\000"
 7980 3ceb 18       	 .byte 0x18
 7981 3cec 4C01     	 .2byte 0x14c
 7982 3cee 07       	 .byte 0x7
 7983 3cef 2B1B0000 	 .4byte .LASF673
 7984 3cf3 4C4F0000 	 .4byte 0x4f4c
 7985 3cf7 063D0000 	 .4byte 0x3d06
 7986 3cfb 01       	 .uleb128 0x1
 7987 3cfc 7C5A0000 	 .4byte 0x5a7c
 7988 3d00 01       	 .uleb128 0x1
 7989 3d01 7C5A0000 	 .4byte 0x5a7c
 7990 3d05 00       	 .byte 0
 7991 3d06 19       	 .uleb128 0x19
 7992 3d07 6C7400   	 .ascii "lt\000"
 7993 3d0a 18       	 .byte 0x18
 7994 3d0b 5001     	 .2byte 0x150
 7995 3d0d 07       	 .byte 0x7
 7996 3d0e D7240000 	 .4byte .LASF674
 7997 3d12 4C4F0000 	 .4byte 0x4f4c
 7998 3d16 253D0000 	 .4byte 0x3d25
 7999 3d1a 01       	 .uleb128 0x1
 8000 3d1b 7C5A0000 	 .4byte 0x5a7c
 8001 3d1f 01       	 .uleb128 0x1
 8002 3d20 7C5A0000 	 .4byte 0x5a7c
 8003 3d24 00       	 .byte 0
 8004 3d25 05       	 .uleb128 0x5
 8005 3d26 C1600000 	 .4byte .LASF415
 8006 3d2a 18       	 .byte 0x18
 8007 3d2b 5801     	 .2byte 0x158
 8008 3d2d 07       	 .byte 0x7
 8009 3d2e 39460000 	 .4byte .LASF675
 8010 3d32 46010000 	 .4byte 0x146
 8011 3d36 4A3D0000 	 .4byte 0x3d4a
 8012 3d3a 01       	 .uleb128 0x1
 8013 3d3b 825A0000 	 .4byte 0x5a82
 8014 3d3f 01       	 .uleb128 0x1
 8015 3d40 825A0000 	 .4byte 0x5a82
 8016 3d44 01       	 .uleb128 0x1
 8017 3d45 273A0000 	 .4byte 0x3a27
 8018 3d49 00       	 .byte 0
 8019 3d4a 05       	 .uleb128 0x5
 8020 3d4b 37070000 	 .4byte .LASF284
 8021 3d4f 18       	 .byte 0x18
 8022 3d50 6D01     	 .2byte 0x16d
 8023 3d52 07       	 .byte 0x7
 8024 3d53 28300000 	 .4byte .LASF676
 8025 3d57 273A0000 	 .4byte 0x3a27
 8026 3d5b 653D0000 	 .4byte 0x3d65
 8027 3d5f 01       	 .uleb128 0x1
 8028 3d60 825A0000 	 .4byte 0x5a82
 8029 3d64 00       	 .byte 0
 8030 3d65 05       	 .uleb128 0x5
 8031 3d66 7C310000 	 .4byte .LASF383
ARM GAS   			page 155


 8032 3d6a 18       	 .byte 0x18
 8033 3d6b 7701     	 .2byte 0x177
 8034 3d6d 07       	 .byte 0x7
 8035 3d6e 400D0000 	 .4byte .LASF677
 8036 3d72 825A0000 	 .4byte 0x5a82
 8037 3d76 8A3D0000 	 .4byte 0x3d8a
 8038 3d7a 01       	 .uleb128 0x1
 8039 3d7b 825A0000 	 .4byte 0x5a82
 8040 3d7f 01       	 .uleb128 0x1
 8041 3d80 273A0000 	 .4byte 0x3a27
 8042 3d84 01       	 .uleb128 0x1
 8043 3d85 7C5A0000 	 .4byte 0x5a7c
 8044 3d89 00       	 .byte 0
 8045 3d8a 05       	 .uleb128 0x5
 8046 3d8b 09600000 	 .4byte .LASF678
 8047 3d8f 18       	 .byte 0x18
 8048 3d90 8501     	 .2byte 0x185
 8049 3d92 07       	 .byte 0x7
 8050 3d93 FF3C0000 	 .4byte .LASF679
 8051 3d97 885A0000 	 .4byte 0x5a88
 8052 3d9b AF3D0000 	 .4byte 0x3daf
 8053 3d9f 01       	 .uleb128 0x1
 8054 3da0 885A0000 	 .4byte 0x5a88
 8055 3da4 01       	 .uleb128 0x1
 8056 3da5 825A0000 	 .4byte 0x5a82
 8057 3da9 01       	 .uleb128 0x1
 8058 3daa 273A0000 	 .4byte 0x3a27
 8059 3dae 00       	 .byte 0
 8060 3daf 05       	 .uleb128 0x5
 8061 3db0 DF3E0000 	 .4byte .LASF373
 8062 3db4 18       	 .byte 0x18
 8063 3db5 9101     	 .2byte 0x191
 8064 3db7 07       	 .byte 0x7
 8065 3db8 89110000 	 .4byte .LASF680
 8066 3dbc 885A0000 	 .4byte 0x5a88
 8067 3dc0 D43D0000 	 .4byte 0x3dd4
 8068 3dc4 01       	 .uleb128 0x1
 8069 3dc5 885A0000 	 .4byte 0x5a88
 8070 3dc9 01       	 .uleb128 0x1
 8071 3dca 825A0000 	 .4byte 0x5a82
 8072 3dce 01       	 .uleb128 0x1
 8073 3dcf 273A0000 	 .4byte 0x3a27
 8074 3dd3 00       	 .byte 0
 8075 3dd4 05       	 .uleb128 0x5
 8076 3dd5 841B0000 	 .4byte .LASF328
 8077 3dd9 18       	 .byte 0x18
 8078 3dda 9D01     	 .2byte 0x19d
 8079 3ddc 07       	 .byte 0x7
 8080 3ddd 39380000 	 .4byte .LASF681
 8081 3de1 885A0000 	 .4byte 0x5a88
 8082 3de5 F93D0000 	 .4byte 0x3df9
 8083 3de9 01       	 .uleb128 0x1
 8084 3dea 885A0000 	 .4byte 0x5a88
 8085 3dee 01       	 .uleb128 0x1
 8086 3def 273A0000 	 .4byte 0x3a27
 8087 3df3 01       	 .uleb128 0x1
 8088 3df4 D53C0000 	 .4byte 0x3cd5
ARM GAS   			page 156


 8089 3df8 00       	 .byte 0
 8090 3df9 05       	 .uleb128 0x5
 8091 3dfa DE000000 	 .4byte .LASF682
 8092 3dfe 18       	 .byte 0x18
 8093 3dff A901     	 .2byte 0x1a9
 8094 3e01 07       	 .byte 0x7
 8095 3e02 49300000 	 .4byte .LASF683
 8096 3e06 D53C0000 	 .4byte 0x3cd5
 8097 3e0a 143E0000 	 .4byte 0x3e14
 8098 3e0e 01       	 .uleb128 0x1
 8099 3e0f 8E5A0000 	 .4byte 0x5a8e
 8100 3e13 00       	 .byte 0
 8101 3e14 17       	 .uleb128 0x17
 8102 3e15 9A1B0000 	 .4byte .LASF684
 8103 3e19 18       	 .byte 0x18
 8104 3e1a 3F01     	 .2byte 0x13f
 8105 3e1c 21       	 .byte 0x21
 8106 3e1d 46010000 	 .4byte 0x146
 8107 3e21 0A       	 .uleb128 0xa
 8108 3e22 143E0000 	 .4byte 0x3e14
 8109 3e26 05       	 .uleb128 0x5
 8110 3e27 19400000 	 .4byte .LASF685
 8111 3e2b 18       	 .byte 0x18
 8112 3e2c AF01     	 .2byte 0x1af
 8113 3e2e 07       	 .byte 0x7
 8114 3e2f 625C0000 	 .4byte .LASF686
 8115 3e33 143E0000 	 .4byte 0x3e14
 8116 3e37 413E0000 	 .4byte 0x3e41
 8117 3e3b 01       	 .uleb128 0x1
 8118 3e3c 7C5A0000 	 .4byte 0x5a7c
 8119 3e40 00       	 .byte 0
 8120 3e41 05       	 .uleb128 0x5
 8121 3e42 E43E0000 	 .4byte .LASF687
 8122 3e46 18       	 .byte 0x18
 8123 3e47 B301     	 .2byte 0x1b3
 8124 3e49 07       	 .byte 0x7
 8125 3e4a 4C100000 	 .4byte .LASF688
 8126 3e4e 4C4F0000 	 .4byte 0x4f4c
 8127 3e52 613E0000 	 .4byte 0x3e61
 8128 3e56 01       	 .uleb128 0x1
 8129 3e57 8E5A0000 	 .4byte 0x5a8e
 8130 3e5b 01       	 .uleb128 0x1
 8131 3e5c 8E5A0000 	 .4byte 0x5a8e
 8132 3e60 00       	 .byte 0
 8133 3e61 6C       	 .uleb128 0x6c
 8134 3e62 656F6600 	 .ascii "eof\000"
 8135 3e66 18       	 .byte 0x18
 8136 3e67 B701     	 .2byte 0x1b7
 8137 3e69 07       	 .byte 0x7
 8138 3e6a BE300000 	 .4byte .LASF1092
 8139 3e6e 143E0000 	 .4byte 0x3e14
 8140 3e72 05       	 .uleb128 0x5
 8141 3e73 F8000000 	 .4byte .LASF689
 8142 3e77 18       	 .byte 0x18
 8143 3e78 BB01     	 .2byte 0x1bb
 8144 3e7a 07       	 .byte 0x7
 8145 3e7b 8E200000 	 .4byte .LASF690
ARM GAS   			page 157


 8146 3e7f 143E0000 	 .4byte 0x3e14
 8147 3e83 8D3E0000 	 .4byte 0x3e8d
 8148 3e87 01       	 .uleb128 0x1
 8149 3e88 8E5A0000 	 .4byte 0x5a8e
 8150 3e8c 00       	 .byte 0
 8151 3e8d 23       	 .uleb128 0x23
 8152 3e8e 98650000 	 .4byte .LASF425
 8153 3e92 53080000 	 .4byte 0x853
 8154 3e96 00       	 .byte 0
 8155 3e97 02       	 .uleb128 0x2
 8156 3e98 19       	 .byte 0x19
 8157 3e99 2F       	 .byte 0x2f
 8158 3e9a 0B       	 .byte 0xb
 8159 3e9b 360A0000 	 .4byte 0xa36
 8160 3e9f 02       	 .uleb128 0x2
 8161 3ea0 19       	 .byte 0x19
 8162 3ea1 30       	 .byte 0x30
 8163 3ea2 0B       	 .byte 0xb
 8164 3ea3 4E0A0000 	 .4byte 0xa4e
 8165 3ea7 02       	 .uleb128 0x2
 8166 3ea8 19       	 .byte 0x19
 8167 3ea9 31       	 .byte 0x31
 8168 3eaa 0B       	 .byte 0xb
 8169 3eab 660A0000 	 .4byte 0xa66
 8170 3eaf 02       	 .uleb128 0x2
 8171 3eb0 19       	 .byte 0x19
 8172 3eb1 32       	 .byte 0x32
 8173 3eb2 0B       	 .byte 0xb
 8174 3eb3 7E0A0000 	 .4byte 0xa7e
 8175 3eb7 02       	 .uleb128 0x2
 8176 3eb8 19       	 .byte 0x19
 8177 3eb9 34       	 .byte 0x34
 8178 3eba 0B       	 .byte 0xb
 8179 3ebb 430B0000 	 .4byte 0xb43
 8180 3ebf 02       	 .uleb128 0x2
 8181 3ec0 19       	 .byte 0x19
 8182 3ec1 35       	 .byte 0x35
 8183 3ec2 0B       	 .byte 0xb
 8184 3ec3 5B0B0000 	 .4byte 0xb5b
 8185 3ec7 02       	 .uleb128 0x2
 8186 3ec8 19       	 .byte 0x19
 8187 3ec9 36       	 .byte 0x36
 8188 3eca 0B       	 .byte 0xb
 8189 3ecb 730B0000 	 .4byte 0xb73
 8190 3ecf 02       	 .uleb128 0x2
 8191 3ed0 19       	 .byte 0x19
 8192 3ed1 37       	 .byte 0x37
 8193 3ed2 0B       	 .byte 0xb
 8194 3ed3 8B0B0000 	 .4byte 0xb8b
 8195 3ed7 02       	 .uleb128 0x2
 8196 3ed8 19       	 .byte 0x19
 8197 3ed9 39       	 .byte 0x39
 8198 3eda 0B       	 .byte 0xb
 8199 3edb E30A0000 	 .4byte 0xae3
 8200 3edf 02       	 .uleb128 0x2
 8201 3ee0 19       	 .byte 0x19
 8202 3ee1 3A       	 .byte 0x3a
ARM GAS   			page 158


 8203 3ee2 0B       	 .byte 0xb
 8204 3ee3 FB0A0000 	 .4byte 0xafb
 8205 3ee7 02       	 .uleb128 0x2
 8206 3ee8 19       	 .byte 0x19
 8207 3ee9 3B       	 .byte 0x3b
 8208 3eea 0B       	 .byte 0xb
 8209 3eeb 130B0000 	 .4byte 0xb13
 8210 3eef 02       	 .uleb128 0x2
 8211 3ef0 19       	 .byte 0x19
 8212 3ef1 3C       	 .byte 0x3c
 8213 3ef2 0B       	 .byte 0xb
 8214 3ef3 2B0B0000 	 .4byte 0xb2b
 8215 3ef7 02       	 .uleb128 0x2
 8216 3ef8 19       	 .byte 0x19
 8217 3ef9 3E       	 .byte 0x3e
 8218 3efa 0B       	 .byte 0xb
 8219 3efb 960A0000 	 .4byte 0xa96
 8220 3eff 02       	 .uleb128 0x2
 8221 3f00 19       	 .byte 0x19
 8222 3f01 3F       	 .byte 0x3f
 8223 3f02 0B       	 .byte 0xb
 8224 3f03 AE0A0000 	 .4byte 0xaae
 8225 3f07 02       	 .uleb128 0x2
 8226 3f08 19       	 .byte 0x19
 8227 3f09 41       	 .byte 0x41
 8228 3f0a 0B       	 .byte 0xb
 8229 3f0b 420A0000 	 .4byte 0xa42
 8230 3f0f 02       	 .uleb128 0x2
 8231 3f10 19       	 .byte 0x19
 8232 3f11 42       	 .byte 0x42
 8233 3f12 0B       	 .byte 0xb
 8234 3f13 5A0A0000 	 .4byte 0xa5a
 8235 3f17 02       	 .uleb128 0x2
 8236 3f18 19       	 .byte 0x19
 8237 3f19 43       	 .byte 0x43
 8238 3f1a 0B       	 .byte 0xb
 8239 3f1b 720A0000 	 .4byte 0xa72
 8240 3f1f 02       	 .uleb128 0x2
 8241 3f20 19       	 .byte 0x19
 8242 3f21 44       	 .byte 0x44
 8243 3f22 0B       	 .byte 0xb
 8244 3f23 8A0A0000 	 .4byte 0xa8a
 8245 3f27 02       	 .uleb128 0x2
 8246 3f28 19       	 .byte 0x19
 8247 3f29 46       	 .byte 0x46
 8248 3f2a 0B       	 .byte 0xb
 8249 3f2b 4F0B0000 	 .4byte 0xb4f
 8250 3f2f 02       	 .uleb128 0x2
 8251 3f30 19       	 .byte 0x19
 8252 3f31 47       	 .byte 0x47
 8253 3f32 0B       	 .byte 0xb
 8254 3f33 670B0000 	 .4byte 0xb67
 8255 3f37 02       	 .uleb128 0x2
 8256 3f38 19       	 .byte 0x19
 8257 3f39 48       	 .byte 0x48
 8258 3f3a 0B       	 .byte 0xb
 8259 3f3b 7F0B0000 	 .4byte 0xb7f
ARM GAS   			page 159


 8260 3f3f 02       	 .uleb128 0x2
 8261 3f40 19       	 .byte 0x19
 8262 3f41 49       	 .byte 0x49
 8263 3f42 0B       	 .byte 0xb
 8264 3f43 970B0000 	 .4byte 0xb97
 8265 3f47 02       	 .uleb128 0x2
 8266 3f48 19       	 .byte 0x19
 8267 3f49 4B       	 .byte 0x4b
 8268 3f4a 0B       	 .byte 0xb
 8269 3f4b EF0A0000 	 .4byte 0xaef
 8270 3f4f 02       	 .uleb128 0x2
 8271 3f50 19       	 .byte 0x19
 8272 3f51 4C       	 .byte 0x4c
 8273 3f52 0B       	 .byte 0xb
 8274 3f53 070B0000 	 .4byte 0xb07
 8275 3f57 02       	 .uleb128 0x2
 8276 3f58 19       	 .byte 0x19
 8277 3f59 4D       	 .byte 0x4d
 8278 3f5a 0B       	 .byte 0xb
 8279 3f5b 1F0B0000 	 .4byte 0xb1f
 8280 3f5f 02       	 .uleb128 0x2
 8281 3f60 19       	 .byte 0x19
 8282 3f61 4E       	 .byte 0x4e
 8283 3f62 0B       	 .byte 0xb
 8284 3f63 370B0000 	 .4byte 0xb37
 8285 3f67 02       	 .uleb128 0x2
 8286 3f68 19       	 .byte 0x19
 8287 3f69 50       	 .byte 0x50
 8288 3f6a 0B       	 .byte 0xb
 8289 3f6b A20A0000 	 .4byte 0xaa2
 8290 3f6f 02       	 .uleb128 0x2
 8291 3f70 19       	 .byte 0x19
 8292 3f71 51       	 .byte 0x51
 8293 3f72 0B       	 .byte 0xb
 8294 3f73 BA0A0000 	 .4byte 0xaba
 8295 3f77 17       	 .uleb128 0x17
 8296 3f78 AE380000 	 .4byte .LASF691
 8297 3f7c 13       	 .byte 0x13
 8298 3f7d 0901     	 .2byte 0x109
 8299 3f7f 1C       	 .byte 0x1c
 8300 3f80 46010000 	 .4byte 0x146
 8301 3f84 24       	 .uleb128 0x24
 8302 3f85 FA300000 	 .4byte .LASF692
 8303 3f89 01       	 .byte 0x1
 8304 3f8a 1A       	 .byte 0x1a
 8305 3f8b 86       	 .byte 0x86
 8306 3f8c 0B       	 .byte 0xb
 8307 3f8d 21400000 	 .4byte 0x4021
 8308 3f91 3E       	 .uleb128 0x3e
 8309 3f92 F7440000 	 .4byte 0x44f7
 8310 3f96 00       	 .byte 0
 8311 3f97 01       	 .byte 0x1
 8312 3f98 0C       	 .uleb128 0xc
 8313 3f99 3C5D0000 	 .4byte .LASF693
 8314 3f9d 1A       	 .byte 0x1a
 8315 3f9e A4       	 .byte 0xa4
 8316 3f9f 07       	 .byte 0x7
ARM GAS   			page 160


 8317 3fa0 0D2B0000 	 .4byte .LASF694
 8318 3fa4 B25A0000 	 .4byte 0x5ab2
 8319 3fa8 01       	 .byte 0x1
 8320 3fa9 B13F0000 	 .4byte 0x3fb1
 8321 3fad B73F0000 	 .4byte 0x3fb7
 8322 3fb1 03       	 .uleb128 0x3
 8323 3fb2 B25A0000 	 .4byte 0x5ab2
 8324 3fb6 00       	 .byte 0
 8325 3fb7 0C       	 .uleb128 0xc
 8326 3fb8 3C5D0000 	 .4byte .LASF693
 8327 3fbc 1A       	 .byte 0x1a
 8328 3fbd A7       	 .byte 0xa7
 8329 3fbe 07       	 .byte 0x7
 8330 3fbf 750C0000 	 .4byte .LASF695
 8331 3fc3 B25A0000 	 .4byte 0x5ab2
 8332 3fc7 01       	 .byte 0x1
 8333 3fc8 D03F0000 	 .4byte 0x3fd0
 8334 3fcc DB3F0000 	 .4byte 0x3fdb
 8335 3fd0 03       	 .uleb128 0x3
 8336 3fd1 B25A0000 	 .4byte 0x5ab2
 8337 3fd5 01       	 .uleb128 0x1
 8338 3fd6 B85A0000 	 .4byte 0x5ab8
 8339 3fda 00       	 .byte 0
 8340 3fdb 6D       	 .uleb128 0x6d
 8341 3fdc BA160000 	 .4byte .LASF255
 8342 3fe0 1A       	 .byte 0x1a
 8343 3fe1 AC       	 .byte 0xac
 8344 3fe2 12       	 .byte 0x12
 8345 3fe3 AF210000 	 .4byte .LASF697
 8346 3fe7 BE5A0000 	 .4byte 0x5abe
 8347 3feb 01       	 .byte 0x1
 8348 3fec 01       	 .byte 0x1
 8349 3fed F53F0000 	 .4byte 0x3ff5
 8350 3ff1 00400000 	 .4byte 0x4000
 8351 3ff5 03       	 .uleb128 0x3
 8352 3ff6 B25A0000 	 .4byte 0x5ab2
 8353 3ffa 01       	 .uleb128 0x1
 8354 3ffb B85A0000 	 .4byte 0x5ab8
 8355 3fff 00       	 .byte 0
 8356 4000 3D       	 .uleb128 0x3d
 8357 4001 9B6C0000 	 .4byte .LASF698
 8358 4005 1A       	 .byte 0x1a
 8359 4006 B6       	 .byte 0xb6
 8360 4007 07       	 .byte 0x7
 8361 4008 8E250000 	 .4byte .LASF699
 8362 400c A5010000 	 .4byte 0x1a5
 8363 4010 01       	 .byte 0x1
 8364 4011 15400000 	 .4byte 0x4015
 8365 4015 03       	 .uleb128 0x3
 8366 4016 B25A0000 	 .4byte 0x5ab2
 8367 401a 03       	 .uleb128 0x3
 8368 401b 46010000 	 .4byte 0x146
 8369 401f 00       	 .byte 0
 8370 4020 00       	 .byte 0
 8371 4021 0A       	 .uleb128 0xa
 8372 4022 843F0000 	 .4byte 0x3f84
 8373 4026 02       	 .uleb128 0x2
ARM GAS   			page 161


 8374 4027 1B       	 .byte 0x1b
 8375 4028 35       	 .byte 0x35
 8376 4029 0B       	 .byte 0xb
 8377 402a C45A0000 	 .4byte 0x5ac4
 8378 402e 02       	 .uleb128 0x2
 8379 402f 1B       	 .byte 0x1b
 8380 4030 36       	 .byte 0x36
 8381 4031 0B       	 .byte 0xb
 8382 4032 0A5C0000 	 .4byte 0x5c0a
 8383 4036 02       	 .uleb128 0x2
 8384 4037 1B       	 .byte 0x1b
 8385 4038 37       	 .byte 0x37
 8386 4039 0B       	 .byte 0xb
 8387 403a 255C0000 	 .4byte 0x5c25
 8388 403e 02       	 .uleb128 0x2
 8389 403f 1C       	 .byte 0x1c
 8390 4040 7F       	 .byte 0x7f
 8391 4041 0B       	 .byte 0xb
 8392 4042 F94C0000 	 .4byte 0x4cf9
 8393 4046 02       	 .uleb128 0x2
 8394 4047 1C       	 .byte 0x1c
 8395 4048 80       	 .byte 0x80
 8396 4049 0B       	 .byte 0xb
 8397 404a 2D4D0000 	 .4byte 0x4d2d
 8398 404e 02       	 .uleb128 0x2
 8399 404f 1C       	 .byte 0x1c
 8400 4050 86       	 .byte 0x86
 8401 4051 0B       	 .byte 0xb
 8402 4052 435C0000 	 .4byte 0x5c43
 8403 4056 02       	 .uleb128 0x2
 8404 4057 1C       	 .byte 0x1c
 8405 4058 8C       	 .byte 0x8c
 8406 4059 0B       	 .byte 0xb
 8407 405a 595C0000 	 .4byte 0x5c59
 8408 405e 02       	 .uleb128 0x2
 8409 405f 1C       	 .byte 0x1c
 8410 4060 8D       	 .byte 0x8d
 8411 4061 0B       	 .byte 0xb
 8412 4062 6F5C0000 	 .4byte 0x5c6f
 8413 4066 02       	 .uleb128 0x2
 8414 4067 1C       	 .byte 0x1c
 8415 4068 8E       	 .byte 0x8e
 8416 4069 0B       	 .byte 0xb
 8417 406a 855C0000 	 .4byte 0x5c85
 8418 406e 02       	 .uleb128 0x2
 8419 406f 1C       	 .byte 0x1c
 8420 4070 8F       	 .byte 0x8f
 8421 4071 0B       	 .byte 0xb
 8422 4072 9B5C0000 	 .4byte 0x5c9b
 8423 4076 02       	 .uleb128 0x2
 8424 4077 1C       	 .byte 0x1c
 8425 4078 91       	 .byte 0x91
 8426 4079 0B       	 .byte 0xb
 8427 407a C55C0000 	 .4byte 0x5cc5
 8428 407e 02       	 .uleb128 0x2
 8429 407f 1C       	 .byte 0x1c
 8430 4080 94       	 .byte 0x94
ARM GAS   			page 162


 8431 4081 0B       	 .byte 0xb
 8432 4082 E05C0000 	 .4byte 0x5ce0
 8433 4086 02       	 .uleb128 0x2
 8434 4087 1C       	 .byte 0x1c
 8435 4088 96       	 .byte 0x96
 8436 4089 0B       	 .byte 0xb
 8437 408a F65C0000 	 .4byte 0x5cf6
 8438 408e 02       	 .uleb128 0x2
 8439 408f 1C       	 .byte 0x1c
 8440 4090 99       	 .byte 0x99
 8441 4091 0B       	 .byte 0xb
 8442 4092 115D0000 	 .4byte 0x5d11
 8443 4096 02       	 .uleb128 0x2
 8444 4097 1C       	 .byte 0x1c
 8445 4098 9A       	 .byte 0x9a
 8446 4099 0B       	 .byte 0xb
 8447 409a 2C5D0000 	 .4byte 0x5d2c
 8448 409e 02       	 .uleb128 0x2
 8449 409f 1C       	 .byte 0x1c
 8450 40a0 9B       	 .byte 0x9b
 8451 40a1 0B       	 .byte 0xb
 8452 40a2 4C5D0000 	 .4byte 0x5d4c
 8453 40a6 02       	 .uleb128 0x2
 8454 40a7 1C       	 .byte 0x1c
 8455 40a8 9D       	 .byte 0x9d
 8456 40a9 0B       	 .byte 0xb
 8457 40aa 6C5D0000 	 .4byte 0x5d6c
 8458 40ae 02       	 .uleb128 0x2
 8459 40af 1C       	 .byte 0x1c
 8460 40b0 A3       	 .byte 0xa3
 8461 40b1 0B       	 .byte 0xb
 8462 40b2 8D5D0000 	 .4byte 0x5d8d
 8463 40b6 02       	 .uleb128 0x2
 8464 40b7 1C       	 .byte 0x1c
 8465 40b8 A5       	 .byte 0xa5
 8466 40b9 0B       	 .byte 0xb
 8467 40ba 995D0000 	 .4byte 0x5d99
 8468 40be 02       	 .uleb128 0x2
 8469 40bf 1C       	 .byte 0x1c
 8470 40c0 A6       	 .byte 0xa6
 8471 40c1 0B       	 .byte 0xb
 8472 40c2 AB5D0000 	 .4byte 0x5dab
 8473 40c6 02       	 .uleb128 0x2
 8474 40c7 1C       	 .byte 0x1c
 8475 40c8 A7       	 .byte 0xa7
 8476 40c9 0B       	 .byte 0xb
 8477 40ca CC5D0000 	 .4byte 0x5dcc
 8478 40ce 02       	 .uleb128 0x2
 8479 40cf 1C       	 .byte 0x1c
 8480 40d0 A8       	 .byte 0xa8
 8481 40d1 0B       	 .byte 0xb
 8482 40d2 EC5D0000 	 .4byte 0x5dec
 8483 40d6 02       	 .uleb128 0x2
 8484 40d7 1C       	 .byte 0x1c
 8485 40d8 A9       	 .byte 0xa9
 8486 40d9 0B       	 .byte 0xb
 8487 40da 0C5E0000 	 .4byte 0x5e0c
ARM GAS   			page 163


 8488 40de 02       	 .uleb128 0x2
 8489 40df 1C       	 .byte 0x1c
 8490 40e0 AB       	 .byte 0xab
 8491 40e1 0B       	 .byte 0xb
 8492 40e2 225E0000 	 .4byte 0x5e22
 8493 40e6 02       	 .uleb128 0x2
 8494 40e7 1C       	 .byte 0x1c
 8495 40e8 AC       	 .byte 0xac
 8496 40e9 0B       	 .byte 0xb
 8497 40ea 425E0000 	 .4byte 0x5e42
 8498 40ee 02       	 .uleb128 0x2
 8499 40ef 1C       	 .byte 0x1c
 8500 40f0 F0       	 .byte 0xf0
 8501 40f1 16       	 .byte 0x16
 8502 40f2 614D0000 	 .4byte 0x4d61
 8503 40f6 02       	 .uleb128 0x2
 8504 40f7 1C       	 .byte 0x1c
 8505 40f8 F5       	 .byte 0xf5
 8506 40f9 16       	 .byte 0x16
 8507 40fa C6460000 	 .4byte 0x46c6
 8508 40fe 02       	 .uleb128 0x2
 8509 40ff 1C       	 .byte 0x1c
 8510 4100 F6       	 .byte 0xf6
 8511 4101 16       	 .byte 0x16
 8512 4102 5D5E0000 	 .4byte 0x5e5d
 8513 4106 02       	 .uleb128 0x2
 8514 4107 1C       	 .byte 0x1c
 8515 4108 F8       	 .byte 0xf8
 8516 4109 16       	 .byte 0x16
 8517 410a 795E0000 	 .4byte 0x5e79
 8518 410e 02       	 .uleb128 0x2
 8519 410f 1C       	 .byte 0x1c
 8520 4110 F9       	 .byte 0xf9
 8521 4111 16       	 .byte 0x16
 8522 4112 D25E0000 	 .4byte 0x5ed2
 8523 4116 02       	 .uleb128 0x2
 8524 4117 1C       	 .byte 0x1c
 8525 4118 FA       	 .byte 0xfa
 8526 4119 16       	 .byte 0x16
 8527 411a 905E0000 	 .4byte 0x5e90
 8528 411e 02       	 .uleb128 0x2
 8529 411f 1C       	 .byte 0x1c
 8530 4120 FB       	 .byte 0xfb
 8531 4121 16       	 .byte 0x16
 8532 4122 B15E0000 	 .4byte 0x5eb1
 8533 4126 02       	 .uleb128 0x2
 8534 4127 1C       	 .byte 0x1c
 8535 4128 FC       	 .byte 0xfc
 8536 4129 16       	 .byte 0x16
 8537 412a ED5E0000 	 .4byte 0x5eed
 8538 412e 02       	 .uleb128 0x2
 8539 412f 1D       	 .byte 0x1d
 8540 4130 62       	 .byte 0x62
 8541 4131 0B       	 .byte 0xb
 8542 4132 C60A0000 	 .4byte 0xac6
 8543 4136 02       	 .uleb128 0x2
 8544 4137 1D       	 .byte 0x1d
ARM GAS   			page 164


 8545 4138 63       	 .byte 0x63
 8546 4139 0B       	 .byte 0xb
 8547 413a D20A0000 	 .4byte 0xad2
 8548 413e 02       	 .uleb128 0x2
 8549 413f 1D       	 .byte 0x1d
 8550 4140 65       	 .byte 0x65
 8551 4141 0B       	 .byte 0xb
 8552 4142 095F0000 	 .4byte 0x5f09
 8553 4146 02       	 .uleb128 0x2
 8554 4147 1D       	 .byte 0x1d
 8555 4148 66       	 .byte 0x66
 8556 4149 0B       	 .byte 0xb
 8557 414a 215F0000 	 .4byte 0x5f21
 8558 414e 02       	 .uleb128 0x2
 8559 414f 1D       	 .byte 0x1d
 8560 4150 67       	 .byte 0x67
 8561 4151 0B       	 .byte 0xb
 8562 4152 375F0000 	 .4byte 0x5f37
 8563 4156 02       	 .uleb128 0x2
 8564 4157 1D       	 .byte 0x1d
 8565 4158 68       	 .byte 0x68
 8566 4159 0B       	 .byte 0xb
 8567 415a 4D5F0000 	 .4byte 0x5f4d
 8568 415e 02       	 .uleb128 0x2
 8569 415f 1D       	 .byte 0x1d
 8570 4160 69       	 .byte 0x69
 8571 4161 0B       	 .byte 0xb
 8572 4162 635F0000 	 .4byte 0x5f63
 8573 4166 02       	 .uleb128 0x2
 8574 4167 1D       	 .byte 0x1d
 8575 4168 6A       	 .byte 0x6a
 8576 4169 0B       	 .byte 0xb
 8577 416a 795F0000 	 .4byte 0x5f79
 8578 416e 02       	 .uleb128 0x2
 8579 416f 1D       	 .byte 0x1d
 8580 4170 6B       	 .byte 0x6b
 8581 4171 0B       	 .byte 0xb
 8582 4172 8F5F0000 	 .4byte 0x5f8f
 8583 4176 02       	 .uleb128 0x2
 8584 4177 1D       	 .byte 0x1d
 8585 4178 6C       	 .byte 0x6c
 8586 4179 0B       	 .byte 0xb
 8587 417a B05F0000 	 .4byte 0x5fb0
 8588 417e 02       	 .uleb128 0x2
 8589 417f 1D       	 .byte 0x1d
 8590 4180 6D       	 .byte 0x6d
 8591 4181 0B       	 .byte 0xb
 8592 4182 D05F0000 	 .4byte 0x5fd0
 8593 4186 02       	 .uleb128 0x2
 8594 4187 1D       	 .byte 0x1d
 8595 4188 71       	 .byte 0x71
 8596 4189 0B       	 .byte 0xb
 8597 418a EB5F0000 	 .4byte 0x5feb
 8598 418e 02       	 .uleb128 0x2
 8599 418f 1D       	 .byte 0x1d
 8600 4190 72       	 .byte 0x72
 8601 4191 0B       	 .byte 0xb
ARM GAS   			page 165


 8602 4192 10600000 	 .4byte 0x6010
 8603 4196 02       	 .uleb128 0x2
 8604 4197 1D       	 .byte 0x1d
 8605 4198 74       	 .byte 0x74
 8606 4199 0B       	 .byte 0xb
 8607 419a 30600000 	 .4byte 0x6030
 8608 419e 02       	 .uleb128 0x2
 8609 419f 1D       	 .byte 0x1d
 8610 41a0 75       	 .byte 0x75
 8611 41a1 0B       	 .byte 0xb
 8612 41a2 50600000 	 .4byte 0x6050
 8613 41a6 02       	 .uleb128 0x2
 8614 41a7 1D       	 .byte 0x1d
 8615 41a8 76       	 .byte 0x76
 8616 41a9 0B       	 .byte 0xb
 8617 41aa 71600000 	 .4byte 0x6071
 8618 41ae 02       	 .uleb128 0x2
 8619 41af 1D       	 .byte 0x1d
 8620 41b0 78       	 .byte 0x78
 8621 41b1 0B       	 .byte 0xb
 8622 41b2 87600000 	 .4byte 0x6087
 8623 41b6 02       	 .uleb128 0x2
 8624 41b7 1D       	 .byte 0x1d
 8625 41b8 79       	 .byte 0x79
 8626 41b9 0B       	 .byte 0xb
 8627 41ba 9D600000 	 .4byte 0x609d
 8628 41be 02       	 .uleb128 0x2
 8629 41bf 1D       	 .byte 0x1d
 8630 41c0 7E       	 .byte 0x7e
 8631 41c1 0B       	 .byte 0xb
 8632 41c2 A9600000 	 .4byte 0x60a9
 8633 41c6 02       	 .uleb128 0x2
 8634 41c7 1D       	 .byte 0x1d
 8635 41c8 83       	 .byte 0x83
 8636 41c9 0B       	 .byte 0xb
 8637 41ca BB600000 	 .4byte 0x60bb
 8638 41ce 02       	 .uleb128 0x2
 8639 41cf 1D       	 .byte 0x1d
 8640 41d0 84       	 .byte 0x84
 8641 41d1 0B       	 .byte 0xb
 8642 41d2 D1600000 	 .4byte 0x60d1
 8643 41d6 02       	 .uleb128 0x2
 8644 41d7 1D       	 .byte 0x1d
 8645 41d8 85       	 .byte 0x85
 8646 41d9 0B       	 .byte 0xb
 8647 41da EC600000 	 .4byte 0x60ec
 8648 41de 02       	 .uleb128 0x2
 8649 41df 1D       	 .byte 0x1d
 8650 41e0 87       	 .byte 0x87
 8651 41e1 0B       	 .byte 0xb
 8652 41e2 FE600000 	 .4byte 0x60fe
 8653 41e6 02       	 .uleb128 0x2
 8654 41e7 1D       	 .byte 0x1d
 8655 41e8 88       	 .byte 0x88
 8656 41e9 0B       	 .byte 0xb
 8657 41ea 15610000 	 .4byte 0x6115
 8658 41ee 02       	 .uleb128 0x2
ARM GAS   			page 166


 8659 41ef 1D       	 .byte 0x1d
 8660 41f0 8B       	 .byte 0x8b
 8661 41f1 0B       	 .byte 0xb
 8662 41f2 3A610000 	 .4byte 0x613a
 8663 41f6 02       	 .uleb128 0x2
 8664 41f7 1D       	 .byte 0x1d
 8665 41f8 8D       	 .byte 0x8d
 8666 41f9 0B       	 .byte 0xb
 8667 41fa 46610000 	 .4byte 0x6146
 8668 41fe 02       	 .uleb128 0x2
 8669 41ff 1D       	 .byte 0x1d
 8670 4200 8F       	 .byte 0x8f
 8671 4201 0B       	 .byte 0xb
 8672 4202 5C610000 	 .4byte 0x615c
 8673 4206 33       	 .uleb128 0x33
 8674 4207 C3400000 	 .4byte .LASF700
 8675 420b 01       	 .byte 0x1
 8676 420c 1E       	 .byte 0x1e
 8677 420d 9701     	 .2byte 0x197
 8678 420f 0C       	 .byte 0xc
 8679 4210 11430000 	 .4byte 0x4311
 8680 4214 17       	 .uleb128 0x17
 8681 4215 40360000 	 .4byte .LASF177
 8682 4219 1E       	 .byte 0x1e
 8683 421a A001     	 .2byte 0x1a0
 8684 421c 0D       	 .byte 0xd
 8685 421d 48080000 	 .4byte 0x848
 8686 4221 05       	 .uleb128 0x5
 8687 4222 25010000 	 .4byte .LASF701
 8688 4226 1E       	 .byte 0x1e
 8689 4227 CB01     	 .2byte 0x1cb
 8690 4229 07       	 .byte 0x7
 8691 422a 4A250000 	 .4byte .LASF702
 8692 422e 14420000 	 .4byte 0x4214
 8693 4232 41420000 	 .4byte 0x4241
 8694 4236 01       	 .uleb128 0x1
 8695 4237 77610000 	 .4byte 0x6177
 8696 423b 01       	 .uleb128 0x1
 8697 423c 53420000 	 .4byte 0x4253
 8698 4240 00       	 .byte 0
 8699 4241 17       	 .uleb128 0x17
 8700 4242 47320000 	 .4byte .LASF206
 8701 4246 1E       	 .byte 0x1e
 8702 4247 9A01     	 .2byte 0x19a
 8703 4249 0D       	 .byte 0xd
 8704 424a 843F0000 	 .4byte 0x3f84
 8705 424e 0A       	 .uleb128 0xa
 8706 424f 41420000 	 .4byte 0x4241
 8707 4253 17       	 .uleb128 0x17
 8708 4254 341E0000 	 .4byte .LASF178
 8709 4258 1E       	 .byte 0x1e
 8710 4259 AF01     	 .2byte 0x1af
 8711 425b 0D       	 .byte 0xd
 8712 425c 273A0000 	 .4byte 0x3a27
 8713 4260 05       	 .uleb128 0x5
 8714 4261 25010000 	 .4byte .LASF701
 8715 4265 1E       	 .byte 0x1e
ARM GAS   			page 167


 8716 4266 D901     	 .2byte 0x1d9
 8717 4268 07       	 .byte 0x7
 8718 4269 C84A0000 	 .4byte .LASF703
 8719 426d 14420000 	 .4byte 0x4214
 8720 4271 85420000 	 .4byte 0x4285
 8721 4275 01       	 .uleb128 0x1
 8722 4276 77610000 	 .4byte 0x6177
 8723 427a 01       	 .uleb128 0x1
 8724 427b 53420000 	 .4byte 0x4253
 8725 427f 01       	 .uleb128 0x1
 8726 4280 85420000 	 .4byte 0x4285
 8727 4284 00       	 .byte 0
 8728 4285 17       	 .uleb128 0x17
 8729 4286 6D1F0000 	 .4byte .LASF704
 8730 428a 1E       	 .byte 0x1e
 8731 428b A901     	 .2byte 0x1a9
 8732 428d 0D       	 .byte 0xd
 8733 428e 934D0000 	 .4byte 0x4d93
 8734 4292 1F       	 .uleb128 0x1f
 8735 4293 64010000 	 .4byte .LASF705
 8736 4297 1E       	 .byte 0x1e
 8737 4298 EB01     	 .2byte 0x1eb
 8738 429a 07       	 .byte 0x7
 8739 429b B8380000 	 .4byte .LASF706
 8740 429f B3420000 	 .4byte 0x42b3
 8741 42a3 01       	 .uleb128 0x1
 8742 42a4 77610000 	 .4byte 0x6177
 8743 42a8 01       	 .uleb128 0x1
 8744 42a9 14420000 	 .4byte 0x4214
 8745 42ad 01       	 .uleb128 0x1
 8746 42ae 53420000 	 .4byte 0x4253
 8747 42b2 00       	 .byte 0
 8748 42b3 05       	 .uleb128 0x5
 8749 42b4 DF090000 	 .4byte .LASF286
 8750 42b8 1E       	 .byte 0x1e
 8751 42b9 1F02     	 .2byte 0x21f
 8752 42bb 07       	 .byte 0x7
 8753 42bc 514C0000 	 .4byte .LASF707
 8754 42c0 53420000 	 .4byte 0x4253
 8755 42c4 CE420000 	 .4byte 0x42ce
 8756 42c8 01       	 .uleb128 0x1
 8757 42c9 7D610000 	 .4byte 0x617d
 8758 42cd 00       	 .byte 0
 8759 42ce 05       	 .uleb128 0x5
 8760 42cf AF3F0000 	 .4byte .LASF708
 8761 42d3 1E       	 .byte 0x1e
 8762 42d4 2E02     	 .2byte 0x22e
 8763 42d6 07       	 .byte 0x7
 8764 42d7 D7510000 	 .4byte .LASF709
 8765 42db 41420000 	 .4byte 0x4241
 8766 42df E9420000 	 .4byte 0x42e9
 8767 42e3 01       	 .uleb128 0x1
 8768 42e4 7D610000 	 .4byte 0x617d
 8769 42e8 00       	 .byte 0
 8770 42e9 17       	 .uleb128 0x17
 8771 42ea 480F0000 	 .4byte .LASF710
 8772 42ee 1E       	 .byte 0x1e
ARM GAS   			page 168


 8773 42ef 9D01     	 .2byte 0x19d
 8774 42f1 0D       	 .byte 0xd
 8775 42f2 53080000 	 .4byte 0x853
 8776 42f6 17       	 .uleb128 0x17
 8777 42f7 85070000 	 .4byte .LASF188
 8778 42fb 1E       	 .byte 0x1e
 8779 42fc A301     	 .2byte 0x1a3
 8780 42fe 0D       	 .byte 0xd
 8781 42ff 83080000 	 .4byte 0x883
 8782 4303 17       	 .uleb128 0x17
 8783 4304 1C5D0000 	 .4byte .LASF711
 8784 4308 1E       	 .byte 0x1e
 8785 4309 BE01     	 .2byte 0x1be
 8786 430b 08       	 .byte 0x8
 8787 430c 843F0000 	 .4byte 0x3f84
 8788 4310 00       	 .byte 0
 8789 4311 24       	 .uleb128 0x24
 8790 4312 BA6A0000 	 .4byte .LASF712
 8791 4316 08       	 .byte 0x8
 8792 4317 1F       	 .byte 0x1f
 8793 4318 2F       	 .byte 0x2f
 8794 4319 0B       	 .byte 0xb
 8795 431a 0C440000 	 .4byte 0x440c
 8796 431e 11       	 .uleb128 0x11
 8797 431f C21F0000 	 .4byte .LASF227
 8798 4323 1F       	 .byte 0x1f
 8799 4324 36       	 .byte 0x36
 8800 4325 1A       	 .byte 0x1a
 8801 4326 83080000 	 .4byte 0x883
 8802 432a 01       	 .byte 0x1
 8803 432b 08       	 .uleb128 0x8
 8804 432c 68220000 	 .4byte .LASF713
 8805 4330 1F       	 .byte 0x1f
 8806 4331 3A       	 .byte 0x3a
 8807 4332 12       	 .byte 0x12
 8808 4333 1E430000 	 .4byte 0x431e
 8809 4337 00       	 .byte 0
 8810 4338 11       	 .uleb128 0x11
 8811 4339 341E0000 	 .4byte .LASF178
 8812 433d 1F       	 .byte 0x1f
 8813 433e 35       	 .byte 0x35
 8814 433f 18       	 .byte 0x18
 8815 4340 273A0000 	 .4byte 0x3a27
 8816 4344 01       	 .byte 0x1
 8817 4345 08       	 .uleb128 0x8
 8818 4346 706D0000 	 .4byte .LASF714
 8819 434a 1F       	 .byte 0x1f
 8820 434b 3B       	 .byte 0x3b
 8821 434c 13       	 .byte 0x13
 8822 434d 38430000 	 .4byte 0x4338
 8823 4351 04       	 .byte 0x4
 8824 4352 1C       	 .uleb128 0x1c
 8825 4353 08640000 	 .4byte .LASF715
 8826 4357 1F       	 .byte 0x1f
 8827 4358 3E       	 .byte 0x3e
 8828 4359 11       	 .byte 0x11
 8829 435a CE210000 	 .4byte .LASF716
ARM GAS   			page 169


 8830 435e DB610000 	 .4byte 0x61db
 8831 4362 6A430000 	 .4byte 0x436a
 8832 4366 7A430000 	 .4byte 0x437a
 8833 436a 03       	 .uleb128 0x3
 8834 436b DB610000 	 .4byte 0x61db
 8835 436f 01       	 .uleb128 0x1
 8836 4370 7A430000 	 .4byte 0x437a
 8837 4374 01       	 .uleb128 0x1
 8838 4375 38430000 	 .4byte 0x4338
 8839 4379 00       	 .byte 0
 8840 437a 11       	 .uleb128 0x11
 8841 437b 61630000 	 .4byte .LASF229
 8842 437f 1F       	 .byte 0x1f
 8843 4380 37       	 .byte 0x37
 8844 4381 1A       	 .byte 0x1a
 8845 4382 83080000 	 .4byte 0x883
 8846 4386 01       	 .byte 0x1
 8847 4387 0C       	 .uleb128 0xc
 8848 4388 08640000 	 .4byte .LASF715
 8849 438c 1F       	 .byte 0x1f
 8850 438d 42       	 .byte 0x42
 8851 438e 11       	 .byte 0x11
 8852 438f DC4F0000 	 .4byte .LASF717
 8853 4393 DB610000 	 .4byte 0x61db
 8854 4397 01       	 .byte 0x1
 8855 4398 A0430000 	 .4byte 0x43a0
 8856 439c A6430000 	 .4byte 0x43a6
 8857 43a0 03       	 .uleb128 0x3
 8858 43a1 DB610000 	 .4byte 0x61db
 8859 43a5 00       	 .byte 0
 8860 43a6 0C       	 .uleb128 0xc
 8861 43a7 FD0E0000 	 .4byte .LASF282
 8862 43ab 1F       	 .byte 0x1f
 8863 43ac 47       	 .byte 0x47
 8864 43ad 07       	 .byte 0x7
 8865 43ae 31090000 	 .4byte .LASF718
 8866 43b2 38430000 	 .4byte 0x4338
 8867 43b6 01       	 .byte 0x1
 8868 43b7 BF430000 	 .4byte 0x43bf
 8869 43bb C5430000 	 .4byte 0x43c5
 8870 43bf 03       	 .uleb128 0x3
 8871 43c0 E1610000 	 .4byte 0x61e1
 8872 43c4 00       	 .byte 0
 8873 43c5 0C       	 .uleb128 0xc
 8874 43c6 DB6A0000 	 .4byte .LASF261
 8875 43ca 1F       	 .byte 0x1f
 8876 43cb 4B       	 .byte 0x4b
 8877 43cc 07       	 .byte 0x7
 8878 43cd 365C0000 	 .4byte .LASF719
 8879 43d1 7A430000 	 .4byte 0x437a
 8880 43d5 01       	 .byte 0x1
 8881 43d6 DE430000 	 .4byte 0x43de
 8882 43da E4430000 	 .4byte 0x43e4
 8883 43de 03       	 .uleb128 0x3
 8884 43df E1610000 	 .4byte 0x61e1
 8885 43e3 00       	 .byte 0
 8886 43e4 6E       	 .uleb128 0x6e
ARM GAS   			page 170


 8887 43e5 656E6400 	 .ascii "end\000"
 8888 43e9 1F       	 .byte 0x1f
 8889 43ea 4F       	 .byte 0x4f
 8890 43eb 07       	 .byte 0x7
 8891 43ec 75520000 	 .4byte .LASF1093
 8892 43f0 7A430000 	 .4byte 0x437a
 8893 43f4 01       	 .byte 0x1
 8894 43f5 FD430000 	 .4byte 0x43fd
 8895 43f9 03440000 	 .4byte 0x4403
 8896 43fd 03       	 .uleb128 0x3
 8897 43fe E1610000 	 .4byte 0x61e1
 8898 4402 00       	 .byte 0
 8899 4403 26       	 .uleb128 0x26
 8900 4404 5F4500   	 .ascii "_E\000"
 8901 4407 53080000 	 .4byte 0x853
 8902 440b 00       	 .byte 0
 8903 440c 0A       	 .uleb128 0xa
 8904 440d 11430000 	 .4byte 0x4311
 8905 4411 37       	 .uleb128 0x37
 8906 4412 4E3B0000 	 .4byte .LASF721
 8907 4416 37       	 .uleb128 0x37
 8908 4417 F31F0000 	 .4byte .LASF722
 8909 441b 06       	 .uleb128 0x6
 8910 441c DF3B0000 	 .4byte .LASF723
 8911 4420 20       	 .byte 0x20
 8912 4421 4F       	 .byte 0x4f
 8913 4422 21       	 .byte 0x21
 8914 4423 BB0B0000 	 .4byte 0xbbb
 8915 4427 0A       	 .uleb128 0xa
 8916 4428 1B440000 	 .4byte 0x441b
 8917 442c 4A       	 .uleb128 0x4a
 8918 442d 39570000 	 .4byte .LASF725
 8919 4431 0E       	 .byte 0xe
 8920 4432 F51A     	 .2byte 0x1af5
 8921 4434 14       	 .byte 0x14
 8922 4435 4C440000 	 .4byte 0x444c
 8923 4439 4E       	 .uleb128 0x4e
 8924 443a 3A450000 	 .4byte .LASF732
 8925 443e 0E       	 .byte 0xe
 8926 443f F71A     	 .2byte 0x1af7
 8927 4441 14       	 .byte 0x14
 8928 4442 35       	 .uleb128 0x35
 8929 4443 0E       	 .byte 0xe
 8930 4444 F71A     	 .2byte 0x1af7
 8931 4446 14       	 .byte 0x14
 8932 4447 39440000 	 .4byte 0x4439
 8933 444b 00       	 .byte 0
 8934 444c 35       	 .uleb128 0x35
 8935 444d 0E       	 .byte 0xe
 8936 444e F51A     	 .2byte 0x1af5
 8937 4450 14       	 .byte 0x14
 8938 4451 2C440000 	 .4byte 0x442c
 8939 4455 1A       	 .uleb128 0x1a
 8940 4456 7D300000 	 .4byte .LASF726
 8941 445a 01       	 .byte 0x1
 8942 445b 21       	 .byte 0x21
 8943 445c D2       	 .byte 0xd2
ARM GAS   			page 171


 8944 445d 0C       	 .byte 0xc
 8945 445e 87440000 	 .4byte 0x4487
 8946 4462 06       	 .uleb128 0x6
 8947 4463 9E380000 	 .4byte .LASF727
 8948 4467 21       	 .byte 0x21
 8949 4468 D6       	 .byte 0xd6
 8950 4469 2B       	 .byte 0x2b
 8951 446a 773F0000 	 .4byte 0x3f77
 8952 446e 06       	 .uleb128 0x6
 8953 446f 40360000 	 .4byte .LASF177
 8954 4473 21       	 .byte 0x21
 8955 4474 D7       	 .byte 0xd7
 8956 4475 2B       	 .byte 0x2b
 8957 4476 48080000 	 .4byte 0x848
 8958 447a 06       	 .uleb128 0x6
 8959 447b F7650000 	 .4byte .LASF304
 8960 447f 21       	 .byte 0x21
 8961 4480 D8       	 .byte 0xd8
 8962 4481 2B       	 .byte 0x2b
 8963 4482 A65A0000 	 .4byte 0x5aa6
 8964 4486 00       	 .byte 0
 8965 4487 6F       	 .uleb128 0x6f
 8966 4488 C5040000 	 .4byte .LASF729
 8967 448c 01       	 .byte 0x1
 8968 448d 21       	 .byte 0x21
 8969 448e DD       	 .byte 0xdd
 8970 448f 0C       	 .byte 0xc
 8971 4490 06       	 .uleb128 0x6
 8972 4491 9E380000 	 .4byte .LASF727
 8973 4495 21       	 .byte 0x21
 8974 4496 E1       	 .byte 0xe1
 8975 4497 2B       	 .byte 0x2b
 8976 4498 773F0000 	 .4byte 0x3f77
 8977 449c 06       	 .uleb128 0x6
 8978 449d 40360000 	 .4byte .LASF177
 8979 44a1 21       	 .byte 0x21
 8980 44a2 E2       	 .byte 0xe2
 8981 44a3 2B       	 .byte 0x2b
 8982 44a4 83080000 	 .4byte 0x883
 8983 44a8 06       	 .uleb128 0x6
 8984 44a9 F7650000 	 .4byte .LASF304
 8985 44ad 21       	 .byte 0x21
 8986 44ae E3       	 .byte 0xe3
 8987 44af 2B       	 .byte 0x2b
 8988 44b0 AC5A0000 	 .4byte 0x5aac
 8989 44b4 00       	 .byte 0
 8990 44b5 00       	 .byte 0
 8991 44b6 70       	 .uleb128 0x70
 8992 44b7 91030000 	 .4byte .LASF731
 8993 44bb 13       	 .byte 0x13
 8994 44bc 2001     	 .2byte 0x120
 8995 44be 0B       	 .byte 0xb
 8996 44bf A64C0000 	 .4byte 0x4ca6
 8997 44c3 4E       	 .uleb128 0x4e
 8998 44c4 CB690000 	 .4byte .LASF724
 8999 44c8 13       	 .byte 0x13
 9000 44c9 2201     	 .2byte 0x122
ARM GAS   			page 172


 9001 44cb 41       	 .byte 0x41
 9002 44cc 35       	 .uleb128 0x35
 9003 44cd 13       	 .byte 0x13
 9004 44ce 2201     	 .2byte 0x122
 9005 44d0 41       	 .byte 0x41
 9006 44d1 C3440000 	 .4byte 0x44c3
 9007 44d5 4D       	 .uleb128 0x4d
 9008 44d6 59020000 	 .4byte .LASF733
 9009 44da 23       	 .byte 0x23
 9010 44db 23       	 .byte 0x23
 9011 44dc 0B       	 .byte 0xb
 9012 44dd 02       	 .uleb128 0x2
 9013 44de 17       	 .byte 0x17
 9014 44df FB       	 .byte 0xfb
 9015 44e0 0B       	 .byte 0xb
 9016 44e1 1B5A0000 	 .4byte 0x5a1b
 9017 44e5 18       	 .uleb128 0x18
 9018 44e6 17       	 .byte 0x17
 9019 44e7 0401     	 .2byte 0x104
 9020 44e9 0B       	 .byte 0xb
 9021 44ea 365A0000 	 .4byte 0x5a36
 9022 44ee 18       	 .uleb128 0x18
 9023 44ef 17       	 .byte 0x17
 9024 44f0 0501     	 .2byte 0x105
 9025 44f2 0B       	 .byte 0xb
 9026 44f3 565A0000 	 .4byte 0x5a56
 9027 44f7 24       	 .uleb128 0x24
 9028 44f8 ED1C0000 	 .4byte .LASF734
 9029 44fc 01       	 .byte 0x1
 9030 44fd 24       	 .byte 0x24
 9031 44fe 37       	 .byte 0x37
 9032 44ff 0B       	 .byte 0xb
 9033 4500 89460000 	 .4byte 0x4689
 9034 4504 0C       	 .uleb128 0xc
 9035 4505 6F010000 	 .4byte .LASF735
 9036 4509 24       	 .byte 0x24
 9037 450a 4F       	 .byte 0x4f
 9038 450b 07       	 .byte 0x7
 9039 450c 2E500000 	 .4byte .LASF736
 9040 4510 945A0000 	 .4byte 0x5a94
 9041 4514 01       	 .byte 0x1
 9042 4515 1D450000 	 .4byte 0x451d
 9043 4519 23450000 	 .4byte 0x4523
 9044 451d 03       	 .uleb128 0x3
 9045 451e 945A0000 	 .4byte 0x5a94
 9046 4522 00       	 .byte 0
 9047 4523 0C       	 .uleb128 0xc
 9048 4524 6F010000 	 .4byte .LASF735
 9049 4528 24       	 .byte 0x24
 9050 4529 52       	 .byte 0x52
 9051 452a 07       	 .byte 0x7
 9052 452b 830B0000 	 .4byte .LASF737
 9053 452f 945A0000 	 .4byte 0x5a94
 9054 4533 01       	 .byte 0x1
 9055 4534 3C450000 	 .4byte 0x453c
 9056 4538 47450000 	 .4byte 0x4547
 9057 453c 03       	 .uleb128 0x3
ARM GAS   			page 173


 9058 453d 945A0000 	 .4byte 0x5a94
 9059 4541 01       	 .uleb128 0x1
 9060 4542 9A5A0000 	 .4byte 0x5a9a
 9061 4546 00       	 .byte 0
 9062 4547 0C       	 .uleb128 0xc
 9063 4548 F03C0000 	 .4byte .LASF738
 9064 454c 24       	 .byte 0x24
 9065 454d 59       	 .byte 0x59
 9066 454e 07       	 .byte 0x7
 9067 454f F1170000 	 .4byte .LASF739
 9068 4553 A5010000 	 .4byte 0x1a5
 9069 4557 01       	 .byte 0x1
 9070 4558 60450000 	 .4byte 0x4560
 9071 455c 6B450000 	 .4byte 0x456b
 9072 4560 03       	 .uleb128 0x3
 9073 4561 945A0000 	 .4byte 0x5a94
 9074 4565 03       	 .uleb128 0x3
 9075 4566 46010000 	 .4byte 0x146
 9076 456a 00       	 .byte 0
 9077 456b 11       	 .uleb128 0x11
 9078 456c 40360000 	 .4byte .LASF177
 9079 4570 24       	 .byte 0x24
 9080 4571 3E       	 .byte 0x3e
 9081 4572 1A       	 .byte 0x1a
 9082 4573 48080000 	 .4byte 0x848
 9083 4577 01       	 .byte 0x1
 9084 4578 0C       	 .uleb128 0xc
 9085 4579 8F2E0000 	 .4byte .LASF740
 9086 457d 24       	 .byte 0x24
 9087 457e 5C       	 .byte 0x5c
 9088 457f 07       	 .byte 0x7
 9089 4580 88230000 	 .4byte .LASF741
 9090 4584 6B450000 	 .4byte 0x456b
 9091 4588 01       	 .byte 0x1
 9092 4589 91450000 	 .4byte 0x4591
 9093 458d 9C450000 	 .4byte 0x459c
 9094 4591 03       	 .uleb128 0x3
 9095 4592 A05A0000 	 .4byte 0x5aa0
 9096 4596 01       	 .uleb128 0x1
 9097 4597 9C450000 	 .4byte 0x459c
 9098 459b 00       	 .byte 0
 9099 459c 11       	 .uleb128 0x11
 9100 459d F7650000 	 .4byte .LASF304
 9101 45a1 24       	 .byte 0x24
 9102 45a2 40       	 .byte 0x40
 9103 45a3 1A       	 .byte 0x1a
 9104 45a4 A65A0000 	 .4byte 0x5aa6
 9105 45a8 01       	 .byte 0x1
 9106 45a9 11       	 .uleb128 0x11
 9107 45aa 85070000 	 .4byte .LASF188
 9108 45ae 24       	 .byte 0x24
 9109 45af 3F       	 .byte 0x3f
 9110 45b0 1A       	 .byte 0x1a
 9111 45b1 83080000 	 .4byte 0x883
 9112 45b5 01       	 .byte 0x1
 9113 45b6 0C       	 .uleb128 0xc
 9114 45b7 8F2E0000 	 .4byte .LASF740
ARM GAS   			page 174


 9115 45bb 24       	 .byte 0x24
 9116 45bc 60       	 .byte 0x60
 9117 45bd 07       	 .byte 0x7
 9118 45be D53F0000 	 .4byte .LASF742
 9119 45c2 A9450000 	 .4byte 0x45a9
 9120 45c6 01       	 .byte 0x1
 9121 45c7 CF450000 	 .4byte 0x45cf
 9122 45cb DA450000 	 .4byte 0x45da
 9123 45cf 03       	 .uleb128 0x3
 9124 45d0 A05A0000 	 .4byte 0x5aa0
 9125 45d4 01       	 .uleb128 0x1
 9126 45d5 DA450000 	 .4byte 0x45da
 9127 45d9 00       	 .byte 0
 9128 45da 11       	 .uleb128 0x11
 9129 45db CC4F0000 	 .4byte .LASF301
 9130 45df 24       	 .byte 0x24
 9131 45e0 41       	 .byte 0x41
 9132 45e1 1A       	 .byte 0x1a
 9133 45e2 AC5A0000 	 .4byte 0x5aac
 9134 45e6 01       	 .byte 0x1
 9135 45e7 0C       	 .uleb128 0xc
 9136 45e8 25010000 	 .4byte .LASF701
 9137 45ec 24       	 .byte 0x24
 9138 45ed 67       	 .byte 0x67
 9139 45ee 07       	 .byte 0x7
 9140 45ef F2080000 	 .4byte .LASF743
 9141 45f3 48080000 	 .4byte 0x848
 9142 45f7 01       	 .byte 0x1
 9143 45f8 00460000 	 .4byte 0x4600
 9144 45fc 10460000 	 .4byte 0x4610
 9145 4600 03       	 .uleb128 0x3
 9146 4601 945A0000 	 .4byte 0x5a94
 9147 4605 01       	 .uleb128 0x1
 9148 4606 10460000 	 .4byte 0x4610
 9149 460a 01       	 .uleb128 0x1
 9150 460b 934D0000 	 .4byte 0x4d93
 9151 460f 00       	 .byte 0
 9152 4610 11       	 .uleb128 0x11
 9153 4611 341E0000 	 .4byte .LASF178
 9154 4615 24       	 .byte 0x24
 9155 4616 3B       	 .byte 0x3b
 9156 4617 1F       	 .byte 0x1f
 9157 4618 273A0000 	 .4byte 0x3a27
 9158 461c 01       	 .byte 0x1
 9159 461d 36       	 .uleb128 0x36
 9160 461e 64010000 	 .4byte .LASF705
 9161 4622 24       	 .byte 0x24
 9162 4623 7E       	 .byte 0x7e
 9163 4624 07       	 .byte 0x7
 9164 4625 A0030000 	 .4byte .LASF744
 9165 4629 01       	 .byte 0x1
 9166 462a 32460000 	 .4byte 0x4632
 9167 462e 42460000 	 .4byte 0x4642
 9168 4632 03       	 .uleb128 0x3
 9169 4633 945A0000 	 .4byte 0x5a94
 9170 4637 01       	 .uleb128 0x1
 9171 4638 48080000 	 .4byte 0x848
ARM GAS   			page 175


 9172 463c 01       	 .uleb128 0x1
 9173 463d 10460000 	 .4byte 0x4610
 9174 4641 00       	 .byte 0
 9175 4642 0C       	 .uleb128 0xc
 9176 4643 DF090000 	 .4byte .LASF286
 9177 4647 24       	 .byte 0x24
 9178 4648 94       	 .byte 0x94
 9179 4649 07       	 .byte 0x7
 9180 464a FB2E0000 	 .4byte .LASF745
 9181 464e 10460000 	 .4byte 0x4610
 9182 4652 01       	 .byte 0x1
 9183 4653 5B460000 	 .4byte 0x465b
 9184 4657 61460000 	 .4byte 0x4661
 9185 465b 03       	 .uleb128 0x3
 9186 465c A05A0000 	 .4byte 0x5aa0
 9187 4660 00       	 .byte 0
 9188 4661 1C       	 .uleb128 0x1c
 9189 4662 19500000 	 .4byte .LASF746
 9190 4666 24       	 .byte 0x24
 9191 4667 BF       	 .byte 0xbf
 9192 4668 07       	 .byte 0x7
 9193 4669 09320000 	 .4byte .LASF747
 9194 466d 10460000 	 .4byte 0x4610
 9195 4671 79460000 	 .4byte 0x4679
 9196 4675 7F460000 	 .4byte 0x467f
 9197 4679 03       	 .uleb128 0x3
 9198 467a A05A0000 	 .4byte 0x5aa0
 9199 467e 00       	 .byte 0
 9200 467f 26       	 .uleb128 0x26
 9201 4680 5F547000 	 .ascii "_Tp\000"
 9202 4684 53080000 	 .4byte 0x853
 9203 4688 00       	 .byte 0
 9204 4689 0A       	 .uleb128 0xa
 9205 468a F7440000 	 .4byte 0x44f7
 9206 468e 02       	 .uleb128 0x2
 9207 468f 1C       	 .byte 0x1c
 9208 4690 C8       	 .byte 0xc8
 9209 4691 0B       	 .byte 0xb
 9210 4692 614D0000 	 .4byte 0x4d61
 9211 4696 02       	 .uleb128 0x2
 9212 4697 1C       	 .byte 0x1c
 9213 4698 D8       	 .byte 0xd8
 9214 4699 0B       	 .byte 0xb
 9215 469a 5D5E0000 	 .4byte 0x5e5d
 9216 469e 02       	 .uleb128 0x2
 9217 469f 1C       	 .byte 0x1c
 9218 46a0 E3       	 .byte 0xe3
 9219 46a1 0B       	 .byte 0xb
 9220 46a2 795E0000 	 .4byte 0x5e79
 9221 46a6 02       	 .uleb128 0x2
 9222 46a7 1C       	 .byte 0x1c
 9223 46a8 E4       	 .byte 0xe4
 9224 46a9 0B       	 .byte 0xb
 9225 46aa 905E0000 	 .4byte 0x5e90
 9226 46ae 02       	 .uleb128 0x2
 9227 46af 1C       	 .byte 0x1c
 9228 46b0 E5       	 .byte 0xe5
ARM GAS   			page 176


 9229 46b1 0B       	 .byte 0xb
 9230 46b2 B15E0000 	 .4byte 0x5eb1
 9231 46b6 02       	 .uleb128 0x2
 9232 46b7 1C       	 .byte 0x1c
 9233 46b8 E7       	 .byte 0xe7
 9234 46b9 0B       	 .byte 0xb
 9235 46ba D25E0000 	 .4byte 0x5ed2
 9236 46be 02       	 .uleb128 0x2
 9237 46bf 1C       	 .byte 0x1c
 9238 46c0 E8       	 .byte 0xe8
 9239 46c1 0B       	 .byte 0xb
 9240 46c2 ED5E0000 	 .4byte 0x5eed
 9241 46c6 1E       	 .uleb128 0x1e
 9242 46c7 64697600 	 .ascii "div\000"
 9243 46cb 1C       	 .byte 0x1c
 9244 46cc D5       	 .byte 0xd5
 9245 46cd 03       	 .byte 0x3
 9246 46ce 70630000 	 .4byte .LASF748
 9247 46d2 614D0000 	 .4byte 0x4d61
 9248 46d6 E5460000 	 .4byte 0x46e5
 9249 46da 01       	 .uleb128 0x1
 9250 46db A8000000 	 .4byte 0xa8
 9251 46df 01       	 .uleb128 0x1
 9252 46e0 A8000000 	 .4byte 0xa8
 9253 46e4 00       	 .byte 0
 9254 46e5 1A       	 .uleb128 0x1a
 9255 46e6 4B1B0000 	 .4byte .LASF749
 9256 46ea 01       	 .byte 0x1
 9257 46eb 25       	 .byte 0x25
 9258 46ec 30       	 .byte 0x30
 9259 46ed 0A       	 .byte 0xa
 9260 46ee 17480000 	 .4byte 0x4817
 9261 46f2 02       	 .uleb128 0x2
 9262 46f3 25       	 .byte 0x25
 9263 46f4 30       	 .byte 0x30
 9264 46f5 0A       	 .byte 0xa
 9265 46f6 60420000 	 .4byte 0x4260
 9266 46fa 02       	 .uleb128 0x2
 9267 46fb 25       	 .byte 0x25
 9268 46fc 30       	 .byte 0x30
 9269 46fd 0A       	 .byte 0xa
 9270 46fe 21420000 	 .4byte 0x4221
 9271 4702 02       	 .uleb128 0x2
 9272 4703 25       	 .byte 0x25
 9273 4704 30       	 .byte 0x30
 9274 4705 0A       	 .byte 0xa
 9275 4706 92420000 	 .4byte 0x4292
 9276 470a 02       	 .uleb128 0x2
 9277 470b 25       	 .byte 0x25
 9278 470c 30       	 .byte 0x30
 9279 470d 0A       	 .byte 0xa
 9280 470e B3420000 	 .4byte 0x42b3
 9281 4712 4B       	 .uleb128 0x4b
 9282 4713 06420000 	 .4byte 0x4206
 9283 4717 00       	 .byte 0
 9284 4718 15       	 .uleb128 0x15
 9285 4719 B7100000 	 .4byte .LASF750
ARM GAS   			page 177


 9286 471d 25       	 .byte 0x25
 9287 471e 61       	 .byte 0x61
 9288 471f 1D       	 .byte 0x1d
 9289 4720 92240000 	 .4byte .LASF751
 9290 4724 843F0000 	 .4byte 0x3f84
 9291 4728 32470000 	 .4byte 0x4732
 9292 472c 01       	 .uleb128 0x1
 9293 472d B85A0000 	 .4byte 0x5ab8
 9294 4731 00       	 .byte 0
 9295 4732 71       	 .uleb128 0x71
 9296 4733 5F460000 	 .4byte .LASF752
 9297 4737 25       	 .byte 0x25
 9298 4738 64       	 .byte 0x64
 9299 4739 26       	 .byte 0x26
 9300 473a FC3D0000 	 .4byte .LASF1094
 9301 473e 4D470000 	 .4byte 0x474d
 9302 4742 01       	 .uleb128 0x1
 9303 4743 BE5A0000 	 .4byte 0x5abe
 9304 4747 01       	 .uleb128 0x1
 9305 4748 BE5A0000 	 .4byte 0x5abe
 9306 474c 00       	 .byte 0
 9307 474d 2D       	 .uleb128 0x2d
 9308 474e 8A350000 	 .4byte .LASF753
 9309 4752 25       	 .byte 0x25
 9310 4753 67       	 .byte 0x67
 9311 4754 1B       	 .byte 0x1b
 9312 4755 156D0000 	 .4byte .LASF755
 9313 4759 4C4F0000 	 .4byte 0x4f4c
 9314 475d 2D       	 .uleb128 0x2d
 9315 475e EC630000 	 .4byte .LASF754
 9316 4762 25       	 .byte 0x25
 9317 4763 6A       	 .byte 0x6a
 9318 4764 1B       	 .byte 0x1b
 9319 4765 9E6B0000 	 .4byte .LASF756
 9320 4769 4C4F0000 	 .4byte 0x4f4c
 9321 476d 2D       	 .uleb128 0x2d
 9322 476e 4C5A0000 	 .4byte .LASF757
 9323 4772 25       	 .byte 0x25
 9324 4773 6D       	 .byte 0x6d
 9325 4774 1B       	 .byte 0x1b
 9326 4775 FB430000 	 .4byte .LASF758
 9327 4779 4C4F0000 	 .4byte 0x4f4c
 9328 477d 2D       	 .uleb128 0x2d
 9329 477e A31B0000 	 .4byte .LASF759
 9330 4782 25       	 .byte 0x25
 9331 4783 70       	 .byte 0x70
 9332 4784 1B       	 .byte 0x1b
 9333 4785 54090000 	 .4byte .LASF760
 9334 4789 4C4F0000 	 .4byte 0x4f4c
 9335 478d 2D       	 .uleb128 0x2d
 9336 478e 85630000 	 .4byte .LASF761
 9337 4792 25       	 .byte 0x25
 9338 4793 73       	 .byte 0x73
 9339 4794 1B       	 .byte 0x1b
 9340 4795 FA010000 	 .4byte .LASF762
 9341 4799 4C4F0000 	 .4byte 0x4f4c
 9342 479d 06       	 .uleb128 0x6
ARM GAS   			page 178


 9343 479e 480F0000 	 .4byte .LASF710
 9344 47a2 25       	 .byte 0x25
 9345 47a3 38       	 .byte 0x38
 9346 47a4 35       	 .byte 0x35
 9347 47a5 E9420000 	 .4byte 0x42e9
 9348 47a9 0A       	 .uleb128 0xa
 9349 47aa 9D470000 	 .4byte 0x479d
 9350 47ae 06       	 .uleb128 0x6
 9351 47af 40360000 	 .4byte .LASF177
 9352 47b3 25       	 .byte 0x25
 9353 47b4 39       	 .byte 0x39
 9354 47b5 35       	 .byte 0x35
 9355 47b6 14420000 	 .4byte 0x4214
 9356 47ba 06       	 .uleb128 0x6
 9357 47bb 85070000 	 .4byte .LASF188
 9358 47bf 25       	 .byte 0x25
 9359 47c0 3A       	 .byte 0x3a
 9360 47c1 35       	 .byte 0x35
 9361 47c2 F6420000 	 .4byte 0x42f6
 9362 47c6 06       	 .uleb128 0x6
 9363 47c7 341E0000 	 .4byte .LASF178
 9364 47cb 25       	 .byte 0x25
 9365 47cc 3B       	 .byte 0x3b
 9366 47cd 35       	 .byte 0x35
 9367 47ce 53420000 	 .4byte 0x4253
 9368 47d2 06       	 .uleb128 0x6
 9369 47d3 F7650000 	 .4byte .LASF304
 9370 47d7 25       	 .byte 0x25
 9371 47d8 3E       	 .byte 0x3e
 9372 47d9 35       	 .byte 0x35
 9373 47da 83610000 	 .4byte 0x6183
 9374 47de 06       	 .uleb128 0x6
 9375 47df CC4F0000 	 .4byte .LASF301
 9376 47e3 25       	 .byte 0x25
 9377 47e4 3F       	 .byte 0x3f
 9378 47e5 35       	 .byte 0x35
 9379 47e6 89610000 	 .4byte 0x6189
 9380 47ea 1A       	 .uleb128 0x1a
 9381 47eb 56180000 	 .4byte .LASF763
 9382 47ef 01       	 .byte 0x1
 9383 47f0 25       	 .byte 0x25
 9384 47f1 77       	 .byte 0x77
 9385 47f2 0E       	 .byte 0xe
 9386 47f3 0D480000 	 .4byte 0x480d
 9387 47f7 06       	 .uleb128 0x6
 9388 47f8 62220000 	 .4byte .LASF764
 9389 47fc 25       	 .byte 0x25
 9390 47fd 78       	 .byte 0x78
 9391 47fe 41       	 .byte 0x41
 9392 47ff 03430000 	 .4byte 0x4303
 9393 4803 26       	 .uleb128 0x26
 9394 4804 5F547000 	 .ascii "_Tp\000"
 9395 4808 53080000 	 .4byte 0x853
 9396 480c 00       	 .byte 0
 9397 480d 23       	 .uleb128 0x23
 9398 480e 9D460000 	 .4byte .LASF423
 9399 4812 843F0000 	 .4byte 0x3f84
ARM GAS   			page 179


 9400 4816 00       	 .byte 0
 9401 4817 4F       	 .uleb128 0x4f
 9402 4818 FB500000 	 .4byte .LASF765
 9403 481c 04       	 .byte 0x4
 9404 481d 26       	 .byte 0x26
 9405 481e BB03     	 .2byte 0x3bb
 9406 4820 0B       	 .byte 0xb
 9407 4821 594A0000 	 .4byte 0x4a59
 9408 4825 50       	 .uleb128 0x50
 9409 4826 AF270000 	 .4byte .LASF793
 9410 482a 26       	 .byte 0x26
 9411 482b BE03     	 .2byte 0x3be
 9412 482d 11       	 .byte 0x11
 9413 482e 48080000 	 .4byte 0x848
 9414 4832 00       	 .byte 0
 9415 4833 02       	 .byte 0x2
 9416 4834 04       	 .uleb128 0x4
 9417 4835 A55F0000 	 .4byte .LASF766
 9418 4839 26       	 .byte 0x26
 9419 483a CE03     	 .2byte 0x3ce
 9420 483c 1A       	 .byte 0x1a
 9421 483d 18690000 	 .4byte .LASF767
 9422 4841 61680000 	 .4byte 0x6861
 9423 4845 01       	 .byte 0x1
 9424 4846 4E480000 	 .4byte 0x484e
 9425 484a 54480000 	 .4byte 0x4854
 9426 484e 03       	 .uleb128 0x3
 9427 484f 61680000 	 .4byte 0x6861
 9428 4853 00       	 .byte 0
 9429 4854 3A       	 .uleb128 0x3a
 9430 4855 A55F0000 	 .4byte .LASF766
 9431 4859 26       	 .byte 0x26
 9432 485a D203     	 .2byte 0x3d2
 9433 485c 07       	 .byte 0x7
 9434 485d 2F670000 	 .4byte .LASF769
 9435 4861 61680000 	 .4byte 0x6861
 9436 4865 01       	 .byte 0x1
 9437 4866 6E480000 	 .4byte 0x486e
 9438 486a 79480000 	 .4byte 0x4879
 9439 486e 03       	 .uleb128 0x3
 9440 486f 61680000 	 .4byte 0x6861
 9441 4873 01       	 .uleb128 0x1
 9442 4874 67680000 	 .4byte 0x6867
 9443 4878 00       	 .byte 0
 9444 4879 27       	 .uleb128 0x27
 9445 487a F7650000 	 .4byte .LASF304
 9446 487e 26       	 .byte 0x26
 9447 487f C703     	 .2byte 0x3c7
 9448 4881 32       	 .byte 0x32
 9449 4882 7A440000 	 .4byte 0x447a
 9450 4886 01       	 .byte 0x1
 9451 4887 04       	 .uleb128 0x4
 9452 4888 E9150000 	 .4byte .LASF770
 9453 488c 26       	 .byte 0x26
 9454 488d E103     	 .2byte 0x3e1
 9455 488f 07       	 .byte 0x7
 9456 4890 17130000 	 .4byte .LASF771
ARM GAS   			page 180


 9457 4894 79480000 	 .4byte 0x4879
 9458 4898 01       	 .byte 0x1
 9459 4899 A1480000 	 .4byte 0x48a1
 9460 489d A7480000 	 .4byte 0x48a7
 9461 48a1 03       	 .uleb128 0x3
 9462 48a2 6D680000 	 .4byte 0x686d
 9463 48a6 00       	 .byte 0
 9464 48a7 27       	 .uleb128 0x27
 9465 48a8 40360000 	 .4byte .LASF177
 9466 48ac 26       	 .byte 0x26
 9467 48ad C803     	 .2byte 0x3c8
 9468 48af 32       	 .byte 0x32
 9469 48b0 6E440000 	 .4byte 0x446e
 9470 48b4 01       	 .byte 0x1
 9471 48b5 04       	 .uleb128 0x4
 9472 48b6 234A0000 	 .4byte .LASF772
 9473 48ba 26       	 .byte 0x26
 9474 48bb E603     	 .2byte 0x3e6
 9475 48bd 07       	 .byte 0x7
 9476 48be 892C0000 	 .4byte .LASF773
 9477 48c2 A7480000 	 .4byte 0x48a7
 9478 48c6 01       	 .byte 0x1
 9479 48c7 CF480000 	 .4byte 0x48cf
 9480 48cb D5480000 	 .4byte 0x48d5
 9481 48cf 03       	 .uleb128 0x3
 9482 48d0 6D680000 	 .4byte 0x686d
 9483 48d4 00       	 .byte 0
 9484 48d5 04       	 .uleb128 0x4
 9485 48d6 2A470000 	 .4byte .LASF774
 9486 48da 26       	 .byte 0x26
 9487 48db EB03     	 .2byte 0x3eb
 9488 48dd 07       	 .byte 0x7
 9489 48de 9F570000 	 .4byte .LASF775
 9490 48e2 73680000 	 .4byte 0x6873
 9491 48e6 01       	 .byte 0x1
 9492 48e7 EF480000 	 .4byte 0x48ef
 9493 48eb F5480000 	 .4byte 0x48f5
 9494 48ef 03       	 .uleb128 0x3
 9495 48f0 61680000 	 .4byte 0x6861
 9496 48f4 00       	 .byte 0
 9497 48f5 04       	 .uleb128 0x4
 9498 48f6 2A470000 	 .4byte .LASF774
 9499 48fa 26       	 .byte 0x26
 9500 48fb F303     	 .2byte 0x3f3
 9501 48fd 07       	 .byte 0x7
 9502 48fe 42570000 	 .4byte .LASF776
 9503 4902 17480000 	 .4byte 0x4817
 9504 4906 01       	 .byte 0x1
 9505 4907 0F490000 	 .4byte 0x490f
 9506 490b 1A490000 	 .4byte 0x491a
 9507 490f 03       	 .uleb128 0x3
 9508 4910 61680000 	 .4byte 0x6861
 9509 4914 01       	 .uleb128 0x1
 9510 4915 46010000 	 .4byte 0x146
 9511 4919 00       	 .byte 0
 9512 491a 04       	 .uleb128 0x4
 9513 491b 30490000 	 .4byte .LASF777
ARM GAS   			page 181


 9514 491f 26       	 .byte 0x26
 9515 4920 F903     	 .2byte 0x3f9
 9516 4922 07       	 .byte 0x7
 9517 4923 D9050000 	 .4byte .LASF778
 9518 4927 73680000 	 .4byte 0x6873
 9519 492b 01       	 .byte 0x1
 9520 492c 34490000 	 .4byte 0x4934
 9521 4930 3A490000 	 .4byte 0x493a
 9522 4934 03       	 .uleb128 0x3
 9523 4935 61680000 	 .4byte 0x6861
 9524 4939 00       	 .byte 0
 9525 493a 04       	 .uleb128 0x4
 9526 493b 30490000 	 .4byte .LASF777
 9527 493f 26       	 .byte 0x26
 9528 4940 0104     	 .2byte 0x401
 9529 4942 07       	 .byte 0x7
 9530 4943 1D030000 	 .4byte .LASF779
 9531 4947 17480000 	 .4byte 0x4817
 9532 494b 01       	 .byte 0x1
 9533 494c 54490000 	 .4byte 0x4954
 9534 4950 5F490000 	 .4byte 0x495f
 9535 4954 03       	 .uleb128 0x3
 9536 4955 61680000 	 .4byte 0x6861
 9537 4959 01       	 .uleb128 0x1
 9538 495a 46010000 	 .4byte 0x146
 9539 495e 00       	 .byte 0
 9540 495f 04       	 .uleb128 0x4
 9541 4960 AE300000 	 .4byte .LASF302
 9542 4964 26       	 .byte 0x26
 9543 4965 0704     	 .2byte 0x407
 9544 4967 07       	 .byte 0x7
 9545 4968 DB2D0000 	 .4byte .LASF780
 9546 496c 79480000 	 .4byte 0x4879
 9547 4970 01       	 .byte 0x1
 9548 4971 79490000 	 .4byte 0x4979
 9549 4975 84490000 	 .4byte 0x4984
 9550 4979 03       	 .uleb128 0x3
 9551 497a 6D680000 	 .4byte 0x686d
 9552 497e 01       	 .uleb128 0x1
 9553 497f 84490000 	 .4byte 0x4984
 9554 4983 00       	 .byte 0
 9555 4984 27       	 .uleb128 0x27
 9556 4985 9E380000 	 .4byte .LASF727
 9557 4989 26       	 .byte 0x26
 9558 498a C603     	 .2byte 0x3c6
 9559 498c 38       	 .byte 0x38
 9560 498d 62440000 	 .4byte 0x4462
 9561 4991 01       	 .byte 0x1
 9562 4992 04       	 .uleb128 0x4
 9563 4993 71460000 	 .4byte .LASF314
 9564 4997 26       	 .byte 0x26
 9565 4998 0C04     	 .2byte 0x40c
 9566 499a 07       	 .byte 0x7
 9567 499b 05220000 	 .4byte .LASF781
 9568 499f 73680000 	 .4byte 0x6873
 9569 49a3 01       	 .byte 0x1
 9570 49a4 AC490000 	 .4byte 0x49ac
ARM GAS   			page 182


 9571 49a8 B7490000 	 .4byte 0x49b7
 9572 49ac 03       	 .uleb128 0x3
 9573 49ad 61680000 	 .4byte 0x6861
 9574 49b1 01       	 .uleb128 0x1
 9575 49b2 84490000 	 .4byte 0x4984
 9576 49b6 00       	 .byte 0
 9577 49b7 04       	 .uleb128 0x4
 9578 49b8 F3150000 	 .4byte .LASF782
 9579 49bc 26       	 .byte 0x26
 9580 49bd 1104     	 .2byte 0x411
 9581 49bf 07       	 .byte 0x7
 9582 49c0 4D430000 	 .4byte .LASF783
 9583 49c4 17480000 	 .4byte 0x4817
 9584 49c8 01       	 .byte 0x1
 9585 49c9 D1490000 	 .4byte 0x49d1
 9586 49cd DC490000 	 .4byte 0x49dc
 9587 49d1 03       	 .uleb128 0x3
 9588 49d2 6D680000 	 .4byte 0x686d
 9589 49d6 01       	 .uleb128 0x1
 9590 49d7 84490000 	 .4byte 0x4984
 9591 49db 00       	 .byte 0
 9592 49dc 04       	 .uleb128 0x4
 9593 49dd 5E500000 	 .4byte .LASF784
 9594 49e1 26       	 .byte 0x26
 9595 49e2 1604     	 .2byte 0x416
 9596 49e4 07       	 .byte 0x7
 9597 49e5 623C0000 	 .4byte .LASF785
 9598 49e9 73680000 	 .4byte 0x6873
 9599 49ed 01       	 .byte 0x1
 9600 49ee F6490000 	 .4byte 0x49f6
 9601 49f2 014A0000 	 .4byte 0x4a01
 9602 49f6 03       	 .uleb128 0x3
 9603 49f7 61680000 	 .4byte 0x6861
 9604 49fb 01       	 .uleb128 0x1
 9605 49fc 84490000 	 .4byte 0x4984
 9606 4a00 00       	 .byte 0
 9607 4a01 04       	 .uleb128 0x4
 9608 4a02 FD150000 	 .4byte .LASF786
 9609 4a06 26       	 .byte 0x26
 9610 4a07 1B04     	 .2byte 0x41b
 9611 4a09 07       	 .byte 0x7
 9612 4a0a 73610000 	 .4byte .LASF787
 9613 4a0e 17480000 	 .4byte 0x4817
 9614 4a12 01       	 .byte 0x1
 9615 4a13 1B4A0000 	 .4byte 0x4a1b
 9616 4a17 264A0000 	 .4byte 0x4a26
 9617 4a1b 03       	 .uleb128 0x3
 9618 4a1c 6D680000 	 .4byte 0x686d
 9619 4a20 01       	 .uleb128 0x1
 9620 4a21 84490000 	 .4byte 0x4984
 9621 4a25 00       	 .byte 0
 9622 4a26 04       	 .uleb128 0x4
 9623 4a27 4B580000 	 .4byte .LASF788
 9624 4a2b 26       	 .byte 0x26
 9625 4a2c 2004     	 .2byte 0x420
 9626 4a2e 07       	 .byte 0x7
 9627 4a2f A02F0000 	 .4byte .LASF789
ARM GAS   			page 183


 9628 4a33 67680000 	 .4byte 0x6867
 9629 4a37 01       	 .byte 0x1
 9630 4a38 404A0000 	 .4byte 0x4a40
 9631 4a3c 464A0000 	 .4byte 0x4a46
 9632 4a40 03       	 .uleb128 0x3
 9633 4a41 6D680000 	 .4byte 0x686d
 9634 4a45 00       	 .byte 0
 9635 4a46 23       	 .uleb128 0x23
 9636 4a47 14560000 	 .4byte .LASF790
 9637 4a4b 48080000 	 .4byte 0x848
 9638 4a4f 23       	 .uleb128 0x23
 9639 4a50 AD2D0000 	 .4byte .LASF791
 9640 4a54 BB0B0000 	 .4byte 0xbbb
 9641 4a58 00       	 .byte 0
 9642 4a59 0A       	 .uleb128 0xa
 9643 4a5a 17480000 	 .4byte 0x4817
 9644 4a5e 4F       	 .uleb128 0x4f
 9645 4a5f E7320000 	 .4byte .LASF792
 9646 4a63 04       	 .byte 0x4
 9647 4a64 26       	 .byte 0x26
 9648 4a65 BB03     	 .2byte 0x3bb
 9649 4a67 0B       	 .byte 0xb
 9650 4a68 A04C0000 	 .4byte 0x4ca0
 9651 4a6c 50       	 .uleb128 0x50
 9652 4a6d AF270000 	 .4byte .LASF793
 9653 4a71 26       	 .byte 0x26
 9654 4a72 BE03     	 .2byte 0x3be
 9655 4a74 11       	 .byte 0x11
 9656 4a75 83080000 	 .4byte 0x883
 9657 4a79 00       	 .byte 0
 9658 4a7a 02       	 .byte 0x2
 9659 4a7b 04       	 .uleb128 0x4
 9660 4a7c A55F0000 	 .4byte .LASF766
 9661 4a80 26       	 .byte 0x26
 9662 4a81 CE03     	 .2byte 0x3ce
 9663 4a83 1A       	 .byte 0x1a
 9664 4a84 F84C0000 	 .4byte .LASF794
 9665 4a88 49680000 	 .4byte 0x6849
 9666 4a8c 01       	 .byte 0x1
 9667 4a8d 954A0000 	 .4byte 0x4a95
 9668 4a91 9B4A0000 	 .4byte 0x4a9b
 9669 4a95 03       	 .uleb128 0x3
 9670 4a96 49680000 	 .4byte 0x6849
 9671 4a9a 00       	 .byte 0
 9672 4a9b 3A       	 .uleb128 0x3a
 9673 4a9c A55F0000 	 .4byte .LASF766
 9674 4aa0 26       	 .byte 0x26
 9675 4aa1 D203     	 .2byte 0x3d2
 9676 4aa3 07       	 .byte 0x7
 9677 4aa4 93310000 	 .4byte .LASF795
 9678 4aa8 49680000 	 .4byte 0x6849
 9679 4aac 01       	 .byte 0x1
 9680 4aad B54A0000 	 .4byte 0x4ab5
 9681 4ab1 C04A0000 	 .4byte 0x4ac0
 9682 4ab5 03       	 .uleb128 0x3
 9683 4ab6 49680000 	 .4byte 0x6849
 9684 4aba 01       	 .uleb128 0x1
ARM GAS   			page 184


 9685 4abb 4F680000 	 .4byte 0x684f
 9686 4abf 00       	 .byte 0
 9687 4ac0 27       	 .uleb128 0x27
 9688 4ac1 F7650000 	 .4byte .LASF304
 9689 4ac5 26       	 .byte 0x26
 9690 4ac6 C703     	 .2byte 0x3c7
 9691 4ac8 32       	 .byte 0x32
 9692 4ac9 A8440000 	 .4byte 0x44a8
 9693 4acd 01       	 .byte 0x1
 9694 4ace 04       	 .uleb128 0x4
 9695 4acf E9150000 	 .4byte .LASF770
 9696 4ad3 26       	 .byte 0x26
 9697 4ad4 E103     	 .2byte 0x3e1
 9698 4ad6 07       	 .byte 0x7
 9699 4ad7 23110000 	 .4byte .LASF796
 9700 4adb C04A0000 	 .4byte 0x4ac0
 9701 4adf 01       	 .byte 0x1
 9702 4ae0 E84A0000 	 .4byte 0x4ae8
 9703 4ae4 EE4A0000 	 .4byte 0x4aee
 9704 4ae8 03       	 .uleb128 0x3
 9705 4ae9 55680000 	 .4byte 0x6855
 9706 4aed 00       	 .byte 0
 9707 4aee 27       	 .uleb128 0x27
 9708 4aef 40360000 	 .4byte .LASF177
 9709 4af3 26       	 .byte 0x26
 9710 4af4 C803     	 .2byte 0x3c8
 9711 4af6 32       	 .byte 0x32
 9712 4af7 9C440000 	 .4byte 0x449c
 9713 4afb 01       	 .byte 0x1
 9714 4afc 04       	 .uleb128 0x4
 9715 4afd 234A0000 	 .4byte .LASF772
 9716 4b01 26       	 .byte 0x26
 9717 4b02 E603     	 .2byte 0x3e6
 9718 4b04 07       	 .byte 0x7
 9719 4b05 4F550000 	 .4byte .LASF797
 9720 4b09 EE4A0000 	 .4byte 0x4aee
 9721 4b0d 01       	 .byte 0x1
 9722 4b0e 164B0000 	 .4byte 0x4b16
 9723 4b12 1C4B0000 	 .4byte 0x4b1c
 9724 4b16 03       	 .uleb128 0x3
 9725 4b17 55680000 	 .4byte 0x6855
 9726 4b1b 00       	 .byte 0
 9727 4b1c 04       	 .uleb128 0x4
 9728 4b1d 2A470000 	 .4byte .LASF774
 9729 4b21 26       	 .byte 0x26
 9730 4b22 EB03     	 .2byte 0x3eb
 9731 4b24 07       	 .byte 0x7
 9732 4b25 5A4E0000 	 .4byte .LASF798
 9733 4b29 5B680000 	 .4byte 0x685b
 9734 4b2d 01       	 .byte 0x1
 9735 4b2e 364B0000 	 .4byte 0x4b36
 9736 4b32 3C4B0000 	 .4byte 0x4b3c
 9737 4b36 03       	 .uleb128 0x3
 9738 4b37 49680000 	 .4byte 0x6849
 9739 4b3b 00       	 .byte 0
 9740 4b3c 04       	 .uleb128 0x4
 9741 4b3d 2A470000 	 .4byte .LASF774
ARM GAS   			page 185


 9742 4b41 26       	 .byte 0x26
 9743 4b42 F303     	 .2byte 0x3f3
 9744 4b44 07       	 .byte 0x7
 9745 4b45 CF290000 	 .4byte .LASF799
 9746 4b49 5E4A0000 	 .4byte 0x4a5e
 9747 4b4d 01       	 .byte 0x1
 9748 4b4e 564B0000 	 .4byte 0x4b56
 9749 4b52 614B0000 	 .4byte 0x4b61
 9750 4b56 03       	 .uleb128 0x3
 9751 4b57 49680000 	 .4byte 0x6849
 9752 4b5b 01       	 .uleb128 0x1
 9753 4b5c 46010000 	 .4byte 0x146
 9754 4b60 00       	 .byte 0
 9755 4b61 04       	 .uleb128 0x4
 9756 4b62 30490000 	 .4byte .LASF777
 9757 4b66 26       	 .byte 0x26
 9758 4b67 F903     	 .2byte 0x3f9
 9759 4b69 07       	 .byte 0x7
 9760 4b6a B76C0000 	 .4byte .LASF800
 9761 4b6e 5B680000 	 .4byte 0x685b
 9762 4b72 01       	 .byte 0x1
 9763 4b73 7B4B0000 	 .4byte 0x4b7b
 9764 4b77 814B0000 	 .4byte 0x4b81
 9765 4b7b 03       	 .uleb128 0x3
 9766 4b7c 49680000 	 .4byte 0x6849
 9767 4b80 00       	 .byte 0
 9768 4b81 04       	 .uleb128 0x4
 9769 4b82 30490000 	 .4byte .LASF777
 9770 4b86 26       	 .byte 0x26
 9771 4b87 0104     	 .2byte 0x401
 9772 4b89 07       	 .byte 0x7
 9773 4b8a 3D6C0000 	 .4byte .LASF801
 9774 4b8e 5E4A0000 	 .4byte 0x4a5e
 9775 4b92 01       	 .byte 0x1
 9776 4b93 9B4B0000 	 .4byte 0x4b9b
 9777 4b97 A64B0000 	 .4byte 0x4ba6
 9778 4b9b 03       	 .uleb128 0x3
 9779 4b9c 49680000 	 .4byte 0x6849
 9780 4ba0 01       	 .uleb128 0x1
 9781 4ba1 46010000 	 .4byte 0x146
 9782 4ba5 00       	 .byte 0
 9783 4ba6 04       	 .uleb128 0x4
 9784 4ba7 AE300000 	 .4byte .LASF302
 9785 4bab 26       	 .byte 0x26
 9786 4bac 0704     	 .2byte 0x407
 9787 4bae 07       	 .byte 0x7
 9788 4baf 84560000 	 .4byte .LASF802
 9789 4bb3 C04A0000 	 .4byte 0x4ac0
 9790 4bb7 01       	 .byte 0x1
 9791 4bb8 C04B0000 	 .4byte 0x4bc0
 9792 4bbc CB4B0000 	 .4byte 0x4bcb
 9793 4bc0 03       	 .uleb128 0x3
 9794 4bc1 55680000 	 .4byte 0x6855
 9795 4bc5 01       	 .uleb128 0x1
 9796 4bc6 CB4B0000 	 .4byte 0x4bcb
 9797 4bca 00       	 .byte 0
 9798 4bcb 27       	 .uleb128 0x27
ARM GAS   			page 186


 9799 4bcc 9E380000 	 .4byte .LASF727
 9800 4bd0 26       	 .byte 0x26
 9801 4bd1 C603     	 .2byte 0x3c6
 9802 4bd3 38       	 .byte 0x38
 9803 4bd4 90440000 	 .4byte 0x4490
 9804 4bd8 01       	 .byte 0x1
 9805 4bd9 04       	 .uleb128 0x4
 9806 4bda 71460000 	 .4byte .LASF314
 9807 4bde 26       	 .byte 0x26
 9808 4bdf 0C04     	 .2byte 0x40c
 9809 4be1 07       	 .byte 0x7
 9810 4be2 FD190000 	 .4byte .LASF803
 9811 4be6 5B680000 	 .4byte 0x685b
 9812 4bea 01       	 .byte 0x1
 9813 4beb F34B0000 	 .4byte 0x4bf3
 9814 4bef FE4B0000 	 .4byte 0x4bfe
 9815 4bf3 03       	 .uleb128 0x3
 9816 4bf4 49680000 	 .4byte 0x6849
 9817 4bf8 01       	 .uleb128 0x1
 9818 4bf9 CB4B0000 	 .4byte 0x4bcb
 9819 4bfd 00       	 .byte 0
 9820 4bfe 04       	 .uleb128 0x4
 9821 4bff F3150000 	 .4byte .LASF782
 9822 4c03 26       	 .byte 0x26
 9823 4c04 1104     	 .2byte 0x411
 9824 4c06 07       	 .byte 0x7
 9825 4c07 6F000000 	 .4byte .LASF804
 9826 4c0b 5E4A0000 	 .4byte 0x4a5e
 9827 4c0f 01       	 .byte 0x1
 9828 4c10 184C0000 	 .4byte 0x4c18
 9829 4c14 234C0000 	 .4byte 0x4c23
 9830 4c18 03       	 .uleb128 0x3
 9831 4c19 55680000 	 .4byte 0x6855
 9832 4c1d 01       	 .uleb128 0x1
 9833 4c1e CB4B0000 	 .4byte 0x4bcb
 9834 4c22 00       	 .byte 0
 9835 4c23 04       	 .uleb128 0x4
 9836 4c24 5E500000 	 .4byte .LASF784
 9837 4c28 26       	 .byte 0x26
 9838 4c29 1604     	 .2byte 0x416
 9839 4c2b 07       	 .byte 0x7
 9840 4c2c DF580000 	 .4byte .LASF805
 9841 4c30 5B680000 	 .4byte 0x685b
 9842 4c34 01       	 .byte 0x1
 9843 4c35 3D4C0000 	 .4byte 0x4c3d
 9844 4c39 484C0000 	 .4byte 0x4c48
 9845 4c3d 03       	 .uleb128 0x3
 9846 4c3e 49680000 	 .4byte 0x6849
 9847 4c42 01       	 .uleb128 0x1
 9848 4c43 CB4B0000 	 .4byte 0x4bcb
 9849 4c47 00       	 .byte 0
 9850 4c48 04       	 .uleb128 0x4
 9851 4c49 FD150000 	 .4byte .LASF786
 9852 4c4d 26       	 .byte 0x26
 9853 4c4e 1B04     	 .2byte 0x41b
 9854 4c50 07       	 .byte 0x7
 9855 4c51 39650000 	 .4byte .LASF806
ARM GAS   			page 187


 9856 4c55 5E4A0000 	 .4byte 0x4a5e
 9857 4c59 01       	 .byte 0x1
 9858 4c5a 624C0000 	 .4byte 0x4c62
 9859 4c5e 6D4C0000 	 .4byte 0x4c6d
 9860 4c62 03       	 .uleb128 0x3
 9861 4c63 55680000 	 .4byte 0x6855
 9862 4c67 01       	 .uleb128 0x1
 9863 4c68 CB4B0000 	 .4byte 0x4bcb
 9864 4c6c 00       	 .byte 0
 9865 4c6d 04       	 .uleb128 0x4
 9866 4c6e 4B580000 	 .4byte .LASF788
 9867 4c72 26       	 .byte 0x26
 9868 4c73 2004     	 .2byte 0x420
 9869 4c75 07       	 .byte 0x7
 9870 4c76 530A0000 	 .4byte .LASF807
 9871 4c7a 4F680000 	 .4byte 0x684f
 9872 4c7e 01       	 .byte 0x1
 9873 4c7f 874C0000 	 .4byte 0x4c87
 9874 4c83 8D4C0000 	 .4byte 0x4c8d
 9875 4c87 03       	 .uleb128 0x3
 9876 4c88 55680000 	 .4byte 0x6855
 9877 4c8c 00       	 .byte 0
 9878 4c8d 23       	 .uleb128 0x23
 9879 4c8e 14560000 	 .4byte .LASF790
 9880 4c92 83080000 	 .4byte 0x883
 9881 4c96 23       	 .uleb128 0x23
 9882 4c97 AD2D0000 	 .4byte .LASF791
 9883 4c9b BB0B0000 	 .4byte 0xbbb
 9884 4c9f 00       	 .byte 0
 9885 4ca0 0A       	 .uleb128 0xa
 9886 4ca1 5E4A0000 	 .4byte 0x4a5e
 9887 4ca5 00       	 .byte 0
 9888 4ca6 12       	 .uleb128 0x12
 9889 4ca7 08       	 .byte 0x8
 9890 4ca8 04       	 .byte 0x4
 9891 4ca9 26540000 	 .4byte .LASF808
 9892 4cad 12       	 .uleb128 0x12
 9893 4cae 04       	 .byte 0x4
 9894 4caf 04       	 .byte 0x4
 9895 4cb0 801A0000 	 .4byte .LASF809
 9896 4cb4 0A       	 .uleb128 0xa
 9897 4cb5 AD4C0000 	 .4byte 0x4cad
 9898 4cb9 06       	 .uleb128 0x6
 9899 4cba 2F070000 	 .4byte .LASF810
 9900 4cbe 27       	 .byte 0x27
 9901 4cbf 96       	 .byte 0x96
 9902 4cc0 14       	 .byte 0x14
 9903 4cc1 AD4C0000 	 .4byte 0x4cad
 9904 4cc5 06       	 .uleb128 0x6
 9905 4cc6 B3170000 	 .4byte .LASF811
 9906 4cca 27       	 .byte 0x27
 9907 4ccb 97       	 .byte 0x97
 9908 4ccc 14       	 .byte 0x14
 9909 4ccd A64C0000 	 .4byte 0x4ca6
 9910 4cd1 31       	 .uleb128 0x31
 9911 4cd2 08       	 .byte 0x8
 9912 4cd3 28       	 .byte 0x28
ARM GAS   			page 188


 9913 4cd4 24       	 .byte 0x24
 9914 4cd5 01       	 .byte 0x1
 9915 4cd6 3D590000 	 .4byte .LASF813
 9916 4cda F94C0000 	 .4byte 0x4cf9
 9917 4cde 08       	 .uleb128 0x8
 9918 4cdf 08260000 	 .4byte .LASF814
 9919 4ce3 28       	 .byte 0x28
 9920 4ce4 25       	 .byte 0x25
 9921 4ce5 07       	 .byte 0x7
 9922 4ce6 46010000 	 .4byte 0x146
 9923 4cea 00       	 .byte 0
 9924 4ceb 1B       	 .uleb128 0x1b
 9925 4cec 72656D00 	 .ascii "rem\000"
 9926 4cf0 28       	 .byte 0x28
 9927 4cf1 26       	 .byte 0x26
 9928 4cf2 07       	 .byte 0x7
 9929 4cf3 46010000 	 .4byte 0x146
 9930 4cf7 04       	 .byte 0x4
 9931 4cf8 00       	 .byte 0
 9932 4cf9 06       	 .uleb128 0x6
 9933 4cfa 56590000 	 .4byte .LASF815
 9934 4cfe 28       	 .byte 0x28
 9935 4cff 27       	 .byte 0x27
 9936 4d00 03       	 .byte 0x3
 9937 4d01 D14C0000 	 .4byte 0x4cd1
 9938 4d05 31       	 .uleb128 0x31
 9939 4d06 08       	 .byte 0x8
 9940 4d07 28       	 .byte 0x28
 9941 4d08 2A       	 .byte 0x2a
 9942 4d09 01       	 .byte 0x1
 9943 4d0a D0320000 	 .4byte .LASF816
 9944 4d0e 2D4D0000 	 .4byte 0x4d2d
 9945 4d12 08       	 .uleb128 0x8
 9946 4d13 08260000 	 .4byte .LASF814
 9947 4d17 28       	 .byte 0x28
 9948 4d18 2B       	 .byte 0x2b
 9949 4d19 08       	 .byte 0x8
 9950 4d1a 7D000000 	 .4byte 0x7d
 9951 4d1e 00       	 .byte 0
 9952 4d1f 1B       	 .uleb128 0x1b
 9953 4d20 72656D00 	 .ascii "rem\000"
 9954 4d24 28       	 .byte 0x28
 9955 4d25 2C       	 .byte 0x2c
 9956 4d26 08       	 .byte 0x8
 9957 4d27 7D000000 	 .4byte 0x7d
 9958 4d2b 04       	 .byte 0x4
 9959 4d2c 00       	 .byte 0
 9960 4d2d 06       	 .uleb128 0x6
 9961 4d2e A7300000 	 .4byte .LASF817
 9962 4d32 28       	 .byte 0x28
 9963 4d33 2D       	 .byte 0x2d
 9964 4d34 03       	 .byte 0x3
 9965 4d35 054D0000 	 .4byte 0x4d05
 9966 4d39 31       	 .uleb128 0x31
 9967 4d3a 10       	 .byte 0x10
 9968 4d3b 28       	 .byte 0x28
 9969 4d3c 31       	 .byte 0x31
ARM GAS   			page 189


 9970 4d3d 01       	 .byte 0x1
 9971 4d3e 33020000 	 .4byte .LASF818
 9972 4d42 614D0000 	 .4byte 0x4d61
 9973 4d46 08       	 .uleb128 0x8
 9974 4d47 08260000 	 .4byte .LASF814
 9975 4d4b 28       	 .byte 0x28
 9976 4d4c 32       	 .byte 0x32
 9977 4d4d 11       	 .byte 0x11
 9978 4d4e A8000000 	 .4byte 0xa8
 9979 4d52 00       	 .byte 0
 9980 4d53 1B       	 .uleb128 0x1b
 9981 4d54 72656D00 	 .ascii "rem\000"
 9982 4d58 28       	 .byte 0x28
 9983 4d59 33       	 .byte 0x33
 9984 4d5a 11       	 .byte 0x11
 9985 4d5b A8000000 	 .4byte 0xa8
 9986 4d5f 08       	 .byte 0x8
 9987 4d60 00       	 .byte 0
 9988 4d61 06       	 .uleb128 0x6
 9989 4d62 372A0000 	 .4byte .LASF819
 9990 4d66 28       	 .byte 0x28
 9991 4d67 34       	 .byte 0x34
 9992 4d68 03       	 .byte 0x3
 9993 4d69 394D0000 	 .4byte 0x4d39
 9994 4d6d 06       	 .uleb128 0x6
 9995 4d6e 9D5B0000 	 .4byte .LASF820
 9996 4d72 28       	 .byte 0x28
 9997 4d73 39       	 .byte 0x39
 9998 4d74 0F       	 .byte 0xf
 9999 4d75 794D0000 	 .4byte 0x4d79
 10000 4d79 09       	 .uleb128 0x9
 10001 4d7a 04       	 .byte 0x4
 10002 4d7b 7F4D0000 	 .4byte 0x4d7f
 10003 4d7f 2B       	 .uleb128 0x2b
 10004 4d80 46010000 	 .4byte 0x146
 10005 4d84 934D0000 	 .4byte 0x4d93
 10006 4d88 01       	 .uleb128 0x1
 10007 4d89 934D0000 	 .4byte 0x4d93
 10008 4d8d 01       	 .uleb128 0x1
 10009 4d8e 934D0000 	 .4byte 0x4d93
 10010 4d92 00       	 .byte 0
 10011 4d93 09       	 .uleb128 0x9
 10012 4d94 04       	 .byte 0x4
 10013 4d95 994D0000 	 .4byte 0x4d99
 10014 4d99 72       	 .uleb128 0x72
 10015 4d9a 02       	 .uleb128 0x2
 10016 4d9b 29       	 .byte 0x29
 10017 4d9c 26       	 .byte 0x26
 10018 4d9d 0C       	 .byte 0xc
 10019 4d9e C9260000 	 .4byte 0x26c9
 10020 4da2 02       	 .uleb128 0x2
 10021 4da3 29       	 .byte 0x29
 10022 4da4 26       	 .byte 0x26
 10023 4da5 0C       	 .byte 0xc
 10024 4da6 E3260000 	 .4byte 0x26e3
 10025 4daa 02       	 .uleb128 0x2
 10026 4dab 29       	 .byte 0x29
ARM GAS   			page 190


 10027 4dac 26       	 .byte 0x26
 10028 4dad 0C       	 .byte 0xc
 10029 4dae FD260000 	 .4byte 0x26fd
 10030 4db2 02       	 .uleb128 0x2
 10031 4db3 29       	 .byte 0x29
 10032 4db4 26       	 .byte 0x26
 10033 4db5 0C       	 .byte 0xc
 10034 4db6 17270000 	 .4byte 0x2717
 10035 4dba 02       	 .uleb128 0x2
 10036 4dbb 29       	 .byte 0x29
 10037 4dbc 26       	 .byte 0x26
 10038 4dbd 0C       	 .byte 0xc
 10039 4dbe 31270000 	 .4byte 0x2731
 10040 4dc2 02       	 .uleb128 0x2
 10041 4dc3 29       	 .byte 0x29
 10042 4dc4 27       	 .byte 0x27
 10043 4dc5 0C       	 .byte 0xc
 10044 4dc6 4B270000 	 .4byte 0x274b
 10045 4dca 02       	 .uleb128 0x2
 10046 4dcb 29       	 .byte 0x29
 10047 4dcc 27       	 .byte 0x27
 10048 4dcd 0C       	 .byte 0xc
 10049 4dce 65270000 	 .4byte 0x2765
 10050 4dd2 02       	 .uleb128 0x2
 10051 4dd3 29       	 .byte 0x29
 10052 4dd4 28       	 .byte 0x28
 10053 4dd5 0C       	 .byte 0xc
 10054 4dd6 7F270000 	 .4byte 0x277f
 10055 4dda 02       	 .uleb128 0x2
 10056 4ddb 29       	 .byte 0x29
 10057 4ddc 28       	 .byte 0x28
 10058 4ddd 0C       	 .byte 0xc
 10059 4dde 99270000 	 .4byte 0x2799
 10060 4de2 02       	 .uleb128 0x2
 10061 4de3 29       	 .byte 0x29
 10062 4de4 29       	 .byte 0x29
 10063 4de5 0C       	 .byte 0xc
 10064 4de6 B3270000 	 .4byte 0x27b3
 10065 4dea 02       	 .uleb128 0x2
 10066 4deb 29       	 .byte 0x29
 10067 4dec 29       	 .byte 0x29
 10068 4ded 0C       	 .byte 0xc
 10069 4dee CD270000 	 .4byte 0x27cd
 10070 4df2 02       	 .uleb128 0x2
 10071 4df3 29       	 .byte 0x29
 10072 4df4 2A       	 .byte 0x2a
 10073 4df5 0C       	 .byte 0xc
 10074 4df6 E7270000 	 .4byte 0x27e7
 10075 4dfa 02       	 .uleb128 0x2
 10076 4dfb 29       	 .byte 0x29
 10077 4dfc 2A       	 .byte 0x2a
 10078 4dfd 0C       	 .byte 0xc
 10079 4dfe 06280000 	 .4byte 0x2806
 10080 4e02 02       	 .uleb128 0x2
 10081 4e03 29       	 .byte 0x29
 10082 4e04 2B       	 .byte 0x2b
 10083 4e05 0C       	 .byte 0xc
ARM GAS   			page 191


 10084 4e06 25280000 	 .4byte 0x2825
 10085 4e0a 02       	 .uleb128 0x2
 10086 4e0b 29       	 .byte 0x29
 10087 4e0c 2B       	 .byte 0x2b
 10088 4e0d 0C       	 .byte 0xc
 10089 4e0e 3F280000 	 .4byte 0x283f
 10090 4e12 02       	 .uleb128 0x2
 10091 4e13 29       	 .byte 0x29
 10092 4e14 2C       	 .byte 0x2c
 10093 4e15 0C       	 .byte 0xc
 10094 4e16 59280000 	 .4byte 0x2859
 10095 4e1a 02       	 .uleb128 0x2
 10096 4e1b 29       	 .byte 0x29
 10097 4e1c 2C       	 .byte 0x2c
 10098 4e1d 0C       	 .byte 0xc
 10099 4e1e 74280000 	 .4byte 0x2874
 10100 4e22 02       	 .uleb128 0x2
 10101 4e23 29       	 .byte 0x29
 10102 4e24 2D       	 .byte 0x2d
 10103 4e25 0C       	 .byte 0xc
 10104 4e26 8F280000 	 .4byte 0x288f
 10105 4e2a 02       	 .uleb128 0x2
 10106 4e2b 29       	 .byte 0x29
 10107 4e2c 2D       	 .byte 0x2d
 10108 4e2d 0C       	 .byte 0xc
 10109 4e2e AA280000 	 .4byte 0x28aa
 10110 4e32 02       	 .uleb128 0x2
 10111 4e33 29       	 .byte 0x29
 10112 4e34 2E       	 .byte 0x2e
 10113 4e35 0C       	 .byte 0xc
 10114 4e36 C5280000 	 .4byte 0x28c5
 10115 4e3a 02       	 .uleb128 0x2
 10116 4e3b 29       	 .byte 0x29
 10117 4e3c 2E       	 .byte 0x2e
 10118 4e3d 0C       	 .byte 0xc
 10119 4e3e DF280000 	 .4byte 0x28df
 10120 4e42 02       	 .uleb128 0x2
 10121 4e43 29       	 .byte 0x29
 10122 4e44 2F       	 .byte 0x2f
 10123 4e45 0C       	 .byte 0xc
 10124 4e46 F9280000 	 .4byte 0x28f9
 10125 4e4a 02       	 .uleb128 0x2
 10126 4e4b 29       	 .byte 0x29
 10127 4e4c 2F       	 .byte 0x2f
 10128 4e4d 0C       	 .byte 0xc
 10129 4e4e 14290000 	 .4byte 0x2914
 10130 4e52 02       	 .uleb128 0x2
 10131 4e53 29       	 .byte 0x29
 10132 4e54 30       	 .byte 0x30
 10133 4e55 0C       	 .byte 0xc
 10134 4e56 2F290000 	 .4byte 0x292f
 10135 4e5a 02       	 .uleb128 0x2
 10136 4e5b 29       	 .byte 0x29
 10137 4e5c 30       	 .byte 0x30
 10138 4e5d 0C       	 .byte 0xc
 10139 4e5e 4A290000 	 .4byte 0x294a
 10140 4e62 02       	 .uleb128 0x2
ARM GAS   			page 192


 10141 4e63 29       	 .byte 0x29
 10142 4e64 31       	 .byte 0x31
 10143 4e65 0C       	 .byte 0xc
 10144 4e66 65290000 	 .4byte 0x2965
 10145 4e6a 02       	 .uleb128 0x2
 10146 4e6b 29       	 .byte 0x29
 10147 4e6c 31       	 .byte 0x31
 10148 4e6d 0C       	 .byte 0xc
 10149 4e6e 7F290000 	 .4byte 0x297f
 10150 4e72 09       	 .uleb128 0x9
 10151 4e73 04       	 .byte 0x4
 10152 4e74 46010000 	 .4byte 0x146
 10153 4e78 02       	 .uleb128 0x2
 10154 4e79 29       	 .byte 0x29
 10155 4e7a 32       	 .byte 0x32
 10156 4e7b 0C       	 .byte 0xc
 10157 4e7c 99290000 	 .4byte 0x2999
 10158 4e80 02       	 .uleb128 0x2
 10159 4e81 29       	 .byte 0x29
 10160 4e82 32       	 .byte 0x32
 10161 4e83 0C       	 .byte 0xc
 10162 4e84 B9290000 	 .4byte 0x29b9
 10163 4e88 02       	 .uleb128 0x2
 10164 4e89 29       	 .byte 0x29
 10165 4e8a 33       	 .byte 0x33
 10166 4e8b 0C       	 .byte 0xc
 10167 4e8c D9290000 	 .4byte 0x29d9
 10168 4e90 02       	 .uleb128 0x2
 10169 4e91 29       	 .byte 0x29
 10170 4e92 33       	 .byte 0x33
 10171 4e93 0C       	 .byte 0xc
 10172 4e94 F9290000 	 .4byte 0x29f9
 10173 4e98 02       	 .uleb128 0x2
 10174 4e99 29       	 .byte 0x29
 10175 4e9a 34       	 .byte 0x34
 10176 4e9b 0C       	 .byte 0xc
 10177 4e9c 192A0000 	 .4byte 0x2a19
 10178 4ea0 02       	 .uleb128 0x2
 10179 4ea1 29       	 .byte 0x29
 10180 4ea2 34       	 .byte 0x34
 10181 4ea3 0C       	 .byte 0xc
 10182 4ea4 342A0000 	 .4byte 0x2a34
 10183 4ea8 02       	 .uleb128 0x2
 10184 4ea9 29       	 .byte 0x29
 10185 4eaa 35       	 .byte 0x35
 10186 4eab 0C       	 .byte 0xc
 10187 4eac 4F2A0000 	 .4byte 0x2a4f
 10188 4eb0 02       	 .uleb128 0x2
 10189 4eb1 29       	 .byte 0x29
 10190 4eb2 35       	 .byte 0x35
 10191 4eb3 0C       	 .byte 0xc
 10192 4eb4 6A2A0000 	 .4byte 0x2a6a
 10193 4eb8 09       	 .uleb128 0x9
 10194 4eb9 04       	 .byte 0x4
 10195 4eba 76010000 	 .4byte 0x176
 10196 4ebe 02       	 .uleb128 0x2
 10197 4ebf 29       	 .byte 0x29
ARM GAS   			page 193


 10198 4ec0 36       	 .byte 0x36
 10199 4ec1 0C       	 .byte 0xc
 10200 4ec2 852A0000 	 .4byte 0x2a85
 10201 4ec6 09       	 .uleb128 0x9
 10202 4ec7 04       	 .byte 0x4
 10203 4ec8 AD4C0000 	 .4byte 0x4cad
 10204 4ecc 02       	 .uleb128 0x2
 10205 4ecd 29       	 .byte 0x29
 10206 4ece 36       	 .byte 0x36
 10207 4ecf 0C       	 .byte 0xc
 10208 4ed0 A52A0000 	 .4byte 0x2aa5
 10209 4ed4 02       	 .uleb128 0x2
 10210 4ed5 29       	 .byte 0x29
 10211 4ed6 37       	 .byte 0x37
 10212 4ed7 0C       	 .byte 0xc
 10213 4ed8 C52A0000 	 .4byte 0x2ac5
 10214 4edc 02       	 .uleb128 0x2
 10215 4edd 29       	 .byte 0x29
 10216 4ede 37       	 .byte 0x37
 10217 4edf 0C       	 .byte 0xc
 10218 4ee0 E52A0000 	 .4byte 0x2ae5
 10219 4ee4 02       	 .uleb128 0x2
 10220 4ee5 29       	 .byte 0x29
 10221 4ee6 38       	 .byte 0x38
 10222 4ee7 0C       	 .byte 0xc
 10223 4ee8 052B0000 	 .4byte 0x2b05
 10224 4eec 02       	 .uleb128 0x2
 10225 4eed 29       	 .byte 0x29
 10226 4eee 38       	 .byte 0x38
 10227 4eef 0C       	 .byte 0xc
 10228 4ef0 202B0000 	 .4byte 0x2b20
 10229 4ef4 02       	 .uleb128 0x2
 10230 4ef5 29       	 .byte 0x29
 10231 4ef6 39       	 .byte 0x39
 10232 4ef7 0C       	 .byte 0xc
 10233 4ef8 3B2B0000 	 .4byte 0x2b3b
 10234 4efc 02       	 .uleb128 0x2
 10235 4efd 29       	 .byte 0x29
 10236 4efe 39       	 .byte 0x39
 10237 4eff 0C       	 .byte 0xc
 10238 4f00 552B0000 	 .4byte 0x2b55
 10239 4f04 02       	 .uleb128 0x2
 10240 4f05 29       	 .byte 0x29
 10241 4f06 3A       	 .byte 0x3a
 10242 4f07 0C       	 .byte 0xc
 10243 4f08 6F2B0000 	 .4byte 0x2b6f
 10244 4f0c 02       	 .uleb128 0x2
 10245 4f0d 29       	 .byte 0x29
 10246 4f0e 3A       	 .byte 0x3a
 10247 4f0f 0C       	 .byte 0xc
 10248 4f10 892B0000 	 .4byte 0x2b89
 10249 4f14 02       	 .uleb128 0x2
 10250 4f15 29       	 .byte 0x29
 10251 4f16 3B       	 .byte 0x3b
 10252 4f17 0C       	 .byte 0xc
 10253 4f18 A32B0000 	 .4byte 0x2ba3
 10254 4f1c 02       	 .uleb128 0x2
ARM GAS   			page 194


 10255 4f1d 29       	 .byte 0x29
 10256 4f1e 3B       	 .byte 0x3b
 10257 4f1f 0C       	 .byte 0xc
 10258 4f20 BE2B0000 	 .4byte 0x2bbe
 10259 4f24 02       	 .uleb128 0x2
 10260 4f25 29       	 .byte 0x29
 10261 4f26 3C       	 .byte 0x3c
 10262 4f27 0C       	 .byte 0xc
 10263 4f28 D92B0000 	 .4byte 0x2bd9
 10264 4f2c 02       	 .uleb128 0x2
 10265 4f2d 29       	 .byte 0x29
 10266 4f2e 3C       	 .byte 0x3c
 10267 4f2f 0C       	 .byte 0xc
 10268 4f30 F92B0000 	 .4byte 0x2bf9
 10269 4f34 02       	 .uleb128 0x2
 10270 4f35 29       	 .byte 0x29
 10271 4f36 3F       	 .byte 0x3f
 10272 4f37 0C       	 .byte 0xc
 10273 4f38 192C0000 	 .4byte 0x2c19
 10274 4f3c 02       	 .uleb128 0x2
 10275 4f3d 29       	 .byte 0x29
 10276 4f3e 3F       	 .byte 0x3f
 10277 4f3f 0C       	 .byte 0xc
 10278 4f40 342C0000 	 .4byte 0x2c34
 10279 4f44 02       	 .uleb128 0x2
 10280 4f45 29       	 .byte 0x29
 10281 4f46 3F       	 .byte 0x3f
 10282 4f47 0C       	 .byte 0xc
 10283 4f48 4F2C0000 	 .4byte 0x2c4f
 10284 4f4c 12       	 .uleb128 0x12
 10285 4f4d 01       	 .byte 0x1
 10286 4f4e 02       	 .byte 0x2
 10287 4f4f F3090000 	 .4byte .LASF821
 10288 4f53 0A       	 .uleb128 0xa
 10289 4f54 4C4F0000 	 .4byte 0x4f4c
 10290 4f58 02       	 .uleb128 0x2
 10291 4f59 29       	 .byte 0x29
 10292 4f5a 40       	 .byte 0x40
 10293 4f5b 0C       	 .byte 0xc
 10294 4f5c 6A2C0000 	 .4byte 0x2c6a
 10295 4f60 02       	 .uleb128 0x2
 10296 4f61 29       	 .byte 0x29
 10297 4f62 40       	 .byte 0x40
 10298 4f63 0C       	 .byte 0xc
 10299 4f64 852C0000 	 .4byte 0x2c85
 10300 4f68 02       	 .uleb128 0x2
 10301 4f69 29       	 .byte 0x29
 10302 4f6a 40       	 .byte 0x40
 10303 4f6b 0C       	 .byte 0xc
 10304 4f6c A02C0000 	 .4byte 0x2ca0
 10305 4f70 02       	 .uleb128 0x2
 10306 4f71 29       	 .byte 0x29
 10307 4f72 41       	 .byte 0x41
 10308 4f73 0C       	 .byte 0xc
 10309 4f74 BB2C0000 	 .4byte 0x2cbb
 10310 4f78 02       	 .uleb128 0x2
 10311 4f79 29       	 .byte 0x29
ARM GAS   			page 195


 10312 4f7a 41       	 .byte 0x41
 10313 4f7b 0C       	 .byte 0xc
 10314 4f7c D62C0000 	 .4byte 0x2cd6
 10315 4f80 02       	 .uleb128 0x2
 10316 4f81 29       	 .byte 0x29
 10317 4f82 41       	 .byte 0x41
 10318 4f83 0C       	 .byte 0xc
 10319 4f84 F12C0000 	 .4byte 0x2cf1
 10320 4f88 02       	 .uleb128 0x2
 10321 4f89 29       	 .byte 0x29
 10322 4f8a 42       	 .byte 0x42
 10323 4f8b 0C       	 .byte 0xc
 10324 4f8c 0C2D0000 	 .4byte 0x2d0c
 10325 4f90 02       	 .uleb128 0x2
 10326 4f91 29       	 .byte 0x29
 10327 4f92 42       	 .byte 0x42
 10328 4f93 0C       	 .byte 0xc
 10329 4f94 272D0000 	 .4byte 0x2d27
 10330 4f98 02       	 .uleb128 0x2
 10331 4f99 29       	 .byte 0x29
 10332 4f9a 42       	 .byte 0x42
 10333 4f9b 0C       	 .byte 0xc
 10334 4f9c 422D0000 	 .4byte 0x2d42
 10335 4fa0 02       	 .uleb128 0x2
 10336 4fa1 29       	 .byte 0x29
 10337 4fa2 43       	 .byte 0x43
 10338 4fa3 0C       	 .byte 0xc
 10339 4fa4 5D2D0000 	 .4byte 0x2d5d
 10340 4fa8 02       	 .uleb128 0x2
 10341 4fa9 29       	 .byte 0x29
 10342 4faa 43       	 .byte 0x43
 10343 4fab 0C       	 .byte 0xc
 10344 4fac 782D0000 	 .4byte 0x2d78
 10345 4fb0 02       	 .uleb128 0x2
 10346 4fb1 29       	 .byte 0x29
 10347 4fb2 43       	 .byte 0x43
 10348 4fb3 0C       	 .byte 0xc
 10349 4fb4 932D0000 	 .4byte 0x2d93
 10350 4fb8 02       	 .uleb128 0x2
 10351 4fb9 29       	 .byte 0x29
 10352 4fba 44       	 .byte 0x44
 10353 4fbb 0C       	 .byte 0xc
 10354 4fbc AE2D0000 	 .4byte 0x2dae
 10355 4fc0 02       	 .uleb128 0x2
 10356 4fc1 29       	 .byte 0x29
 10357 4fc2 44       	 .byte 0x44
 10358 4fc3 0C       	 .byte 0xc
 10359 4fc4 C92D0000 	 .4byte 0x2dc9
 10360 4fc8 02       	 .uleb128 0x2
 10361 4fc9 29       	 .byte 0x29
 10362 4fca 44       	 .byte 0x44
 10363 4fcb 0C       	 .byte 0xc
 10364 4fcc E42D0000 	 .4byte 0x2de4
 10365 4fd0 02       	 .uleb128 0x2
 10366 4fd1 29       	 .byte 0x29
 10367 4fd2 45       	 .byte 0x45
 10368 4fd3 0C       	 .byte 0xc
ARM GAS   			page 196


 10369 4fd4 FF2D0000 	 .4byte 0x2dff
 10370 4fd8 02       	 .uleb128 0x2
 10371 4fd9 29       	 .byte 0x29
 10372 4fda 45       	 .byte 0x45
 10373 4fdb 0C       	 .byte 0xc
 10374 4fdc 1F2E0000 	 .4byte 0x2e1f
 10375 4fe0 02       	 .uleb128 0x2
 10376 4fe1 29       	 .byte 0x29
 10377 4fe2 45       	 .byte 0x45
 10378 4fe3 0C       	 .byte 0xc
 10379 4fe4 3F2E0000 	 .4byte 0x2e3f
 10380 4fe8 02       	 .uleb128 0x2
 10381 4fe9 29       	 .byte 0x29
 10382 4fea 46       	 .byte 0x46
 10383 4feb 0C       	 .byte 0xc
 10384 4fec 5F2E0000 	 .4byte 0x2e5f
 10385 4ff0 02       	 .uleb128 0x2
 10386 4ff1 29       	 .byte 0x29
 10387 4ff2 46       	 .byte 0x46
 10388 4ff3 0C       	 .byte 0xc
 10389 4ff4 7F2E0000 	 .4byte 0x2e7f
 10390 4ff8 02       	 .uleb128 0x2
 10391 4ff9 29       	 .byte 0x29
 10392 4ffa 46       	 .byte 0x46
 10393 4ffb 0C       	 .byte 0xc
 10394 4ffc 9F2E0000 	 .4byte 0x2e9f
 10395 5000 02       	 .uleb128 0x2
 10396 5001 29       	 .byte 0x29
 10397 5002 47       	 .byte 0x47
 10398 5003 0C       	 .byte 0xc
 10399 5004 BF2E0000 	 .4byte 0x2ebf
 10400 5008 02       	 .uleb128 0x2
 10401 5009 29       	 .byte 0x29
 10402 500a 47       	 .byte 0x47
 10403 500b 0C       	 .byte 0xc
 10404 500c DF2E0000 	 .4byte 0x2edf
 10405 5010 02       	 .uleb128 0x2
 10406 5011 29       	 .byte 0x29
 10407 5012 47       	 .byte 0x47
 10408 5013 0C       	 .byte 0xc
 10409 5014 FF2E0000 	 .4byte 0x2eff
 10410 5018 02       	 .uleb128 0x2
 10411 5019 29       	 .byte 0x29
 10412 501a 48       	 .byte 0x48
 10413 501b 0C       	 .byte 0xc
 10414 501c 1F2F0000 	 .4byte 0x2f1f
 10415 5020 02       	 .uleb128 0x2
 10416 5021 29       	 .byte 0x29
 10417 5022 48       	 .byte 0x48
 10418 5023 0C       	 .byte 0xc
 10419 5024 3F2F0000 	 .4byte 0x2f3f
 10420 5028 02       	 .uleb128 0x2
 10421 5029 29       	 .byte 0x29
 10422 502a 48       	 .byte 0x48
 10423 502b 0C       	 .byte 0xc
 10424 502c 5F2F0000 	 .4byte 0x2f5f
 10425 5030 02       	 .uleb128 0x2
ARM GAS   			page 197


 10426 5031 29       	 .byte 0x29
 10427 5032 49       	 .byte 0x49
 10428 5033 0C       	 .byte 0xc
 10429 5034 7F2F0000 	 .4byte 0x2f7f
 10430 5038 02       	 .uleb128 0x2
 10431 5039 29       	 .byte 0x29
 10432 503a 49       	 .byte 0x49
 10433 503b 0C       	 .byte 0xc
 10434 503c 9F2F0000 	 .4byte 0x2f9f
 10435 5040 02       	 .uleb128 0x2
 10436 5041 29       	 .byte 0x29
 10437 5042 49       	 .byte 0x49
 10438 5043 0C       	 .byte 0xc
 10439 5044 BF2F0000 	 .4byte 0x2fbf
 10440 5048 02       	 .uleb128 0x2
 10441 5049 29       	 .byte 0x29
 10442 504a 4A       	 .byte 0x4a
 10443 504b 0C       	 .byte 0xc
 10444 504c DF2F0000 	 .4byte 0x2fdf
 10445 5050 02       	 .uleb128 0x2
 10446 5051 29       	 .byte 0x29
 10447 5052 4A       	 .byte 0x4a
 10448 5053 0C       	 .byte 0xc
 10449 5054 FF2F0000 	 .4byte 0x2fff
 10450 5058 02       	 .uleb128 0x2
 10451 5059 29       	 .byte 0x29
 10452 505a 4A       	 .byte 0x4a
 10453 505b 0C       	 .byte 0xc
 10454 505c 1F300000 	 .4byte 0x301f
 10455 5060 02       	 .uleb128 0x2
 10456 5061 29       	 .byte 0x29
 10457 5062 4E       	 .byte 0x4e
 10458 5063 0C       	 .byte 0xc
 10459 5064 3F300000 	 .4byte 0x303f
 10460 5068 02       	 .uleb128 0x2
 10461 5069 29       	 .byte 0x29
 10462 506a 4E       	 .byte 0x4e
 10463 506b 0C       	 .byte 0xc
 10464 506c 5A300000 	 .4byte 0x305a
 10465 5070 02       	 .uleb128 0x2
 10466 5071 29       	 .byte 0x29
 10467 5072 4F       	 .byte 0x4f
 10468 5073 0C       	 .byte 0xc
 10469 5074 75300000 	 .4byte 0x3075
 10470 5078 02       	 .uleb128 0x2
 10471 5079 29       	 .byte 0x29
 10472 507a 4F       	 .byte 0x4f
 10473 507b 0C       	 .byte 0xc
 10474 507c 90300000 	 .4byte 0x3090
 10475 5080 02       	 .uleb128 0x2
 10476 5081 29       	 .byte 0x29
 10477 5082 50       	 .byte 0x50
 10478 5083 0C       	 .byte 0xc
 10479 5084 AB300000 	 .4byte 0x30ab
 10480 5088 02       	 .uleb128 0x2
 10481 5089 29       	 .byte 0x29
 10482 508a 50       	 .byte 0x50
ARM GAS   			page 198


 10483 508b 0C       	 .byte 0xc
 10484 508c C6300000 	 .4byte 0x30c6
 10485 5090 02       	 .uleb128 0x2
 10486 5091 29       	 .byte 0x29
 10487 5092 51       	 .byte 0x51
 10488 5093 0C       	 .byte 0xc
 10489 5094 E1300000 	 .4byte 0x30e1
 10490 5098 02       	 .uleb128 0x2
 10491 5099 29       	 .byte 0x29
 10492 509a 51       	 .byte 0x51
 10493 509b 0C       	 .byte 0xc
 10494 509c FC300000 	 .4byte 0x30fc
 10495 50a0 02       	 .uleb128 0x2
 10496 50a1 29       	 .byte 0x29
 10497 50a2 52       	 .byte 0x52
 10498 50a3 0C       	 .byte 0xc
 10499 50a4 17310000 	 .4byte 0x3117
 10500 50a8 02       	 .uleb128 0x2
 10501 50a9 29       	 .byte 0x29
 10502 50aa 52       	 .byte 0x52
 10503 50ab 0C       	 .byte 0xc
 10504 50ac 37310000 	 .4byte 0x3137
 10505 50b0 02       	 .uleb128 0x2
 10506 50b1 29       	 .byte 0x29
 10507 50b2 53       	 .byte 0x53
 10508 50b3 0C       	 .byte 0xc
 10509 50b4 57310000 	 .4byte 0x3157
 10510 50b8 02       	 .uleb128 0x2
 10511 50b9 29       	 .byte 0x29
 10512 50ba 53       	 .byte 0x53
 10513 50bb 0C       	 .byte 0xc
 10514 50bc 72310000 	 .4byte 0x3172
 10515 50c0 02       	 .uleb128 0x2
 10516 50c1 29       	 .byte 0x29
 10517 50c2 54       	 .byte 0x54
 10518 50c3 0C       	 .byte 0xc
 10519 50c4 8D310000 	 .4byte 0x318d
 10520 50c8 02       	 .uleb128 0x2
 10521 50c9 29       	 .byte 0x29
 10522 50ca 54       	 .byte 0x54
 10523 50cb 0C       	 .byte 0xc
 10524 50cc A8310000 	 .4byte 0x31a8
 10525 50d0 02       	 .uleb128 0x2
 10526 50d1 29       	 .byte 0x29
 10527 50d2 55       	 .byte 0x55
 10528 50d3 0C       	 .byte 0xc
 10529 50d4 C3310000 	 .4byte 0x31c3
 10530 50d8 02       	 .uleb128 0x2
 10531 50d9 29       	 .byte 0x29
 10532 50da 55       	 .byte 0x55
 10533 50db 0C       	 .byte 0xc
 10534 50dc DE310000 	 .4byte 0x31de
 10535 50e0 02       	 .uleb128 0x2
 10536 50e1 29       	 .byte 0x29
 10537 50e2 56       	 .byte 0x56
 10538 50e3 0C       	 .byte 0xc
 10539 50e4 F9310000 	 .4byte 0x31f9
ARM GAS   			page 199


 10540 50e8 02       	 .uleb128 0x2
 10541 50e9 29       	 .byte 0x29
 10542 50ea 56       	 .byte 0x56
 10543 50eb 0C       	 .byte 0xc
 10544 50ec 14320000 	 .4byte 0x3214
 10545 50f0 02       	 .uleb128 0x2
 10546 50f1 29       	 .byte 0x29
 10547 50f2 57       	 .byte 0x57
 10548 50f3 0C       	 .byte 0xc
 10549 50f4 2F320000 	 .4byte 0x322f
 10550 50f8 02       	 .uleb128 0x2
 10551 50f9 29       	 .byte 0x29
 10552 50fa 57       	 .byte 0x57
 10553 50fb 0C       	 .byte 0xc
 10554 50fc 4F320000 	 .4byte 0x324f
 10555 5100 02       	 .uleb128 0x2
 10556 5101 29       	 .byte 0x29
 10557 5102 58       	 .byte 0x58
 10558 5103 0C       	 .byte 0xc
 10559 5104 6F320000 	 .4byte 0x326f
 10560 5108 02       	 .uleb128 0x2
 10561 5109 29       	 .byte 0x29
 10562 510a 58       	 .byte 0x58
 10563 510b 0C       	 .byte 0xc
 10564 510c 94320000 	 .4byte 0x3294
 10565 5110 02       	 .uleb128 0x2
 10566 5111 29       	 .byte 0x29
 10567 5112 59       	 .byte 0x59
 10568 5113 0C       	 .byte 0xc
 10569 5114 B9320000 	 .4byte 0x32b9
 10570 5118 02       	 .uleb128 0x2
 10571 5119 29       	 .byte 0x29
 10572 511a 59       	 .byte 0x59
 10573 511b 0C       	 .byte 0xc
 10574 511c D9320000 	 .4byte 0x32d9
 10575 5120 02       	 .uleb128 0x2
 10576 5121 29       	 .byte 0x29
 10577 5122 5A       	 .byte 0x5a
 10578 5123 0C       	 .byte 0xc
 10579 5124 F9320000 	 .4byte 0x32f9
 10580 5128 02       	 .uleb128 0x2
 10581 5129 29       	 .byte 0x29
 10582 512a 5A       	 .byte 0x5a
 10583 512b 0C       	 .byte 0xc
 10584 512c 19330000 	 .4byte 0x3319
 10585 5130 02       	 .uleb128 0x2
 10586 5131 29       	 .byte 0x29
 10587 5132 5B       	 .byte 0x5b
 10588 5133 0C       	 .byte 0xc
 10589 5134 39330000 	 .4byte 0x3339
 10590 5138 02       	 .uleb128 0x2
 10591 5139 29       	 .byte 0x29
 10592 513a 5B       	 .byte 0x5b
 10593 513b 0C       	 .byte 0xc
 10594 513c 59330000 	 .4byte 0x3359
 10595 5140 02       	 .uleb128 0x2
 10596 5141 29       	 .byte 0x29
ARM GAS   			page 200


 10597 5142 5C       	 .byte 0x5c
 10598 5143 0C       	 .byte 0xc
 10599 5144 79330000 	 .4byte 0x3379
 10600 5148 02       	 .uleb128 0x2
 10601 5149 29       	 .byte 0x29
 10602 514a 5C       	 .byte 0x5c
 10603 514b 0C       	 .byte 0xc
 10604 514c 94330000 	 .4byte 0x3394
 10605 5150 02       	 .uleb128 0x2
 10606 5151 29       	 .byte 0x29
 10607 5152 5D       	 .byte 0x5d
 10608 5153 0C       	 .byte 0xc
 10609 5154 AF330000 	 .4byte 0x33af
 10610 5158 02       	 .uleb128 0x2
 10611 5159 29       	 .byte 0x29
 10612 515a 5D       	 .byte 0x5d
 10613 515b 0C       	 .byte 0xc
 10614 515c CA330000 	 .4byte 0x33ca
 10615 5160 02       	 .uleb128 0x2
 10616 5161 29       	 .byte 0x29
 10617 5162 5E       	 .byte 0x5e
 10618 5163 0C       	 .byte 0xc
 10619 5164 E5330000 	 .4byte 0x33e5
 10620 5168 02       	 .uleb128 0x2
 10621 5169 29       	 .byte 0x29
 10622 516a 5E       	 .byte 0x5e
 10623 516b 0C       	 .byte 0xc
 10624 516c 00340000 	 .4byte 0x3400
 10625 5170 02       	 .uleb128 0x2
 10626 5171 29       	 .byte 0x29
 10627 5172 5F       	 .byte 0x5f
 10628 5173 0C       	 .byte 0xc
 10629 5174 1B340000 	 .4byte 0x341b
 10630 5178 02       	 .uleb128 0x2
 10631 5179 29       	 .byte 0x29
 10632 517a 5F       	 .byte 0x5f
 10633 517b 0C       	 .byte 0xc
 10634 517c 36340000 	 .4byte 0x3436
 10635 5180 02       	 .uleb128 0x2
 10636 5181 29       	 .byte 0x29
 10637 5182 60       	 .byte 0x60
 10638 5183 0C       	 .byte 0xc
 10639 5184 51340000 	 .4byte 0x3451
 10640 5188 02       	 .uleb128 0x2
 10641 5189 29       	 .byte 0x29
 10642 518a 60       	 .byte 0x60
 10643 518b 0C       	 .byte 0xc
 10644 518c 6C340000 	 .4byte 0x346c
 10645 5190 02       	 .uleb128 0x2
 10646 5191 29       	 .byte 0x29
 10647 5192 61       	 .byte 0x61
 10648 5193 0C       	 .byte 0xc
 10649 5194 87340000 	 .4byte 0x3487
 10650 5198 02       	 .uleb128 0x2
 10651 5199 29       	 .byte 0x29
 10652 519a 61       	 .byte 0x61
 10653 519b 0C       	 .byte 0xc
ARM GAS   			page 201


 10654 519c A2340000 	 .4byte 0x34a2
 10655 51a0 02       	 .uleb128 0x2
 10656 51a1 29       	 .byte 0x29
 10657 51a2 62       	 .byte 0x62
 10658 51a3 0C       	 .byte 0xc
 10659 51a4 BD340000 	 .4byte 0x34bd
 10660 51a8 02       	 .uleb128 0x2
 10661 51a9 29       	 .byte 0x29
 10662 51aa 62       	 .byte 0x62
 10663 51ab 0C       	 .byte 0xc
 10664 51ac D8340000 	 .4byte 0x34d8
 10665 51b0 02       	 .uleb128 0x2
 10666 51b1 29       	 .byte 0x29
 10667 51b2 63       	 .byte 0x63
 10668 51b3 0C       	 .byte 0xc
 10669 51b4 F3340000 	 .4byte 0x34f3
 10670 51b8 02       	 .uleb128 0x2
 10671 51b9 29       	 .byte 0x29
 10672 51ba 63       	 .byte 0x63
 10673 51bb 0C       	 .byte 0xc
 10674 51bc 0E350000 	 .4byte 0x350e
 10675 51c0 02       	 .uleb128 0x2
 10676 51c1 29       	 .byte 0x29
 10677 51c2 64       	 .byte 0x64
 10678 51c3 0C       	 .byte 0xc
 10679 51c4 29350000 	 .4byte 0x3529
 10680 51c8 02       	 .uleb128 0x2
 10681 51c9 29       	 .byte 0x29
 10682 51ca 64       	 .byte 0x64
 10683 51cb 0C       	 .byte 0xc
 10684 51cc 44350000 	 .4byte 0x3544
 10685 51d0 02       	 .uleb128 0x2
 10686 51d1 29       	 .byte 0x29
 10687 51d2 65       	 .byte 0x65
 10688 51d3 0C       	 .byte 0xc
 10689 51d4 5F350000 	 .4byte 0x355f
 10690 51d8 02       	 .uleb128 0x2
 10691 51d9 29       	 .byte 0x29
 10692 51da 65       	 .byte 0x65
 10693 51db 0C       	 .byte 0xc
 10694 51dc 7A350000 	 .4byte 0x357a
 10695 51e0 02       	 .uleb128 0x2
 10696 51e1 29       	 .byte 0x29
 10697 51e2 66       	 .byte 0x66
 10698 51e3 0C       	 .byte 0xc
 10699 51e4 95350000 	 .4byte 0x3595
 10700 51e8 02       	 .uleb128 0x2
 10701 51e9 29       	 .byte 0x29
 10702 51ea 66       	 .byte 0x66
 10703 51eb 0C       	 .byte 0xc
 10704 51ec B5350000 	 .4byte 0x35b5
 10705 51f0 02       	 .uleb128 0x2
 10706 51f1 29       	 .byte 0x29
 10707 51f2 67       	 .byte 0x67
 10708 51f3 0C       	 .byte 0xc
 10709 51f4 D5350000 	 .4byte 0x35d5
 10710 51f8 02       	 .uleb128 0x2
ARM GAS   			page 202


 10711 51f9 29       	 .byte 0x29
 10712 51fa 67       	 .byte 0x67
 10713 51fb 0C       	 .byte 0xc
 10714 51fc F5350000 	 .4byte 0x35f5
 10715 5200 02       	 .uleb128 0x2
 10716 5201 29       	 .byte 0x29
 10717 5202 68       	 .byte 0x68
 10718 5203 0C       	 .byte 0xc
 10719 5204 15360000 	 .4byte 0x3615
 10720 5208 02       	 .uleb128 0x2
 10721 5209 29       	 .byte 0x29
 10722 520a 68       	 .byte 0x68
 10723 520b 0C       	 .byte 0xc
 10724 520c 35360000 	 .4byte 0x3635
 10725 5210 02       	 .uleb128 0x2
 10726 5211 29       	 .byte 0x29
 10727 5212 69       	 .byte 0x69
 10728 5213 0C       	 .byte 0xc
 10729 5214 55360000 	 .4byte 0x3655
 10730 5218 02       	 .uleb128 0x2
 10731 5219 29       	 .byte 0x29
 10732 521a 69       	 .byte 0x69
 10733 521b 0C       	 .byte 0xc
 10734 521c 7A360000 	 .4byte 0x367a
 10735 5220 02       	 .uleb128 0x2
 10736 5221 29       	 .byte 0x29
 10737 5222 6A       	 .byte 0x6a
 10738 5223 0C       	 .byte 0xc
 10739 5224 9F360000 	 .4byte 0x369f
 10740 5228 02       	 .uleb128 0x2
 10741 5229 29       	 .byte 0x29
 10742 522a 6A       	 .byte 0x6a
 10743 522b 0C       	 .byte 0xc
 10744 522c BA360000 	 .4byte 0x36ba
 10745 5230 02       	 .uleb128 0x2
 10746 5231 29       	 .byte 0x29
 10747 5232 6B       	 .byte 0x6b
 10748 5233 0C       	 .byte 0xc
 10749 5234 D5360000 	 .4byte 0x36d5
 10750 5238 02       	 .uleb128 0x2
 10751 5239 29       	 .byte 0x29
 10752 523a 6B       	 .byte 0x6b
 10753 523b 0C       	 .byte 0xc
 10754 523c F0360000 	 .4byte 0x36f0
 10755 5240 02       	 .uleb128 0x2
 10756 5241 29       	 .byte 0x29
 10757 5242 6C       	 .byte 0x6c
 10758 5243 0C       	 .byte 0xc
 10759 5244 0B370000 	 .4byte 0x370b
 10760 5248 02       	 .uleb128 0x2
 10761 5249 29       	 .byte 0x29
 10762 524a 6C       	 .byte 0x6c
 10763 524b 0C       	 .byte 0xc
 10764 524c 2B370000 	 .4byte 0x372b
 10765 5250 02       	 .uleb128 0x2
 10766 5251 29       	 .byte 0x29
 10767 5252 6D       	 .byte 0x6d
ARM GAS   			page 203


 10768 5253 0C       	 .byte 0xc
 10769 5254 4B370000 	 .4byte 0x374b
 10770 5258 02       	 .uleb128 0x2
 10771 5259 29       	 .byte 0x29
 10772 525a 6D       	 .byte 0x6d
 10773 525b 0C       	 .byte 0xc
 10774 525c 6B370000 	 .4byte 0x376b
 10775 5260 02       	 .uleb128 0x2
 10776 5261 29       	 .byte 0x29
 10777 5262 6E       	 .byte 0x6e
 10778 5263 0C       	 .byte 0xc
 10779 5264 8B370000 	 .4byte 0x378b
 10780 5268 02       	 .uleb128 0x2
 10781 5269 29       	 .byte 0x29
 10782 526a 6E       	 .byte 0x6e
 10783 526b 0C       	 .byte 0xc
 10784 526c A6370000 	 .4byte 0x37a6
 10785 5270 02       	 .uleb128 0x2
 10786 5271 29       	 .byte 0x29
 10787 5272 6F       	 .byte 0x6f
 10788 5273 0C       	 .byte 0xc
 10789 5274 C1370000 	 .4byte 0x37c1
 10790 5278 02       	 .uleb128 0x2
 10791 5279 29       	 .byte 0x29
 10792 527a 6F       	 .byte 0x6f
 10793 527b 0C       	 .byte 0xc
 10794 527c DC370000 	 .4byte 0x37dc
 10795 5280 73       	 .uleb128 0x73
 10796 5281 504900   	 .ascii "PI\000"
 10797 5284 2A       	 .byte 0x2a
 10798 5285 15       	 .byte 0x15
 10799 5286 19       	 .byte 0x19
 10800 5287 B44C0000 	 .4byte 0x4cb4
 10801 528b 05       	 .uleb128 0x5
 10802 528c 03       	 .byte 0x3
 10803 528d 00000000 	 .4byte _ZL2PI
 10804 5291 3F       	 .uleb128 0x3f
 10805 5292 C92D0000 	 .4byte .LASF822
 10806 5296 2A       	 .byte 0x2a
 10807 5297 16       	 .byte 0x16
 10808 5298 19       	 .byte 0x19
 10809 5299 B44C0000 	 .4byte 0x4cb4
 10810 529d 05       	 .uleb128 0x5
 10811 529e 03       	 .byte 0x3
 10812 529f 00000000 	 .4byte _ZL6TweePI
 10813 52a3 3F       	 .uleb128 0x3f
 10814 52a4 C2410000 	 .4byte .LASF823
 10815 52a8 2A       	 .byte 0x2a
 10816 52a9 17       	 .byte 0x17
 10817 52aa 19       	 .byte 0x19
 10818 52ab B44C0000 	 .4byte 0x4cb4
 10819 52af 05       	 .uleb128 0x5
 10820 52b0 03       	 .byte 0x3
 10821 52b1 00000000 	 .4byte _ZL5TwoPI
 10822 52b5 06       	 .uleb128 0x6
 10823 52b6 BA4D0000 	 .4byte .LASF824
 10824 52ba 2A       	 .byte 0x2a
ARM GAS   			page 204


 10825 52bb 4B       	 .byte 0x4b
 10826 52bc 13       	 .byte 0x13
 10827 52bd 5A0A0000 	 .4byte 0xa5a
 10828 52c1 0A       	 .uleb128 0xa
 10829 52c2 B5520000 	 .4byte 0x52b5
 10830 52c6 06       	 .uleb128 0x6
 10831 52c7 6E510000 	 .4byte .LASF825
 10832 52cb 2A       	 .byte 0x2a
 10833 52cc 4D       	 .byte 0x4d
 10834 52cd 13       	 .byte 0x13
 10835 52ce 720A0000 	 .4byte 0xa72
 10836 52d2 0A       	 .uleb128 0xa
 10837 52d3 C6520000 	 .4byte 0x52c6
 10838 52d7 40       	 .uleb128 0x40
 10839 52d8 3F0F0000 	 .4byte .LASF996
 10840 52dc 05       	 .byte 0x5
 10841 52dd 04       	 .byte 0x4
 10842 52de 46010000 	 .4byte 0x146
 10843 52e2 2A       	 .byte 0x2a
 10844 52e3 53       	 .byte 0x53
 10845 52e4 0C       	 .byte 0xc
 10846 52e5 13530000 	 .4byte 0x5313
 10847 52e9 74       	 .uleb128 0x74
 10848 52ea 4F6B00   	 .ascii "Ok\000"
 10849 52ed 00       	 .byte 0
 10850 52ee 0E       	 .uleb128 0xe
 10851 52ef 5D390000 	 .4byte .LASF826
 10852 52f3 01       	 .byte 0x1
 10853 52f4 0E       	 .uleb128 0xe
 10854 52f5 DB490000 	 .4byte .LASF827
 10855 52f9 02       	 .byte 0x2
 10856 52fa 0E       	 .uleb128 0xe
 10857 52fb 58330000 	 .4byte .LASF828
 10858 52ff 03       	 .byte 0x3
 10859 5300 0E       	 .uleb128 0xe
 10860 5301 E95F0000 	 .4byte .LASF829
 10861 5305 04       	 .byte 0x4
 10862 5306 0E       	 .uleb128 0xe
 10863 5307 7C540000 	 .4byte .LASF830
 10864 530b 05       	 .byte 0x5
 10865 530c 0E       	 .uleb128 0xe
 10866 530d 4F3C0000 	 .4byte .LASF831
 10867 5311 06       	 .byte 0x6
 10868 5312 00       	 .byte 0
 10869 5313 06       	 .uleb128 0x6
 10870 5314 8B150000 	 .4byte .LASF832
 10871 5318 2A       	 .byte 0x2a
 10872 5319 6F       	 .byte 0x6f
 10873 531a 10       	 .byte 0x10
 10874 531b C6520000 	 .4byte 0x52c6
 10875 531f 0A       	 .uleb128 0xa
 10876 5320 13530000 	 .4byte 0x5313
 10877 5324 09       	 .uleb128 0x9
 10878 5325 04       	 .byte 0x4
 10879 5326 03380000 	 .4byte 0x3803
 10880 532a 09       	 .uleb128 0x9
 10881 532b 04       	 .byte 0x4
ARM GAS   			page 205


 10882 532c E4390000 	 .4byte 0x39e4
 10883 5330 0D       	 .uleb128 0xd
 10884 5331 04       	 .byte 0x4
 10885 5332 E4390000 	 .4byte 0x39e4
 10886 5336 2E       	 .uleb128 0x2e
 10887 5337 04       	 .byte 0x4
 10888 5338 03380000 	 .4byte 0x3803
 10889 533c 0D       	 .uleb128 0xd
 10890 533d 04       	 .byte 0x4
 10891 533e 03380000 	 .4byte 0x3803
 10892 5342 09       	 .uleb128 0x9
 10893 5343 04       	 .byte 0x4
 10894 5344 223A0000 	 .4byte 0x3a22
 10895 5348 12       	 .uleb128 0x12
 10896 5349 04       	 .byte 0x4
 10897 534a 07       	 .byte 0x7
 10898 534b 40280000 	 .4byte .LASF833
 10899 534f 0A       	 .uleb128 0xa
 10900 5350 48530000 	 .4byte 0x5348
 10901 5354 12       	 .uleb128 0x12
 10902 5355 02       	 .byte 0x2
 10903 5356 10       	 .byte 0x10
 10904 5357 58660000 	 .4byte .LASF834
 10905 535b 12       	 .uleb128 0x12
 10906 535c 04       	 .byte 0x4
 10907 535d 10       	 .byte 0x10
 10908 535e 9D360000 	 .4byte .LASF835
 10909 5362 09       	 .uleb128 0x9
 10910 5363 04       	 .byte 0x4
 10911 5364 3D3A0000 	 .4byte 0x3a3d
 10912 5368 75       	 .uleb128 0x75
 10913 5369 6B3A0000 	 .4byte 0x3a6b
 10914 536d 3C       	 .uleb128 0x3c
 10915 536e 4A160000 	 .4byte .LASF836
 10916 5372 16       	 .byte 0x16
 10917 5373 38       	 .byte 0x38
 10918 5374 0B       	 .byte 0xb
 10919 5375 82530000 	 .4byte 0x5382
 10920 5379 51       	 .uleb128 0x51
 10921 537a 16       	 .byte 0x16
 10922 537b 3A       	 .byte 0x3a
 10923 537c 18       	 .byte 0x18
 10924 537d 793A0000 	 .4byte 0x3a79
 10925 5381 00       	 .byte 0
 10926 5382 06       	 .uleb128 0x6
 10927 5383 BF3C0000 	 .4byte .LASF837
 10928 5387 2B       	 .byte 0x2b
 10929 5388 56       	 .byte 0x56
 10930 5389 14       	 .byte 0x14
 10931 538a 26020000 	 .4byte 0x226
 10932 538e 0A       	 .uleb128 0xa
 10933 538f 82530000 	 .4byte 0x5382
 10934 5393 07       	 .uleb128 0x7
 10935 5394 35170000 	 .4byte .LASF838
 10936 5398 2B       	 .byte 0x2b
 10937 5399 59       	 .byte 0x59
 10938 539a 08       	 .byte 0x8
ARM GAS   			page 206


 10939 539b A7010000 	 .4byte 0x1a7
 10940 539f A9530000 	 .4byte 0x53a9
 10941 53a3 01       	 .uleb128 0x1
 10942 53a4 46010000 	 .4byte 0x146
 10943 53a8 00       	 .byte 0
 10944 53a9 07       	 .uleb128 0x7
 10945 53aa FA5D0000 	 .4byte .LASF839
 10946 53ae 2B       	 .byte 0x2b
 10947 53af E3       	 .byte 0xe3
 10948 53b0 08       	 .byte 0x8
 10949 53b1 A7010000 	 .4byte 0x1a7
 10950 53b5 BF530000 	 .4byte 0x53bf
 10951 53b9 01       	 .uleb128 0x1
 10952 53ba 3E090000 	 .4byte 0x93e
 10953 53be 00       	 .byte 0
 10954 53bf 07       	 .uleb128 0x7
 10955 53c0 CE5E0000 	 .4byte .LASF840
 10956 53c4 2B       	 .byte 0x2b
 10957 53c5 E4       	 .byte 0xe4
 10958 53c6 0A       	 .byte 0xa
 10959 53c7 DF530000 	 .4byte 0x53df
 10960 53cb DF530000 	 .4byte 0x53df
 10961 53cf 01       	 .uleb128 0x1
 10962 53d0 DF530000 	 .4byte 0x53df
 10963 53d4 01       	 .uleb128 0x1
 10964 53d5 46010000 	 .4byte 0x146
 10965 53d9 01       	 .uleb128 0x1
 10966 53da 3E090000 	 .4byte 0x93e
 10967 53de 00       	 .byte 0
 10968 53df 09       	 .uleb128 0x9
 10969 53e0 04       	 .byte 0x4
 10970 53e1 48530000 	 .4byte 0x5348
 10971 53e5 07       	 .uleb128 0x7
 10972 53e6 B22B0000 	 .4byte .LASF841
 10973 53ea 2B       	 .byte 0x2b
 10974 53eb E5       	 .byte 0xe5
 10975 53ec 08       	 .byte 0x8
 10976 53ed A7010000 	 .4byte 0x1a7
 10977 53f1 00540000 	 .4byte 0x5400
 10978 53f5 01       	 .uleb128 0x1
 10979 53f6 48530000 	 .4byte 0x5348
 10980 53fa 01       	 .uleb128 0x1
 10981 53fb 3E090000 	 .4byte 0x93e
 10982 53ff 00       	 .byte 0
 10983 5400 07       	 .uleb128 0x7
 10984 5401 112C0000 	 .4byte .LASF842
 10985 5405 2B       	 .byte 0x2b
 10986 5406 E6       	 .byte 0xe6
 10987 5407 05       	 .byte 0x5
 10988 5408 46010000 	 .4byte 0x146
 10989 540c 1B540000 	 .4byte 0x541b
 10990 5410 01       	 .uleb128 0x1
 10991 5411 1B540000 	 .4byte 0x541b
 10992 5415 01       	 .uleb128 0x1
 10993 5416 3E090000 	 .4byte 0x93e
 10994 541a 00       	 .byte 0
 10995 541b 09       	 .uleb128 0x9
ARM GAS   			page 207


 10996 541c 04       	 .byte 0x4
 10997 541d 4F530000 	 .4byte 0x534f
 10998 5421 07       	 .uleb128 0x7
 10999 5422 44010000 	 .4byte .LASF843
 11000 5426 2B       	 .byte 0x2b
 11001 5427 E8       	 .byte 0xe8
 11002 5428 05       	 .byte 0x5
 11003 5429 46010000 	 .4byte 0x146
 11004 542d 3C540000 	 .4byte 0x543c
 11005 5431 01       	 .uleb128 0x1
 11006 5432 3E090000 	 .4byte 0x93e
 11007 5436 01       	 .uleb128 0x1
 11008 5437 46010000 	 .4byte 0x146
 11009 543b 00       	 .byte 0
 11010 543c 13       	 .uleb128 0x13
 11011 543d F5280000 	 .4byte .LASF844
 11012 5441 2B       	 .byte 0x2b
 11013 5442 1C01     	 .2byte 0x11c
 11014 5444 05       	 .byte 0x5
 11015 5445 46010000 	 .4byte 0x146
 11016 5449 59540000 	 .4byte 0x5459
 11017 544d 01       	 .uleb128 0x1
 11018 544e 3E090000 	 .4byte 0x93e
 11019 5452 01       	 .uleb128 0x1
 11020 5453 1B540000 	 .4byte 0x541b
 11021 5457 28       	 .uleb128 0x28
 11022 5458 00       	 .byte 0
 11023 5459 13       	 .uleb128 0x13
 11024 545a 201D0000 	 .4byte .LASF845
 11025 545e 2B       	 .byte 0x2b
 11026 545f 2F01     	 .2byte 0x12f
 11027 5461 05       	 .byte 0x5
 11028 5462 46010000 	 .4byte 0x146
 11029 5466 76540000 	 .4byte 0x5476
 11030 546a 01       	 .uleb128 0x1
 11031 546b 3E090000 	 .4byte 0x93e
 11032 546f 01       	 .uleb128 0x1
 11033 5470 1B540000 	 .4byte 0x541b
 11034 5474 28       	 .uleb128 0x28
 11035 5475 00       	 .byte 0
 11036 5476 07       	 .uleb128 0x7
 11037 5477 F4010000 	 .4byte .LASF846
 11038 547b 2B       	 .byte 0x2b
 11039 547c EA       	 .byte 0xea
 11040 547d 08       	 .byte 0x8
 11041 547e A7010000 	 .4byte 0x1a7
 11042 5482 8C540000 	 .4byte 0x548c
 11043 5486 01       	 .uleb128 0x1
 11044 5487 3E090000 	 .4byte 0x93e
 11045 548b 00       	 .byte 0
 11046 548c 2F       	 .uleb128 0x2f
 11047 548d 514E0000 	 .4byte .LASF922
 11048 5491 2B       	 .byte 0x2b
 11049 5492 EB       	 .byte 0xeb
 11050 5493 08       	 .byte 0x8
 11051 5494 A7010000 	 .4byte 0x1a7
 11052 5498 07       	 .uleb128 0x7
ARM GAS   			page 208


 11053 5499 BC1D0000 	 .4byte .LASF847
 11054 549d 2B       	 .byte 0x2b
 11055 549e 5B       	 .byte 0x5b
 11056 549f 08       	 .byte 0x8
 11057 54a0 6A010000 	 .4byte 0x16a
 11058 54a4 B8540000 	 .4byte 0x54b8
 11059 54a8 01       	 .uleb128 0x1
 11060 54a9 83080000 	 .4byte 0x883
 11061 54ad 01       	 .uleb128 0x1
 11062 54ae 6A010000 	 .4byte 0x16a
 11063 54b2 01       	 .uleb128 0x1
 11064 54b3 B8540000 	 .4byte 0x54b8
 11065 54b7 00       	 .byte 0
 11066 54b8 09       	 .uleb128 0x9
 11067 54b9 04       	 .byte 0x4
 11068 54ba 82530000 	 .4byte 0x5382
 11069 54be 07       	 .uleb128 0x7
 11070 54bf 8C5A0000 	 .4byte .LASF848
 11071 54c3 2B       	 .byte 0x2b
 11072 54c4 5C       	 .byte 0x5c
 11073 54c5 08       	 .byte 0x8
 11074 54c6 6A010000 	 .4byte 0x16a
 11075 54ca E3540000 	 .4byte 0x54e3
 11076 54ce 01       	 .uleb128 0x1
 11077 54cf DF530000 	 .4byte 0x53df
 11078 54d3 01       	 .uleb128 0x1
 11079 54d4 83080000 	 .4byte 0x883
 11080 54d8 01       	 .uleb128 0x1
 11081 54d9 6A010000 	 .4byte 0x16a
 11082 54dd 01       	 .uleb128 0x1
 11083 54de B8540000 	 .4byte 0x54b8
 11084 54e2 00       	 .byte 0
 11085 54e3 07       	 .uleb128 0x7
 11086 54e4 B6360000 	 .4byte .LASF849
 11087 54e8 2B       	 .byte 0x2b
 11088 54e9 60       	 .byte 0x60
 11089 54ea 05       	 .byte 0x5
 11090 54eb 46010000 	 .4byte 0x146
 11091 54ef F9540000 	 .4byte 0x54f9
 11092 54f3 01       	 .uleb128 0x1
 11093 54f4 F9540000 	 .4byte 0x54f9
 11094 54f8 00       	 .byte 0
 11095 54f9 09       	 .uleb128 0x9
 11096 54fa 04       	 .byte 0x4
 11097 54fb 8E530000 	 .4byte 0x538e
 11098 54ff 07       	 .uleb128 0x7
 11099 5500 11360000 	 .4byte .LASF850
 11100 5504 2B       	 .byte 0x2b
 11101 5505 67       	 .byte 0x67
 11102 5506 08       	 .byte 0x8
 11103 5507 6A010000 	 .4byte 0x16a
 11104 550b 24550000 	 .4byte 0x5524
 11105 550f 01       	 .uleb128 0x1
 11106 5510 DF530000 	 .4byte 0x53df
 11107 5514 01       	 .uleb128 0x1
 11108 5515 24550000 	 .4byte 0x5524
 11109 5519 01       	 .uleb128 0x1
ARM GAS   			page 209


 11110 551a 6A010000 	 .4byte 0x16a
 11111 551e 01       	 .uleb128 0x1
 11112 551f B8540000 	 .4byte 0x54b8
 11113 5523 00       	 .byte 0
 11114 5524 09       	 .uleb128 0x9
 11115 5525 04       	 .byte 0x4
 11116 5526 83080000 	 .4byte 0x883
 11117 552a 07       	 .uleb128 0x7
 11118 552b 013B0000 	 .4byte .LASF851
 11119 552f 2B       	 .byte 0x2b
 11120 5530 EC       	 .byte 0xec
 11121 5531 08       	 .byte 0x8
 11122 5532 A7010000 	 .4byte 0x1a7
 11123 5536 45550000 	 .4byte 0x5545
 11124 553a 01       	 .uleb128 0x1
 11125 553b 48530000 	 .4byte 0x5348
 11126 553f 01       	 .uleb128 0x1
 11127 5540 3E090000 	 .4byte 0x93e
 11128 5544 00       	 .byte 0
 11129 5545 07       	 .uleb128 0x7
 11130 5546 8F170000 	 .4byte .LASF852
 11131 554a 2B       	 .byte 0x2b
 11132 554b ED       	 .byte 0xed
 11133 554c 08       	 .byte 0x8
 11134 554d A7010000 	 .4byte 0x1a7
 11135 5551 5B550000 	 .4byte 0x555b
 11136 5555 01       	 .uleb128 0x1
 11137 5556 48530000 	 .4byte 0x5348
 11138 555a 00       	 .byte 0
 11139 555b 13       	 .uleb128 0x13
 11140 555c EB380000 	 .4byte .LASF853
 11141 5560 2B       	 .byte 0x2b
 11142 5561 1D01     	 .2byte 0x11d
 11143 5563 05       	 .byte 0x5
 11144 5564 46010000 	 .4byte 0x146
 11145 5568 7D550000 	 .4byte 0x557d
 11146 556c 01       	 .uleb128 0x1
 11147 556d DF530000 	 .4byte 0x53df
 11148 5571 01       	 .uleb128 0x1
 11149 5572 6A010000 	 .4byte 0x16a
 11150 5576 01       	 .uleb128 0x1
 11151 5577 1B540000 	 .4byte 0x541b
 11152 557b 28       	 .uleb128 0x28
 11153 557c 00       	 .byte 0
 11154 557d 13       	 .uleb128 0x13
 11155 557e 96330000 	 .4byte .LASF854
 11156 5582 2B       	 .byte 0x2b
 11157 5583 3001     	 .2byte 0x130
 11158 5585 05       	 .byte 0x5
 11159 5586 46010000 	 .4byte 0x146
 11160 558a 9A550000 	 .4byte 0x559a
 11161 558e 01       	 .uleb128 0x1
 11162 558f 1B540000 	 .4byte 0x541b
 11163 5593 01       	 .uleb128 0x1
 11164 5594 1B540000 	 .4byte 0x541b
 11165 5598 28       	 .uleb128 0x28
 11166 5599 00       	 .byte 0
ARM GAS   			page 210


 11167 559a 07       	 .uleb128 0x7
 11168 559b 95630000 	 .4byte .LASF855
 11169 559f 2B       	 .byte 0x2b
 11170 55a0 EE       	 .byte 0xee
 11171 55a1 08       	 .byte 0x8
 11172 55a2 A7010000 	 .4byte 0x1a7
 11173 55a6 B5550000 	 .4byte 0x55b5
 11174 55aa 01       	 .uleb128 0x1
 11175 55ab A7010000 	 .4byte 0x1a7
 11176 55af 01       	 .uleb128 0x1
 11177 55b0 3E090000 	 .4byte 0x93e
 11178 55b4 00       	 .byte 0
 11179 55b5 13       	 .uleb128 0x13
 11180 55b6 5D680000 	 .4byte .LASF856
 11181 55ba 2B       	 .byte 0x2b
 11182 55bb 1F01     	 .2byte 0x11f
 11183 55bd 05       	 .byte 0x5
 11184 55be 46010000 	 .4byte 0x146
 11185 55c2 D6550000 	 .4byte 0x55d6
 11186 55c6 01       	 .uleb128 0x1
 11187 55c7 3E090000 	 .4byte 0x93e
 11188 55cb 01       	 .uleb128 0x1
 11189 55cc 1B540000 	 .4byte 0x541b
 11190 55d0 01       	 .uleb128 0x1
 11191 55d1 82010000 	 .4byte 0x182
 11192 55d5 00       	 .byte 0
 11193 55d6 13       	 .uleb128 0x13
 11194 55d7 552A0000 	 .4byte .LASF857
 11195 55db 2B       	 .byte 0x2b
 11196 55dc 3201     	 .2byte 0x132
 11197 55de 05       	 .byte 0x5
 11198 55df 46010000 	 .4byte 0x146
 11199 55e3 F7550000 	 .4byte 0x55f7
 11200 55e7 01       	 .uleb128 0x1
 11201 55e8 3E090000 	 .4byte 0x93e
 11202 55ec 01       	 .uleb128 0x1
 11203 55ed 1B540000 	 .4byte 0x541b
 11204 55f1 01       	 .uleb128 0x1
 11205 55f2 82010000 	 .4byte 0x182
 11206 55f6 00       	 .byte 0
 11207 55f7 13       	 .uleb128 0x13
 11208 55f8 F73A0000 	 .4byte .LASF858
 11209 55fc 2B       	 .byte 0x2b
 11210 55fd 2101     	 .2byte 0x121
 11211 55ff 05       	 .byte 0x5
 11212 5600 46010000 	 .4byte 0x146
 11213 5604 1D560000 	 .4byte 0x561d
 11214 5608 01       	 .uleb128 0x1
 11215 5609 DF530000 	 .4byte 0x53df
 11216 560d 01       	 .uleb128 0x1
 11217 560e 6A010000 	 .4byte 0x16a
 11218 5612 01       	 .uleb128 0x1
 11219 5613 1B540000 	 .4byte 0x541b
 11220 5617 01       	 .uleb128 0x1
 11221 5618 82010000 	 .4byte 0x182
 11222 561c 00       	 .byte 0
 11223 561d 13       	 .uleb128 0x13
ARM GAS   			page 211


 11224 561e CF3E0000 	 .4byte .LASF859
 11225 5622 2B       	 .byte 0x2b
 11226 5623 3401     	 .2byte 0x134
 11227 5625 05       	 .byte 0x5
 11228 5626 46010000 	 .4byte 0x146
 11229 562a 3E560000 	 .4byte 0x563e
 11230 562e 01       	 .uleb128 0x1
 11231 562f 1B540000 	 .4byte 0x541b
 11232 5633 01       	 .uleb128 0x1
 11233 5634 1B540000 	 .4byte 0x541b
 11234 5638 01       	 .uleb128 0x1
 11235 5639 82010000 	 .4byte 0x182
 11236 563d 00       	 .byte 0
 11237 563e 13       	 .uleb128 0x13
 11238 563f 10400000 	 .4byte .LASF860
 11239 5643 2B       	 .byte 0x2b
 11240 5644 2301     	 .2byte 0x123
 11241 5646 05       	 .byte 0x5
 11242 5647 46010000 	 .4byte 0x146
 11243 564b 5A560000 	 .4byte 0x565a
 11244 564f 01       	 .uleb128 0x1
 11245 5650 1B540000 	 .4byte 0x541b
 11246 5654 01       	 .uleb128 0x1
 11247 5655 82010000 	 .4byte 0x182
 11248 5659 00       	 .byte 0
 11249 565a 13       	 .uleb128 0x13
 11250 565b F7590000 	 .4byte .LASF861
 11251 565f 2B       	 .byte 0x2b
 11252 5660 3601     	 .2byte 0x136
 11253 5662 05       	 .byte 0x5
 11254 5663 46010000 	 .4byte 0x146
 11255 5667 76560000 	 .4byte 0x5676
 11256 566b 01       	 .uleb128 0x1
 11257 566c 1B540000 	 .4byte 0x541b
 11258 5670 01       	 .uleb128 0x1
 11259 5671 82010000 	 .4byte 0x182
 11260 5675 00       	 .byte 0
 11261 5676 07       	 .uleb128 0x7
 11262 5677 E3560000 	 .4byte .LASF862
 11263 567b 2B       	 .byte 0x2b
 11264 567c 6A       	 .byte 0x6a
 11265 567d 08       	 .byte 0x8
 11266 567e 6A010000 	 .4byte 0x16a
 11267 5682 96560000 	 .4byte 0x5696
 11268 5686 01       	 .uleb128 0x1
 11269 5687 48080000 	 .4byte 0x848
 11270 568b 01       	 .uleb128 0x1
 11271 568c 48530000 	 .4byte 0x5348
 11272 5690 01       	 .uleb128 0x1
 11273 5691 B8540000 	 .4byte 0x54b8
 11274 5695 00       	 .byte 0
 11275 5696 07       	 .uleb128 0x7
 11276 5697 FE210000 	 .4byte .LASF863
 11277 569b 2B       	 .byte 0x2b
 11278 569c 79       	 .byte 0x79
 11279 569d 0A       	 .byte 0xa
 11280 569e DF530000 	 .4byte 0x53df
ARM GAS   			page 212


 11281 56a2 B1560000 	 .4byte 0x56b1
 11282 56a6 01       	 .uleb128 0x1
 11283 56a7 DF530000 	 .4byte 0x53df
 11284 56ab 01       	 .uleb128 0x1
 11285 56ac 1B540000 	 .4byte 0x541b
 11286 56b0 00       	 .byte 0
 11287 56b1 07       	 .uleb128 0x7
 11288 56b2 00360000 	 .4byte .LASF864
 11289 56b6 2B       	 .byte 0x2b
 11290 56b7 7B       	 .byte 0x7b
 11291 56b8 05       	 .byte 0x5
 11292 56b9 46010000 	 .4byte 0x146
 11293 56bd CC560000 	 .4byte 0x56cc
 11294 56c1 01       	 .uleb128 0x1
 11295 56c2 1B540000 	 .4byte 0x541b
 11296 56c6 01       	 .uleb128 0x1
 11297 56c7 1B540000 	 .4byte 0x541b
 11298 56cb 00       	 .byte 0
 11299 56cc 07       	 .uleb128 0x7
 11300 56cd DA5F0000 	 .4byte .LASF865
 11301 56d1 2B       	 .byte 0x2b
 11302 56d2 7C       	 .byte 0x7c
 11303 56d3 05       	 .byte 0x5
 11304 56d4 46010000 	 .4byte 0x146
 11305 56d8 E7560000 	 .4byte 0x56e7
 11306 56dc 01       	 .uleb128 0x1
 11307 56dd 1B540000 	 .4byte 0x541b
 11308 56e1 01       	 .uleb128 0x1
 11309 56e2 1B540000 	 .4byte 0x541b
 11310 56e6 00       	 .byte 0
 11311 56e7 07       	 .uleb128 0x7
 11312 56e8 CF3A0000 	 .4byte .LASF866
 11313 56ec 2B       	 .byte 0x2b
 11314 56ed 7D       	 .byte 0x7d
 11315 56ee 0A       	 .byte 0xa
 11316 56ef DF530000 	 .4byte 0x53df
 11317 56f3 02570000 	 .4byte 0x5702
 11318 56f7 01       	 .uleb128 0x1
 11319 56f8 DF530000 	 .4byte 0x53df
 11320 56fc 01       	 .uleb128 0x1
 11321 56fd 1B540000 	 .4byte 0x541b
 11322 5701 00       	 .byte 0
 11323 5702 07       	 .uleb128 0x7
 11324 5703 213D0000 	 .4byte .LASF867
 11325 5707 2B       	 .byte 0x2b
 11326 5708 84       	 .byte 0x84
 11327 5709 08       	 .byte 0x8
 11328 570a 6A010000 	 .4byte 0x16a
 11329 570e 1D570000 	 .4byte 0x571d
 11330 5712 01       	 .uleb128 0x1
 11331 5713 1B540000 	 .4byte 0x541b
 11332 5717 01       	 .uleb128 0x1
 11333 5718 1B540000 	 .4byte 0x541b
 11334 571c 00       	 .byte 0
 11335 571d 07       	 .uleb128 0x7
 11336 571e 511D0000 	 .4byte .LASF868
 11337 5722 2B       	 .byte 0x2b
ARM GAS   			page 213


 11338 5723 85       	 .byte 0x85
 11339 5724 09       	 .byte 0x9
 11340 5725 6A010000 	 .4byte 0x16a
 11341 5729 42570000 	 .4byte 0x5742
 11342 572d 01       	 .uleb128 0x1
 11343 572e DF530000 	 .4byte 0x53df
 11344 5732 01       	 .uleb128 0x1
 11345 5733 6A010000 	 .4byte 0x16a
 11346 5737 01       	 .uleb128 0x1
 11347 5738 1B540000 	 .4byte 0x541b
 11348 573c 01       	 .uleb128 0x1
 11349 573d 42570000 	 .4byte 0x5742
 11350 5741 00       	 .byte 0
 11351 5742 09       	 .uleb128 0x9
 11352 5743 04       	 .byte 0x4
 11353 5744 4C570000 	 .4byte 0x574c
 11354 5748 76       	 .uleb128 0x76
 11355 5749 746D00   	 .ascii "tm\000"
 11356 574c 0A       	 .uleb128 0xa
 11357 574d 48570000 	 .4byte 0x5748
 11358 5751 07       	 .uleb128 0x7
 11359 5752 741A0000 	 .4byte .LASF869
 11360 5756 2B       	 .byte 0x2b
 11361 5757 8D       	 .byte 0x8d
 11362 5758 08       	 .byte 0x8
 11363 5759 6A010000 	 .4byte 0x16a
 11364 575d 67570000 	 .4byte 0x5767
 11365 5761 01       	 .uleb128 0x1
 11366 5762 1B540000 	 .4byte 0x541b
 11367 5766 00       	 .byte 0
 11368 5767 07       	 .uleb128 0x7
 11369 5768 CF5C0000 	 .4byte .LASF870
 11370 576c 2B       	 .byte 0x2b
 11371 576d 91       	 .byte 0x91
 11372 576e 0A       	 .byte 0xa
 11373 576f DF530000 	 .4byte 0x53df
 11374 5773 87570000 	 .4byte 0x5787
 11375 5777 01       	 .uleb128 0x1
 11376 5778 DF530000 	 .4byte 0x53df
 11377 577c 01       	 .uleb128 0x1
 11378 577d 1B540000 	 .4byte 0x541b
 11379 5781 01       	 .uleb128 0x1
 11380 5782 6A010000 	 .4byte 0x16a
 11381 5786 00       	 .byte 0
 11382 5787 07       	 .uleb128 0x7
 11383 5788 7F4C0000 	 .4byte .LASF871
 11384 578c 2B       	 .byte 0x2b
 11385 578d 93       	 .byte 0x93
 11386 578e 05       	 .byte 0x5
 11387 578f 46010000 	 .4byte 0x146
 11388 5793 A7570000 	 .4byte 0x57a7
 11389 5797 01       	 .uleb128 0x1
 11390 5798 1B540000 	 .4byte 0x541b
 11391 579c 01       	 .uleb128 0x1
 11392 579d 1B540000 	 .4byte 0x541b
 11393 57a1 01       	 .uleb128 0x1
 11394 57a2 6A010000 	 .4byte 0x16a
ARM GAS   			page 214


 11395 57a6 00       	 .byte 0
 11396 57a7 07       	 .uleb128 0x7
 11397 57a8 BA0A0000 	 .4byte .LASF872
 11398 57ac 2B       	 .byte 0x2b
 11399 57ad 94       	 .byte 0x94
 11400 57ae 0A       	 .byte 0xa
 11401 57af DF530000 	 .4byte 0x53df
 11402 57b3 C7570000 	 .4byte 0x57c7
 11403 57b7 01       	 .uleb128 0x1
 11404 57b8 DF530000 	 .4byte 0x53df
 11405 57bc 01       	 .uleb128 0x1
 11406 57bd 1B540000 	 .4byte 0x541b
 11407 57c1 01       	 .uleb128 0x1
 11408 57c2 6A010000 	 .4byte 0x16a
 11409 57c6 00       	 .byte 0
 11410 57c7 07       	 .uleb128 0x7
 11411 57c8 D53C0000 	 .4byte .LASF873
 11412 57cc 2B       	 .byte 0x2b
 11413 57cd 72       	 .byte 0x72
 11414 57ce 08       	 .byte 0x8
 11415 57cf 6A010000 	 .4byte 0x16a
 11416 57d3 EC570000 	 .4byte 0x57ec
 11417 57d7 01       	 .uleb128 0x1
 11418 57d8 48080000 	 .4byte 0x848
 11419 57dc 01       	 .uleb128 0x1
 11420 57dd EC570000 	 .4byte 0x57ec
 11421 57e1 01       	 .uleb128 0x1
 11422 57e2 6A010000 	 .4byte 0x16a
 11423 57e6 01       	 .uleb128 0x1
 11424 57e7 B8540000 	 .4byte 0x54b8
 11425 57eb 00       	 .byte 0
 11426 57ec 09       	 .uleb128 0x9
 11427 57ed 04       	 .byte 0x4
 11428 57ee 1B540000 	 .4byte 0x541b
 11429 57f2 07       	 .uleb128 0x7
 11430 57f3 C20A0000 	 .4byte .LASF874
 11431 57f7 2B       	 .byte 0x2b
 11432 57f8 9D       	 .byte 0x9d
 11433 57f9 08       	 .byte 0x8
 11434 57fa 6A010000 	 .4byte 0x16a
 11435 57fe 0D580000 	 .4byte 0x580d
 11436 5802 01       	 .uleb128 0x1
 11437 5803 1B540000 	 .4byte 0x541b
 11438 5807 01       	 .uleb128 0x1
 11439 5808 1B540000 	 .4byte 0x541b
 11440 580c 00       	 .byte 0
 11441 580d 07       	 .uleb128 0x7
 11442 580e 81130000 	 .4byte .LASF875
 11443 5812 2B       	 .byte 0x2b
 11444 5813 A2       	 .byte 0xa2
 11445 5814 08       	 .byte 0x8
 11446 5815 A64C0000 	 .4byte 0x4ca6
 11447 5819 28580000 	 .4byte 0x5828
 11448 581d 01       	 .uleb128 0x1
 11449 581e 1B540000 	 .4byte 0x541b
 11450 5822 01       	 .uleb128 0x1
 11451 5823 28580000 	 .4byte 0x5828
ARM GAS   			page 215


 11452 5827 00       	 .byte 0
 11453 5828 09       	 .uleb128 0x9
 11454 5829 04       	 .byte 0x4
 11455 582a DF530000 	 .4byte 0x53df
 11456 582e 07       	 .uleb128 0x7
 11457 582f 94130000 	 .4byte .LASF876
 11458 5833 2B       	 .byte 0x2b
 11459 5834 A5       	 .byte 0xa5
 11460 5835 07       	 .byte 0x7
 11461 5836 AD4C0000 	 .4byte 0x4cad
 11462 583a 49580000 	 .4byte 0x5849
 11463 583e 01       	 .uleb128 0x1
 11464 583f 1B540000 	 .4byte 0x541b
 11465 5843 01       	 .uleb128 0x1
 11466 5844 28580000 	 .4byte 0x5828
 11467 5848 00       	 .byte 0
 11468 5849 07       	 .uleb128 0x7
 11469 584a 17140000 	 .4byte .LASF877
 11470 584e 2B       	 .byte 0x2b
 11471 584f A0       	 .byte 0xa0
 11472 5850 0A       	 .byte 0xa
 11473 5851 DF530000 	 .4byte 0x53df
 11474 5855 69580000 	 .4byte 0x5869
 11475 5859 01       	 .uleb128 0x1
 11476 585a DF530000 	 .4byte 0x53df
 11477 585e 01       	 .uleb128 0x1
 11478 585f 1B540000 	 .4byte 0x541b
 11479 5863 01       	 .uleb128 0x1
 11480 5864 28580000 	 .4byte 0x5828
 11481 5868 00       	 .byte 0
 11482 5869 07       	 .uleb128 0x7
 11483 586a 1E140000 	 .4byte .LASF878
 11484 586e 2B       	 .byte 0x2b
 11485 586f C3       	 .byte 0xc3
 11486 5870 09       	 .byte 0x9
 11487 5871 7D000000 	 .4byte 0x7d
 11488 5875 89580000 	 .4byte 0x5889
 11489 5879 01       	 .uleb128 0x1
 11490 587a 1B540000 	 .4byte 0x541b
 11491 587e 01       	 .uleb128 0x1
 11492 587f 28580000 	 .4byte 0x5828
 11493 5883 01       	 .uleb128 0x1
 11494 5884 46010000 	 .4byte 0x146
 11495 5888 00       	 .byte 0
 11496 5889 07       	 .uleb128 0x7
 11497 588a C2180000 	 .4byte .LASF879
 11498 588e 2B       	 .byte 0x2b
 11499 588f C8       	 .byte 0xc8
 11500 5890 0F       	 .byte 0xf
 11501 5891 90000000 	 .4byte 0x90
 11502 5895 A9580000 	 .4byte 0x58a9
 11503 5899 01       	 .uleb128 0x1
 11504 589a 1B540000 	 .4byte 0x541b
 11505 589e 01       	 .uleb128 0x1
 11506 589f 28580000 	 .4byte 0x5828
 11507 58a3 01       	 .uleb128 0x1
 11508 58a4 46010000 	 .4byte 0x146
ARM GAS   			page 216


 11509 58a8 00       	 .byte 0
 11510 58a9 07       	 .uleb128 0x7
 11511 58aa 5B1A0000 	 .4byte .LASF880
 11512 58ae 2B       	 .byte 0x2b
 11513 58af AB       	 .byte 0xab
 11514 58b0 08       	 .byte 0x8
 11515 58b1 6A010000 	 .4byte 0x16a
 11516 58b5 C9580000 	 .4byte 0x58c9
 11517 58b9 01       	 .uleb128 0x1
 11518 58ba DF530000 	 .4byte 0x53df
 11519 58be 01       	 .uleb128 0x1
 11520 58bf 1B540000 	 .4byte 0x541b
 11521 58c3 01       	 .uleb128 0x1
 11522 58c4 6A010000 	 .4byte 0x16a
 11523 58c8 00       	 .byte 0
 11524 58c9 07       	 .uleb128 0x7
 11525 58ca 9B280000 	 .4byte .LASF881
 11526 58ce 2B       	 .byte 0x2b
 11527 58cf 5A       	 .byte 0x5a
 11528 58d0 05       	 .byte 0x5
 11529 58d1 46010000 	 .4byte 0x146
 11530 58d5 DF580000 	 .4byte 0x58df
 11531 58d9 01       	 .uleb128 0x1
 11532 58da A7010000 	 .4byte 0x1a7
 11533 58de 00       	 .byte 0
 11534 58df 07       	 .uleb128 0x7
 11535 58e0 7C560000 	 .4byte .LASF882
 11536 58e4 2B       	 .byte 0x2b
 11537 58e5 B9       	 .byte 0xb9
 11538 58e6 05       	 .byte 0x5
 11539 58e7 46010000 	 .4byte 0x146
 11540 58eb FF580000 	 .4byte 0x58ff
 11541 58ef 01       	 .uleb128 0x1
 11542 58f0 1B540000 	 .4byte 0x541b
 11543 58f4 01       	 .uleb128 0x1
 11544 58f5 1B540000 	 .4byte 0x541b
 11545 58f9 01       	 .uleb128 0x1
 11546 58fa 6A010000 	 .4byte 0x16a
 11547 58fe 00       	 .byte 0
 11548 58ff 07       	 .uleb128 0x7
 11549 5900 5A5C0000 	 .4byte .LASF883
 11550 5904 2B       	 .byte 0x2b
 11551 5905 BA       	 .byte 0xba
 11552 5906 0A       	 .byte 0xa
 11553 5907 DF530000 	 .4byte 0x53df
 11554 590b 1F590000 	 .4byte 0x591f
 11555 590f 01       	 .uleb128 0x1
 11556 5910 DF530000 	 .4byte 0x53df
 11557 5914 01       	 .uleb128 0x1
 11558 5915 1B540000 	 .4byte 0x541b
 11559 5919 01       	 .uleb128 0x1
 11560 591a 6A010000 	 .4byte 0x16a
 11561 591e 00       	 .byte 0
 11562 591f 07       	 .uleb128 0x7
 11563 5920 66000000 	 .4byte .LASF884
 11564 5924 2B       	 .byte 0x2b
 11565 5925 BC       	 .byte 0xbc
ARM GAS   			page 217


 11566 5926 0A       	 .byte 0xa
 11567 5927 DF530000 	 .4byte 0x53df
 11568 592b 3F590000 	 .4byte 0x593f
 11569 592f 01       	 .uleb128 0x1
 11570 5930 DF530000 	 .4byte 0x53df
 11571 5934 01       	 .uleb128 0x1
 11572 5935 1B540000 	 .4byte 0x541b
 11573 5939 01       	 .uleb128 0x1
 11574 593a 6A010000 	 .4byte 0x16a
 11575 593e 00       	 .byte 0
 11576 593f 07       	 .uleb128 0x7
 11577 5940 B2160000 	 .4byte .LASF885
 11578 5944 2B       	 .byte 0x2b
 11579 5945 C1       	 .byte 0xc1
 11580 5946 0A       	 .byte 0xa
 11581 5947 DF530000 	 .4byte 0x53df
 11582 594b 5F590000 	 .4byte 0x595f
 11583 594f 01       	 .uleb128 0x1
 11584 5950 DF530000 	 .4byte 0x53df
 11585 5954 01       	 .uleb128 0x1
 11586 5955 48530000 	 .4byte 0x5348
 11587 5959 01       	 .uleb128 0x1
 11588 595a 6A010000 	 .4byte 0x16a
 11589 595e 00       	 .byte 0
 11590 595f 13       	 .uleb128 0x13
 11591 5960 5A350000 	 .4byte .LASF886
 11592 5964 2B       	 .byte 0x2b
 11593 5965 2401     	 .2byte 0x124
 11594 5967 05       	 .byte 0x5
 11595 5968 46010000 	 .4byte 0x146
 11596 596c 77590000 	 .4byte 0x5977
 11597 5970 01       	 .uleb128 0x1
 11598 5971 1B540000 	 .4byte 0x541b
 11599 5975 28       	 .uleb128 0x28
 11600 5976 00       	 .byte 0
 11601 5977 13       	 .uleb128 0x13
 11602 5978 57410000 	 .4byte .LASF887
 11603 597c 2B       	 .byte 0x2b
 11604 597d 3701     	 .2byte 0x137
 11605 597f 05       	 .byte 0x5
 11606 5980 46010000 	 .4byte 0x146
 11607 5984 8F590000 	 .4byte 0x598f
 11608 5988 01       	 .uleb128 0x1
 11609 5989 1B540000 	 .4byte 0x541b
 11610 598d 28       	 .uleb128 0x28
 11611 598e 00       	 .byte 0
 11612 598f 07       	 .uleb128 0x7
 11613 5990 32570000 	 .4byte .LASF888
 11614 5994 2B       	 .byte 0x2b
 11615 5995 7A       	 .byte 0x7a
 11616 5996 0A       	 .byte 0xa
 11617 5997 DF530000 	 .4byte 0x53df
 11618 599b AA590000 	 .4byte 0x59aa
 11619 599f 01       	 .uleb128 0x1
 11620 59a0 1B540000 	 .4byte 0x541b
 11621 59a4 01       	 .uleb128 0x1
 11622 59a5 48530000 	 .4byte 0x5348
ARM GAS   			page 218


 11623 59a9 00       	 .byte 0
 11624 59aa 07       	 .uleb128 0x7
 11625 59ab E1260000 	 .4byte .LASF889
 11626 59af 2B       	 .byte 0x2b
 11627 59b0 9B       	 .byte 0x9b
 11628 59b1 0A       	 .byte 0xa
 11629 59b2 DF530000 	 .4byte 0x53df
 11630 59b6 C5590000 	 .4byte 0x59c5
 11631 59ba 01       	 .uleb128 0x1
 11632 59bb 1B540000 	 .4byte 0x541b
 11633 59bf 01       	 .uleb128 0x1
 11634 59c0 1B540000 	 .4byte 0x541b
 11635 59c4 00       	 .byte 0
 11636 59c5 07       	 .uleb128 0x7
 11637 59c6 B9600000 	 .4byte .LASF890
 11638 59ca 2B       	 .byte 0x2b
 11639 59cb 9C       	 .byte 0x9c
 11640 59cc 0A       	 .byte 0xa
 11641 59cd DF530000 	 .4byte 0x53df
 11642 59d1 E0590000 	 .4byte 0x59e0
 11643 59d5 01       	 .uleb128 0x1
 11644 59d6 1B540000 	 .4byte 0x541b
 11645 59da 01       	 .uleb128 0x1
 11646 59db 48530000 	 .4byte 0x5348
 11647 59df 00       	 .byte 0
 11648 59e0 07       	 .uleb128 0x7
 11649 59e1 70120000 	 .4byte .LASF891
 11650 59e5 2B       	 .byte 0x2b
 11651 59e6 9E       	 .byte 0x9e
 11652 59e7 0A       	 .byte 0xa
 11653 59e8 DF530000 	 .4byte 0x53df
 11654 59ec FB590000 	 .4byte 0x59fb
 11655 59f0 01       	 .uleb128 0x1
 11656 59f1 1B540000 	 .4byte 0x541b
 11657 59f5 01       	 .uleb128 0x1
 11658 59f6 1B540000 	 .4byte 0x541b
 11659 59fa 00       	 .byte 0
 11660 59fb 07       	 .uleb128 0x7
 11661 59fc E83C0000 	 .4byte .LASF892
 11662 5a00 2B       	 .byte 0x2b
 11663 5a01 B8       	 .byte 0xb8
 11664 5a02 0A       	 .byte 0xa
 11665 5a03 DF530000 	 .4byte 0x53df
 11666 5a07 1B5A0000 	 .4byte 0x5a1b
 11667 5a0b 01       	 .uleb128 0x1
 11668 5a0c 1B540000 	 .4byte 0x541b
 11669 5a10 01       	 .uleb128 0x1
 11670 5a11 48530000 	 .4byte 0x5348
 11671 5a15 01       	 .uleb128 0x1
 11672 5a16 6A010000 	 .4byte 0x16a
 11673 5a1a 00       	 .byte 0
 11674 5a1b 07       	 .uleb128 0x7
 11675 5a1c 24480000 	 .4byte .LASF893
 11676 5a20 2B       	 .byte 0x2b
 11677 5a21 D3       	 .byte 0xd3
 11678 5a22 0D       	 .byte 0xd
 11679 5a23 76010000 	 .4byte 0x176
ARM GAS   			page 219


 11680 5a27 365A0000 	 .4byte 0x5a36
 11681 5a2b 01       	 .uleb128 0x1
 11682 5a2c 1B540000 	 .4byte 0x541b
 11683 5a30 01       	 .uleb128 0x1
 11684 5a31 28580000 	 .4byte 0x5828
 11685 5a35 00       	 .byte 0
 11686 5a36 07       	 .uleb128 0x7
 11687 5a37 20090000 	 .4byte .LASF894
 11688 5a3b 2B       	 .byte 0x2b
 11689 5a3c C5       	 .byte 0xc5
 11690 5a3d 0B       	 .byte 0xb
 11691 5a3e A8000000 	 .4byte 0xa8
 11692 5a42 565A0000 	 .4byte 0x5a56
 11693 5a46 01       	 .uleb128 0x1
 11694 5a47 1B540000 	 .4byte 0x541b
 11695 5a4b 01       	 .uleb128 0x1
 11696 5a4c 28580000 	 .4byte 0x5828
 11697 5a50 01       	 .uleb128 0x1
 11698 5a51 46010000 	 .4byte 0x146
 11699 5a55 00       	 .byte 0
 11700 5a56 07       	 .uleb128 0x7
 11701 5a57 762B0000 	 .4byte .LASF895
 11702 5a5b 2B       	 .byte 0x2b
 11703 5a5c CB       	 .byte 0xcb
 11704 5a5d 14       	 .byte 0x14
 11705 5a5e BB000000 	 .4byte 0xbb
 11706 5a62 765A0000 	 .4byte 0x5a76
 11707 5a66 01       	 .uleb128 0x1
 11708 5a67 1B540000 	 .4byte 0x541b
 11709 5a6b 01       	 .uleb128 0x1
 11710 5a6c 28580000 	 .4byte 0x5828
 11711 5a70 01       	 .uleb128 0x1
 11712 5a71 46010000 	 .4byte 0x146
 11713 5a75 00       	 .byte 0
 11714 5a76 0D       	 .uleb128 0xd
 11715 5a77 04       	 .byte 0x4
 11716 5a78 D53C0000 	 .4byte 0x3cd5
 11717 5a7c 0D       	 .uleb128 0xd
 11718 5a7d 04       	 .byte 0x4
 11719 5a7e E23C0000 	 .4byte 0x3ce2
 11720 5a82 09       	 .uleb128 0x9
 11721 5a83 04       	 .byte 0x4
 11722 5a84 E23C0000 	 .4byte 0x3ce2
 11723 5a88 09       	 .uleb128 0x9
 11724 5a89 04       	 .byte 0x4
 11725 5a8a D53C0000 	 .4byte 0x3cd5
 11726 5a8e 0D       	 .uleb128 0xd
 11727 5a8f 04       	 .byte 0x4
 11728 5a90 213E0000 	 .4byte 0x3e21
 11729 5a94 09       	 .uleb128 0x9
 11730 5a95 04       	 .byte 0x4
 11731 5a96 F7440000 	 .4byte 0x44f7
 11732 5a9a 0D       	 .uleb128 0xd
 11733 5a9b 04       	 .byte 0x4
 11734 5a9c 89460000 	 .4byte 0x4689
 11735 5aa0 09       	 .uleb128 0x9
 11736 5aa1 04       	 .byte 0x4
ARM GAS   			page 220


 11737 5aa2 89460000 	 .4byte 0x4689
 11738 5aa6 0D       	 .uleb128 0xd
 11739 5aa7 04       	 .byte 0x4
 11740 5aa8 53080000 	 .4byte 0x853
 11741 5aac 0D       	 .uleb128 0xd
 11742 5aad 04       	 .byte 0x4
 11743 5aae 5A080000 	 .4byte 0x85a
 11744 5ab2 09       	 .uleb128 0x9
 11745 5ab3 04       	 .byte 0x4
 11746 5ab4 843F0000 	 .4byte 0x3f84
 11747 5ab8 0D       	 .uleb128 0xd
 11748 5ab9 04       	 .byte 0x4
 11749 5aba 21400000 	 .4byte 0x4021
 11750 5abe 0D       	 .uleb128 0xd
 11751 5abf 04       	 .byte 0x4
 11752 5ac0 843F0000 	 .4byte 0x3f84
 11753 5ac4 1A       	 .uleb128 0x1a
 11754 5ac5 0C000000 	 .4byte .LASF896
 11755 5ac9 38       	 .byte 0x38
 11756 5aca 2C       	 .byte 0x2c
 11757 5acb 2A       	 .byte 0x2a
 11758 5acc 08       	 .byte 0x8
 11759 5acd 0A5C0000 	 .4byte 0x5c0a
 11760 5ad1 08       	 .uleb128 0x8
 11761 5ad2 812E0000 	 .4byte .LASF897
 11762 5ad6 2C       	 .byte 0x2c
 11763 5ad7 2C       	 .byte 0x2c
 11764 5ad8 09       	 .byte 0x9
 11765 5ad9 48080000 	 .4byte 0x848
 11766 5add 00       	 .byte 0
 11767 5ade 08       	 .uleb128 0x8
 11768 5adf F6120000 	 .4byte .LASF898
 11769 5ae3 2C       	 .byte 0x2c
 11770 5ae4 2D       	 .byte 0x2d
 11771 5ae5 09       	 .byte 0x9
 11772 5ae6 48080000 	 .4byte 0x848
 11773 5aea 04       	 .byte 0x4
 11774 5aeb 08       	 .uleb128 0x8
 11775 5aec 80080000 	 .4byte .LASF899
 11776 5af0 2C       	 .byte 0x2c
 11777 5af1 2E       	 .byte 0x2e
 11778 5af2 09       	 .byte 0x9
 11779 5af3 48080000 	 .4byte 0x848
 11780 5af7 08       	 .byte 0x8
 11781 5af8 08       	 .uleb128 0x8
 11782 5af9 4B0C0000 	 .4byte .LASF900
 11783 5afd 2C       	 .byte 0x2c
 11784 5afe 2F       	 .byte 0x2f
 11785 5aff 09       	 .byte 0x9
 11786 5b00 48080000 	 .4byte 0x848
 11787 5b04 0C       	 .byte 0xc
 11788 5b05 08       	 .uleb128 0x8
 11789 5b06 98170000 	 .4byte .LASF901
 11790 5b0a 2C       	 .byte 0x2c
 11791 5b0b 30       	 .byte 0x30
 11792 5b0c 09       	 .byte 0x9
 11793 5b0d 48080000 	 .4byte 0x848
ARM GAS   			page 221


 11794 5b11 10       	 .byte 0x10
 11795 5b12 08       	 .uleb128 0x8
 11796 5b13 E4420000 	 .4byte .LASF902
 11797 5b17 2C       	 .byte 0x2c
 11798 5b18 31       	 .byte 0x31
 11799 5b19 09       	 .byte 0x9
 11800 5b1a 48080000 	 .4byte 0x848
 11801 5b1e 14       	 .byte 0x14
 11802 5b1f 08       	 .uleb128 0x8
 11803 5b20 A1280000 	 .4byte .LASF903
 11804 5b24 2C       	 .byte 0x2c
 11805 5b25 32       	 .byte 0x32
 11806 5b26 09       	 .byte 0x9
 11807 5b27 48080000 	 .4byte 0x848
 11808 5b2b 18       	 .byte 0x18
 11809 5b2c 08       	 .uleb128 0x8
 11810 5b2d 1B360000 	 .4byte .LASF904
 11811 5b31 2C       	 .byte 0x2c
 11812 5b32 33       	 .byte 0x33
 11813 5b33 09       	 .byte 0x9
 11814 5b34 48080000 	 .4byte 0x848
 11815 5b38 1C       	 .byte 0x1c
 11816 5b39 08       	 .uleb128 0x8
 11817 5b3a 91580000 	 .4byte .LASF905
 11818 5b3e 2C       	 .byte 0x2c
 11819 5b3f 34       	 .byte 0x34
 11820 5b40 09       	 .byte 0x9
 11821 5b41 48080000 	 .4byte 0x848
 11822 5b45 20       	 .byte 0x20
 11823 5b46 08       	 .uleb128 0x8
 11824 5b47 60210000 	 .4byte .LASF906
 11825 5b4b 2C       	 .byte 0x2c
 11826 5b4c 35       	 .byte 0x35
 11827 5b4d 09       	 .byte 0x9
 11828 5b4e 48080000 	 .4byte 0x848
 11829 5b52 24       	 .byte 0x24
 11830 5b53 08       	 .uleb128 0x8
 11831 5b54 A2120000 	 .4byte .LASF907
 11832 5b58 2C       	 .byte 0x2c
 11833 5b59 36       	 .byte 0x36
 11834 5b5a 08       	 .byte 0x8
 11835 5b5b 53080000 	 .4byte 0x853
 11836 5b5f 28       	 .byte 0x28
 11837 5b60 08       	 .uleb128 0x8
 11838 5b61 71300000 	 .4byte .LASF908
 11839 5b65 2C       	 .byte 0x2c
 11840 5b66 37       	 .byte 0x37
 11841 5b67 08       	 .byte 0x8
 11842 5b68 53080000 	 .4byte 0x853
 11843 5b6c 29       	 .byte 0x29
 11844 5b6d 08       	 .uleb128 0x8
 11845 5b6e F2350000 	 .4byte .LASF909
 11846 5b72 2C       	 .byte 0x2c
 11847 5b73 38       	 .byte 0x38
 11848 5b74 08       	 .byte 0x8
 11849 5b75 53080000 	 .4byte 0x853
 11850 5b79 2A       	 .byte 0x2a
ARM GAS   			page 222


 11851 5b7a 08       	 .uleb128 0x8
 11852 5b7b C45F0000 	 .4byte .LASF910
 11853 5b7f 2C       	 .byte 0x2c
 11854 5b80 39       	 .byte 0x39
 11855 5b81 08       	 .byte 0x8
 11856 5b82 53080000 	 .4byte 0x853
 11857 5b86 2B       	 .byte 0x2b
 11858 5b87 08       	 .uleb128 0x8
 11859 5b88 BC640000 	 .4byte .LASF911
 11860 5b8c 2C       	 .byte 0x2c
 11861 5b8d 3A       	 .byte 0x3a
 11862 5b8e 08       	 .byte 0x8
 11863 5b8f 53080000 	 .4byte 0x853
 11864 5b93 2C       	 .byte 0x2c
 11865 5b94 08       	 .uleb128 0x8
 11866 5b95 17350000 	 .4byte .LASF912
 11867 5b99 2C       	 .byte 0x2c
 11868 5b9a 3B       	 .byte 0x3b
 11869 5b9b 08       	 .byte 0x8
 11870 5b9c 53080000 	 .4byte 0x853
 11871 5ba0 2D       	 .byte 0x2d
 11872 5ba1 08       	 .uleb128 0x8
 11873 5ba2 AD600000 	 .4byte .LASF913
 11874 5ba6 2C       	 .byte 0x2c
 11875 5ba7 3C       	 .byte 0x3c
 11876 5ba8 08       	 .byte 0x8
 11877 5ba9 53080000 	 .4byte 0x853
 11878 5bad 2E       	 .byte 0x2e
 11879 5bae 08       	 .uleb128 0x8
 11880 5baf C93C0000 	 .4byte .LASF914
 11881 5bb3 2C       	 .byte 0x2c
 11882 5bb4 3D       	 .byte 0x3d
 11883 5bb5 08       	 .byte 0x8
 11884 5bb6 53080000 	 .4byte 0x853
 11885 5bba 2F       	 .byte 0x2f
 11886 5bbb 08       	 .uleb128 0x8
 11887 5bbc 0E540000 	 .4byte .LASF915
 11888 5bc0 2C       	 .byte 0x2c
 11889 5bc1 3E       	 .byte 0x3e
 11890 5bc2 08       	 .byte 0x8
 11891 5bc3 53080000 	 .4byte 0x853
 11892 5bc7 30       	 .byte 0x30
 11893 5bc8 08       	 .uleb128 0x8
 11894 5bc9 295D0000 	 .4byte .LASF916
 11895 5bcd 2C       	 .byte 0x2c
 11896 5bce 3F       	 .byte 0x3f
 11897 5bcf 08       	 .byte 0x8
 11898 5bd0 53080000 	 .4byte 0x853
 11899 5bd4 31       	 .byte 0x31
 11900 5bd5 08       	 .uleb128 0x8
 11901 5bd6 B84E0000 	 .4byte .LASF917
 11902 5bda 2C       	 .byte 0x2c
 11903 5bdb 40       	 .byte 0x40
 11904 5bdc 08       	 .byte 0x8
 11905 5bdd 53080000 	 .4byte 0x853
 11906 5be1 32       	 .byte 0x32
 11907 5be2 08       	 .uleb128 0x8
ARM GAS   			page 223


 11908 5be3 E16A0000 	 .4byte .LASF918
 11909 5be7 2C       	 .byte 0x2c
 11910 5be8 41       	 .byte 0x41
 11911 5be9 08       	 .byte 0x8
 11912 5bea 53080000 	 .4byte 0x853
 11913 5bee 33       	 .byte 0x33
 11914 5bef 08       	 .uleb128 0x8
 11915 5bf0 7D010000 	 .4byte .LASF919
 11916 5bf4 2C       	 .byte 0x2c
 11917 5bf5 42       	 .byte 0x42
 11918 5bf6 08       	 .byte 0x8
 11919 5bf7 53080000 	 .4byte 0x853
 11920 5bfb 34       	 .byte 0x34
 11921 5bfc 08       	 .uleb128 0x8
 11922 5bfd 235A0000 	 .4byte .LASF920
 11923 5c01 2C       	 .byte 0x2c
 11924 5c02 43       	 .byte 0x43
 11925 5c03 08       	 .byte 0x8
 11926 5c04 53080000 	 .4byte 0x853
 11927 5c08 35       	 .byte 0x35
 11928 5c09 00       	 .byte 0
 11929 5c0a 07       	 .uleb128 0x7
 11930 5c0b E90C0000 	 .4byte .LASF921
 11931 5c0f 2C       	 .byte 0x2c
 11932 5c10 52       	 .byte 0x52
 11933 5c11 07       	 .byte 0x7
 11934 5c12 48080000 	 .4byte 0x848
 11935 5c16 255C0000 	 .4byte 0x5c25
 11936 5c1a 01       	 .uleb128 0x1
 11937 5c1b 46010000 	 .4byte 0x146
 11938 5c1f 01       	 .uleb128 0x1
 11939 5c20 83080000 	 .4byte 0x883
 11940 5c24 00       	 .byte 0
 11941 5c25 2F       	 .uleb128 0x2f
 11942 5c26 EC650000 	 .4byte .LASF923
 11943 5c2a 2C       	 .byte 0x2c
 11944 5c2b 53       	 .byte 0x53
 11945 5c2c 0F       	 .byte 0xf
 11946 5c2d 315C0000 	 .4byte 0x5c31
 11947 5c31 09       	 .uleb128 0x9
 11948 5c32 04       	 .byte 0x4
 11949 5c33 C45A0000 	 .4byte 0x5ac4
 11950 5c37 06       	 .uleb128 0x6
 11951 5c38 852D0000 	 .4byte .LASF924
 11952 5c3c 01       	 .byte 0x1
 11953 5c3d 1F       	 .byte 0x1f
 11954 5c3e 0D       	 .byte 0xd
 11955 5c3f 46010000 	 .4byte 0x146
 11956 5c43 07       	 .uleb128 0x7
 11957 5c44 87200000 	 .4byte .LASF925
 11958 5c48 28       	 .byte 0x28
 11959 5c49 4C       	 .byte 0x4c
 11960 5c4a 05       	 .byte 0x5
 11961 5c4b 46010000 	 .4byte 0x146
 11962 5c4f 595C0000 	 .4byte 0x5c59
 11963 5c53 01       	 .uleb128 0x1
 11964 5c54 02040000 	 .4byte 0x402
ARM GAS   			page 224


 11965 5c58 00       	 .byte 0
 11966 5c59 07       	 .uleb128 0x7
 11967 5c5a CF100000 	 .4byte .LASF926
 11968 5c5e 28       	 .byte 0x28
 11969 5c5f 4D       	 .byte 0x4d
 11970 5c60 08       	 .byte 0x8
 11971 5c61 A64C0000 	 .4byte 0x4ca6
 11972 5c65 6F5C0000 	 .4byte 0x5c6f
 11973 5c69 01       	 .uleb128 0x1
 11974 5c6a 83080000 	 .4byte 0x883
 11975 5c6e 00       	 .byte 0
 11976 5c6f 07       	 .uleb128 0x7
 11977 5c70 4E0A0000 	 .4byte .LASF927
 11978 5c74 28       	 .byte 0x28
 11979 5c75 51       	 .byte 0x51
 11980 5c76 05       	 .byte 0x5
 11981 5c77 46010000 	 .4byte 0x146
 11982 5c7b 855C0000 	 .4byte 0x5c85
 11983 5c7f 01       	 .uleb128 0x1
 11984 5c80 83080000 	 .4byte 0x883
 11985 5c84 00       	 .byte 0
 11986 5c85 07       	 .uleb128 0x7
 11987 5c86 B2110000 	 .4byte .LASF928
 11988 5c8a 28       	 .byte 0x28
 11989 5c8b 53       	 .byte 0x53
 11990 5c8c 06       	 .byte 0x6
 11991 5c8d 7D000000 	 .4byte 0x7d
 11992 5c91 9B5C0000 	 .4byte 0x5c9b
 11993 5c95 01       	 .uleb128 0x1
 11994 5c96 83080000 	 .4byte 0x883
 11995 5c9a 00       	 .byte 0
 11996 5c9b 07       	 .uleb128 0x7
 11997 5c9c 9B4C0000 	 .4byte .LASF929
 11998 5ca0 28       	 .byte 0x28
 11999 5ca1 55       	 .byte 0x55
 12000 5ca2 08       	 .byte 0x8
 12001 5ca3 A5010000 	 .4byte 0x1a5
 12002 5ca7 C55C0000 	 .4byte 0x5cc5
 12003 5cab 01       	 .uleb128 0x1
 12004 5cac 934D0000 	 .4byte 0x4d93
 12005 5cb0 01       	 .uleb128 0x1
 12006 5cb1 934D0000 	 .4byte 0x4d93
 12007 5cb5 01       	 .uleb128 0x1
 12008 5cb6 6A010000 	 .4byte 0x16a
 12009 5cba 01       	 .uleb128 0x1
 12010 5cbb 6A010000 	 .4byte 0x16a
 12011 5cbf 01       	 .uleb128 0x1
 12012 5cc0 6D4D0000 	 .4byte 0x4d6d
 12013 5cc4 00       	 .byte 0
 12014 5cc5 77       	 .uleb128 0x77
 12015 5cc6 64697600 	 .ascii "div\000"
 12016 5cca 28       	 .byte 0x28
 12017 5ccb 5C       	 .byte 0x5c
 12018 5ccc 07       	 .byte 0x7
 12019 5ccd F94C0000 	 .4byte 0x4cf9
 12020 5cd1 E05C0000 	 .4byte 0x5ce0
 12021 5cd5 01       	 .uleb128 0x1
ARM GAS   			page 225


 12022 5cd6 46010000 	 .4byte 0x146
 12023 5cda 01       	 .uleb128 0x1
 12024 5cdb 46010000 	 .4byte 0x146
 12025 5cdf 00       	 .byte 0
 12026 5ce0 07       	 .uleb128 0x7
 12027 5ce1 F35D0000 	 .4byte .LASF930
 12028 5ce5 28       	 .byte 0x28
 12029 5ce6 5F       	 .byte 0x5f
 12030 5ce7 09       	 .byte 0x9
 12031 5ce8 48080000 	 .4byte 0x848
 12032 5cec F65C0000 	 .4byte 0x5cf6
 12033 5cf0 01       	 .uleb128 0x1
 12034 5cf1 83080000 	 .4byte 0x883
 12035 5cf5 00       	 .byte 0
 12036 5cf6 07       	 .uleb128 0x7
 12037 5cf7 70520000 	 .4byte .LASF931
 12038 5cfb 28       	 .byte 0x28
 12039 5cfc 6B       	 .byte 0x6b
 12040 5cfd 08       	 .byte 0x8
 12041 5cfe 2D4D0000 	 .4byte 0x4d2d
 12042 5d02 115D0000 	 .4byte 0x5d11
 12043 5d06 01       	 .uleb128 0x1
 12044 5d07 7D000000 	 .4byte 0x7d
 12045 5d0b 01       	 .uleb128 0x1
 12046 5d0c 7D000000 	 .4byte 0x7d
 12047 5d10 00       	 .byte 0
 12048 5d11 07       	 .uleb128 0x7
 12049 5d12 B62A0000 	 .4byte .LASF932
 12050 5d16 28       	 .byte 0x28
 12051 5d17 6D       	 .byte 0x6d
 12052 5d18 05       	 .byte 0x5
 12053 5d19 46010000 	 .4byte 0x146
 12054 5d1d 2C5D0000 	 .4byte 0x5d2c
 12055 5d21 01       	 .uleb128 0x1
 12056 5d22 83080000 	 .4byte 0x883
 12057 5d26 01       	 .uleb128 0x1
 12058 5d27 6A010000 	 .4byte 0x16a
 12059 5d2b 00       	 .byte 0
 12060 5d2c 07       	 .uleb128 0x7
 12061 5d2d 293C0000 	 .4byte .LASF933
 12062 5d31 28       	 .byte 0x28
 12063 5d32 73       	 .byte 0x73
 12064 5d33 08       	 .byte 0x8
 12065 5d34 6A010000 	 .4byte 0x16a
 12066 5d38 4C5D0000 	 .4byte 0x5d4c
 12067 5d3c 01       	 .uleb128 0x1
 12068 5d3d DF530000 	 .4byte 0x53df
 12069 5d41 01       	 .uleb128 0x1
 12070 5d42 83080000 	 .4byte 0x883
 12071 5d46 01       	 .uleb128 0x1
 12072 5d47 6A010000 	 .4byte 0x16a
 12073 5d4b 00       	 .byte 0
 12074 5d4c 07       	 .uleb128 0x7
 12075 5d4d FF590000 	 .4byte .LASF934
 12076 5d51 28       	 .byte 0x28
 12077 5d52 6F       	 .byte 0x6f
 12078 5d53 05       	 .byte 0x5
ARM GAS   			page 226


 12079 5d54 46010000 	 .4byte 0x146
 12080 5d58 6C5D0000 	 .4byte 0x5d6c
 12081 5d5c 01       	 .uleb128 0x1
 12082 5d5d DF530000 	 .4byte 0x53df
 12083 5d61 01       	 .uleb128 0x1
 12084 5d62 83080000 	 .4byte 0x883
 12085 5d66 01       	 .uleb128 0x1
 12086 5d67 6A010000 	 .4byte 0x16a
 12087 5d6b 00       	 .byte 0
 12088 5d6c 29       	 .uleb128 0x29
 12089 5d6d 3E560000 	 .4byte .LASF936
 12090 5d71 28       	 .byte 0x28
 12091 5d72 8F       	 .byte 0x8f
 12092 5d73 06       	 .byte 0x6
 12093 5d74 8D5D0000 	 .4byte 0x5d8d
 12094 5d78 01       	 .uleb128 0x1
 12095 5d79 A5010000 	 .4byte 0x1a5
 12096 5d7d 01       	 .uleb128 0x1
 12097 5d7e 6A010000 	 .4byte 0x16a
 12098 5d82 01       	 .uleb128 0x1
 12099 5d83 6A010000 	 .4byte 0x16a
 12100 5d87 01       	 .uleb128 0x1
 12101 5d88 6D4D0000 	 .4byte 0x4d6d
 12102 5d8c 00       	 .byte 0
 12103 5d8d 2F       	 .uleb128 0x2f
 12104 5d8e BC5E0000 	 .4byte .LASF935
 12105 5d92 28       	 .byte 0x28
 12106 5d93 90       	 .byte 0x90
 12107 5d94 05       	 .byte 0x5
 12108 5d95 46010000 	 .4byte 0x146
 12109 5d99 29       	 .uleb128 0x29
 12110 5d9a EC350000 	 .4byte .LASF937
 12111 5d9e 28       	 .byte 0x28
 12112 5d9f 9F       	 .byte 0x9f
 12113 5da0 06       	 .byte 0x6
 12114 5da1 AB5D0000 	 .4byte 0x5dab
 12115 5da5 01       	 .uleb128 0x1
 12116 5da6 5E010000 	 .4byte 0x15e
 12117 5daa 00       	 .byte 0
 12118 5dab 07       	 .uleb128 0x7
 12119 5dac 7E070000 	 .4byte .LASF938
 12120 5db0 28       	 .byte 0x28
 12121 5db1 A0       	 .byte 0xa0
 12122 5db2 08       	 .byte 0x8
 12123 5db3 A64C0000 	 .4byte 0x4ca6
 12124 5db7 C65D0000 	 .4byte 0x5dc6
 12125 5dbb 01       	 .uleb128 0x1
 12126 5dbc 83080000 	 .4byte 0x883
 12127 5dc0 01       	 .uleb128 0x1
 12128 5dc1 C65D0000 	 .4byte 0x5dc6
 12129 5dc5 00       	 .byte 0
 12130 5dc6 09       	 .uleb128 0x9
 12131 5dc7 04       	 .byte 0x4
 12132 5dc8 48080000 	 .4byte 0x848
 12133 5dcc 07       	 .uleb128 0x7
 12134 5dcd CD070000 	 .4byte .LASF939
 12135 5dd1 28       	 .byte 0x28
ARM GAS   			page 227


 12136 5dd2 AB       	 .byte 0xab
 12137 5dd3 06       	 .byte 0x6
 12138 5dd4 7D000000 	 .4byte 0x7d
 12139 5dd8 EC5D0000 	 .4byte 0x5dec
 12140 5ddc 01       	 .uleb128 0x1
 12141 5ddd 83080000 	 .4byte 0x883
 12142 5de1 01       	 .uleb128 0x1
 12143 5de2 C65D0000 	 .4byte 0x5dc6
 12144 5de6 01       	 .uleb128 0x1
 12145 5de7 46010000 	 .4byte 0x146
 12146 5deb 00       	 .byte 0
 12147 5dec 07       	 .uleb128 0x7
 12148 5ded 20300000 	 .4byte .LASF940
 12149 5df1 28       	 .byte 0x28
 12150 5df2 AD       	 .byte 0xad
 12151 5df3 0F       	 .byte 0xf
 12152 5df4 90000000 	 .4byte 0x90
 12153 5df8 0C5E0000 	 .4byte 0x5e0c
 12154 5dfc 01       	 .uleb128 0x1
 12155 5dfd 83080000 	 .4byte 0x883
 12156 5e01 01       	 .uleb128 0x1
 12157 5e02 C65D0000 	 .4byte 0x5dc6
 12158 5e06 01       	 .uleb128 0x1
 12159 5e07 46010000 	 .4byte 0x146
 12160 5e0b 00       	 .byte 0
 12161 5e0c 07       	 .uleb128 0x7
 12162 5e0d 5F370000 	 .4byte .LASF941
 12163 5e11 28       	 .byte 0x28
 12164 5e12 BF       	 .byte 0xbf
 12165 5e13 05       	 .byte 0x5
 12166 5e14 46010000 	 .4byte 0x146
 12167 5e18 225E0000 	 .4byte 0x5e22
 12168 5e1c 01       	 .uleb128 0x1
 12169 5e1d 83080000 	 .4byte 0x883
 12170 5e21 00       	 .byte 0
 12171 5e22 07       	 .uleb128 0x7
 12172 5e23 8A310000 	 .4byte .LASF942
 12173 5e27 28       	 .byte 0x28
 12174 5e28 75       	 .byte 0x75
 12175 5e29 08       	 .byte 0x8
 12176 5e2a 6A010000 	 .4byte 0x16a
 12177 5e2e 425E0000 	 .4byte 0x5e42
 12178 5e32 01       	 .uleb128 0x1
 12179 5e33 48080000 	 .4byte 0x848
 12180 5e37 01       	 .uleb128 0x1
 12181 5e38 1B540000 	 .4byte 0x541b
 12182 5e3c 01       	 .uleb128 0x1
 12183 5e3d 6A010000 	 .4byte 0x16a
 12184 5e41 00       	 .byte 0
 12185 5e42 07       	 .uleb128 0x7
 12186 5e43 7A0F0000 	 .4byte .LASF943
 12187 5e47 28       	 .byte 0x28
 12188 5e48 71       	 .byte 0x71
 12189 5e49 05       	 .byte 0x5
 12190 5e4a 46010000 	 .4byte 0x146
 12191 5e4e 5D5E0000 	 .4byte 0x5e5d
 12192 5e52 01       	 .uleb128 0x1
ARM GAS   			page 228


 12193 5e53 48080000 	 .4byte 0x848
 12194 5e57 01       	 .uleb128 0x1
 12195 5e58 48530000 	 .4byte 0x5348
 12196 5e5c 00       	 .byte 0
 12197 5e5d 13       	 .uleb128 0x13
 12198 5e5e 92150000 	 .4byte .LASF944
 12199 5e62 28       	 .byte 0x28
 12200 5e63 0C01     	 .2byte 0x10c
 12201 5e65 09       	 .byte 0x9
 12202 5e66 614D0000 	 .4byte 0x4d61
 12203 5e6a 795E0000 	 .4byte 0x5e79
 12204 5e6e 01       	 .uleb128 0x1
 12205 5e6f A8000000 	 .4byte 0xa8
 12206 5e73 01       	 .uleb128 0x1
 12207 5e74 A8000000 	 .4byte 0xa8
 12208 5e78 00       	 .byte 0
 12209 5e79 13       	 .uleb128 0x13
 12210 5e7a 0A4C0000 	 .4byte .LASF945
 12211 5e7e 28       	 .byte 0x28
 12212 5e7f 0701     	 .2byte 0x107
 12213 5e81 0B       	 .byte 0xb
 12214 5e82 A8000000 	 .4byte 0xa8
 12215 5e86 905E0000 	 .4byte 0x5e90
 12216 5e8a 01       	 .uleb128 0x1
 12217 5e8b 83080000 	 .4byte 0x883
 12218 5e8f 00       	 .byte 0
 12219 5e90 13       	 .uleb128 0x13
 12220 5e91 D91F0000 	 .4byte .LASF946
 12221 5e95 28       	 .byte 0x28
 12222 5e96 0D01     	 .2byte 0x10d
 12223 5e98 0B       	 .byte 0xb
 12224 5e99 A8000000 	 .4byte 0xa8
 12225 5e9d B15E0000 	 .4byte 0x5eb1
 12226 5ea1 01       	 .uleb128 0x1
 12227 5ea2 83080000 	 .4byte 0x883
 12228 5ea6 01       	 .uleb128 0x1
 12229 5ea7 C65D0000 	 .4byte 0x5dc6
 12230 5eab 01       	 .uleb128 0x1
 12231 5eac 46010000 	 .4byte 0x146
 12232 5eb0 00       	 .byte 0
 12233 5eb1 13       	 .uleb128 0x13
 12234 5eb2 3B2D0000 	 .4byte .LASF947
 12235 5eb6 28       	 .byte 0x28
 12236 5eb7 1101     	 .2byte 0x111
 12237 5eb9 14       	 .byte 0x14
 12238 5eba BB000000 	 .4byte 0xbb
 12239 5ebe D25E0000 	 .4byte 0x5ed2
 12240 5ec2 01       	 .uleb128 0x1
 12241 5ec3 83080000 	 .4byte 0x883
 12242 5ec7 01       	 .uleb128 0x1
 12243 5ec8 C65D0000 	 .4byte 0x5dc6
 12244 5ecc 01       	 .uleb128 0x1
 12245 5ecd 46010000 	 .4byte 0x146
 12246 5ed1 00       	 .byte 0
 12247 5ed2 07       	 .uleb128 0x7
 12248 5ed3 93070000 	 .4byte .LASF948
 12249 5ed7 28       	 .byte 0x28
ARM GAS   			page 229


 12250 5ed8 A3       	 .byte 0xa3
 12251 5ed9 07       	 .byte 0x7
 12252 5eda AD4C0000 	 .4byte 0x4cad
 12253 5ede ED5E0000 	 .4byte 0x5eed
 12254 5ee2 01       	 .uleb128 0x1
 12255 5ee3 83080000 	 .4byte 0x883
 12256 5ee7 01       	 .uleb128 0x1
 12257 5ee8 C65D0000 	 .4byte 0x5dc6
 12258 5eec 00       	 .byte 0
 12259 5eed 13       	 .uleb128 0x13
 12260 5eee CB1F0000 	 .4byte .LASF949
 12261 5ef2 28       	 .byte 0x28
 12262 5ef3 4401     	 .2byte 0x144
 12263 5ef5 14       	 .byte 0x14
 12264 5ef6 76010000 	 .4byte 0x176
 12265 5efa 095F0000 	 .4byte 0x5f09
 12266 5efe 01       	 .uleb128 0x1
 12267 5eff 83080000 	 .4byte 0x883
 12268 5f03 01       	 .uleb128 0x1
 12269 5f04 C65D0000 	 .4byte 0x5dc6
 12270 5f08 00       	 .byte 0
 12271 5f09 29       	 .uleb128 0x29
 12272 5f0a 59340000 	 .4byte .LASF950
 12273 5f0e 0C       	 .byte 0xc
 12274 5f0f EE       	 .byte 0xee
 12275 5f10 06       	 .byte 0x6
 12276 5f11 1B5F0000 	 .4byte 0x5f1b
 12277 5f15 01       	 .uleb128 0x1
 12278 5f16 1B5F0000 	 .4byte 0x5f1b
 12279 5f1a 00       	 .byte 0
 12280 5f1b 09       	 .uleb128 0x9
 12281 5f1c 04       	 .byte 0x4
 12282 5f1d C60A0000 	 .4byte 0xac6
 12283 5f21 07       	 .uleb128 0x7
 12284 5f22 19300000 	 .4byte .LASF951
 12285 5f26 0C       	 .byte 0xc
 12286 5f27 BF       	 .byte 0xbf
 12287 5f28 05       	 .byte 0x5
 12288 5f29 46010000 	 .4byte 0x146
 12289 5f2d 375F0000 	 .4byte 0x5f37
 12290 5f31 01       	 .uleb128 0x1
 12291 5f32 1B5F0000 	 .4byte 0x5f1b
 12292 5f36 00       	 .byte 0
 12293 5f37 07       	 .uleb128 0x7
 12294 5f38 83050000 	 .4byte .LASF952
 12295 5f3c 0C       	 .byte 0xc
 12296 5f3d EF       	 .byte 0xef
 12297 5f3e 05       	 .byte 0x5
 12298 5f3f 46010000 	 .4byte 0x146
 12299 5f43 4D5F0000 	 .4byte 0x5f4d
 12300 5f47 01       	 .uleb128 0x1
 12301 5f48 1B5F0000 	 .4byte 0x5f1b
 12302 5f4c 00       	 .byte 0
 12303 5f4d 07       	 .uleb128 0x7
 12304 5f4e 96460000 	 .4byte .LASF953
 12305 5f52 0C       	 .byte 0xc
 12306 5f53 F0       	 .byte 0xf0
ARM GAS   			page 230


 12307 5f54 05       	 .byte 0x5
 12308 5f55 46010000 	 .4byte 0x146
 12309 5f59 635F0000 	 .4byte 0x5f63
 12310 5f5d 01       	 .uleb128 0x1
 12311 5f5e 1B5F0000 	 .4byte 0x5f1b
 12312 5f62 00       	 .byte 0
 12313 5f63 07       	 .uleb128 0x7
 12314 5f64 A12B0000 	 .4byte .LASF954
 12315 5f68 0C       	 .byte 0xc
 12316 5f69 C0       	 .byte 0xc0
 12317 5f6a 05       	 .byte 0x5
 12318 5f6b 46010000 	 .4byte 0x146
 12319 5f6f 795F0000 	 .4byte 0x5f79
 12320 5f73 01       	 .uleb128 0x1
 12321 5f74 1B5F0000 	 .4byte 0x5f1b
 12322 5f78 00       	 .byte 0
 12323 5f79 07       	 .uleb128 0x7
 12324 5f7a 2D360000 	 .4byte .LASF955
 12325 5f7e 0C       	 .byte 0xc
 12326 5f7f D4       	 .byte 0xd4
 12327 5f80 05       	 .byte 0x5
 12328 5f81 46010000 	 .4byte 0x146
 12329 5f85 8F5F0000 	 .4byte 0x5f8f
 12330 5f89 01       	 .uleb128 0x1
 12331 5f8a 1B5F0000 	 .4byte 0x5f1b
 12332 5f8e 00       	 .byte 0
 12333 5f8f 07       	 .uleb128 0x7
 12334 5f90 A73F0000 	 .4byte .LASF956
 12335 5f94 0C       	 .byte 0xc
 12336 5f95 E4       	 .byte 0xe4
 12337 5f96 05       	 .byte 0x5
 12338 5f97 46010000 	 .4byte 0x146
 12339 5f9b AA5F0000 	 .4byte 0x5faa
 12340 5f9f 01       	 .uleb128 0x1
 12341 5fa0 1B5F0000 	 .4byte 0x5f1b
 12342 5fa4 01       	 .uleb128 0x1
 12343 5fa5 AA5F0000 	 .4byte 0x5faa
 12344 5fa9 00       	 .byte 0
 12345 5faa 09       	 .uleb128 0x9
 12346 5fab 04       	 .byte 0x4
 12347 5fac D20A0000 	 .4byte 0xad2
 12348 5fb0 07       	 .uleb128 0x7
 12349 5fb1 7B130000 	 .4byte .LASF957
 12350 5fb5 0C       	 .byte 0xc
 12351 5fb6 D5       	 .byte 0xd5
 12352 5fb7 09       	 .byte 0x9
 12353 5fb8 48080000 	 .4byte 0x848
 12354 5fbc D05F0000 	 .4byte 0x5fd0
 12355 5fc0 01       	 .uleb128 0x1
 12356 5fc1 48080000 	 .4byte 0x848
 12357 5fc5 01       	 .uleb128 0x1
 12358 5fc6 46010000 	 .4byte 0x146
 12359 5fca 01       	 .uleb128 0x1
 12360 5fcb 1B5F0000 	 .4byte 0x5f1b
 12361 5fcf 00       	 .byte 0
 12362 5fd0 07       	 .uleb128 0x7
 12363 5fd1 D75C0000 	 .4byte .LASF958
ARM GAS   			page 231


 12364 5fd5 0C       	 .byte 0xc
 12365 5fd6 F3       	 .byte 0xf3
 12366 5fd7 08       	 .byte 0x8
 12367 5fd8 1B5F0000 	 .4byte 0x5f1b
 12368 5fdc EB5F0000 	 .4byte 0x5feb
 12369 5fe0 01       	 .uleb128 0x1
 12370 5fe1 83080000 	 .4byte 0x883
 12371 5fe5 01       	 .uleb128 0x1
 12372 5fe6 83080000 	 .4byte 0x883
 12373 5fea 00       	 .byte 0
 12374 5feb 07       	 .uleb128 0x7
 12375 5fec 9C120000 	 .4byte .LASF959
 12376 5ff0 0C       	 .byte 0xc
 12377 5ff1 DF       	 .byte 0xdf
 12378 5ff2 08       	 .byte 0x8
 12379 5ff3 6A010000 	 .4byte 0x16a
 12380 5ff7 10600000 	 .4byte 0x6010
 12381 5ffb 01       	 .uleb128 0x1
 12382 5ffc A5010000 	 .4byte 0x1a5
 12383 6000 01       	 .uleb128 0x1
 12384 6001 6A010000 	 .4byte 0x16a
 12385 6005 01       	 .uleb128 0x1
 12386 6006 6A010000 	 .4byte 0x16a
 12387 600a 01       	 .uleb128 0x1
 12388 600b 1B5F0000 	 .4byte 0x5f1b
 12389 600f 00       	 .byte 0
 12390 6010 07       	 .uleb128 0x7
 12391 6011 25140000 	 .4byte .LASF960
 12392 6015 0C       	 .byte 0xc
 12393 6016 C1       	 .byte 0xc1
 12394 6017 08       	 .byte 0x8
 12395 6018 1B5F0000 	 .4byte 0x5f1b
 12396 601c 30600000 	 .4byte 0x6030
 12397 6020 01       	 .uleb128 0x1
 12398 6021 83080000 	 .4byte 0x883
 12399 6025 01       	 .uleb128 0x1
 12400 6026 83080000 	 .4byte 0x883
 12401 602a 01       	 .uleb128 0x1
 12402 602b 1B5F0000 	 .4byte 0x5f1b
 12403 602f 00       	 .byte 0
 12404 6030 07       	 .uleb128 0x7
 12405 6031 874C0000 	 .4byte .LASF961
 12406 6035 0C       	 .byte 0xc
 12407 6036 E6       	 .byte 0xe6
 12408 6037 05       	 .byte 0x5
 12409 6038 46010000 	 .4byte 0x146
 12410 603c 50600000 	 .4byte 0x6050
 12411 6040 01       	 .uleb128 0x1
 12412 6041 1B5F0000 	 .4byte 0x5f1b
 12413 6045 01       	 .uleb128 0x1
 12414 6046 7D000000 	 .4byte 0x7d
 12415 604a 01       	 .uleb128 0x1
 12416 604b 46010000 	 .4byte 0x146
 12417 604f 00       	 .byte 0
 12418 6050 07       	 .uleb128 0x7
 12419 6051 A1500000 	 .4byte .LASF962
 12420 6055 0C       	 .byte 0xc
ARM GAS   			page 232


 12421 6056 EA       	 .byte 0xea
 12422 6057 05       	 .byte 0x5
 12423 6058 46010000 	 .4byte 0x146
 12424 605c 6B600000 	 .4byte 0x606b
 12425 6060 01       	 .uleb128 0x1
 12426 6061 1B5F0000 	 .4byte 0x5f1b
 12427 6065 01       	 .uleb128 0x1
 12428 6066 6B600000 	 .4byte 0x606b
 12429 606a 00       	 .byte 0
 12430 606b 09       	 .uleb128 0x9
 12431 606c 04       	 .byte 0x4
 12432 606d DE0A0000 	 .4byte 0xade
 12433 6071 07       	 .uleb128 0x7
 12434 6072 9E220000 	 .4byte .LASF963
 12435 6076 0C       	 .byte 0xc
 12436 6077 EC       	 .byte 0xec
 12437 6078 06       	 .byte 0x6
 12438 6079 7D000000 	 .4byte 0x7d
 12439 607d 87600000 	 .4byte 0x6087
 12440 6081 01       	 .uleb128 0x1
 12441 6082 1B5F0000 	 .4byte 0x5f1b
 12442 6086 00       	 .byte 0
 12443 6087 07       	 .uleb128 0x7
 12444 6088 52410000 	 .4byte .LASF964
 12445 608c 0C       	 .byte 0xc
 12446 608d D8       	 .byte 0xd8
 12447 608e 05       	 .byte 0x5
 12448 608f 46010000 	 .4byte 0x146
 12449 6093 9D600000 	 .4byte 0x609d
 12450 6097 01       	 .uleb128 0x1
 12451 6098 1B5F0000 	 .4byte 0x5f1b
 12452 609c 00       	 .byte 0
 12453 609d 2F       	 .uleb128 0x2f
 12454 609e EB620000 	 .4byte .LASF965
 12455 60a2 0C       	 .byte 0xc
 12456 60a3 D9       	 .byte 0xd9
 12457 60a4 05       	 .byte 0x5
 12458 60a5 46010000 	 .4byte 0x146
 12459 60a9 29       	 .uleb128 0x29
 12460 60aa 5E270000 	 .4byte .LASF966
 12461 60ae 0C       	 .byte 0xc
 12462 60af F1       	 .byte 0xf1
 12463 60b0 09       	 .byte 0x9
 12464 60b1 BB600000 	 .4byte 0x60bb
 12465 60b5 01       	 .uleb128 0x1
 12466 60b6 83080000 	 .4byte 0x883
 12467 60ba 00       	 .byte 0
 12468 60bb 07       	 .uleb128 0x7
 12469 60bc D83E0000 	 .4byte .LASF967
 12470 60c0 0C       	 .byte 0xc
 12471 60c1 F6       	 .byte 0xf6
 12472 60c2 05       	 .byte 0x5
 12473 60c3 46010000 	 .4byte 0x146
 12474 60c7 D1600000 	 .4byte 0x60d1
 12475 60cb 01       	 .uleb128 0x1
 12476 60cc 83080000 	 .4byte 0x883
 12477 60d0 00       	 .byte 0
ARM GAS   			page 233


 12478 60d1 07       	 .uleb128 0x7
 12479 60d2 B83D0000 	 .4byte .LASF968
 12480 60d6 0C       	 .byte 0xc
 12481 60d7 F7       	 .byte 0xf7
 12482 60d8 05       	 .byte 0x5
 12483 60d9 46010000 	 .4byte 0x146
 12484 60dd EC600000 	 .4byte 0x60ec
 12485 60e1 01       	 .uleb128 0x1
 12486 60e2 83080000 	 .4byte 0x883
 12487 60e6 01       	 .uleb128 0x1
 12488 60e7 83080000 	 .4byte 0x883
 12489 60eb 00       	 .byte 0
 12490 60ec 29       	 .uleb128 0x29
 12491 60ed 3E1E0000 	 .4byte .LASF969
 12492 60f1 0C       	 .byte 0xc
 12493 60f2 ED       	 .byte 0xed
 12494 60f3 06       	 .byte 0x6
 12495 60f4 FE600000 	 .4byte 0x60fe
 12496 60f8 01       	 .uleb128 0x1
 12497 60f9 1B5F0000 	 .4byte 0x5f1b
 12498 60fd 00       	 .byte 0
 12499 60fe 29       	 .uleb128 0x29
 12500 60ff 5F1D0000 	 .4byte .LASF970
 12501 6103 0C       	 .byte 0xc
 12502 6104 C2       	 .byte 0xc2
 12503 6105 06       	 .byte 0x6
 12504 6106 15610000 	 .4byte 0x6115
 12505 610a 01       	 .uleb128 0x1
 12506 610b 1B5F0000 	 .4byte 0x5f1b
 12507 610f 01       	 .uleb128 0x1
 12508 6110 48080000 	 .4byte 0x848
 12509 6114 00       	 .byte 0
 12510 6115 07       	 .uleb128 0x7
 12511 6116 9F580000 	 .4byte .LASF971
 12512 611a 0C       	 .byte 0xc
 12513 611b C3       	 .byte 0xc3
 12514 611c 05       	 .byte 0x5
 12515 611d 46010000 	 .4byte 0x146
 12516 6121 3A610000 	 .4byte 0x613a
 12517 6125 01       	 .uleb128 0x1
 12518 6126 1B5F0000 	 .4byte 0x5f1b
 12519 612a 01       	 .uleb128 0x1
 12520 612b 48080000 	 .4byte 0x848
 12521 612f 01       	 .uleb128 0x1
 12522 6130 46010000 	 .4byte 0x146
 12523 6134 01       	 .uleb128 0x1
 12524 6135 6A010000 	 .4byte 0x16a
 12525 6139 00       	 .byte 0
 12526 613a 2F       	 .uleb128 0x2f
 12527 613b F2300000 	 .4byte .LASF972
 12528 613f 0C       	 .byte 0xc
 12529 6140 BA       	 .byte 0xba
 12530 6141 08       	 .byte 0x8
 12531 6142 1B5F0000 	 .4byte 0x5f1b
 12532 6146 07       	 .uleb128 0x7
 12533 6147 8F460000 	 .4byte .LASF973
 12534 614b 0C       	 .byte 0xc
ARM GAS   			page 234


 12535 614c BB       	 .byte 0xbb
 12536 614d 08       	 .byte 0x8
 12537 614e 48080000 	 .4byte 0x848
 12538 6152 5C610000 	 .4byte 0x615c
 12539 6156 01       	 .uleb128 0x1
 12540 6157 48080000 	 .4byte 0x848
 12541 615b 00       	 .byte 0
 12542 615c 07       	 .uleb128 0x7
 12543 615d C22D0000 	 .4byte .LASF974
 12544 6161 0C       	 .byte 0xc
 12545 6162 DE       	 .byte 0xde
 12546 6163 05       	 .byte 0x5
 12547 6164 46010000 	 .4byte 0x146
 12548 6168 77610000 	 .4byte 0x6177
 12549 616c 01       	 .uleb128 0x1
 12550 616d 46010000 	 .4byte 0x146
 12551 6171 01       	 .uleb128 0x1
 12552 6172 1B5F0000 	 .4byte 0x5f1b
 12553 6176 00       	 .byte 0
 12554 6177 0D       	 .uleb128 0xd
 12555 6178 04       	 .byte 0x4
 12556 6179 41420000 	 .4byte 0x4241
 12557 617d 0D       	 .uleb128 0xd
 12558 617e 04       	 .byte 0x4
 12559 617f 4E420000 	 .4byte 0x424e
 12560 6183 0D       	 .uleb128 0xd
 12561 6184 04       	 .byte 0x4
 12562 6185 9D470000 	 .4byte 0x479d
 12563 6189 0D       	 .uleb128 0xd
 12564 618a 04       	 .byte 0x4
 12565 618b A9470000 	 .4byte 0x47a9
 12566 618f 09       	 .uleb128 0x9
 12567 6190 04       	 .byte 0x4
 12568 6191 C80B0000 	 .4byte 0xbc8
 12569 6195 2E       	 .uleb128 0x2e
 12570 6196 04       	 .byte 0x4
 12571 6197 843F0000 	 .4byte 0x3f84
 12572 619b 0F       	 .uleb128 0xf
 12573 619c 53080000 	 .4byte 0x853
 12574 61a0 AB610000 	 .4byte 0x61ab
 12575 61a4 10       	 .uleb128 0x10
 12576 61a5 5E010000 	 .4byte 0x15e
 12577 61a9 0F       	 .byte 0xf
 12578 61aa 00       	 .byte 0
 12579 61ab 09       	 .uleb128 0x9
 12580 61ac 04       	 .byte 0x4
 12581 61ad BB0B0000 	 .4byte 0xbbb
 12582 61b1 09       	 .uleb128 0x9
 12583 61b2 04       	 .byte 0x4
 12584 61b3 24260000 	 .4byte 0x2624
 12585 61b7 0D       	 .uleb128 0xd
 12586 61b8 04       	 .byte 0x4
 12587 61b9 680C0000 	 .4byte 0xc68
 12588 61bd 0D       	 .uleb128 0xd
 12589 61be 04       	 .byte 0x4
 12590 61bf 530E0000 	 .4byte 0xe53
 12591 61c3 0D       	 .uleb128 0xd
ARM GAS   			page 235


 12592 61c4 04       	 .byte 0x4
 12593 61c5 600E0000 	 .4byte 0xe60
 12594 61c9 0D       	 .uleb128 0xd
 12595 61ca 04       	 .byte 0x4
 12596 61cb 24260000 	 .4byte 0x2624
 12597 61cf 2E       	 .uleb128 0x2e
 12598 61d0 04       	 .byte 0x4
 12599 61d1 BB0B0000 	 .4byte 0xbbb
 12600 61d5 0D       	 .uleb128 0xd
 12601 61d6 04       	 .byte 0x4
 12602 61d7 BB0B0000 	 .4byte 0xbbb
 12603 61db 09       	 .uleb128 0x9
 12604 61dc 04       	 .byte 0x4
 12605 61dd 11430000 	 .4byte 0x4311
 12606 61e1 09       	 .uleb128 0x9
 12607 61e2 04       	 .byte 0x4
 12608 61e3 0C440000 	 .4byte 0x440c
 12609 61e7 0D       	 .uleb128 0xd
 12610 61e8 04       	 .byte 0x4
 12611 61e9 27440000 	 .4byte 0x4427
 12612 61ed 06       	 .uleb128 0x6
 12613 61ee 56160000 	 .4byte .LASF975
 12614 61f2 2D       	 .byte 0x2d
 12615 61f3 62       	 .byte 0x62
 12616 61f4 0E       	 .byte 0xe
 12617 61f5 7D000000 	 .4byte 0x7d
 12618 61f9 06       	 .uleb128 0x6
 12619 61fa 85030000 	 .4byte .LASF976
 12620 61fe 2D       	 .byte 0x2d
 12621 61ff 63       	 .byte 0x63
 12622 6200 17       	 .byte 0x17
 12623 6201 90000000 	 .4byte 0x90
 12624 6205 06       	 .uleb128 0x6
 12625 6206 3B170000 	 .4byte .LASF977
 12626 620a 2D       	 .byte 0x2d
 12627 620b 69       	 .byte 0x69
 12628 620c 13       	 .byte 0x13
 12629 620d 720A0000 	 .4byte 0xa72
 12630 6211 0A       	 .uleb128 0xa
 12631 6212 05620000 	 .4byte 0x6205
 12632 6216 06       	 .uleb128 0x6
 12633 6217 78290000 	 .4byte .LASF978
 12634 621b 2E       	 .byte 0x2e
 12635 621c 67       	 .byte 0x67
 12636 621d 10       	 .byte 0x10
 12637 621e A5010000 	 .4byte 0x1a5
 12638 6222 3C       	 .uleb128 0x3c
 12639 6223 1D1E0000 	 .4byte .LASF979
 12640 6227 2F       	 .byte 0x2f
 12641 6228 20       	 .byte 0x20
 12642 6229 0B       	 .byte 0xb
 12643 622a 98630000 	 .4byte 0x6398
 12644 622e 78       	 .uleb128 0x78
 12645 622f 661D0000 	 .4byte .LASF1095
 12646 6233 93620000 	 .4byte 0x6293
 12647 6237 20       	 .uleb128 0x20
 12648 6238 33650000 	 .4byte .LASF980
ARM GAS   			page 236


 12649 623c 02       	 .byte 0x2
 12650 623d 0B01     	 .2byte 0x10b
 12651 623f 15       	 .byte 0x15
 12652 6240 F7470000 	 .4byte .LASF981
 12653 6244 02       	 .byte 0x2
 12654 6245 4D620000 	 .4byte 0x624d
 12655 6249 58620000 	 .4byte 0x6258
 12656 624d 03       	 .uleb128 0x3
 12657 624e 326D0000 	 .4byte 0x6d32
 12658 6252 01       	 .uleb128 0x1
 12659 6253 05620000 	 .4byte 0x6205
 12660 6257 00       	 .byte 0
 12661 6258 0C       	 .uleb128 0xc
 12662 6259 AB0B0000 	 .4byte .LASF982
 12663 625d 02       	 .byte 0x2
 12664 625e B3       	 .byte 0xb3
 12665 625f 1C       	 .byte 0x1c
 12666 6260 FC570000 	 .4byte .LASF983
 12667 6264 F9610000 	 .4byte 0x61f9
 12668 6268 01       	 .byte 0x1
 12669 6269 71620000 	 .4byte 0x6271
 12670 626d 77620000 	 .4byte 0x6277
 12671 6271 03       	 .uleb128 0x3
 12672 6272 326D0000 	 .4byte 0x6d32
 12673 6276 00       	 .byte 0
 12674 6277 3D       	 .uleb128 0x3d
 12675 6278 AD330000 	 .4byte .LASF984
 12676 627c 02       	 .byte 0x2
 12677 627d 66       	 .byte 0x66
 12678 627e 1D       	 .byte 0x1d
 12679 627f 9E1C0000 	 .4byte .LASF985
 12680 6283 16620000 	 .4byte 0x6216
 12681 6287 01       	 .byte 0x1
 12682 6288 8C620000 	 .4byte 0x628c
 12683 628c 03       	 .uleb128 0x3
 12684 628d 326D0000 	 .4byte 0x6d32
 12685 6291 00       	 .byte 0
 12686 6292 00       	 .byte 0
 12687 6293 52       	 .uleb128 0x52
 12688 6294 52500000 	 .4byte .LASF986
 12689 6298 08       	 .byte 0x8
 12690 6299 30       	 .byte 0x30
 12691 629a E6       	 .byte 0xe6
 12692 629b 07       	 .byte 0x7
 12693 629c 92630000 	 .4byte 0x6392
 12694 62a0 8D630000 	 .4byte 0x638d
 12695 62a4 3E       	 .uleb128 0x3e
 12696 62a5 92630000 	 .4byte 0x6392
 12697 62a9 00       	 .byte 0
 12698 62aa 01       	 .byte 0x1
 12699 62ab 38       	 .uleb128 0x38
 12700 62ac 52500000 	 .4byte .LASF986
 12701 62b0 EE200000 	 .4byte .LASF987
 12702 62b4 96680000 	 .4byte 0x6896
 12703 62b8 01       	 .byte 0x1
 12704 62b9 C1620000 	 .4byte 0x62c1
 12705 62bd CC620000 	 .4byte 0x62cc
ARM GAS   			page 237


 12706 62c1 03       	 .uleb128 0x3
 12707 62c2 96680000 	 .4byte 0x6896
 12708 62c6 01       	 .uleb128 0x1
 12709 62c7 9C680000 	 .4byte 0x689c
 12710 62cb 00       	 .byte 0
 12711 62cc 38       	 .uleb128 0x38
 12712 62cd 52500000 	 .4byte .LASF986
 12713 62d1 F5690000 	 .4byte .LASF988
 12714 62d5 96680000 	 .4byte 0x6896
 12715 62d9 01       	 .byte 0x1
 12716 62da E2620000 	 .4byte 0x62e2
 12717 62de ED620000 	 .4byte 0x62ed
 12718 62e2 03       	 .uleb128 0x3
 12719 62e3 96680000 	 .4byte 0x6896
 12720 62e7 01       	 .uleb128 0x1
 12721 62e8 A2680000 	 .4byte 0x68a2
 12722 62ec 00       	 .byte 0
 12723 62ed 0C       	 .uleb128 0xc
 12724 62ee 52500000 	 .4byte .LASF986
 12725 62f2 30       	 .byte 0x30
 12726 62f3 F6       	 .byte 0xf6
 12727 62f4 09       	 .byte 0x9
 12728 62f5 323C0000 	 .4byte .LASF989
 12729 62f9 96680000 	 .4byte 0x6896
 12730 62fd 01       	 .byte 0x1
 12731 62fe 06630000 	 .4byte 0x6306
 12732 6302 16630000 	 .4byte 0x6316
 12733 6306 03       	 .uleb128 0x3
 12734 6307 96680000 	 .4byte 0x6896
 12735 630b 01       	 .uleb128 0x1
 12736 630c F9610000 	 .4byte 0x61f9
 12737 6310 01       	 .uleb128 0x1
 12738 6311 F9610000 	 .4byte 0x61f9
 12739 6315 00       	 .byte 0
 12740 6316 04       	 .uleb128 0x4
 12741 6317 DA0C0000 	 .4byte .LASF990
 12742 631b 30       	 .byte 0x30
 12743 631c 0201     	 .2byte 0x102
 12744 631e 0E       	 .byte 0xe
 12745 631f 3E070000 	 .4byte .LASF991
 12746 6323 4C4F0000 	 .4byte 0x4f4c
 12747 6327 01       	 .byte 0x1
 12748 6328 30630000 	 .4byte 0x6330
 12749 632c 40630000 	 .4byte 0x6340
 12750 6330 03       	 .uleb128 0x3
 12751 6331 96680000 	 .4byte 0x6896
 12752 6335 01       	 .uleb128 0x1
 12753 6336 A5010000 	 .4byte 0x1a5
 12754 633a 01       	 .uleb128 0x1
 12755 633b 05620000 	 .4byte 0x6205
 12756 633f 00       	 .byte 0
 12757 6340 04       	 .uleb128 0x4
 12758 6341 011D0000 	 .4byte .LASF992
 12759 6345 30       	 .byte 0x30
 12760 6346 0E01     	 .2byte 0x10e
 12761 6348 0E       	 .byte 0xe
 12762 6349 56320000 	 .4byte .LASF993
ARM GAS   			page 238


 12763 634d 4C4F0000 	 .4byte 0x4f4c
 12764 6351 01       	 .byte 0x1
 12765 6352 5A630000 	 .4byte 0x635a
 12766 6356 6A630000 	 .4byte 0x636a
 12767 635a 03       	 .uleb128 0x3
 12768 635b 96680000 	 .4byte 0x6896
 12769 635f 01       	 .uleb128 0x1
 12770 6360 A5010000 	 .4byte 0x1a5
 12771 6364 01       	 .uleb128 0x1
 12772 6365 A8680000 	 .4byte 0x68a8
 12773 6369 00       	 .byte 0
 12774 636a 53       	 .uleb128 0x53
 12775 636b E11F0000 	 .4byte .LASF994
 12776 636f C65D0000 	 .4byte .LASF1061
 12777 6373 A5010000 	 .4byte 0x1a5
 12778 6377 01       	 .byte 0x1
 12779 6378 93620000 	 .4byte 0x6293
 12780 637c 01       	 .byte 0x1
 12781 637d 81630000 	 .4byte 0x6381
 12782 6381 03       	 .uleb128 0x3
 12783 6382 96680000 	 .4byte 0x6896
 12784 6386 03       	 .uleb128 0x3
 12785 6387 46010000 	 .4byte 0x146
 12786 638b 00       	 .byte 0
 12787 638c 00       	 .byte 0
 12788 638d 0A       	 .uleb128 0xa
 12789 638e 93620000 	 .4byte 0x6293
 12790 6392 37       	 .uleb128 0x37
 12791 6393 E3270000 	 .4byte .LASF995
 12792 6397 00       	 .byte 0
 12793 6398 51       	 .uleb128 0x51
 12794 6399 04       	 .byte 0x4
 12795 639a 17       	 .byte 0x17
 12796 639b 11       	 .byte 0x11
 12797 639c 22620000 	 .4byte 0x6222
 12798 63a0 40       	 .uleb128 0x40
 12799 63a1 C2690000 	 .4byte .LASF997
 12800 63a5 05       	 .byte 0x5
 12801 63a6 04       	 .byte 0x4
 12802 63a7 46010000 	 .4byte 0x146
 12803 63ab 04       	 .byte 0x4
 12804 63ac 1C       	 .byte 0x1c
 12805 63ad 0C       	 .byte 0xc
 12806 63ae D1630000 	 .4byte 0x63d1
 12807 63b2 0E       	 .uleb128 0xe
 12808 63b3 44590000 	 .4byte .LASF998
 12809 63b7 02       	 .byte 0x2
 12810 63b8 0E       	 .uleb128 0xe
 12811 63b9 F8090000 	 .4byte .LASF999
 12812 63bd 03       	 .byte 0x3
 12813 63be 0E       	 .uleb128 0xe
 12814 63bf 4A590000 	 .4byte .LASF1000
 12815 63c3 04       	 .byte 0x4
 12816 63c4 0E       	 .uleb128 0xe
 12817 63c5 50590000 	 .4byte .LASF1001
 12818 63c9 05       	 .byte 0x5
 12819 63ca 0E       	 .uleb128 0xe
ARM GAS   			page 239


 12820 63cb 4F3C0000 	 .4byte .LASF831
 12821 63cf 06       	 .byte 0x6
 12822 63d0 00       	 .byte 0
 12823 63d1 0A       	 .uleb128 0xa
 12824 63d2 A0630000 	 .4byte 0x63a0
 12825 63d6 40       	 .uleb128 0x40
 12826 63d7 D1050000 	 .4byte .LASF1002
 12827 63db 05       	 .byte 0x5
 12828 63dc 04       	 .byte 0x4
 12829 63dd 46010000 	 .4byte 0x146
 12830 63e1 04       	 .byte 0x4
 12831 63e2 26       	 .byte 0x26
 12832 63e3 0C       	 .byte 0xc
 12833 63e4 1F640000 	 .4byte 0x641f
 12834 63e8 0E       	 .uleb128 0xe
 12835 63e9 3C680000 	 .4byte .LASF1003
 12836 63ed 00       	 .byte 0
 12837 63ee 0E       	 .uleb128 0xe
 12838 63ef 1C5C0000 	 .4byte .LASF1004
 12839 63f3 01       	 .byte 0x1
 12840 63f4 0E       	 .uleb128 0xe
 12841 63f5 D11B0000 	 .4byte .LASF1005
 12842 63f9 02       	 .byte 0x2
 12843 63fa 0E       	 .uleb128 0xe
 12844 63fb B70B0000 	 .4byte .LASF1006
 12845 63ff 03       	 .byte 0x3
 12846 6400 0E       	 .uleb128 0xe
 12847 6401 1D650000 	 .4byte .LASF1007
 12848 6405 04       	 .byte 0x4
 12849 6406 0E       	 .uleb128 0xe
 12850 6407 D63A0000 	 .4byte .LASF1008
 12851 640b 05       	 .byte 0x5
 12852 640c 0E       	 .uleb128 0xe
 12853 640d 60330000 	 .4byte .LASF1009
 12854 6411 06       	 .byte 0x6
 12855 6412 0E       	 .uleb128 0xe
 12856 6413 70150000 	 .4byte .LASF1010
 12857 6417 07       	 .byte 0x7
 12858 6418 0E       	 .uleb128 0xe
 12859 6419 4F3C0000 	 .4byte .LASF831
 12860 641d 08       	 .byte 0x8
 12861 641e 00       	 .byte 0
 12862 641f 0A       	 .uleb128 0xa
 12863 6420 D6630000 	 .4byte 0x63d6
 12864 6424 24       	 .uleb128 0x24
 12865 6425 9E330000 	 .4byte .LASF1011
 12866 6429 4C       	 .byte 0x4c
 12867 642a 04       	 .byte 0x4
 12868 642b 34       	 .byte 0x34
 12869 642c 07       	 .byte 0x7
 12870 642d 63650000 	 .4byte 0x6563
 12871 6431 0C       	 .uleb128 0xc
 12872 6432 9F650000 	 .4byte .LASF1012
 12873 6436 04       	 .byte 0x4
 12874 6437 38       	 .byte 0x38
 12875 6438 02       	 .byte 0x2
 12876 6439 32540000 	 .4byte .LASF1013
ARM GAS   			page 240


 12877 643d 68650000 	 .4byte 0x6568
 12878 6441 01       	 .byte 0x1
 12879 6442 4A640000 	 .4byte 0x644a
 12880 6446 50640000 	 .4byte 0x6450
 12881 644a 03       	 .uleb128 0x3
 12882 644b 68650000 	 .4byte 0x6568
 12883 644f 00       	 .byte 0
 12884 6450 0C       	 .uleb128 0xc
 12885 6451 9F650000 	 .4byte .LASF1012
 12886 6455 04       	 .byte 0x4
 12887 6456 40       	 .byte 0x40
 12888 6457 02       	 .byte 0x2
 12889 6458 A15C0000 	 .4byte .LASF1014
 12890 645c 68650000 	 .4byte 0x6568
 12891 6460 01       	 .byte 0x1
 12892 6461 69640000 	 .4byte 0x6469
 12893 6465 7E640000 	 .4byte 0x647e
 12894 6469 03       	 .uleb128 0x3
 12895 646a 68650000 	 .4byte 0x6568
 12896 646e 01       	 .uleb128 0x1
 12897 646f A0630000 	 .4byte 0x63a0
 12898 6473 01       	 .uleb128 0x1
 12899 6474 A0630000 	 .4byte 0x63a0
 12900 6478 01       	 .uleb128 0x1
 12901 6479 D6630000 	 .4byte 0x63d6
 12902 647d 00       	 .byte 0
 12903 647e 0C       	 .uleb128 0xc
 12904 647f AE300000 	 .4byte .LASF302
 12905 6483 04       	 .byte 0x4
 12906 6484 47       	 .byte 0x47
 12907 6485 09       	 .byte 0x9
 12908 6486 6A180000 	 .4byte .LASF1015
 12909 648a C6520000 	 .4byte 0x52c6
 12910 648e 01       	 .byte 0x1
 12911 648f 97640000 	 .4byte 0x6497
 12912 6493 A2640000 	 .4byte 0x64a2
 12913 6497 03       	 .uleb128 0x3
 12914 6498 73650000 	 .4byte 0x6573
 12915 649c 01       	 .uleb128 0x1
 12916 649d 13530000 	 .4byte 0x5313
 12917 64a1 00       	 .byte 0
 12918 64a2 36       	 .uleb128 0x36
 12919 64a3 C6350000 	 .4byte .LASF1016
 12920 64a7 04       	 .byte 0x4
 12921 64a8 4D       	 .byte 0x4d
 12922 64a9 07       	 .byte 0x7
 12923 64aa 451E0000 	 .4byte .LASF1017
 12924 64ae 01       	 .byte 0x1
 12925 64af B7640000 	 .4byte 0x64b7
 12926 64b3 C7640000 	 .4byte 0x64c7
 12927 64b7 03       	 .uleb128 0x3
 12928 64b8 68650000 	 .4byte 0x6568
 12929 64bc 01       	 .uleb128 0x1
 12930 64bd 13530000 	 .4byte 0x5313
 12931 64c1 01       	 .uleb128 0x1
 12932 64c2 C6520000 	 .4byte 0x52c6
 12933 64c6 00       	 .byte 0
ARM GAS   			page 241


 12934 64c7 0C       	 .uleb128 0xc
 12935 64c8 28090000 	 .4byte .LASF1018
 12936 64cc 04       	 .byte 0x4
 12937 64cd 53       	 .byte 0x53
 12938 64ce 0A       	 .byte 0xa
 12939 64cf 622D0000 	 .4byte .LASF1019
 12940 64d3 D6630000 	 .4byte 0x63d6
 12941 64d7 01       	 .byte 0x1
 12942 64d8 E0640000 	 .4byte 0x64e0
 12943 64dc E6640000 	 .4byte 0x64e6
 12944 64e0 03       	 .uleb128 0x3
 12945 64e1 73650000 	 .4byte 0x6573
 12946 64e5 00       	 .byte 0
 12947 64e6 0C       	 .uleb128 0xc
 12948 64e7 00010000 	 .4byte .LASF1020
 12949 64eb 04       	 .byte 0x4
 12950 64ec 58       	 .byte 0x58
 12951 64ed 0B       	 .byte 0xb
 12952 64ee 281D0000 	 .4byte .LASF1021
 12953 64f2 A0630000 	 .4byte 0x63a0
 12954 64f6 01       	 .byte 0x1
 12955 64f7 FF640000 	 .4byte 0x64ff
 12956 64fb 05650000 	 .4byte 0x6505
 12957 64ff 03       	 .uleb128 0x3
 12958 6500 73650000 	 .4byte 0x6573
 12959 6504 00       	 .byte 0
 12960 6505 0C       	 .uleb128 0xc
 12961 6506 121E0000 	 .4byte .LASF1022
 12962 650a 04       	 .byte 0x4
 12963 650b 5D       	 .byte 0x5d
 12964 650c 0B       	 .byte 0xb
 12965 650d F35A0000 	 .4byte .LASF1023
 12966 6511 A0630000 	 .4byte 0x63a0
 12967 6515 01       	 .byte 0x1
 12968 6516 1E650000 	 .4byte 0x651e
 12969 651a 24650000 	 .4byte 0x6524
 12970 651e 03       	 .uleb128 0x3
 12971 651f 73650000 	 .4byte 0x6573
 12972 6523 00       	 .byte 0
 12973 6524 08       	 .uleb128 0x8
 12974 6525 6B080000 	 .4byte .LASF1024
 12975 6529 04       	 .byte 0x4
 12976 652a 64       	 .byte 0x64
 12977 652b 0B       	 .byte 0xb
 12978 652c A0630000 	 .4byte 0x63a0
 12979 6530 00       	 .byte 0
 12980 6531 08       	 .uleb128 0x8
 12981 6532 0B340000 	 .4byte .LASF1025
 12982 6536 04       	 .byte 0x4
 12983 6537 64       	 .byte 0x64
 12984 6538 12       	 .byte 0x12
 12985 6539 A0630000 	 .4byte 0x63a0
 12986 653d 04       	 .byte 0x4
 12987 653e 08       	 .uleb128 0x8
 12988 653f DC150000 	 .4byte .LASF1026
 12989 6543 04       	 .byte 0x4
 12990 6544 65       	 .byte 0x65
ARM GAS   			page 242


 12991 6545 0A       	 .byte 0xa
 12992 6546 D6630000 	 .4byte 0x63d6
 12993 654a 08       	 .byte 0x8
 12994 654b 08       	 .uleb128 0x8
 12995 654c 27450000 	 .4byte .LASF1027
 12996 6550 04       	 .byte 0x4
 12997 6551 66       	 .byte 0x66
 12998 6552 09       	 .byte 0x9
 12999 6553 7E650000 	 .4byte 0x657e
 13000 6557 0C       	 .byte 0xc
 13001 6558 79       	 .uleb128 0x79
 13002 6559 39320000 	 .4byte .LASF1096
 13003 655d 5E010000 	 .4byte 0x15e
 13004 6561 10       	 .byte 0x10
 13005 6562 00       	 .byte 0
 13006 6563 0A       	 .uleb128 0xa
 13007 6564 24640000 	 .4byte 0x6424
 13008 6568 09       	 .uleb128 0x9
 13009 6569 04       	 .byte 0x4
 13010 656a 24640000 	 .4byte 0x6424
 13011 656e 0A       	 .uleb128 0xa
 13012 656f 68650000 	 .4byte 0x6568
 13013 6573 09       	 .uleb128 0x9
 13014 6574 04       	 .byte 0x4
 13015 6575 63650000 	 .4byte 0x6563
 13016 6579 0A       	 .uleb128 0xa
 13017 657a 73650000 	 .4byte 0x6573
 13018 657e 0F       	 .uleb128 0xf
 13019 657f C6520000 	 .4byte 0x52c6
 13020 6583 8E650000 	 .4byte 0x658e
 13021 6587 10       	 .uleb128 0x10
 13022 6588 5E010000 	 .4byte 0x15e
 13023 658c 0F       	 .byte 0xf
 13024 658d 00       	 .byte 0
 13025 658e 0F       	 .uleb128 0xf
 13026 658f 9E650000 	 .4byte 0x659e
 13027 6593 9E650000 	 .4byte 0x659e
 13028 6597 10       	 .uleb128 0x10
 13029 6598 5E010000 	 .4byte 0x15e
 13030 659c 03       	 .byte 0x3
 13031 659d 00       	 .byte 0
 13032 659e 09       	 .uleb128 0x9
 13033 659f 04       	 .byte 0x4
 13034 65a0 A9650000 	 .4byte 0x65a9
 13035 65a4 0A       	 .uleb128 0xa
 13036 65a5 9E650000 	 .4byte 0x659e
 13037 65a9 52       	 .uleb128 0x52
 13038 65aa 761B0000 	 .4byte .LASF1028
 13039 65ae 80       	 .byte 0x80
 13040 65af 04       	 .byte 0x4
 13041 65b0 6A       	 .byte 0x6a
 13042 65b1 07       	 .byte 0x7
 13043 65b2 2E620000 	 .4byte 0x622e
 13044 65b6 35680000 	 .4byte 0x6835
 13045 65ba 3E       	 .uleb128 0x3e
 13046 65bb 2E620000 	 .4byte 0x622e
 13047 65bf 00       	 .byte 0
ARM GAS   			page 243


 13048 65c0 01       	 .byte 0x1
 13049 65c1 38       	 .uleb128 0x38
 13050 65c2 761B0000 	 .4byte .LASF1028
 13051 65c6 44560000 	 .4byte .LASF1029
 13052 65ca 9E650000 	 .4byte 0x659e
 13053 65ce 01       	 .byte 0x1
 13054 65cf D7650000 	 .4byte 0x65d7
 13055 65d3 E2650000 	 .4byte 0x65e2
 13056 65d7 03       	 .uleb128 0x3
 13057 65d8 9E650000 	 .4byte 0x659e
 13058 65dc 01       	 .uleb128 0x1
 13059 65dd 79680000 	 .4byte 0x6879
 13060 65e1 00       	 .byte 0
 13061 65e2 38       	 .uleb128 0x38
 13062 65e3 761B0000 	 .4byte .LASF1028
 13063 65e7 5F020000 	 .4byte .LASF1030
 13064 65eb 9E650000 	 .4byte 0x659e
 13065 65ef 01       	 .byte 0x1
 13066 65f0 F8650000 	 .4byte 0x65f8
 13067 65f4 03660000 	 .4byte 0x6603
 13068 65f8 03       	 .uleb128 0x3
 13069 65f9 9E650000 	 .4byte 0x659e
 13070 65fd 01       	 .uleb128 0x1
 13071 65fe 7F680000 	 .4byte 0x687f
 13072 6602 00       	 .byte 0
 13073 6603 0C       	 .uleb128 0xc
 13074 6604 761B0000 	 .4byte .LASF1028
 13075 6608 03       	 .byte 0x3
 13076 6609 0F       	 .byte 0xf
 13077 660a 01       	 .byte 0x1
 13078 660b EC2C0000 	 .4byte .LASF1031
 13079 660f 9E650000 	 .4byte 0x659e
 13080 6613 01       	 .byte 0x1
 13081 6614 1C660000 	 .4byte 0x661c
 13082 6618 31660000 	 .4byte 0x6631
 13083 661c 03       	 .uleb128 0x3
 13084 661d 9E650000 	 .4byte 0x659e
 13085 6621 01       	 .uleb128 0x1
 13086 6622 E7610000 	 .4byte 0x61e7
 13087 6626 01       	 .uleb128 0x1
 13088 6627 B5520000 	 .4byte 0x52b5
 13089 662b 01       	 .uleb128 0x1
 13090 662c A0630000 	 .4byte 0x63a0
 13091 6630 00       	 .byte 0
 13092 6631 0C       	 .uleb128 0xc
 13093 6632 04410000 	 .4byte .LASF1032
 13094 6636 03       	 .byte 0x3
 13095 6637 19       	 .byte 0x19
 13096 6638 0A       	 .byte 0xa
 13097 6639 B31B0000 	 .4byte .LASF1033
 13098 663d A0630000 	 .4byte 0x63a0
 13099 6641 01       	 .byte 0x1
 13100 6642 4A660000 	 .4byte 0x664a
 13101 6646 50660000 	 .4byte 0x6650
 13102 664a 03       	 .uleb128 0x3
 13103 664b 9E650000 	 .4byte 0x659e
 13104 664f 00       	 .byte 0
ARM GAS   			page 244


 13105 6650 41       	 .uleb128 0x41
 13106 6651 A84F0000 	 .4byte .LASF1034
 13107 6655 04       	 .byte 0x4
 13108 6656 74       	 .byte 0x74
 13109 6657 18       	 .byte 0x18
 13110 6658 4D010000 	 .4byte 0x14d
 13111 665c 01       	 .byte 0x1
 13112 665d 10       	 .byte 0x10
 13113 665e 41       	 .uleb128 0x41
 13114 665f 0C6B0000 	 .4byte .LASF1035
 13115 6663 04       	 .byte 0x4
 13116 6664 76       	 .byte 0x76
 13117 6665 18       	 .byte 0x18
 13118 6666 4D010000 	 .4byte 0x14d
 13119 666a 01       	 .byte 0x1
 13120 666b 18       	 .byte 0x18
 13121 666c 41       	 .uleb128 0x41
 13122 666d 1A2B0000 	 .4byte .LASF1036
 13123 6671 04       	 .byte 0x4
 13124 6672 77       	 .byte 0x77
 13125 6673 18       	 .byte 0x18
 13126 6674 65010000 	 .4byte 0x165
 13127 6678 01       	 .byte 0x1
 13128 6679 4C       	 .byte 0x4c
 13129 667a 36       	 .uleb128 0x36
 13130 667b 6E480000 	 .4byte .LASF1037
 13131 667f 03       	 .byte 0x3
 13132 6680 31       	 .byte 0x31
 13133 6681 06       	 .byte 0x6
 13134 6682 FC1E0000 	 .4byte .LASF1038
 13135 6686 01       	 .byte 0x1
 13136 6687 8F660000 	 .4byte 0x668f
 13137 668b 9A660000 	 .4byte 0x669a
 13138 668f 03       	 .uleb128 0x3
 13139 6690 9E650000 	 .4byte 0x659e
 13140 6694 01       	 .uleb128 0x1
 13141 6695 85680000 	 .4byte 0x6885
 13142 6699 00       	 .byte 0
 13143 669a 11       	 .uleb128 0x11
 13144 669b 23520000 	 .4byte .LASF1039
 13145 669f 04       	 .byte 0x4
 13146 66a0 75       	 .byte 0x75
 13147 66a1 08       	 .byte 0x8
 13148 66a2 24640000 	 .4byte 0x6424
 13149 66a6 01       	 .byte 0x1
 13150 66a7 0A       	 .uleb128 0xa
 13151 66a8 9A660000 	 .4byte 0x669a
 13152 66ac 0C       	 .uleb128 0xc
 13153 66ad 75130000 	 .4byte .LASF1040
 13154 66b1 03       	 .byte 0x3
 13155 66b2 6D       	 .byte 0x6d
 13156 66b3 0A       	 .byte 0xa
 13157 66b4 64290000 	 .4byte .LASF1041
 13158 66b8 D7520000 	 .4byte 0x52d7
 13159 66bc 01       	 .byte 0x1
 13160 66bd C5660000 	 .4byte 0x66c5
 13161 66c1 D0660000 	 .4byte 0x66d0
ARM GAS   			page 245


 13162 66c5 03       	 .uleb128 0x3
 13163 66c6 9E650000 	 .4byte 0x659e
 13164 66ca 01       	 .uleb128 0x1
 13165 66cb 13530000 	 .4byte 0x5313
 13166 66cf 00       	 .byte 0
 13167 66d0 7A       	 .uleb128 0x7a
 13168 66d1 90280000 	 .4byte .LASF1042
 13169 66d5 03       	 .byte 0x3
 13170 66d6 21       	 .byte 0x21
 13171 66d7 06       	 .byte 0x6
 13172 66d8 77120000 	 .4byte .LASF1043
 13173 66dc 02       	 .byte 0x2
 13174 66dd EC660000 	 .4byte 0x66ec
 13175 66e1 01       	 .uleb128 0x1
 13176 66e2 9E650000 	 .4byte 0x659e
 13177 66e6 01       	 .uleb128 0x1
 13178 66e7 A0630000 	 .4byte 0x63a0
 13179 66eb 00       	 .byte 0
 13180 66ec 54       	 .uleb128 0x54
 13181 66ed AD360000 	 .4byte .LASF1044
 13182 66f1 03       	 .byte 0x3
 13183 66f2 28       	 .byte 0x28
 13184 66f3 0A       	 .byte 0xa
 13185 66f4 59450000 	 .4byte .LASF1045
 13186 66f8 9E650000 	 .4byte 0x659e
 13187 66fc 02       	 .byte 0x2
 13188 66fd 07670000 	 .4byte 0x6707
 13189 6701 01       	 .uleb128 0x1
 13190 6702 A0630000 	 .4byte 0x63a0
 13191 6706 00       	 .byte 0
 13192 6707 0C       	 .uleb128 0xc
 13193 6708 76230000 	 .4byte .LASF1046
 13194 670c 03       	 .byte 0x3
 13195 670d 67       	 .byte 0x67
 13196 670e 06       	 .byte 0x6
 13197 670f DB1E0000 	 .4byte .LASF1047
 13198 6713 4C4F0000 	 .4byte 0x4f4c
 13199 6717 02       	 .byte 0x2
 13200 6718 20670000 	 .4byte 0x6720
 13201 671c 26670000 	 .4byte 0x6726
 13202 6720 03       	 .uleb128 0x3
 13203 6721 9E650000 	 .4byte 0x659e
 13204 6725 00       	 .byte 0
 13205 6726 0C       	 .uleb128 0xc
 13206 6727 6D540000 	 .4byte .LASF1048
 13207 672b 03       	 .byte 0x3
 13208 672c 38       	 .byte 0x38
 13209 672d 0A       	 .byte 0xa
 13210 672e 442D0000 	 .4byte .LASF1049
 13211 6732 D7520000 	 .4byte 0x52d7
 13212 6736 02       	 .byte 0x2
 13213 6737 3F670000 	 .4byte 0x673f
 13214 673b 4A670000 	 .4byte 0x674a
 13215 673f 03       	 .uleb128 0x3
 13216 6740 9E650000 	 .4byte 0x659e
 13217 6744 01       	 .uleb128 0x1
 13218 6745 B5520000 	 .4byte 0x52b5
ARM GAS   			page 246


 13219 6749 00       	 .byte 0
 13220 674a 0C       	 .uleb128 0xc
 13221 674b 28090000 	 .4byte .LASF1018
 13222 674f 03       	 .byte 0x3
 13223 6750 4E       	 .byte 0x4e
 13224 6751 09       	 .byte 0x9
 13225 6752 9A070000 	 .4byte .LASF1050
 13226 6756 D6630000 	 .4byte 0x63d6
 13227 675a 02       	 .byte 0x2
 13228 675b 63670000 	 .4byte 0x6763
 13229 675f 69670000 	 .4byte 0x6769
 13230 6763 03       	 .uleb128 0x3
 13231 6764 8B680000 	 .4byte 0x688b
 13232 6768 00       	 .byte 0
 13233 6769 0C       	 .uleb128 0xc
 13234 676a 942F0000 	 .4byte .LASF1051
 13235 676e 03       	 .byte 0x3
 13236 676f 60       	 .byte 0x60
 13237 6770 11       	 .byte 0x11
 13238 6771 7B480000 	 .4byte .LASF1052
 13239 6775 9A660000 	 .4byte 0x669a
 13240 6779 02       	 .byte 0x2
 13241 677a 82670000 	 .4byte 0x6782
 13242 677e 88670000 	 .4byte 0x6788
 13243 6782 03       	 .uleb128 0x3
 13244 6783 8B680000 	 .4byte 0x688b
 13245 6787 00       	 .byte 0
 13246 6788 54       	 .uleb128 0x54
 13247 6789 91510000 	 .4byte .LASF1053
 13248 678d 03       	 .byte 0x3
 13249 678e 41       	 .byte 0x41
 13250 678f 08       	 .byte 0x8
 13251 6790 3D120000 	 .4byte .LASF1054
 13252 6794 C6520000 	 .4byte 0x52c6
 13253 6798 02       	 .byte 0x2
 13254 6799 A3670000 	 .4byte 0x67a3
 13255 679d 01       	 .uleb128 0x1
 13256 679e C6520000 	 .4byte 0x52c6
 13257 67a2 00       	 .byte 0
 13258 67a3 1C       	 .uleb128 0x1c
 13259 67a4 121E0000 	 .4byte .LASF1022
 13260 67a8 03       	 .byte 0x3
 13261 67a9 54       	 .byte 0x54
 13262 67aa 0A       	 .byte 0xa
 13263 67ab 7F2B0000 	 .4byte .LASF1055
 13264 67af A0630000 	 .4byte 0x63a0
 13265 67b3 BB670000 	 .4byte 0x67bb
 13266 67b7 C1670000 	 .4byte 0x67c1
 13267 67bb 03       	 .uleb128 0x3
 13268 67bc 8B680000 	 .4byte 0x688b
 13269 67c0 00       	 .byte 0
 13270 67c1 1C       	 .uleb128 0x1c
 13271 67c2 00010000 	 .4byte .LASF1020
 13272 67c6 03       	 .byte 0x3
 13273 67c7 5A       	 .byte 0x5a
 13274 67c8 0A       	 .byte 0xa
 13275 67c9 FB4F0000 	 .4byte .LASF1056
ARM GAS   			page 247


 13276 67cd A0630000 	 .4byte 0x63a0
 13277 67d1 D9670000 	 .4byte 0x67d9
 13278 67d5 DF670000 	 .4byte 0x67df
 13279 67d9 03       	 .uleb128 0x3
 13280 67da 8B680000 	 .4byte 0x688b
 13281 67de 00       	 .byte 0
 13282 67df 08       	 .uleb128 0x8
 13283 67e0 04130000 	 .4byte .LASF1057
 13284 67e4 04       	 .byte 0x4
 13285 67e5 9A       	 .byte 0x9a
 13286 67e6 09       	 .byte 0x9
 13287 67e7 9A660000 	 .4byte 0x669a
 13288 67eb 2C       	 .byte 0x2c
 13289 67ec 08       	 .uleb128 0x8
 13290 67ed 5A240000 	 .4byte .LASF1058
 13291 67f1 04       	 .byte 0x4
 13292 67f2 9B       	 .byte 0x9b
 13293 67f3 08       	 .byte 0x8
 13294 67f4 93620000 	 .4byte 0x6293
 13295 67f8 78       	 .byte 0x78
 13296 67f9 7B       	 .uleb128 0x7b
 13297 67fa 34280000 	 .4byte .LASF1097
 13298 67fe 04       	 .byte 0x4
 13299 67ff 9F       	 .byte 0x9f
 13300 6800 1A       	 .byte 0x1a
 13301 6801 1F530000 	 .4byte 0x531f
 13302 6805 04       	 .byte 0x4
 13303 6806 7C       	 .uleb128 0x7c
 13304 6807 2A0B0000 	 .4byte .LASF1059
 13305 680b 03       	 .byte 0x3
 13306 680c 1F       	 .byte 0x1f
 13307 680d 0A       	 .byte 0xa
 13308 680e 8E650000 	 .4byte 0x658e
 13309 6812 53       	 .uleb128 0x53
 13310 6813 A6270000 	 .4byte .LASF1060
 13311 6817 7E4B0000 	 .4byte .LASF1062
 13312 681b A5010000 	 .4byte 0x1a5
 13313 681f 01       	 .byte 0x1
 13314 6820 A9650000 	 .4byte 0x65a9
 13315 6824 01       	 .byte 0x1
 13316 6825 29680000 	 .4byte 0x6829
 13317 6829 03       	 .uleb128 0x3
 13318 682a 9E650000 	 .4byte 0x659e
 13319 682e 03       	 .uleb128 0x3
 13320 682f 46010000 	 .4byte 0x146
 13321 6833 00       	 .byte 0
 13322 6834 00       	 .byte 0
 13323 6835 0A       	 .uleb128 0xa
 13324 6836 A9650000 	 .4byte 0x65a9
 13325 683a 7D       	 .uleb128 0x7d
 13326 683b 610F0000 	 .4byte .LASF1098
 13327 683f 06680000 	 .4byte 0x6806
 13328 6843 05       	 .uleb128 0x5
 13329 6844 03       	 .byte 0x3
 13330 6845 00000000 	 .4byte _ZN7StdTaak10takenIndexE
 13331 6849 09       	 .uleb128 0x9
 13332 684a 04       	 .byte 0x4
ARM GAS   			page 248


 13333 684b 5E4A0000 	 .4byte 0x4a5e
 13334 684f 0D       	 .uleb128 0xd
 13335 6850 04       	 .byte 0x4
 13336 6851 89080000 	 .4byte 0x889
 13337 6855 09       	 .uleb128 0x9
 13338 6856 04       	 .byte 0x4
 13339 6857 A04C0000 	 .4byte 0x4ca0
 13340 685b 0D       	 .uleb128 0xd
 13341 685c 04       	 .byte 0x4
 13342 685d 5E4A0000 	 .4byte 0x4a5e
 13343 6861 09       	 .uleb128 0x9
 13344 6862 04       	 .byte 0x4
 13345 6863 17480000 	 .4byte 0x4817
 13346 6867 0D       	 .uleb128 0xd
 13347 6868 04       	 .byte 0x4
 13348 6869 4E080000 	 .4byte 0x84e
 13349 686d 09       	 .uleb128 0x9
 13350 686e 04       	 .byte 0x4
 13351 686f 594A0000 	 .4byte 0x4a59
 13352 6873 0D       	 .uleb128 0xd
 13353 6874 04       	 .byte 0x4
 13354 6875 17480000 	 .4byte 0x4817
 13355 6879 2E       	 .uleb128 0x2e
 13356 687a 04       	 .byte 0x4
 13357 687b A9650000 	 .4byte 0x65a9
 13358 687f 0D       	 .uleb128 0xd
 13359 6880 04       	 .byte 0x4
 13360 6881 35680000 	 .4byte 0x6835
 13361 6885 0D       	 .uleb128 0xd
 13362 6886 04       	 .byte 0x4
 13363 6887 A7660000 	 .4byte 0x66a7
 13364 688b 09       	 .uleb128 0x9
 13365 688c 04       	 .byte 0x4
 13366 688d 35680000 	 .4byte 0x6835
 13367 6891 0A       	 .uleb128 0xa
 13368 6892 8B680000 	 .4byte 0x688b
 13369 6896 09       	 .uleb128 0x9
 13370 6897 04       	 .byte 0x4
 13371 6898 93620000 	 .4byte 0x6293
 13372 689c 2E       	 .uleb128 0x2e
 13373 689d 04       	 .byte 0x4
 13374 689e 93620000 	 .4byte 0x6293
 13375 68a2 0D       	 .uleb128 0xd
 13376 68a3 04       	 .byte 0x4
 13377 68a4 8D630000 	 .4byte 0x638d
 13378 68a8 09       	 .uleb128 0x9
 13379 68a9 04       	 .byte 0x4
 13380 68aa ED610000 	 .4byte 0x61ed
 13381 68ae 39       	 .uleb128 0x39
 13382 68af 05650000 	 .4byte 0x6505
 13383 68b3 C5680000 	 .4byte 0x68c5
 13384 68b7 00000000 	 .4byte .LFB1561
 13385 68bb 18000000 	 .4byte .LFE1561-.LFB1561
 13386 68bf 01       	 .uleb128 0x1
 13387 68c0 9C       	 .byte 0x9c
 13388 68c1 D2680000 	 .4byte 0x68d2
 13389 68c5 16       	 .uleb128 0x16
ARM GAS   			page 249


 13390 68c6 7E2F0000 	 .4byte .LASF1063
 13391 68ca 79650000 	 .4byte 0x6579
 13392 68ce 02       	 .uleb128 0x2
 13393 68cf 91       	 .byte 0x91
 13394 68d0 74       	 .sleb128 -12
 13395 68d1 00       	 .byte 0
 13396 68d2 39       	 .uleb128 0x39
 13397 68d3 C7640000 	 .4byte 0x64c7
 13398 68d7 E9680000 	 .4byte 0x68e9
 13399 68db 00000000 	 .4byte .LFB1560
 13400 68df 18000000 	 .4byte .LFE1560-.LFB1560
 13401 68e3 01       	 .uleb128 0x1
 13402 68e4 9C       	 .byte 0x9c
 13403 68e5 F6680000 	 .4byte 0x68f6
 13404 68e9 16       	 .uleb128 0x16
 13405 68ea 7E2F0000 	 .4byte .LASF1063
 13406 68ee 79650000 	 .4byte 0x6579
 13407 68f2 02       	 .uleb128 0x2
 13408 68f3 91       	 .byte 0x91
 13409 68f4 74       	 .sleb128 -12
 13410 68f5 00       	 .byte 0
 13411 68f6 39       	 .uleb128 0x39
 13412 68f7 E6640000 	 .4byte 0x64e6
 13413 68fb 0D690000 	 .4byte 0x690d
 13414 68ff 00000000 	 .4byte .LFB1559
 13415 6903 18000000 	 .4byte .LFE1559-.LFB1559
 13416 6907 01       	 .uleb128 0x1
 13417 6908 9C       	 .byte 0x9c
 13418 6909 1A690000 	 .4byte 0x691a
 13419 690d 16       	 .uleb128 0x16
 13420 690e 7E2F0000 	 .4byte .LASF1063
 13421 6912 79650000 	 .4byte 0x6579
 13422 6916 02       	 .uleb128 0x2
 13423 6917 91       	 .byte 0x91
 13424 6918 74       	 .sleb128 -12
 13425 6919 00       	 .byte 0
 13426 691a 55       	 .uleb128 0x55
 13427 691b 31640000 	 .4byte 0x6431
 13428 691f 28690000 	 .4byte 0x6928
 13429 6923 02       	 .byte 0x2
 13430 6924 32690000 	 .4byte 0x6932
 13431 6928 56       	 .uleb128 0x56
 13432 6929 7E2F0000 	 .4byte .LASF1063
 13433 692d 6E650000 	 .4byte 0x656e
 13434 6931 00       	 .byte 0
 13435 6932 7E       	 .uleb128 0x7e
 13436 6933 1A690000 	 .4byte 0x691a
 13437 6937 08290000 	 .4byte .LASF1082
 13438 693b 4D690000 	 .4byte 0x694d
 13439 693f 00000000 	 .4byte .LFB1557
 13440 6943 28000000 	 .4byte .LFE1557-.LFB1557
 13441 6947 01       	 .uleb128 0x1
 13442 6948 9C       	 .byte 0x9c
 13443 6949 56690000 	 .4byte 0x6956
 13444 694d 30       	 .uleb128 0x30
 13445 694e 28690000 	 .4byte 0x6928
 13446 6952 02       	 .uleb128 0x2
ARM GAS   			page 250


 13447 6953 91       	 .byte 0x91
 13448 6954 74       	 .sleb128 -12
 13449 6955 00       	 .byte 0
 13450 6956 1D       	 .uleb128 0x1d
 13451 6957 AC660000 	 .4byte 0x66ac
 13452 695b 6D690000 	 .4byte 0x696d
 13453 695f 00000000 	 .4byte .LFB1311
 13454 6963 2C000000 	 .4byte .LFE1311-.LFB1311
 13455 6967 01       	 .uleb128 0x1
 13456 6968 9C       	 .byte 0x9c
 13457 6969 A7690000 	 .4byte 0x69a7
 13458 696d 16       	 .uleb128 0x16
 13459 696e 7E2F0000 	 .4byte .LASF1063
 13460 6972 A4650000 	 .4byte 0x65a4
 13461 6976 02       	 .uleb128 0x2
 13462 6977 91       	 .byte 0x91
 13463 6978 6C       	 .sleb128 -20
 13464 6979 2A       	 .uleb128 0x2a
 13465 697a D55E0000 	 .4byte .LASF1069
 13466 697e 03       	 .byte 0x3
 13467 697f 6D       	 .byte 0x6d
 13468 6980 26       	 .byte 0x26
 13469 6981 1F530000 	 .4byte 0x531f
 13470 6985 02       	 .uleb128 0x2
 13471 6986 91       	 .byte 0x91
 13472 6987 68       	 .sleb128 -24
 13473 6988 14       	 .uleb128 0x14
 13474 6989 1A490000 	 .4byte .LASF1064
 13475 698d 03       	 .byte 0x3
 13476 698e 70       	 .byte 0x70
 13477 698f 0D       	 .byte 0xd
 13478 6990 97000000 	 .4byte 0x97
 13479 6994 02       	 .uleb128 0x2
 13480 6995 91       	 .byte 0x91
 13481 6996 74       	 .sleb128 -12
 13482 6997 14       	 .uleb128 0x14
 13483 6998 965C0000 	 .4byte .LASF1065
 13484 699c 03       	 .byte 0x3
 13485 699d 71       	 .byte 0x71
 13486 699e 0D       	 .byte 0xd
 13487 699f 97000000 	 .4byte 0x97
 13488 69a3 02       	 .uleb128 0x2
 13489 69a4 91       	 .byte 0x91
 13490 69a5 70       	 .sleb128 -16
 13491 69a6 00       	 .byte 0
 13492 69a7 1D       	 .uleb128 0x1d
 13493 69a8 07670000 	 .4byte 0x6707
 13494 69ac BE690000 	 .4byte 0x69be
 13495 69b0 00000000 	 .4byte .LFB1310
 13496 69b4 28000000 	 .4byte .LFE1310-.LFB1310
 13497 69b8 01       	 .uleb128 0x1
 13498 69b9 9C       	 .byte 0x9c
 13499 69ba DA690000 	 .4byte 0x69da
 13500 69be 16       	 .uleb128 0x16
 13501 69bf 7E2F0000 	 .4byte .LASF1063
 13502 69c3 A4650000 	 .4byte 0x65a4
 13503 69c7 02       	 .uleb128 0x2
ARM GAS   			page 251


 13504 69c8 91       	 .byte 0x91
 13505 69c9 6C       	 .sleb128 -20
 13506 69ca 14       	 .uleb128 0x14
 13507 69cb C7260000 	 .4byte .LASF1066
 13508 69cf 03       	 .byte 0x3
 13509 69d0 69       	 .byte 0x69
 13510 69d1 0D       	 .byte 0xd
 13511 69d2 534F0000 	 .4byte 0x4f53
 13512 69d6 02       	 .uleb128 0x2
 13513 69d7 91       	 .byte 0x91
 13514 69d8 77       	 .sleb128 -9
 13515 69d9 00       	 .byte 0
 13516 69da 1D       	 .uleb128 0x1d
 13517 69db 69670000 	 .4byte 0x6769
 13518 69df F1690000 	 .4byte 0x69f1
 13519 69e3 00000000 	 .4byte .LFB1309
 13520 69e7 32000000 	 .4byte .LFE1309-.LFB1309
 13521 69eb 01       	 .uleb128 0x1
 13522 69ec 9C       	 .byte 0x9c
 13523 69ed 0F6A0000 	 .4byte 0x6a0f
 13524 69f1 16       	 .uleb128 0x16
 13525 69f2 7E2F0000 	 .4byte .LASF1063
 13526 69f6 91680000 	 .4byte 0x6891
 13527 69fa 03       	 .uleb128 0x3
 13528 69fb 91       	 .byte 0x91
 13529 69fc A07F     	 .sleb128 -96
 13530 69fe 14       	 .uleb128 0x14
 13531 69ff E62E0000 	 .4byte .LASF1067
 13532 6a03 03       	 .byte 0x3
 13533 6a04 63       	 .byte 0x63
 13534 6a05 0D       	 .byte 0xd
 13535 6a06 63650000 	 .4byte 0x6563
 13536 6a0a 03       	 .uleb128 0x3
 13537 6a0b 91       	 .byte 0x91
 13538 6a0c AC7F     	 .sleb128 -84
 13539 6a0e 00       	 .byte 0
 13540 6a0f 1D       	 .uleb128 0x1d
 13541 6a10 C1670000 	 .4byte 0x67c1
 13542 6a14 266A0000 	 .4byte 0x6a26
 13543 6a18 00000000 	 .4byte .LFB1308
 13544 6a1c 1E000000 	 .4byte .LFE1308-.LFB1308
 13545 6a20 01       	 .uleb128 0x1
 13546 6a21 9C       	 .byte 0x9c
 13547 6a22 426A0000 	 .4byte 0x6a42
 13548 6a26 16       	 .uleb128 0x16
 13549 6a27 7E2F0000 	 .4byte .LASF1063
 13550 6a2b 91680000 	 .4byte 0x6891
 13551 6a2f 02       	 .uleb128 0x2
 13552 6a30 91       	 .byte 0x91
 13553 6a31 6C       	 .sleb128 -20
 13554 6a32 14       	 .uleb128 0x14
 13555 6a33 CA580000 	 .4byte .LASF1068
 13556 6a37 03       	 .byte 0x3
 13557 6a38 5C       	 .byte 0x5c
 13558 6a39 0D       	 .byte 0xd
 13559 6a3a D1630000 	 .4byte 0x63d1
 13560 6a3e 02       	 .uleb128 0x2
ARM GAS   			page 252


 13561 6a3f 91       	 .byte 0x91
 13562 6a40 74       	 .sleb128 -12
 13563 6a41 00       	 .byte 0
 13564 6a42 1D       	 .uleb128 0x1d
 13565 6a43 A3670000 	 .4byte 0x67a3
 13566 6a47 596A0000 	 .4byte 0x6a59
 13567 6a4b 00000000 	 .4byte .LFB1307
 13568 6a4f 1E000000 	 .4byte .LFE1307-.LFB1307
 13569 6a53 01       	 .uleb128 0x1
 13570 6a54 9C       	 .byte 0x9c
 13571 6a55 756A0000 	 .4byte 0x6a75
 13572 6a59 16       	 .uleb128 0x16
 13573 6a5a 7E2F0000 	 .4byte .LASF1063
 13574 6a5e 91680000 	 .4byte 0x6891
 13575 6a62 02       	 .uleb128 0x2
 13576 6a63 91       	 .byte 0x91
 13577 6a64 6C       	 .sleb128 -20
 13578 6a65 14       	 .uleb128 0x14
 13579 6a66 CA580000 	 .4byte .LASF1068
 13580 6a6a 03       	 .byte 0x3
 13581 6a6b 56       	 .byte 0x56
 13582 6a6c 0D       	 .byte 0xd
 13583 6a6d D1630000 	 .4byte 0x63d1
 13584 6a71 02       	 .uleb128 0x2
 13585 6a72 91       	 .byte 0x91
 13586 6a73 74       	 .sleb128 -12
 13587 6a74 00       	 .byte 0
 13588 6a75 1D       	 .uleb128 0x1d
 13589 6a76 4A670000 	 .4byte 0x674a
 13590 6a7a 8C6A0000 	 .4byte 0x6a8c
 13591 6a7e 00000000 	 .4byte .LFB1306
 13592 6a82 1E000000 	 .4byte .LFE1306-.LFB1306
 13593 6a86 01       	 .uleb128 0x1
 13594 6a87 9C       	 .byte 0x9c
 13595 6a88 A86A0000 	 .4byte 0x6aa8
 13596 6a8c 16       	 .uleb128 0x16
 13597 6a8d 7E2F0000 	 .4byte .LASF1063
 13598 6a91 91680000 	 .4byte 0x6891
 13599 6a95 02       	 .uleb128 0x2
 13600 6a96 91       	 .byte 0x91
 13601 6a97 6C       	 .sleb128 -20
 13602 6a98 14       	 .uleb128 0x14
 13603 6a99 CA580000 	 .4byte .LASF1068
 13604 6a9d 03       	 .byte 0x3
 13605 6a9e 50       	 .byte 0x50
 13606 6a9f 0D       	 .byte 0xd
 13607 6aa0 1F640000 	 .4byte 0x641f
 13608 6aa4 02       	 .uleb128 0x2
 13609 6aa5 91       	 .byte 0x91
 13610 6aa6 74       	 .sleb128 -12
 13611 6aa7 00       	 .byte 0
 13612 6aa8 7F       	 .uleb128 0x7f
 13613 6aa9 88670000 	 .4byte 0x6788
 13614 6aad 00000000 	 .4byte .LFB1305
 13615 6ab1 28000000 	 .4byte .LFE1305-.LFB1305
 13616 6ab5 01       	 .uleb128 0x1
 13617 6ab6 9C       	 .byte 0x9c
ARM GAS   			page 253


 13618 6ab7 066B0000 	 .4byte 0x6b06
 13619 6abb 2A       	 .uleb128 0x2a
 13620 6abc D55E0000 	 .4byte .LASF1069
 13621 6ac0 03       	 .byte 0x3
 13622 6ac1 41       	 .byte 0x41
 13623 6ac2 2A       	 .byte 0x2a
 13624 6ac3 D2520000 	 .4byte 0x52d2
 13625 6ac7 02       	 .uleb128 0x2
 13626 6ac8 91       	 .byte 0x91
 13627 6ac9 6C       	 .sleb128 -20
 13628 6aca 8001     	 .uleb128 0x80
 13629 6acc 48360000 	 .4byte .LASF1078
 13630 6ad0 166B0000 	 .4byte 0x6b16
 13631 6ad4 3F       	 .uleb128 0x3f
 13632 6ad5 7D580000 	 .4byte .LASF1070
 13633 6ad9 03       	 .byte 0x3
 13634 6ada 44       	 .byte 0x44
 13635 6adb 18       	 .byte 0x18
 13636 6adc 97000000 	 .4byte 0x97
 13637 6ae0 05       	 .uleb128 0x5
 13638 6ae1 03       	 .byte 0x3
 13639 6ae2 00000000 	 .4byte _ZZN7StdTaak11aantalTicksEmE19ticksInMsecsPeriode
 13640 6ae6 14       	 .uleb128 0x14
 13641 6ae7 231B0000 	 .4byte .LASF1071
 13642 6aeb 03       	 .byte 0x3
 13643 6aec 47       	 .byte 0x47
 13644 6aed 0D       	 .byte 0xd
 13645 6aee 97000000 	 .4byte 0x97
 13646 6af2 02       	 .uleb128 0x2
 13647 6af3 91       	 .byte 0x91
 13648 6af4 74       	 .sleb128 -12
 13649 6af5 8101     	 .uleb128 0x81
 13650 6af7 75697400 	 .ascii "uit\000"
 13651 6afb 03       	 .byte 0x3
 13652 6afc 49       	 .byte 0x49
 13653 6afd 0D       	 .byte 0xd
 13654 6afe 97000000 	 .4byte 0x97
 13655 6b02 02       	 .uleb128 0x2
 13656 6b03 91       	 .byte 0x91
 13657 6b04 70       	 .sleb128 -16
 13658 6b05 00       	 .byte 0
 13659 6b06 0F       	 .uleb128 0xf
 13660 6b07 5A080000 	 .4byte 0x85a
 13661 6b0b 166B0000 	 .4byte 0x6b16
 13662 6b0f 10       	 .uleb128 0x10
 13663 6b10 5E010000 	 .4byte 0x15e
 13664 6b14 2A       	 .byte 0x2a
 13665 6b15 00       	 .byte 0
 13666 6b16 0A       	 .uleb128 0xa
 13667 6b17 066B0000 	 .4byte 0x6b06
 13668 6b1b 1D       	 .uleb128 0x1d
 13669 6b1c 26670000 	 .4byte 0x6726
 13670 6b20 326B0000 	 .4byte 0x6b32
 13671 6b24 00000000 	 .4byte .LFB1304
 13672 6b28 4E000000 	 .4byte .LFE1304-.LFB1304
 13673 6b2c 01       	 .uleb128 0x1
 13674 6b2d 9C       	 .byte 0x9c
ARM GAS   			page 254


 13675 6b2e 6C6B0000 	 .4byte 0x6b6c
 13676 6b32 16       	 .uleb128 0x16
 13677 6b33 7E2F0000 	 .4byte .LASF1063
 13678 6b37 A4650000 	 .4byte 0x65a4
 13679 6b3b 02       	 .uleb128 0x2
 13680 6b3c 91       	 .byte 0x91
 13681 6b3d 6C       	 .sleb128 -20
 13682 6b3e 2A       	 .uleb128 0x2a
 13683 6b3f D55E0000 	 .4byte .LASF1069
 13684 6b43 03       	 .byte 0x3
 13685 6b44 38       	 .byte 0x38
 13686 6b45 2F       	 .byte 0x2f
 13687 6b46 C1520000 	 .4byte 0x52c1
 13688 6b4a 02       	 .uleb128 0x2
 13689 6b4b 91       	 .byte 0x91
 13690 6b4c 6A       	 .sleb128 -22
 13691 6b4d 14       	 .uleb128 0x14
 13692 6b4e 0F4B0000 	 .4byte .LASF1072
 13693 6b52 03       	 .byte 0x3
 13694 6b53 3A       	 .byte 0x3a
 13695 6b54 0D       	 .byte 0xd
 13696 6b55 97000000 	 .4byte 0x97
 13697 6b59 02       	 .uleb128 0x2
 13698 6b5a 91       	 .byte 0x91
 13699 6b5b 74       	 .sleb128 -12
 13700 6b5c 14       	 .uleb128 0x14
 13701 6b5d 90180000 	 .4byte .LASF1073
 13702 6b61 03       	 .byte 0x3
 13703 6b62 3C       	 .byte 0x3c
 13704 6b63 0D       	 .byte 0xd
 13705 6b64 534F0000 	 .4byte 0x4f53
 13706 6b68 02       	 .uleb128 0x2
 13707 6b69 91       	 .byte 0x91
 13708 6b6a 73       	 .sleb128 -13
 13709 6b6b 00       	 .byte 0
 13710 6b6c 1D       	 .uleb128 0x1d
 13711 6b6d 7A660000 	 .4byte 0x667a
 13712 6b71 836B0000 	 .4byte 0x6b83
 13713 6b75 00000000 	 .4byte .LFB1303
 13714 6b79 2E000000 	 .4byte .LFE1303-.LFB1303
 13715 6b7d 01       	 .uleb128 0x1
 13716 6b7e 9C       	 .byte 0x9c
 13717 6b7f BD6B0000 	 .4byte 0x6bbd
 13718 6b83 16       	 .uleb128 0x16
 13719 6b84 7E2F0000 	 .4byte .LASF1063
 13720 6b88 A4650000 	 .4byte 0x65a4
 13721 6b8c 02       	 .uleb128 0x2
 13722 6b8d 91       	 .byte 0x91
 13723 6b8e 6C       	 .sleb128 -20
 13724 6b8f 57       	 .uleb128 0x57
 13725 6b90 6D736700 	 .ascii "msg\000"
 13726 6b94 03       	 .byte 0x3
 13727 6b95 31       	 .byte 0x31
 13728 6b96 33       	 .byte 0x33
 13729 6b97 85680000 	 .4byte 0x6885
 13730 6b9b 02       	 .uleb128 0x2
 13731 6b9c 91       	 .byte 0x91
ARM GAS   			page 255


 13732 6b9d 68       	 .sleb128 -24
 13733 6b9e 14       	 .uleb128 0x14
 13734 6b9f 6A460000 	 .4byte .LASF1074
 13735 6ba3 03       	 .byte 0x3
 13736 6ba4 33       	 .byte 0x33
 13737 6ba5 0D       	 .byte 0xd
 13738 6ba6 D1630000 	 .4byte 0x63d1
 13739 6baa 02       	 .uleb128 0x2
 13740 6bab 91       	 .byte 0x91
 13741 6bac 74       	 .sleb128 -12
 13742 6bad 14       	 .uleb128 0x14
 13743 6bae 0B340000 	 .4byte .LASF1025
 13744 6bb2 03       	 .byte 0x3
 13745 6bb3 34       	 .byte 0x34
 13746 6bb4 0F       	 .byte 0xf
 13747 6bb5 A4650000 	 .4byte 0x65a4
 13748 6bb9 02       	 .uleb128 0x2
 13749 6bba 91       	 .byte 0x91
 13750 6bbb 70       	 .sleb128 -16
 13751 6bbc 00       	 .byte 0
 13752 6bbd 58       	 .uleb128 0x58
 13753 6bbe EC660000 	 .4byte 0x66ec
 13754 6bc2 00000000 	 .4byte .LFB1302
 13755 6bc6 5C000000 	 .4byte .LFE1302-.LFB1302
 13756 6bca 01       	 .uleb128 0x1
 13757 6bcb 9C       	 .byte 0x9c
 13758 6bcc 0D6C0000 	 .4byte 0x6c0d
 13759 6bd0 2A       	 .uleb128 0x2a
 13760 6bd1 9B030000 	 .4byte .LASF1075
 13761 6bd5 03       	 .byte 0x3
 13762 6bd6 28       	 .byte 0x28
 13763 6bd7 2B       	 .byte 0x2b
 13764 6bd8 D1630000 	 .4byte 0x63d1
 13765 6bdc 02       	 .uleb128 0x2
 13766 6bdd 91       	 .byte 0x91
 13767 6bde 6C       	 .sleb128 -20
 13768 6bdf 14       	 .uleb128 0x14
 13769 6be0 C9100000 	 .4byte .LASF1076
 13770 6be4 03       	 .byte 0x3
 13771 6be5 2A       	 .byte 0x2a
 13772 6be6 0D       	 .byte 0xd
 13773 6be7 97000000 	 .4byte 0x97
 13774 6beb 02       	 .uleb128 0x2
 13775 6bec 91       	 .byte 0x91
 13776 6bed 74       	 .sleb128 -12
 13777 6bee 59       	 .uleb128 0x59
 13778 6bef 48360000 	 .4byte .LASF1078
 13779 6bf3 1D6C0000 	 .4byte 0x6c1d
 13780 6bf7 05       	 .uleb128 0x5
 13781 6bf8 03       	 .byte 0x3
 13782 6bf9 AC000000 	 .4byte .LC3
 13783 6bfd 14       	 .uleb128 0x14
 13784 6bfe 3B420000 	 .4byte .LASF1077
 13785 6c02 03       	 .byte 0x3
 13786 6c03 2C       	 .byte 0x2c
 13787 6c04 0F       	 .byte 0xf
 13788 6c05 A4650000 	 .4byte 0x65a4
ARM GAS   			page 256


 13789 6c09 02       	 .uleb128 0x2
 13790 6c0a 91       	 .byte 0x91
 13791 6c0b 70       	 .sleb128 -16
 13792 6c0c 00       	 .byte 0
 13793 6c0d 0F       	 .uleb128 0xf
 13794 6c0e 5A080000 	 .4byte 0x85a
 13795 6c12 1D6C0000 	 .4byte 0x6c1d
 13796 6c16 10       	 .uleb128 0x10
 13797 6c17 5E010000 	 .4byte 0x15e
 13798 6c1b 2B       	 .byte 0x2b
 13799 6c1c 00       	 .byte 0
 13800 6c1d 0A       	 .uleb128 0xa
 13801 6c1e 0D6C0000 	 .4byte 0x6c0d
 13802 6c22 58       	 .uleb128 0x58
 13803 6c23 D0660000 	 .4byte 0x66d0
 13804 6c27 00000000 	 .4byte .LFB1301
 13805 6c2b 44000000 	 .4byte .LFE1301-.LFB1301
 13806 6c2f 01       	 .uleb128 0x1
 13807 6c30 9C       	 .byte 0x9c
 13808 6c31 716C0000 	 .4byte 0x6c71
 13809 6c35 57       	 .uleb128 0x57
 13810 6c36 747000   	 .ascii "tp\000"
 13811 6c39 03       	 .byte 0x3
 13812 6c3a 21       	 .byte 0x21
 13813 6c3b 29       	 .byte 0x29
 13814 6c3c A4650000 	 .4byte 0x65a4
 13815 6c40 02       	 .uleb128 0x2
 13816 6c41 91       	 .byte 0x91
 13817 6c42 6C       	 .sleb128 -20
 13818 6c43 2A       	 .uleb128 0x2a
 13819 6c44 9B030000 	 .4byte .LASF1075
 13820 6c48 03       	 .byte 0x3
 13821 6c49 21       	 .byte 0x21
 13822 6c4a 3C       	 .byte 0x3c
 13823 6c4b D1630000 	 .4byte 0x63d1
 13824 6c4f 02       	 .uleb128 0x2
 13825 6c50 91       	 .byte 0x91
 13826 6c51 68       	 .sleb128 -24
 13827 6c52 14       	 .uleb128 0x14
 13828 6c53 C9100000 	 .4byte .LASF1076
 13829 6c57 03       	 .byte 0x3
 13830 6c58 23       	 .byte 0x23
 13831 6c59 0D       	 .byte 0xd
 13832 6c5a 97000000 	 .4byte 0x97
 13833 6c5e 02       	 .uleb128 0x2
 13834 6c5f 91       	 .byte 0x91
 13835 6c60 74       	 .sleb128 -12
 13836 6c61 59       	 .uleb128 0x59
 13837 6c62 48360000 	 .4byte .LASF1078
 13838 6c66 816C0000 	 .4byte 0x6c81
 13839 6c6a 05       	 .uleb128 0x5
 13840 6c6b 03       	 .byte 0x3
 13841 6c6c 14000000 	 .4byte .LC1
 13842 6c70 00       	 .byte 0
 13843 6c71 0F       	 .uleb128 0xf
 13844 6c72 5A080000 	 .4byte 0x85a
 13845 6c76 816C0000 	 .4byte 0x6c81
ARM GAS   			page 257


 13846 6c7a 10       	 .uleb128 0x10
 13847 6c7b 5E010000 	 .4byte 0x15e
 13848 6c7f 33       	 .byte 0x33
 13849 6c80 00       	 .byte 0
 13850 6c81 0A       	 .uleb128 0xa
 13851 6c82 716C0000 	 .4byte 0x6c71
 13852 6c86 1D       	 .uleb128 0x1d
 13853 6c87 31660000 	 .4byte 0x6631
 13854 6c8b 9D6C0000 	 .4byte 0x6c9d
 13855 6c8f 00000000 	 .4byte .LFB1300
 13856 6c93 1E000000 	 .4byte .LFE1300-.LFB1300
 13857 6c97 01       	 .uleb128 0x1
 13858 6c98 9C       	 .byte 0x9c
 13859 6c99 B96C0000 	 .4byte 0x6cb9
 13860 6c9d 16       	 .uleb128 0x16
 13861 6c9e 7E2F0000 	 .4byte .LASF1063
 13862 6ca2 A4650000 	 .4byte 0x65a4
 13863 6ca6 02       	 .uleb128 0x2
 13864 6ca7 91       	 .byte 0x91
 13865 6ca8 6C       	 .sleb128 -20
 13866 6ca9 14       	 .uleb128 0x14
 13867 6caa 9B030000 	 .4byte .LASF1075
 13868 6cae 03       	 .byte 0x3
 13869 6caf 1B       	 .byte 0x1b
 13870 6cb0 0D       	 .byte 0xd
 13871 6cb1 D1630000 	 .4byte 0x63d1
 13872 6cb5 02       	 .uleb128 0x2
 13873 6cb6 91       	 .byte 0x91
 13874 6cb7 74       	 .sleb128 -12
 13875 6cb8 00       	 .byte 0
 13876 6cb9 55       	 .uleb128 0x55
 13877 6cba 03660000 	 .4byte 0x6603
 13878 6cbe C76C0000 	 .4byte 0x6cc7
 13879 6cc2 00       	 .byte 0
 13880 6cc3 F56C0000 	 .4byte 0x6cf5
 13881 6cc7 56       	 .uleb128 0x56
 13882 6cc8 7E2F0000 	 .4byte .LASF1063
 13883 6ccc A4650000 	 .4byte 0x65a4
 13884 6cd0 42       	 .uleb128 0x42
 13885 6cd1 EE1F0000 	 .4byte .LASF1079
 13886 6cd5 03       	 .byte 0x3
 13887 6cd6 0F       	 .byte 0xf
 13888 6cd7 25       	 .byte 0x25
 13889 6cd8 E7610000 	 .4byte 0x61e7
 13890 6cdc 42       	 .uleb128 0x42
 13891 6cdd EB4C0000 	 .4byte .LASF1080
 13892 6ce1 03       	 .byte 0x3
 13893 6ce2 10       	 .byte 0x10
 13894 6ce3 1F       	 .byte 0x1f
 13895 6ce4 C1520000 	 .4byte 0x52c1
 13896 6ce8 42       	 .uleb128 0x42
 13897 6ce9 BF580000 	 .4byte .LASF1081
 13898 6ced 03       	 .byte 0x3
 13899 6cee 11       	 .byte 0x11
 13900 6cef 21       	 .byte 0x21
 13901 6cf0 D1630000 	 .4byte 0x63d1
 13902 6cf4 00       	 .byte 0
ARM GAS   			page 258


 13903 6cf5 8201     	 .uleb128 0x82
 13904 6cf7 B96C0000 	 .4byte 0x6cb9
 13905 6cfb 9D630000 	 .4byte .LASF1083
 13906 6cff 116D0000 	 .4byte 0x6d11
 13907 6d03 00000000 	 .4byte .LFB1298
 13908 6d07 50000000 	 .4byte .LFE1298-.LFB1298
 13909 6d0b 01       	 .uleb128 0x1
 13910 6d0c 9C       	 .byte 0x9c
 13911 6d0d 326D0000 	 .4byte 0x6d32
 13912 6d11 30       	 .uleb128 0x30
 13913 6d12 C76C0000 	 .4byte 0x6cc7
 13914 6d16 02       	 .uleb128 0x2
 13915 6d17 91       	 .byte 0x91
 13916 6d18 74       	 .sleb128 -12
 13917 6d19 30       	 .uleb128 0x30
 13918 6d1a D06C0000 	 .4byte 0x6cd0
 13919 6d1e 02       	 .uleb128 0x2
 13920 6d1f 91       	 .byte 0x91
 13921 6d20 70       	 .sleb128 -16
 13922 6d21 30       	 .uleb128 0x30
 13923 6d22 DC6C0000 	 .4byte 0x6cdc
 13924 6d26 02       	 .uleb128 0x2
 13925 6d27 91       	 .byte 0x91
 13926 6d28 6E       	 .sleb128 -18
 13927 6d29 30       	 .uleb128 0x30
 13928 6d2a E86C0000 	 .4byte 0x6ce8
 13929 6d2e 02       	 .uleb128 0x2
 13930 6d2f 91       	 .byte 0x91
 13931 6d30 68       	 .sleb128 -24
 13932 6d31 00       	 .byte 0
 13933 6d32 09       	 .uleb128 0x9
 13934 6d33 04       	 .byte 0x4
 13935 6d34 2E620000 	 .4byte 0x622e
 13936 6d38 0A       	 .uleb128 0xa
 13937 6d39 326D0000 	 .4byte 0x6d32
 13938 6d3d 1D       	 .uleb128 0x1d
 13939 6d3e 37620000 	 .4byte 0x6237
 13940 6d42 546D0000 	 .4byte 0x6d54
 13941 6d46 00000000 	 .4byte .LFB1275
 13942 6d4a 18000000 	 .4byte .LFE1275-.LFB1275
 13943 6d4e 01       	 .uleb128 0x1
 13944 6d4f 9C       	 .byte 0x9c
 13945 6d50 726D0000 	 .4byte 0x6d72
 13946 6d54 16       	 .uleb128 0x16
 13947 6d55 7E2F0000 	 .4byte .LASF1063
 13948 6d59 386D0000 	 .4byte 0x6d38
 13949 6d5d 02       	 .uleb128 0x2
 13950 6d5e 91       	 .byte 0x91
 13951 6d5f 74       	 .sleb128 -12
 13952 6d60 8301     	 .uleb128 0x83
 13953 6d62 33650000 	 .4byte .LASF980
 13954 6d66 02       	 .byte 0x2
 13955 6d67 0B01     	 .2byte 0x10b
 13956 6d69 2C       	 .byte 0x2c
 13957 6d6a 11620000 	 .4byte 0x6211
 13958 6d6e 02       	 .uleb128 0x2
 13959 6d6f 91       	 .byte 0x91
ARM GAS   			page 259


 13960 6d70 70       	 .sleb128 -16
 13961 6d71 00       	 .byte 0
 13962 6d72 1D       	 .uleb128 0x1d
 13963 6d73 58620000 	 .4byte 0x6258
 13964 6d77 896D0000 	 .4byte 0x6d89
 13965 6d7b 00000000 	 .4byte .LFB1271
 13966 6d7f 20000000 	 .4byte .LFE1271-.LFB1271
 13967 6d83 01       	 .uleb128 0x1
 13968 6d84 9C       	 .byte 0x9c
 13969 6d85 966D0000 	 .4byte 0x6d96
 13970 6d89 16       	 .uleb128 0x16
 13971 6d8a 7E2F0000 	 .4byte .LASF1063
 13972 6d8e 386D0000 	 .4byte 0x6d38
 13973 6d92 02       	 .uleb128 0x2
 13974 6d93 91       	 .byte 0x91
 13975 6d94 74       	 .sleb128 -12
 13976 6d95 00       	 .byte 0
 13977 6d96 39       	 .uleb128 0x39
 13978 6d97 77620000 	 .4byte 0x6277
 13979 6d9b AD6D0000 	 .4byte 0x6dad
 13980 6d9f 00000000 	 .4byte .LFB1264
 13981 6da3 18000000 	 .4byte .LFE1264-.LFB1264
 13982 6da7 01       	 .uleb128 0x1
 13983 6da8 9C       	 .byte 0x9c
 13984 6da9 BA6D0000 	 .4byte 0x6dba
 13985 6dad 16       	 .uleb128 0x16
 13986 6dae 7E2F0000 	 .4byte .LASF1063
 13987 6db2 386D0000 	 .4byte 0x6d38
 13988 6db6 02       	 .uleb128 0x2
 13989 6db7 91       	 .byte 0x91
 13990 6db8 74       	 .sleb128 -12
 13991 6db9 00       	 .byte 0
 13992 6dba 8401     	 .uleb128 0x84
 13993 6dbc 35470000 	 .4byte .LASF1099
 13994 6dc0 01       	 .byte 0x1
 13995 6dc1 E5       	 .byte 0xe5
 13996 6dc2 01       	 .byte 0x1
 13997 6dc3 46010000 	 .4byte 0x146
 13998 6dc7 00000000 	 .4byte .LFB893
 13999 6dcb 16000000 	 .4byte .LFE893-.LFB893
 14000 6dcf 01       	 .uleb128 0x1
 14001 6dd0 9C       	 .byte 0x9c
 14002 6dd1 2A       	 .uleb128 0x2a
 14003 6dd2 00690000 	 .4byte .LASF1084
 14004 6dd6 01       	 .byte 0x1
 14005 6dd7 E5       	 .byte 0xe5
 14006 6dd8 27       	 .byte 0x27
 14007 6dd9 375C0000 	 .4byte 0x5c37
 14008 6ddd 02       	 .uleb128 0x2
 14009 6dde 91       	 .byte 0x91
 14010 6ddf 74       	 .sleb128 -12
 14011 6de0 00       	 .byte 0
 14012 6de1 00       	 .byte 0
 14013              	 .section .debug_abbrev,"",%progbits
 14014              	.Ldebug_abbrev0:
 14015 0000 01       	 .uleb128 0x1
 14016 0001 05       	 .uleb128 0x5
ARM GAS   			page 260


 14017 0002 00       	 .byte 0
 14018 0003 49       	 .uleb128 0x49
 14019 0004 13       	 .uleb128 0x13
 14020 0005 00       	 .byte 0
 14021 0006 00       	 .byte 0
 14022 0007 02       	 .uleb128 0x2
 14023 0008 08       	 .uleb128 0x8
 14024 0009 00       	 .byte 0
 14025 000a 3A       	 .uleb128 0x3a
 14026 000b 0B       	 .uleb128 0xb
 14027 000c 3B       	 .uleb128 0x3b
 14028 000d 0B       	 .uleb128 0xb
 14029 000e 39       	 .uleb128 0x39
 14030 000f 0B       	 .uleb128 0xb
 14031 0010 18       	 .uleb128 0x18
 14032 0011 13       	 .uleb128 0x13
 14033 0012 00       	 .byte 0
 14034 0013 00       	 .byte 0
 14035 0014 03       	 .uleb128 0x3
 14036 0015 05       	 .uleb128 0x5
 14037 0016 00       	 .byte 0
 14038 0017 49       	 .uleb128 0x49
 14039 0018 13       	 .uleb128 0x13
 14040 0019 34       	 .uleb128 0x34
 14041 001a 19       	 .uleb128 0x19
 14042 001b 00       	 .byte 0
 14043 001c 00       	 .byte 0
 14044 001d 04       	 .uleb128 0x4
 14045 001e 2E       	 .uleb128 0x2e
 14046 001f 01       	 .byte 0x1
 14047 0020 3F       	 .uleb128 0x3f
 14048 0021 19       	 .uleb128 0x19
 14049 0022 03       	 .uleb128 0x3
 14050 0023 0E       	 .uleb128 0xe
 14051 0024 3A       	 .uleb128 0x3a
 14052 0025 0B       	 .uleb128 0xb
 14053 0026 3B       	 .uleb128 0x3b
 14054 0027 05       	 .uleb128 0x5
 14055 0028 39       	 .uleb128 0x39
 14056 0029 0B       	 .uleb128 0xb
 14057 002a 6E       	 .uleb128 0x6e
 14058 002b 0E       	 .uleb128 0xe
 14059 002c 49       	 .uleb128 0x49
 14060 002d 13       	 .uleb128 0x13
 14061 002e 32       	 .uleb128 0x32
 14062 002f 0B       	 .uleb128 0xb
 14063 0030 3C       	 .uleb128 0x3c
 14064 0031 19       	 .uleb128 0x19
 14065 0032 64       	 .uleb128 0x64
 14066 0033 13       	 .uleb128 0x13
 14067 0034 01       	 .uleb128 0x1
 14068 0035 13       	 .uleb128 0x13
 14069 0036 00       	 .byte 0
 14070 0037 00       	 .byte 0
 14071 0038 05       	 .uleb128 0x5
 14072 0039 2E       	 .uleb128 0x2e
 14073 003a 01       	 .byte 0x1
ARM GAS   			page 261


 14074 003b 3F       	 .uleb128 0x3f
 14075 003c 19       	 .uleb128 0x19
 14076 003d 03       	 .uleb128 0x3
 14077 003e 0E       	 .uleb128 0xe
 14078 003f 3A       	 .uleb128 0x3a
 14079 0040 0B       	 .uleb128 0xb
 14080 0041 3B       	 .uleb128 0x3b
 14081 0042 05       	 .uleb128 0x5
 14082 0043 39       	 .uleb128 0x39
 14083 0044 0B       	 .uleb128 0xb
 14084 0045 6E       	 .uleb128 0x6e
 14085 0046 0E       	 .uleb128 0xe
 14086 0047 49       	 .uleb128 0x49
 14087 0048 13       	 .uleb128 0x13
 14088 0049 3C       	 .uleb128 0x3c
 14089 004a 19       	 .uleb128 0x19
 14090 004b 01       	 .uleb128 0x1
 14091 004c 13       	 .uleb128 0x13
 14092 004d 00       	 .byte 0
 14093 004e 00       	 .byte 0
 14094 004f 06       	 .uleb128 0x6
 14095 0050 16       	 .uleb128 0x16
 14096 0051 00       	 .byte 0
 14097 0052 03       	 .uleb128 0x3
 14098 0053 0E       	 .uleb128 0xe
 14099 0054 3A       	 .uleb128 0x3a
 14100 0055 0B       	 .uleb128 0xb
 14101 0056 3B       	 .uleb128 0x3b
 14102 0057 0B       	 .uleb128 0xb
 14103 0058 39       	 .uleb128 0x39
 14104 0059 0B       	 .uleb128 0xb
 14105 005a 49       	 .uleb128 0x49
 14106 005b 13       	 .uleb128 0x13
 14107 005c 00       	 .byte 0
 14108 005d 00       	 .byte 0
 14109 005e 07       	 .uleb128 0x7
 14110 005f 2E       	 .uleb128 0x2e
 14111 0060 01       	 .byte 0x1
 14112 0061 3F       	 .uleb128 0x3f
 14113 0062 19       	 .uleb128 0x19
 14114 0063 03       	 .uleb128 0x3
 14115 0064 0E       	 .uleb128 0xe
 14116 0065 3A       	 .uleb128 0x3a
 14117 0066 0B       	 .uleb128 0xb
 14118 0067 3B       	 .uleb128 0x3b
 14119 0068 0B       	 .uleb128 0xb
 14120 0069 39       	 .uleb128 0x39
 14121 006a 0B       	 .uleb128 0xb
 14122 006b 49       	 .uleb128 0x49
 14123 006c 13       	 .uleb128 0x13
 14124 006d 3C       	 .uleb128 0x3c
 14125 006e 19       	 .uleb128 0x19
 14126 006f 01       	 .uleb128 0x1
 14127 0070 13       	 .uleb128 0x13
 14128 0071 00       	 .byte 0
 14129 0072 00       	 .byte 0
 14130 0073 08       	 .uleb128 0x8
ARM GAS   			page 262


 14131 0074 0D       	 .uleb128 0xd
 14132 0075 00       	 .byte 0
 14133 0076 03       	 .uleb128 0x3
 14134 0077 0E       	 .uleb128 0xe
 14135 0078 3A       	 .uleb128 0x3a
 14136 0079 0B       	 .uleb128 0xb
 14137 007a 3B       	 .uleb128 0x3b
 14138 007b 0B       	 .uleb128 0xb
 14139 007c 39       	 .uleb128 0x39
 14140 007d 0B       	 .uleb128 0xb
 14141 007e 49       	 .uleb128 0x49
 14142 007f 13       	 .uleb128 0x13
 14143 0080 38       	 .uleb128 0x38
 14144 0081 0B       	 .uleb128 0xb
 14145 0082 00       	 .byte 0
 14146 0083 00       	 .byte 0
 14147 0084 09       	 .uleb128 0x9
 14148 0085 0F       	 .uleb128 0xf
 14149 0086 00       	 .byte 0
 14150 0087 0B       	 .uleb128 0xb
 14151 0088 0B       	 .uleb128 0xb
 14152 0089 49       	 .uleb128 0x49
 14153 008a 13       	 .uleb128 0x13
 14154 008b 00       	 .byte 0
 14155 008c 00       	 .byte 0
 14156 008d 0A       	 .uleb128 0xa
 14157 008e 26       	 .uleb128 0x26
 14158 008f 00       	 .byte 0
 14159 0090 49       	 .uleb128 0x49
 14160 0091 13       	 .uleb128 0x13
 14161 0092 00       	 .byte 0
 14162 0093 00       	 .byte 0
 14163 0094 0B       	 .uleb128 0xb
 14164 0095 0D       	 .uleb128 0xd
 14165 0096 00       	 .byte 0
 14166 0097 03       	 .uleb128 0x3
 14167 0098 0E       	 .uleb128 0xe
 14168 0099 3A       	 .uleb128 0x3a
 14169 009a 0B       	 .uleb128 0xb
 14170 009b 3B       	 .uleb128 0x3b
 14171 009c 05       	 .uleb128 0x5
 14172 009d 39       	 .uleb128 0x39
 14173 009e 0B       	 .uleb128 0xb
 14174 009f 49       	 .uleb128 0x49
 14175 00a0 13       	 .uleb128 0x13
 14176 00a1 38       	 .uleb128 0x38
 14177 00a2 0B       	 .uleb128 0xb
 14178 00a3 00       	 .byte 0
 14179 00a4 00       	 .byte 0
 14180 00a5 0C       	 .uleb128 0xc
 14181 00a6 2E       	 .uleb128 0x2e
 14182 00a7 01       	 .byte 0x1
 14183 00a8 3F       	 .uleb128 0x3f
 14184 00a9 19       	 .uleb128 0x19
 14185 00aa 03       	 .uleb128 0x3
 14186 00ab 0E       	 .uleb128 0xe
 14187 00ac 3A       	 .uleb128 0x3a
ARM GAS   			page 263


 14188 00ad 0B       	 .uleb128 0xb
 14189 00ae 3B       	 .uleb128 0x3b
 14190 00af 0B       	 .uleb128 0xb
 14191 00b0 39       	 .uleb128 0x39
 14192 00b1 0B       	 .uleb128 0xb
 14193 00b2 6E       	 .uleb128 0x6e
 14194 00b3 0E       	 .uleb128 0xe
 14195 00b4 49       	 .uleb128 0x49
 14196 00b5 13       	 .uleb128 0x13
 14197 00b6 32       	 .uleb128 0x32
 14198 00b7 0B       	 .uleb128 0xb
 14199 00b8 3C       	 .uleb128 0x3c
 14200 00b9 19       	 .uleb128 0x19
 14201 00ba 64       	 .uleb128 0x64
 14202 00bb 13       	 .uleb128 0x13
 14203 00bc 01       	 .uleb128 0x1
 14204 00bd 13       	 .uleb128 0x13
 14205 00be 00       	 .byte 0
 14206 00bf 00       	 .byte 0
 14207 00c0 0D       	 .uleb128 0xd
 14208 00c1 10       	 .uleb128 0x10
 14209 00c2 00       	 .byte 0
 14210 00c3 0B       	 .uleb128 0xb
 14211 00c4 0B       	 .uleb128 0xb
 14212 00c5 49       	 .uleb128 0x49
 14213 00c6 13       	 .uleb128 0x13
 14214 00c7 00       	 .byte 0
 14215 00c8 00       	 .byte 0
 14216 00c9 0E       	 .uleb128 0xe
 14217 00ca 28       	 .uleb128 0x28
 14218 00cb 00       	 .byte 0
 14219 00cc 03       	 .uleb128 0x3
 14220 00cd 0E       	 .uleb128 0xe
 14221 00ce 1C       	 .uleb128 0x1c
 14222 00cf 0B       	 .uleb128 0xb
 14223 00d0 00       	 .byte 0
 14224 00d1 00       	 .byte 0
 14225 00d2 0F       	 .uleb128 0xf
 14226 00d3 01       	 .uleb128 0x1
 14227 00d4 01       	 .byte 0x1
 14228 00d5 49       	 .uleb128 0x49
 14229 00d6 13       	 .uleb128 0x13
 14230 00d7 01       	 .uleb128 0x1
 14231 00d8 13       	 .uleb128 0x13
 14232 00d9 00       	 .byte 0
 14233 00da 00       	 .byte 0
 14234 00db 10       	 .uleb128 0x10
 14235 00dc 21       	 .uleb128 0x21
 14236 00dd 00       	 .byte 0
 14237 00de 49       	 .uleb128 0x49
 14238 00df 13       	 .uleb128 0x13
 14239 00e0 2F       	 .uleb128 0x2f
 14240 00e1 0B       	 .uleb128 0xb
 14241 00e2 00       	 .byte 0
 14242 00e3 00       	 .byte 0
 14243 00e4 11       	 .uleb128 0x11
 14244 00e5 16       	 .uleb128 0x16
ARM GAS   			page 264


 14245 00e6 00       	 .byte 0
 14246 00e7 03       	 .uleb128 0x3
 14247 00e8 0E       	 .uleb128 0xe
 14248 00e9 3A       	 .uleb128 0x3a
 14249 00ea 0B       	 .uleb128 0xb
 14250 00eb 3B       	 .uleb128 0x3b
 14251 00ec 0B       	 .uleb128 0xb
 14252 00ed 39       	 .uleb128 0x39
 14253 00ee 0B       	 .uleb128 0xb
 14254 00ef 49       	 .uleb128 0x49
 14255 00f0 13       	 .uleb128 0x13
 14256 00f1 32       	 .uleb128 0x32
 14257 00f2 0B       	 .uleb128 0xb
 14258 00f3 00       	 .byte 0
 14259 00f4 00       	 .byte 0
 14260 00f5 12       	 .uleb128 0x12
 14261 00f6 24       	 .uleb128 0x24
 14262 00f7 00       	 .byte 0
 14263 00f8 0B       	 .uleb128 0xb
 14264 00f9 0B       	 .uleb128 0xb
 14265 00fa 3E       	 .uleb128 0x3e
 14266 00fb 0B       	 .uleb128 0xb
 14267 00fc 03       	 .uleb128 0x3
 14268 00fd 0E       	 .uleb128 0xe
 14269 00fe 00       	 .byte 0
 14270 00ff 00       	 .byte 0
 14271 0100 13       	 .uleb128 0x13
 14272 0101 2E       	 .uleb128 0x2e
 14273 0102 01       	 .byte 0x1
 14274 0103 3F       	 .uleb128 0x3f
 14275 0104 19       	 .uleb128 0x19
 14276 0105 03       	 .uleb128 0x3
 14277 0106 0E       	 .uleb128 0xe
 14278 0107 3A       	 .uleb128 0x3a
 14279 0108 0B       	 .uleb128 0xb
 14280 0109 3B       	 .uleb128 0x3b
 14281 010a 05       	 .uleb128 0x5
 14282 010b 39       	 .uleb128 0x39
 14283 010c 0B       	 .uleb128 0xb
 14284 010d 49       	 .uleb128 0x49
 14285 010e 13       	 .uleb128 0x13
 14286 010f 3C       	 .uleb128 0x3c
 14287 0110 19       	 .uleb128 0x19
 14288 0111 01       	 .uleb128 0x1
 14289 0112 13       	 .uleb128 0x13
 14290 0113 00       	 .byte 0
 14291 0114 00       	 .byte 0
 14292 0115 14       	 .uleb128 0x14
 14293 0116 34       	 .uleb128 0x34
 14294 0117 00       	 .byte 0
 14295 0118 03       	 .uleb128 0x3
 14296 0119 0E       	 .uleb128 0xe
 14297 011a 3A       	 .uleb128 0x3a
 14298 011b 0B       	 .uleb128 0xb
 14299 011c 3B       	 .uleb128 0x3b
 14300 011d 0B       	 .uleb128 0xb
 14301 011e 39       	 .uleb128 0x39
ARM GAS   			page 265


 14302 011f 0B       	 .uleb128 0xb
 14303 0120 49       	 .uleb128 0x49
 14304 0121 13       	 .uleb128 0x13
 14305 0122 02       	 .uleb128 0x2
 14306 0123 18       	 .uleb128 0x18
 14307 0124 00       	 .byte 0
 14308 0125 00       	 .byte 0
 14309 0126 15       	 .uleb128 0x15
 14310 0127 2E       	 .uleb128 0x2e
 14311 0128 01       	 .byte 0x1
 14312 0129 3F       	 .uleb128 0x3f
 14313 012a 19       	 .uleb128 0x19
 14314 012b 03       	 .uleb128 0x3
 14315 012c 0E       	 .uleb128 0xe
 14316 012d 3A       	 .uleb128 0x3a
 14317 012e 0B       	 .uleb128 0xb
 14318 012f 3B       	 .uleb128 0x3b
 14319 0130 0B       	 .uleb128 0xb
 14320 0131 39       	 .uleb128 0x39
 14321 0132 0B       	 .uleb128 0xb
 14322 0133 6E       	 .uleb128 0x6e
 14323 0134 0E       	 .uleb128 0xe
 14324 0135 49       	 .uleb128 0x49
 14325 0136 13       	 .uleb128 0x13
 14326 0137 3C       	 .uleb128 0x3c
 14327 0138 19       	 .uleb128 0x19
 14328 0139 01       	 .uleb128 0x1
 14329 013a 13       	 .uleb128 0x13
 14330 013b 00       	 .byte 0
 14331 013c 00       	 .byte 0
 14332 013d 16       	 .uleb128 0x16
 14333 013e 05       	 .uleb128 0x5
 14334 013f 00       	 .byte 0
 14335 0140 03       	 .uleb128 0x3
 14336 0141 0E       	 .uleb128 0xe
 14337 0142 49       	 .uleb128 0x49
 14338 0143 13       	 .uleb128 0x13
 14339 0144 34       	 .uleb128 0x34
 14340 0145 19       	 .uleb128 0x19
 14341 0146 02       	 .uleb128 0x2
 14342 0147 18       	 .uleb128 0x18
 14343 0148 00       	 .byte 0
 14344 0149 00       	 .byte 0
 14345 014a 17       	 .uleb128 0x17
 14346 014b 16       	 .uleb128 0x16
 14347 014c 00       	 .byte 0
 14348 014d 03       	 .uleb128 0x3
 14349 014e 0E       	 .uleb128 0xe
 14350 014f 3A       	 .uleb128 0x3a
 14351 0150 0B       	 .uleb128 0xb
 14352 0151 3B       	 .uleb128 0x3b
 14353 0152 05       	 .uleb128 0x5
 14354 0153 39       	 .uleb128 0x39
 14355 0154 0B       	 .uleb128 0xb
 14356 0155 49       	 .uleb128 0x49
 14357 0156 13       	 .uleb128 0x13
 14358 0157 00       	 .byte 0
ARM GAS   			page 266


 14359 0158 00       	 .byte 0
 14360 0159 18       	 .uleb128 0x18
 14361 015a 08       	 .uleb128 0x8
 14362 015b 00       	 .byte 0
 14363 015c 3A       	 .uleb128 0x3a
 14364 015d 0B       	 .uleb128 0xb
 14365 015e 3B       	 .uleb128 0x3b
 14366 015f 05       	 .uleb128 0x5
 14367 0160 39       	 .uleb128 0x39
 14368 0161 0B       	 .uleb128 0xb
 14369 0162 18       	 .uleb128 0x18
 14370 0163 13       	 .uleb128 0x13
 14371 0164 00       	 .byte 0
 14372 0165 00       	 .byte 0
 14373 0166 19       	 .uleb128 0x19
 14374 0167 2E       	 .uleb128 0x2e
 14375 0168 01       	 .byte 0x1
 14376 0169 3F       	 .uleb128 0x3f
 14377 016a 19       	 .uleb128 0x19
 14378 016b 03       	 .uleb128 0x3
 14379 016c 08       	 .uleb128 0x8
 14380 016d 3A       	 .uleb128 0x3a
 14381 016e 0B       	 .uleb128 0xb
 14382 016f 3B       	 .uleb128 0x3b
 14383 0170 05       	 .uleb128 0x5
 14384 0171 39       	 .uleb128 0x39
 14385 0172 0B       	 .uleb128 0xb
 14386 0173 6E       	 .uleb128 0x6e
 14387 0174 0E       	 .uleb128 0xe
 14388 0175 49       	 .uleb128 0x49
 14389 0176 13       	 .uleb128 0x13
 14390 0177 3C       	 .uleb128 0x3c
 14391 0178 19       	 .uleb128 0x19
 14392 0179 01       	 .uleb128 0x1
 14393 017a 13       	 .uleb128 0x13
 14394 017b 00       	 .byte 0
 14395 017c 00       	 .byte 0
 14396 017d 1A       	 .uleb128 0x1a
 14397 017e 13       	 .uleb128 0x13
 14398 017f 01       	 .byte 0x1
 14399 0180 03       	 .uleb128 0x3
 14400 0181 0E       	 .uleb128 0xe
 14401 0182 0B       	 .uleb128 0xb
 14402 0183 0B       	 .uleb128 0xb
 14403 0184 3A       	 .uleb128 0x3a
 14404 0185 0B       	 .uleb128 0xb
 14405 0186 3B       	 .uleb128 0x3b
 14406 0187 0B       	 .uleb128 0xb
 14407 0188 39       	 .uleb128 0x39
 14408 0189 0B       	 .uleb128 0xb
 14409 018a 01       	 .uleb128 0x1
 14410 018b 13       	 .uleb128 0x13
 14411 018c 00       	 .byte 0
 14412 018d 00       	 .byte 0
 14413 018e 1B       	 .uleb128 0x1b
 14414 018f 0D       	 .uleb128 0xd
 14415 0190 00       	 .byte 0
ARM GAS   			page 267


 14416 0191 03       	 .uleb128 0x3
 14417 0192 08       	 .uleb128 0x8
 14418 0193 3A       	 .uleb128 0x3a
 14419 0194 0B       	 .uleb128 0xb
 14420 0195 3B       	 .uleb128 0x3b
 14421 0196 0B       	 .uleb128 0xb
 14422 0197 39       	 .uleb128 0x39
 14423 0198 0B       	 .uleb128 0xb
 14424 0199 49       	 .uleb128 0x49
 14425 019a 13       	 .uleb128 0x13
 14426 019b 38       	 .uleb128 0x38
 14427 019c 0B       	 .uleb128 0xb
 14428 019d 00       	 .byte 0
 14429 019e 00       	 .byte 0
 14430 019f 1C       	 .uleb128 0x1c
 14431 01a0 2E       	 .uleb128 0x2e
 14432 01a1 01       	 .byte 0x1
 14433 01a2 3F       	 .uleb128 0x3f
 14434 01a3 19       	 .uleb128 0x19
 14435 01a4 03       	 .uleb128 0x3
 14436 01a5 0E       	 .uleb128 0xe
 14437 01a6 3A       	 .uleb128 0x3a
 14438 01a7 0B       	 .uleb128 0xb
 14439 01a8 3B       	 .uleb128 0x3b
 14440 01a9 0B       	 .uleb128 0xb
 14441 01aa 39       	 .uleb128 0x39
 14442 01ab 0B       	 .uleb128 0xb
 14443 01ac 6E       	 .uleb128 0x6e
 14444 01ad 0E       	 .uleb128 0xe
 14445 01ae 49       	 .uleb128 0x49
 14446 01af 13       	 .uleb128 0x13
 14447 01b0 3C       	 .uleb128 0x3c
 14448 01b1 19       	 .uleb128 0x19
 14449 01b2 64       	 .uleb128 0x64
 14450 01b3 13       	 .uleb128 0x13
 14451 01b4 01       	 .uleb128 0x1
 14452 01b5 13       	 .uleb128 0x13
 14453 01b6 00       	 .byte 0
 14454 01b7 00       	 .byte 0
 14455 01b8 1D       	 .uleb128 0x1d
 14456 01b9 2E       	 .uleb128 0x2e
 14457 01ba 01       	 .byte 0x1
 14458 01bb 47       	 .uleb128 0x47
 14459 01bc 13       	 .uleb128 0x13
 14460 01bd 64       	 .uleb128 0x64
 14461 01be 13       	 .uleb128 0x13
 14462 01bf 11       	 .uleb128 0x11
 14463 01c0 01       	 .uleb128 0x1
 14464 01c1 12       	 .uleb128 0x12
 14465 01c2 06       	 .uleb128 0x6
 14466 01c3 40       	 .uleb128 0x40
 14467 01c4 18       	 .uleb128 0x18
 14468 01c5 9642     	 .uleb128 0x2116
 14469 01c7 19       	 .uleb128 0x19
 14470 01c8 01       	 .uleb128 0x1
 14471 01c9 13       	 .uleb128 0x13
 14472 01ca 00       	 .byte 0
ARM GAS   			page 268


 14473 01cb 00       	 .byte 0
 14474 01cc 1E       	 .uleb128 0x1e
 14475 01cd 2E       	 .uleb128 0x2e
 14476 01ce 01       	 .byte 0x1
 14477 01cf 3F       	 .uleb128 0x3f
 14478 01d0 19       	 .uleb128 0x19
 14479 01d1 03       	 .uleb128 0x3
 14480 01d2 08       	 .uleb128 0x8
 14481 01d3 3A       	 .uleb128 0x3a
 14482 01d4 0B       	 .uleb128 0xb
 14483 01d5 3B       	 .uleb128 0x3b
 14484 01d6 0B       	 .uleb128 0xb
 14485 01d7 39       	 .uleb128 0x39
 14486 01d8 0B       	 .uleb128 0xb
 14487 01d9 6E       	 .uleb128 0x6e
 14488 01da 0E       	 .uleb128 0xe
 14489 01db 49       	 .uleb128 0x49
 14490 01dc 13       	 .uleb128 0x13
 14491 01dd 3C       	 .uleb128 0x3c
 14492 01de 19       	 .uleb128 0x19
 14493 01df 01       	 .uleb128 0x1
 14494 01e0 13       	 .uleb128 0x13
 14495 01e1 00       	 .byte 0
 14496 01e2 00       	 .byte 0
 14497 01e3 1F       	 .uleb128 0x1f
 14498 01e4 2E       	 .uleb128 0x2e
 14499 01e5 01       	 .byte 0x1
 14500 01e6 3F       	 .uleb128 0x3f
 14501 01e7 19       	 .uleb128 0x19
 14502 01e8 03       	 .uleb128 0x3
 14503 01e9 0E       	 .uleb128 0xe
 14504 01ea 3A       	 .uleb128 0x3a
 14505 01eb 0B       	 .uleb128 0xb
 14506 01ec 3B       	 .uleb128 0x3b
 14507 01ed 05       	 .uleb128 0x5
 14508 01ee 39       	 .uleb128 0x39
 14509 01ef 0B       	 .uleb128 0xb
 14510 01f0 6E       	 .uleb128 0x6e
 14511 01f1 0E       	 .uleb128 0xe
 14512 01f2 3C       	 .uleb128 0x3c
 14513 01f3 19       	 .uleb128 0x19
 14514 01f4 01       	 .uleb128 0x1
 14515 01f5 13       	 .uleb128 0x13
 14516 01f6 00       	 .byte 0
 14517 01f7 00       	 .byte 0
 14518 01f8 20       	 .uleb128 0x20
 14519 01f9 2E       	 .uleb128 0x2e
 14520 01fa 01       	 .byte 0x1
 14521 01fb 3F       	 .uleb128 0x3f
 14522 01fc 19       	 .uleb128 0x19
 14523 01fd 03       	 .uleb128 0x3
 14524 01fe 0E       	 .uleb128 0xe
 14525 01ff 3A       	 .uleb128 0x3a
 14526 0200 0B       	 .uleb128 0xb
 14527 0201 3B       	 .uleb128 0x3b
 14528 0202 05       	 .uleb128 0x5
 14529 0203 39       	 .uleb128 0x39
ARM GAS   			page 269


 14530 0204 0B       	 .uleb128 0xb
 14531 0205 6E       	 .uleb128 0x6e
 14532 0206 0E       	 .uleb128 0xe
 14533 0207 32       	 .uleb128 0x32
 14534 0208 0B       	 .uleb128 0xb
 14535 0209 3C       	 .uleb128 0x3c
 14536 020a 19       	 .uleb128 0x19
 14537 020b 64       	 .uleb128 0x64
 14538 020c 13       	 .uleb128 0x13
 14539 020d 01       	 .uleb128 0x1
 14540 020e 13       	 .uleb128 0x13
 14541 020f 00       	 .byte 0
 14542 0210 00       	 .byte 0
 14543 0211 21       	 .uleb128 0x21
 14544 0212 2E       	 .uleb128 0x2e
 14545 0213 01       	 .byte 0x1
 14546 0214 3F       	 .uleb128 0x3f
 14547 0215 19       	 .uleb128 0x19
 14548 0216 03       	 .uleb128 0x3
 14549 0217 0E       	 .uleb128 0xe
 14550 0218 3A       	 .uleb128 0x3a
 14551 0219 0B       	 .uleb128 0xb
 14552 021a 3B       	 .uleb128 0x3b
 14553 021b 0B       	 .uleb128 0xb
 14554 021c 39       	 .uleb128 0x39
 14555 021d 0B       	 .uleb128 0xb
 14556 021e 6E       	 .uleb128 0x6e
 14557 021f 0E       	 .uleb128 0xe
 14558 0220 3C       	 .uleb128 0x3c
 14559 0221 19       	 .uleb128 0x19
 14560 0222 64       	 .uleb128 0x64
 14561 0223 13       	 .uleb128 0x13
 14562 0224 01       	 .uleb128 0x1
 14563 0225 13       	 .uleb128 0x13
 14564 0226 00       	 .byte 0
 14565 0227 00       	 .byte 0
 14566 0228 22       	 .uleb128 0x22
 14567 0229 2E       	 .uleb128 0x2e
 14568 022a 01       	 .byte 0x1
 14569 022b 3F       	 .uleb128 0x3f
 14570 022c 19       	 .uleb128 0x19
 14571 022d 03       	 .uleb128 0x3
 14572 022e 0E       	 .uleb128 0xe
 14573 022f 3A       	 .uleb128 0x3a
 14574 0230 0B       	 .uleb128 0xb
 14575 0231 3B       	 .uleb128 0x3b
 14576 0232 05       	 .uleb128 0x5
 14577 0233 39       	 .uleb128 0x39
 14578 0234 0B       	 .uleb128 0xb
 14579 0235 6E       	 .uleb128 0x6e
 14580 0236 0E       	 .uleb128 0xe
 14581 0237 49       	 .uleb128 0x49
 14582 0238 13       	 .uleb128 0x13
 14583 0239 3C       	 .uleb128 0x3c
 14584 023a 19       	 .uleb128 0x19
 14585 023b 64       	 .uleb128 0x64
 14586 023c 13       	 .uleb128 0x13
ARM GAS   			page 270


 14587 023d 01       	 .uleb128 0x1
 14588 023e 13       	 .uleb128 0x13
 14589 023f 00       	 .byte 0
 14590 0240 00       	 .byte 0
 14591 0241 23       	 .uleb128 0x23
 14592 0242 2F       	 .uleb128 0x2f
 14593 0243 00       	 .byte 0
 14594 0244 03       	 .uleb128 0x3
 14595 0245 0E       	 .uleb128 0xe
 14596 0246 49       	 .uleb128 0x49
 14597 0247 13       	 .uleb128 0x13
 14598 0248 00       	 .byte 0
 14599 0249 00       	 .byte 0
 14600 024a 24       	 .uleb128 0x24
 14601 024b 02       	 .uleb128 0x2
 14602 024c 01       	 .byte 0x1
 14603 024d 03       	 .uleb128 0x3
 14604 024e 0E       	 .uleb128 0xe
 14605 024f 0B       	 .uleb128 0xb
 14606 0250 0B       	 .uleb128 0xb
 14607 0251 3A       	 .uleb128 0x3a
 14608 0252 0B       	 .uleb128 0xb
 14609 0253 3B       	 .uleb128 0x3b
 14610 0254 0B       	 .uleb128 0xb
 14611 0255 39       	 .uleb128 0x39
 14612 0256 0B       	 .uleb128 0xb
 14613 0257 01       	 .uleb128 0x1
 14614 0258 13       	 .uleb128 0x13
 14615 0259 00       	 .byte 0
 14616 025a 00       	 .byte 0
 14617 025b 25       	 .uleb128 0x25
 14618 025c 2E       	 .uleb128 0x2e
 14619 025d 01       	 .byte 0x1
 14620 025e 3F       	 .uleb128 0x3f
 14621 025f 19       	 .uleb128 0x19
 14622 0260 03       	 .uleb128 0x3
 14623 0261 0E       	 .uleb128 0xe
 14624 0262 3A       	 .uleb128 0x3a
 14625 0263 0B       	 .uleb128 0xb
 14626 0264 3B       	 .uleb128 0x3b
 14627 0265 05       	 .uleb128 0x5
 14628 0266 39       	 .uleb128 0x39
 14629 0267 0B       	 .uleb128 0xb
 14630 0268 6E       	 .uleb128 0x6e
 14631 0269 0E       	 .uleb128 0xe
 14632 026a 3C       	 .uleb128 0x3c
 14633 026b 19       	 .uleb128 0x19
 14634 026c 64       	 .uleb128 0x64
 14635 026d 13       	 .uleb128 0x13
 14636 026e 01       	 .uleb128 0x1
 14637 026f 13       	 .uleb128 0x13
 14638 0270 00       	 .byte 0
 14639 0271 00       	 .byte 0
 14640 0272 26       	 .uleb128 0x26
 14641 0273 2F       	 .uleb128 0x2f
 14642 0274 00       	 .byte 0
 14643 0275 03       	 .uleb128 0x3
ARM GAS   			page 271


 14644 0276 08       	 .uleb128 0x8
 14645 0277 49       	 .uleb128 0x49
 14646 0278 13       	 .uleb128 0x13
 14647 0279 00       	 .byte 0
 14648 027a 00       	 .byte 0
 14649 027b 27       	 .uleb128 0x27
 14650 027c 16       	 .uleb128 0x16
 14651 027d 00       	 .byte 0
 14652 027e 03       	 .uleb128 0x3
 14653 027f 0E       	 .uleb128 0xe
 14654 0280 3A       	 .uleb128 0x3a
 14655 0281 0B       	 .uleb128 0xb
 14656 0282 3B       	 .uleb128 0x3b
 14657 0283 05       	 .uleb128 0x5
 14658 0284 39       	 .uleb128 0x39
 14659 0285 0B       	 .uleb128 0xb
 14660 0286 49       	 .uleb128 0x49
 14661 0287 13       	 .uleb128 0x13
 14662 0288 32       	 .uleb128 0x32
 14663 0289 0B       	 .uleb128 0xb
 14664 028a 00       	 .byte 0
 14665 028b 00       	 .byte 0
 14666 028c 28       	 .uleb128 0x28
 14667 028d 18       	 .uleb128 0x18
 14668 028e 00       	 .byte 0
 14669 028f 00       	 .byte 0
 14670 0290 00       	 .byte 0
 14671 0291 29       	 .uleb128 0x29
 14672 0292 2E       	 .uleb128 0x2e
 14673 0293 01       	 .byte 0x1
 14674 0294 3F       	 .uleb128 0x3f
 14675 0295 19       	 .uleb128 0x19
 14676 0296 03       	 .uleb128 0x3
 14677 0297 0E       	 .uleb128 0xe
 14678 0298 3A       	 .uleb128 0x3a
 14679 0299 0B       	 .uleb128 0xb
 14680 029a 3B       	 .uleb128 0x3b
 14681 029b 0B       	 .uleb128 0xb
 14682 029c 39       	 .uleb128 0x39
 14683 029d 0B       	 .uleb128 0xb
 14684 029e 3C       	 .uleb128 0x3c
 14685 029f 19       	 .uleb128 0x19
 14686 02a0 01       	 .uleb128 0x1
 14687 02a1 13       	 .uleb128 0x13
 14688 02a2 00       	 .byte 0
 14689 02a3 00       	 .byte 0
 14690 02a4 2A       	 .uleb128 0x2a
 14691 02a5 05       	 .uleb128 0x5
 14692 02a6 00       	 .byte 0
 14693 02a7 03       	 .uleb128 0x3
 14694 02a8 0E       	 .uleb128 0xe
 14695 02a9 3A       	 .uleb128 0x3a
 14696 02aa 0B       	 .uleb128 0xb
 14697 02ab 3B       	 .uleb128 0x3b
 14698 02ac 0B       	 .uleb128 0xb
 14699 02ad 39       	 .uleb128 0x39
 14700 02ae 0B       	 .uleb128 0xb
ARM GAS   			page 272


 14701 02af 49       	 .uleb128 0x49
 14702 02b0 13       	 .uleb128 0x13
 14703 02b1 02       	 .uleb128 0x2
 14704 02b2 18       	 .uleb128 0x18
 14705 02b3 00       	 .byte 0
 14706 02b4 00       	 .byte 0
 14707 02b5 2B       	 .uleb128 0x2b
 14708 02b6 15       	 .uleb128 0x15
 14709 02b7 01       	 .byte 0x1
 14710 02b8 49       	 .uleb128 0x49
 14711 02b9 13       	 .uleb128 0x13
 14712 02ba 01       	 .uleb128 0x1
 14713 02bb 13       	 .uleb128 0x13
 14714 02bc 00       	 .byte 0
 14715 02bd 00       	 .byte 0
 14716 02be 2C       	 .uleb128 0x2c
 14717 02bf 0D       	 .uleb128 0xd
 14718 02c0 00       	 .byte 0
 14719 02c1 03       	 .uleb128 0x3
 14720 02c2 0E       	 .uleb128 0xe
 14721 02c3 3A       	 .uleb128 0x3a
 14722 02c4 0B       	 .uleb128 0xb
 14723 02c5 3B       	 .uleb128 0x3b
 14724 02c6 05       	 .uleb128 0x5
 14725 02c7 39       	 .uleb128 0x39
 14726 02c8 0B       	 .uleb128 0xb
 14727 02c9 49       	 .uleb128 0x49
 14728 02ca 13       	 .uleb128 0x13
 14729 02cb 38       	 .uleb128 0x38
 14730 02cc 05       	 .uleb128 0x5
 14731 02cd 00       	 .byte 0
 14732 02ce 00       	 .byte 0
 14733 02cf 2D       	 .uleb128 0x2d
 14734 02d0 2E       	 .uleb128 0x2e
 14735 02d1 00       	 .byte 0
 14736 02d2 3F       	 .uleb128 0x3f
 14737 02d3 19       	 .uleb128 0x19
 14738 02d4 03       	 .uleb128 0x3
 14739 02d5 0E       	 .uleb128 0xe
 14740 02d6 3A       	 .uleb128 0x3a
 14741 02d7 0B       	 .uleb128 0xb
 14742 02d8 3B       	 .uleb128 0x3b
 14743 02d9 0B       	 .uleb128 0xb
 14744 02da 39       	 .uleb128 0x39
 14745 02db 0B       	 .uleb128 0xb
 14746 02dc 6E       	 .uleb128 0x6e
 14747 02dd 0E       	 .uleb128 0xe
 14748 02de 49       	 .uleb128 0x49
 14749 02df 13       	 .uleb128 0x13
 14750 02e0 3C       	 .uleb128 0x3c
 14751 02e1 19       	 .uleb128 0x19
 14752 02e2 00       	 .byte 0
 14753 02e3 00       	 .byte 0
 14754 02e4 2E       	 .uleb128 0x2e
 14755 02e5 42       	 .uleb128 0x42
 14756 02e6 00       	 .byte 0
 14757 02e7 0B       	 .uleb128 0xb
ARM GAS   			page 273


 14758 02e8 0B       	 .uleb128 0xb
 14759 02e9 49       	 .uleb128 0x49
 14760 02ea 13       	 .uleb128 0x13
 14761 02eb 00       	 .byte 0
 14762 02ec 00       	 .byte 0
 14763 02ed 2F       	 .uleb128 0x2f
 14764 02ee 2E       	 .uleb128 0x2e
 14765 02ef 00       	 .byte 0
 14766 02f0 3F       	 .uleb128 0x3f
 14767 02f1 19       	 .uleb128 0x19
 14768 02f2 03       	 .uleb128 0x3
 14769 02f3 0E       	 .uleb128 0xe
 14770 02f4 3A       	 .uleb128 0x3a
 14771 02f5 0B       	 .uleb128 0xb
 14772 02f6 3B       	 .uleb128 0x3b
 14773 02f7 0B       	 .uleb128 0xb
 14774 02f8 39       	 .uleb128 0x39
 14775 02f9 0B       	 .uleb128 0xb
 14776 02fa 49       	 .uleb128 0x49
 14777 02fb 13       	 .uleb128 0x13
 14778 02fc 3C       	 .uleb128 0x3c
 14779 02fd 19       	 .uleb128 0x19
 14780 02fe 00       	 .byte 0
 14781 02ff 00       	 .byte 0
 14782 0300 30       	 .uleb128 0x30
 14783 0301 05       	 .uleb128 0x5
 14784 0302 00       	 .byte 0
 14785 0303 31       	 .uleb128 0x31
 14786 0304 13       	 .uleb128 0x13
 14787 0305 02       	 .uleb128 0x2
 14788 0306 18       	 .uleb128 0x18
 14789 0307 00       	 .byte 0
 14790 0308 00       	 .byte 0
 14791 0309 31       	 .uleb128 0x31
 14792 030a 13       	 .uleb128 0x13
 14793 030b 01       	 .byte 0x1
 14794 030c 0B       	 .uleb128 0xb
 14795 030d 0B       	 .uleb128 0xb
 14796 030e 3A       	 .uleb128 0x3a
 14797 030f 0B       	 .uleb128 0xb
 14798 0310 3B       	 .uleb128 0x3b
 14799 0311 0B       	 .uleb128 0xb
 14800 0312 39       	 .uleb128 0x39
 14801 0313 0B       	 .uleb128 0xb
 14802 0314 6E       	 .uleb128 0x6e
 14803 0315 0E       	 .uleb128 0xe
 14804 0316 01       	 .uleb128 0x1
 14805 0317 13       	 .uleb128 0x13
 14806 0318 00       	 .byte 0
 14807 0319 00       	 .byte 0
 14808 031a 32       	 .uleb128 0x32
 14809 031b 0D       	 .uleb128 0xd
 14810 031c 00       	 .byte 0
 14811 031d 03       	 .uleb128 0x3
 14812 031e 0E       	 .uleb128 0xe
 14813 031f 3A       	 .uleb128 0x3a
 14814 0320 0B       	 .uleb128 0xb
ARM GAS   			page 274


 14815 0321 3B       	 .uleb128 0x3b
 14816 0322 0B       	 .uleb128 0xb
 14817 0323 39       	 .uleb128 0x39
 14818 0324 0B       	 .uleb128 0xb
 14819 0325 49       	 .uleb128 0x49
 14820 0326 13       	 .uleb128 0x13
 14821 0327 00       	 .byte 0
 14822 0328 00       	 .byte 0
 14823 0329 33       	 .uleb128 0x33
 14824 032a 13       	 .uleb128 0x13
 14825 032b 01       	 .byte 0x1
 14826 032c 03       	 .uleb128 0x3
 14827 032d 0E       	 .uleb128 0xe
 14828 032e 0B       	 .uleb128 0xb
 14829 032f 0B       	 .uleb128 0xb
 14830 0330 3A       	 .uleb128 0x3a
 14831 0331 0B       	 .uleb128 0xb
 14832 0332 3B       	 .uleb128 0x3b
 14833 0333 05       	 .uleb128 0x5
 14834 0334 39       	 .uleb128 0x39
 14835 0335 0B       	 .uleb128 0xb
 14836 0336 01       	 .uleb128 0x1
 14837 0337 13       	 .uleb128 0x13
 14838 0338 00       	 .byte 0
 14839 0339 00       	 .byte 0
 14840 033a 34       	 .uleb128 0x34
 14841 033b 2E       	 .uleb128 0x2e
 14842 033c 01       	 .byte 0x1
 14843 033d 3F       	 .uleb128 0x3f
 14844 033e 19       	 .uleb128 0x19
 14845 033f 03       	 .uleb128 0x3
 14846 0340 08       	 .uleb128 0x8
 14847 0341 3A       	 .uleb128 0x3a
 14848 0342 0B       	 .uleb128 0xb
 14849 0343 3B       	 .uleb128 0x3b
 14850 0344 05       	 .uleb128 0x5
 14851 0345 39       	 .uleb128 0x39
 14852 0346 0B       	 .uleb128 0xb
 14853 0347 6E       	 .uleb128 0x6e
 14854 0348 0E       	 .uleb128 0xe
 14855 0349 49       	 .uleb128 0x49
 14856 034a 13       	 .uleb128 0x13
 14857 034b 32       	 .uleb128 0x32
 14858 034c 0B       	 .uleb128 0xb
 14859 034d 3C       	 .uleb128 0x3c
 14860 034e 19       	 .uleb128 0x19
 14861 034f 64       	 .uleb128 0x64
 14862 0350 13       	 .uleb128 0x13
 14863 0351 01       	 .uleb128 0x1
 14864 0352 13       	 .uleb128 0x13
 14865 0353 00       	 .byte 0
 14866 0354 00       	 .byte 0
 14867 0355 35       	 .uleb128 0x35
 14868 0356 3A       	 .uleb128 0x3a
 14869 0357 00       	 .byte 0
 14870 0358 3A       	 .uleb128 0x3a
 14871 0359 0B       	 .uleb128 0xb
ARM GAS   			page 275


 14872 035a 3B       	 .uleb128 0x3b
 14873 035b 05       	 .uleb128 0x5
 14874 035c 39       	 .uleb128 0x39
 14875 035d 0B       	 .uleb128 0xb
 14876 035e 18       	 .uleb128 0x18
 14877 035f 13       	 .uleb128 0x13
 14878 0360 00       	 .byte 0
 14879 0361 00       	 .byte 0
 14880 0362 36       	 .uleb128 0x36
 14881 0363 2E       	 .uleb128 0x2e
 14882 0364 01       	 .byte 0x1
 14883 0365 3F       	 .uleb128 0x3f
 14884 0366 19       	 .uleb128 0x19
 14885 0367 03       	 .uleb128 0x3
 14886 0368 0E       	 .uleb128 0xe
 14887 0369 3A       	 .uleb128 0x3a
 14888 036a 0B       	 .uleb128 0xb
 14889 036b 3B       	 .uleb128 0x3b
 14890 036c 0B       	 .uleb128 0xb
 14891 036d 39       	 .uleb128 0x39
 14892 036e 0B       	 .uleb128 0xb
 14893 036f 6E       	 .uleb128 0x6e
 14894 0370 0E       	 .uleb128 0xe
 14895 0371 32       	 .uleb128 0x32
 14896 0372 0B       	 .uleb128 0xb
 14897 0373 3C       	 .uleb128 0x3c
 14898 0374 19       	 .uleb128 0x19
 14899 0375 64       	 .uleb128 0x64
 14900 0376 13       	 .uleb128 0x13
 14901 0377 01       	 .uleb128 0x1
 14902 0378 13       	 .uleb128 0x13
 14903 0379 00       	 .byte 0
 14904 037a 00       	 .byte 0
 14905 037b 37       	 .uleb128 0x37
 14906 037c 02       	 .uleb128 0x2
 14907 037d 00       	 .byte 0
 14908 037e 03       	 .uleb128 0x3
 14909 037f 0E       	 .uleb128 0xe
 14910 0380 3C       	 .uleb128 0x3c
 14911 0381 19       	 .uleb128 0x19
 14912 0382 00       	 .byte 0
 14913 0383 00       	 .byte 0
 14914 0384 38       	 .uleb128 0x38
 14915 0385 2E       	 .uleb128 0x2e
 14916 0386 01       	 .byte 0x1
 14917 0387 3F       	 .uleb128 0x3f
 14918 0388 19       	 .uleb128 0x19
 14919 0389 03       	 .uleb128 0x3
 14920 038a 0E       	 .uleb128 0xe
 14921 038b 6E       	 .uleb128 0x6e
 14922 038c 0E       	 .uleb128 0xe
 14923 038d 49       	 .uleb128 0x49
 14924 038e 13       	 .uleb128 0x13
 14925 038f 34       	 .uleb128 0x34
 14926 0390 19       	 .uleb128 0x19
 14927 0391 32       	 .uleb128 0x32
 14928 0392 0B       	 .uleb128 0xb
ARM GAS   			page 276


 14929 0393 3C       	 .uleb128 0x3c
 14930 0394 19       	 .uleb128 0x19
 14931 0395 64       	 .uleb128 0x64
 14932 0396 13       	 .uleb128 0x13
 14933 0397 01       	 .uleb128 0x1
 14934 0398 13       	 .uleb128 0x13
 14935 0399 00       	 .byte 0
 14936 039a 00       	 .byte 0
 14937 039b 39       	 .uleb128 0x39
 14938 039c 2E       	 .uleb128 0x2e
 14939 039d 01       	 .byte 0x1
 14940 039e 47       	 .uleb128 0x47
 14941 039f 13       	 .uleb128 0x13
 14942 03a0 64       	 .uleb128 0x64
 14943 03a1 13       	 .uleb128 0x13
 14944 03a2 11       	 .uleb128 0x11
 14945 03a3 01       	 .uleb128 0x1
 14946 03a4 12       	 .uleb128 0x12
 14947 03a5 06       	 .uleb128 0x6
 14948 03a6 40       	 .uleb128 0x40
 14949 03a7 18       	 .uleb128 0x18
 14950 03a8 9742     	 .uleb128 0x2117
 14951 03aa 19       	 .uleb128 0x19
 14952 03ab 01       	 .uleb128 0x1
 14953 03ac 13       	 .uleb128 0x13
 14954 03ad 00       	 .byte 0
 14955 03ae 00       	 .byte 0
 14956 03af 3A       	 .uleb128 0x3a
 14957 03b0 2E       	 .uleb128 0x2e
 14958 03b1 01       	 .byte 0x1
 14959 03b2 3F       	 .uleb128 0x3f
 14960 03b3 19       	 .uleb128 0x19
 14961 03b4 03       	 .uleb128 0x3
 14962 03b5 0E       	 .uleb128 0xe
 14963 03b6 3A       	 .uleb128 0x3a
 14964 03b7 0B       	 .uleb128 0xb
 14965 03b8 3B       	 .uleb128 0x3b
 14966 03b9 05       	 .uleb128 0x5
 14967 03ba 39       	 .uleb128 0x39
 14968 03bb 0B       	 .uleb128 0xb
 14969 03bc 6E       	 .uleb128 0x6e
 14970 03bd 0E       	 .uleb128 0xe
 14971 03be 49       	 .uleb128 0x49
 14972 03bf 13       	 .uleb128 0x13
 14973 03c0 32       	 .uleb128 0x32
 14974 03c1 0B       	 .uleb128 0xb
 14975 03c2 3C       	 .uleb128 0x3c
 14976 03c3 19       	 .uleb128 0x19
 14977 03c4 63       	 .uleb128 0x63
 14978 03c5 19       	 .uleb128 0x19
 14979 03c6 64       	 .uleb128 0x64
 14980 03c7 13       	 .uleb128 0x13
 14981 03c8 01       	 .uleb128 0x1
 14982 03c9 13       	 .uleb128 0x13
 14983 03ca 00       	 .byte 0
 14984 03cb 00       	 .byte 0
 14985 03cc 3B       	 .uleb128 0x3b
ARM GAS   			page 277


 14986 03cd 04       	 .uleb128 0x4
 14987 03ce 01       	 .byte 0x1
 14988 03cf 3E       	 .uleb128 0x3e
 14989 03d0 0B       	 .uleb128 0xb
 14990 03d1 0B       	 .uleb128 0xb
 14991 03d2 0B       	 .uleb128 0xb
 14992 03d3 49       	 .uleb128 0x49
 14993 03d4 13       	 .uleb128 0x13
 14994 03d5 3A       	 .uleb128 0x3a
 14995 03d6 0B       	 .uleb128 0xb
 14996 03d7 3B       	 .uleb128 0x3b
 14997 03d8 0B       	 .uleb128 0xb
 14998 03d9 39       	 .uleb128 0x39
 14999 03da 0B       	 .uleb128 0xb
 15000 03db 01       	 .uleb128 0x1
 15001 03dc 13       	 .uleb128 0x13
 15002 03dd 00       	 .byte 0
 15003 03de 00       	 .byte 0
 15004 03df 3C       	 .uleb128 0x3c
 15005 03e0 39       	 .uleb128 0x39
 15006 03e1 01       	 .byte 0x1
 15007 03e2 03       	 .uleb128 0x3
 15008 03e3 0E       	 .uleb128 0xe
 15009 03e4 3A       	 .uleb128 0x3a
 15010 03e5 0B       	 .uleb128 0xb
 15011 03e6 3B       	 .uleb128 0x3b
 15012 03e7 0B       	 .uleb128 0xb
 15013 03e8 39       	 .uleb128 0x39
 15014 03e9 0B       	 .uleb128 0xb
 15015 03ea 01       	 .uleb128 0x1
 15016 03eb 13       	 .uleb128 0x13
 15017 03ec 00       	 .byte 0
 15018 03ed 00       	 .byte 0
 15019 03ee 3D       	 .uleb128 0x3d
 15020 03ef 2E       	 .uleb128 0x2e
 15021 03f0 01       	 .byte 0x1
 15022 03f1 3F       	 .uleb128 0x3f
 15023 03f2 19       	 .uleb128 0x19
 15024 03f3 03       	 .uleb128 0x3
 15025 03f4 0E       	 .uleb128 0xe
 15026 03f5 3A       	 .uleb128 0x3a
 15027 03f6 0B       	 .uleb128 0xb
 15028 03f7 3B       	 .uleb128 0x3b
 15029 03f8 0B       	 .uleb128 0xb
 15030 03f9 39       	 .uleb128 0x39
 15031 03fa 0B       	 .uleb128 0xb
 15032 03fb 6E       	 .uleb128 0x6e
 15033 03fc 0E       	 .uleb128 0xe
 15034 03fd 49       	 .uleb128 0x49
 15035 03fe 13       	 .uleb128 0x13
 15036 03ff 32       	 .uleb128 0x32
 15037 0400 0B       	 .uleb128 0xb
 15038 0401 3C       	 .uleb128 0x3c
 15039 0402 19       	 .uleb128 0x19
 15040 0403 64       	 .uleb128 0x64
 15041 0404 13       	 .uleb128 0x13
 15042 0405 00       	 .byte 0
ARM GAS   			page 278


 15043 0406 00       	 .byte 0
 15044 0407 3E       	 .uleb128 0x3e
 15045 0408 1C       	 .uleb128 0x1c
 15046 0409 00       	 .byte 0
 15047 040a 49       	 .uleb128 0x49
 15048 040b 13       	 .uleb128 0x13
 15049 040c 38       	 .uleb128 0x38
 15050 040d 0B       	 .uleb128 0xb
 15051 040e 32       	 .uleb128 0x32
 15052 040f 0B       	 .uleb128 0xb
 15053 0410 00       	 .byte 0
 15054 0411 00       	 .byte 0
 15055 0412 3F       	 .uleb128 0x3f
 15056 0413 34       	 .uleb128 0x34
 15057 0414 00       	 .byte 0
 15058 0415 03       	 .uleb128 0x3
 15059 0416 0E       	 .uleb128 0xe
 15060 0417 3A       	 .uleb128 0x3a
 15061 0418 0B       	 .uleb128 0xb
 15062 0419 3B       	 .uleb128 0x3b
 15063 041a 0B       	 .uleb128 0xb
 15064 041b 39       	 .uleb128 0x39
 15065 041c 0B       	 .uleb128 0xb
 15066 041d 49       	 .uleb128 0x49
 15067 041e 13       	 .uleb128 0x13
 15068 041f 6C       	 .uleb128 0x6c
 15069 0420 19       	 .uleb128 0x19
 15070 0421 02       	 .uleb128 0x2
 15071 0422 18       	 .uleb128 0x18
 15072 0423 00       	 .byte 0
 15073 0424 00       	 .byte 0
 15074 0425 40       	 .uleb128 0x40
 15075 0426 04       	 .uleb128 0x4
 15076 0427 01       	 .byte 0x1
 15077 0428 03       	 .uleb128 0x3
 15078 0429 0E       	 .uleb128 0xe
 15079 042a 6D       	 .uleb128 0x6d
 15080 042b 19       	 .uleb128 0x19
 15081 042c 3E       	 .uleb128 0x3e
 15082 042d 0B       	 .uleb128 0xb
 15083 042e 0B       	 .uleb128 0xb
 15084 042f 0B       	 .uleb128 0xb
 15085 0430 49       	 .uleb128 0x49
 15086 0431 13       	 .uleb128 0x13
 15087 0432 3A       	 .uleb128 0x3a
 15088 0433 0B       	 .uleb128 0xb
 15089 0434 3B       	 .uleb128 0x3b
 15090 0435 0B       	 .uleb128 0xb
 15091 0436 39       	 .uleb128 0x39
 15092 0437 0B       	 .uleb128 0xb
 15093 0438 01       	 .uleb128 0x1
 15094 0439 13       	 .uleb128 0x13
 15095 043a 00       	 .byte 0
 15096 043b 00       	 .byte 0
 15097 043c 41       	 .uleb128 0x41
 15098 043d 0D       	 .uleb128 0xd
 15099 043e 00       	 .byte 0
ARM GAS   			page 279


 15100 043f 03       	 .uleb128 0x3
 15101 0440 0E       	 .uleb128 0xe
 15102 0441 3A       	 .uleb128 0x3a
 15103 0442 0B       	 .uleb128 0xb
 15104 0443 3B       	 .uleb128 0x3b
 15105 0444 0B       	 .uleb128 0xb
 15106 0445 39       	 .uleb128 0x39
 15107 0446 0B       	 .uleb128 0xb
 15108 0447 49       	 .uleb128 0x49
 15109 0448 13       	 .uleb128 0x13
 15110 0449 3F       	 .uleb128 0x3f
 15111 044a 19       	 .uleb128 0x19
 15112 044b 32       	 .uleb128 0x32
 15113 044c 0B       	 .uleb128 0xb
 15114 044d 3C       	 .uleb128 0x3c
 15115 044e 19       	 .uleb128 0x19
 15116 044f 1C       	 .uleb128 0x1c
 15117 0450 0B       	 .uleb128 0xb
 15118 0451 6C       	 .uleb128 0x6c
 15119 0452 19       	 .uleb128 0x19
 15120 0453 00       	 .byte 0
 15121 0454 00       	 .byte 0
 15122 0455 42       	 .uleb128 0x42
 15123 0456 05       	 .uleb128 0x5
 15124 0457 00       	 .byte 0
 15125 0458 03       	 .uleb128 0x3
 15126 0459 0E       	 .uleb128 0xe
 15127 045a 3A       	 .uleb128 0x3a
 15128 045b 0B       	 .uleb128 0xb
 15129 045c 3B       	 .uleb128 0x3b
 15130 045d 0B       	 .uleb128 0xb
 15131 045e 39       	 .uleb128 0x39
 15132 045f 0B       	 .uleb128 0xb
 15133 0460 49       	 .uleb128 0x49
 15134 0461 13       	 .uleb128 0x13
 15135 0462 00       	 .byte 0
 15136 0463 00       	 .byte 0
 15137 0464 43       	 .uleb128 0x43
 15138 0465 17       	 .uleb128 0x17
 15139 0466 01       	 .byte 0x1
 15140 0467 0B       	 .uleb128 0xb
 15141 0468 0B       	 .uleb128 0xb
 15142 0469 3A       	 .uleb128 0x3a
 15143 046a 0B       	 .uleb128 0xb
 15144 046b 3B       	 .uleb128 0x3b
 15145 046c 0B       	 .uleb128 0xb
 15146 046d 39       	 .uleb128 0x39
 15147 046e 0B       	 .uleb128 0xb
 15148 046f 01       	 .uleb128 0x1
 15149 0470 13       	 .uleb128 0x13
 15150 0471 00       	 .byte 0
 15151 0472 00       	 .byte 0
 15152 0473 44       	 .uleb128 0x44
 15153 0474 13       	 .uleb128 0x13
 15154 0475 00       	 .byte 0
 15155 0476 03       	 .uleb128 0x3
 15156 0477 0E       	 .uleb128 0xe
ARM GAS   			page 280


 15157 0478 3C       	 .uleb128 0x3c
 15158 0479 19       	 .uleb128 0x19
 15159 047a 00       	 .byte 0
 15160 047b 00       	 .byte 0
 15161 047c 45       	 .uleb128 0x45
 15162 047d 13       	 .uleb128 0x13
 15163 047e 01       	 .byte 0x1
 15164 047f 03       	 .uleb128 0x3
 15165 0480 0E       	 .uleb128 0xe
 15166 0481 0B       	 .uleb128 0xb
 15167 0482 05       	 .uleb128 0x5
 15168 0483 3A       	 .uleb128 0x3a
 15169 0484 0B       	 .uleb128 0xb
 15170 0485 3B       	 .uleb128 0x3b
 15171 0486 0B       	 .uleb128 0xb
 15172 0487 39       	 .uleb128 0x39
 15173 0488 0B       	 .uleb128 0xb
 15174 0489 01       	 .uleb128 0x1
 15175 048a 13       	 .uleb128 0x13
 15176 048b 00       	 .byte 0
 15177 048c 00       	 .byte 0
 15178 048d 46       	 .uleb128 0x46
 15179 048e 0D       	 .uleb128 0xd
 15180 048f 00       	 .byte 0
 15181 0490 03       	 .uleb128 0x3
 15182 0491 0E       	 .uleb128 0xe
 15183 0492 3A       	 .uleb128 0x3a
 15184 0493 0B       	 .uleb128 0xb
 15185 0494 3B       	 .uleb128 0x3b
 15186 0495 0B       	 .uleb128 0xb
 15187 0496 39       	 .uleb128 0x39
 15188 0497 0B       	 .uleb128 0xb
 15189 0498 49       	 .uleb128 0x49
 15190 0499 13       	 .uleb128 0x13
 15191 049a 38       	 .uleb128 0x38
 15192 049b 05       	 .uleb128 0x5
 15193 049c 00       	 .byte 0
 15194 049d 00       	 .byte 0
 15195 049e 47       	 .uleb128 0x47
 15196 049f 13       	 .uleb128 0x13
 15197 04a0 01       	 .byte 0x1
 15198 04a1 0B       	 .uleb128 0xb
 15199 04a2 0B       	 .uleb128 0xb
 15200 04a3 3A       	 .uleb128 0x3a
 15201 04a4 0B       	 .uleb128 0xb
 15202 04a5 3B       	 .uleb128 0x3b
 15203 04a6 05       	 .uleb128 0x5
 15204 04a7 39       	 .uleb128 0x39
 15205 04a8 0B       	 .uleb128 0xb
 15206 04a9 01       	 .uleb128 0x1
 15207 04aa 13       	 .uleb128 0x13
 15208 04ab 00       	 .byte 0
 15209 04ac 00       	 .byte 0
 15210 04ad 48       	 .uleb128 0x48
 15211 04ae 0D       	 .uleb128 0xd
 15212 04af 00       	 .byte 0
 15213 04b0 03       	 .uleb128 0x3
ARM GAS   			page 281


 15214 04b1 0E       	 .uleb128 0xe
 15215 04b2 3A       	 .uleb128 0x3a
 15216 04b3 0B       	 .uleb128 0xb
 15217 04b4 3B       	 .uleb128 0x3b
 15218 04b5 05       	 .uleb128 0x5
 15219 04b6 39       	 .uleb128 0x39
 15220 04b7 0B       	 .uleb128 0xb
 15221 04b8 49       	 .uleb128 0x49
 15222 04b9 13       	 .uleb128 0x13
 15223 04ba 00       	 .byte 0
 15224 04bb 00       	 .byte 0
 15225 04bc 49       	 .uleb128 0x49
 15226 04bd 15       	 .uleb128 0x15
 15227 04be 01       	 .byte 0x1
 15228 04bf 01       	 .uleb128 0x1
 15229 04c0 13       	 .uleb128 0x13
 15230 04c1 00       	 .byte 0
 15231 04c2 00       	 .byte 0
 15232 04c3 4A       	 .uleb128 0x4a
 15233 04c4 39       	 .uleb128 0x39
 15234 04c5 01       	 .byte 0x1
 15235 04c6 03       	 .uleb128 0x3
 15236 04c7 0E       	 .uleb128 0xe
 15237 04c8 3A       	 .uleb128 0x3a
 15238 04c9 0B       	 .uleb128 0xb
 15239 04ca 3B       	 .uleb128 0x3b
 15240 04cb 05       	 .uleb128 0x5
 15241 04cc 39       	 .uleb128 0x39
 15242 04cd 0B       	 .uleb128 0xb
 15243 04ce 8901     	 .uleb128 0x89
 15244 04d0 19       	 .uleb128 0x19
 15245 04d1 01       	 .uleb128 0x1
 15246 04d2 13       	 .uleb128 0x13
 15247 04d3 00       	 .byte 0
 15248 04d4 00       	 .byte 0
 15249 04d5 4B       	 .uleb128 0x4b
 15250 04d6 1C       	 .uleb128 0x1c
 15251 04d7 00       	 .byte 0
 15252 04d8 49       	 .uleb128 0x49
 15253 04d9 13       	 .uleb128 0x13
 15254 04da 38       	 .uleb128 0x38
 15255 04db 0B       	 .uleb128 0xb
 15256 04dc 00       	 .byte 0
 15257 04dd 00       	 .byte 0
 15258 04de 4C       	 .uleb128 0x4c
 15259 04df 2F       	 .uleb128 0x2f
 15260 04e0 00       	 .byte 0
 15261 04e1 03       	 .uleb128 0x3
 15262 04e2 0E       	 .uleb128 0xe
 15263 04e3 49       	 .uleb128 0x49
 15264 04e4 13       	 .uleb128 0x13
 15265 04e5 1E       	 .uleb128 0x1e
 15266 04e6 19       	 .uleb128 0x19
 15267 04e7 00       	 .byte 0
 15268 04e8 00       	 .byte 0
 15269 04e9 4D       	 .uleb128 0x4d
 15270 04ea 39       	 .uleb128 0x39
ARM GAS   			page 282


 15271 04eb 00       	 .byte 0
 15272 04ec 03       	 .uleb128 0x3
 15273 04ed 0E       	 .uleb128 0xe
 15274 04ee 3A       	 .uleb128 0x3a
 15275 04ef 0B       	 .uleb128 0xb
 15276 04f0 3B       	 .uleb128 0x3b
 15277 04f1 0B       	 .uleb128 0xb
 15278 04f2 39       	 .uleb128 0x39
 15279 04f3 0B       	 .uleb128 0xb
 15280 04f4 00       	 .byte 0
 15281 04f5 00       	 .byte 0
 15282 04f6 4E       	 .uleb128 0x4e
 15283 04f7 39       	 .uleb128 0x39
 15284 04f8 00       	 .byte 0
 15285 04f9 03       	 .uleb128 0x3
 15286 04fa 0E       	 .uleb128 0xe
 15287 04fb 3A       	 .uleb128 0x3a
 15288 04fc 0B       	 .uleb128 0xb
 15289 04fd 3B       	 .uleb128 0x3b
 15290 04fe 05       	 .uleb128 0x5
 15291 04ff 39       	 .uleb128 0x39
 15292 0500 0B       	 .uleb128 0xb
 15293 0501 8901     	 .uleb128 0x89
 15294 0503 19       	 .uleb128 0x19
 15295 0504 00       	 .byte 0
 15296 0505 00       	 .byte 0
 15297 0506 4F       	 .uleb128 0x4f
 15298 0507 02       	 .uleb128 0x2
 15299 0508 01       	 .byte 0x1
 15300 0509 03       	 .uleb128 0x3
 15301 050a 0E       	 .uleb128 0xe
 15302 050b 0B       	 .uleb128 0xb
 15303 050c 0B       	 .uleb128 0xb
 15304 050d 3A       	 .uleb128 0x3a
 15305 050e 0B       	 .uleb128 0xb
 15306 050f 3B       	 .uleb128 0x3b
 15307 0510 05       	 .uleb128 0x5
 15308 0511 39       	 .uleb128 0x39
 15309 0512 0B       	 .uleb128 0xb
 15310 0513 01       	 .uleb128 0x1
 15311 0514 13       	 .uleb128 0x13
 15312 0515 00       	 .byte 0
 15313 0516 00       	 .byte 0
 15314 0517 50       	 .uleb128 0x50
 15315 0518 0D       	 .uleb128 0xd
 15316 0519 00       	 .byte 0
 15317 051a 03       	 .uleb128 0x3
 15318 051b 0E       	 .uleb128 0xe
 15319 051c 3A       	 .uleb128 0x3a
 15320 051d 0B       	 .uleb128 0xb
 15321 051e 3B       	 .uleb128 0x3b
 15322 051f 05       	 .uleb128 0x5
 15323 0520 39       	 .uleb128 0x39
 15324 0521 0B       	 .uleb128 0xb
 15325 0522 49       	 .uleb128 0x49
 15326 0523 13       	 .uleb128 0x13
 15327 0524 38       	 .uleb128 0x38
ARM GAS   			page 283


 15328 0525 0B       	 .uleb128 0xb
 15329 0526 32       	 .uleb128 0x32
 15330 0527 0B       	 .uleb128 0xb
 15331 0528 00       	 .byte 0
 15332 0529 00       	 .byte 0
 15333 052a 51       	 .uleb128 0x51
 15334 052b 3A       	 .uleb128 0x3a
 15335 052c 00       	 .byte 0
 15336 052d 3A       	 .uleb128 0x3a
 15337 052e 0B       	 .uleb128 0xb
 15338 052f 3B       	 .uleb128 0x3b
 15339 0530 0B       	 .uleb128 0xb
 15340 0531 39       	 .uleb128 0x39
 15341 0532 0B       	 .uleb128 0xb
 15342 0533 18       	 .uleb128 0x18
 15343 0534 13       	 .uleb128 0x13
 15344 0535 00       	 .byte 0
 15345 0536 00       	 .byte 0
 15346 0537 52       	 .uleb128 0x52
 15347 0538 02       	 .uleb128 0x2
 15348 0539 01       	 .byte 0x1
 15349 053a 03       	 .uleb128 0x3
 15350 053b 0E       	 .uleb128 0xe
 15351 053c 0B       	 .uleb128 0xb
 15352 053d 0B       	 .uleb128 0xb
 15353 053e 3A       	 .uleb128 0x3a
 15354 053f 0B       	 .uleb128 0xb
 15355 0540 3B       	 .uleb128 0x3b
 15356 0541 0B       	 .uleb128 0xb
 15357 0542 39       	 .uleb128 0x39
 15358 0543 0B       	 .uleb128 0xb
 15359 0544 1D       	 .uleb128 0x1d
 15360 0545 13       	 .uleb128 0x13
 15361 0546 01       	 .uleb128 0x1
 15362 0547 13       	 .uleb128 0x13
 15363 0548 00       	 .byte 0
 15364 0549 00       	 .byte 0
 15365 054a 53       	 .uleb128 0x53
 15366 054b 2E       	 .uleb128 0x2e
 15367 054c 01       	 .byte 0x1
 15368 054d 3F       	 .uleb128 0x3f
 15369 054e 19       	 .uleb128 0x19
 15370 054f 03       	 .uleb128 0x3
 15371 0550 0E       	 .uleb128 0xe
 15372 0551 6E       	 .uleb128 0x6e
 15373 0552 0E       	 .uleb128 0xe
 15374 0553 49       	 .uleb128 0x49
 15375 0554 13       	 .uleb128 0x13
 15376 0555 4C       	 .uleb128 0x4c
 15377 0556 0B       	 .uleb128 0xb
 15378 0557 1D       	 .uleb128 0x1d
 15379 0558 13       	 .uleb128 0x13
 15380 0559 34       	 .uleb128 0x34
 15381 055a 19       	 .uleb128 0x19
 15382 055b 32       	 .uleb128 0x32
 15383 055c 0B       	 .uleb128 0xb
 15384 055d 3C       	 .uleb128 0x3c
ARM GAS   			page 284


 15385 055e 19       	 .uleb128 0x19
 15386 055f 64       	 .uleb128 0x64
 15387 0560 13       	 .uleb128 0x13
 15388 0561 00       	 .byte 0
 15389 0562 00       	 .byte 0
 15390 0563 54       	 .uleb128 0x54
 15391 0564 2E       	 .uleb128 0x2e
 15392 0565 01       	 .byte 0x1
 15393 0566 3F       	 .uleb128 0x3f
 15394 0567 19       	 .uleb128 0x19
 15395 0568 03       	 .uleb128 0x3
 15396 0569 0E       	 .uleb128 0xe
 15397 056a 3A       	 .uleb128 0x3a
 15398 056b 0B       	 .uleb128 0xb
 15399 056c 3B       	 .uleb128 0x3b
 15400 056d 0B       	 .uleb128 0xb
 15401 056e 39       	 .uleb128 0x39
 15402 056f 0B       	 .uleb128 0xb
 15403 0570 6E       	 .uleb128 0x6e
 15404 0571 0E       	 .uleb128 0xe
 15405 0572 49       	 .uleb128 0x49
 15406 0573 13       	 .uleb128 0x13
 15407 0574 32       	 .uleb128 0x32
 15408 0575 0B       	 .uleb128 0xb
 15409 0576 3C       	 .uleb128 0x3c
 15410 0577 19       	 .uleb128 0x19
 15411 0578 01       	 .uleb128 0x1
 15412 0579 13       	 .uleb128 0x13
 15413 057a 00       	 .byte 0
 15414 057b 00       	 .byte 0
 15415 057c 55       	 .uleb128 0x55
 15416 057d 2E       	 .uleb128 0x2e
 15417 057e 01       	 .byte 0x1
 15418 057f 47       	 .uleb128 0x47
 15419 0580 13       	 .uleb128 0x13
 15420 0581 64       	 .uleb128 0x64
 15421 0582 13       	 .uleb128 0x13
 15422 0583 20       	 .uleb128 0x20
 15423 0584 0B       	 .uleb128 0xb
 15424 0585 01       	 .uleb128 0x1
 15425 0586 13       	 .uleb128 0x13
 15426 0587 00       	 .byte 0
 15427 0588 00       	 .byte 0
 15428 0589 56       	 .uleb128 0x56
 15429 058a 05       	 .uleb128 0x5
 15430 058b 00       	 .byte 0
 15431 058c 03       	 .uleb128 0x3
 15432 058d 0E       	 .uleb128 0xe
 15433 058e 49       	 .uleb128 0x49
 15434 058f 13       	 .uleb128 0x13
 15435 0590 34       	 .uleb128 0x34
 15436 0591 19       	 .uleb128 0x19
 15437 0592 00       	 .byte 0
 15438 0593 00       	 .byte 0
 15439 0594 57       	 .uleb128 0x57
 15440 0595 05       	 .uleb128 0x5
 15441 0596 00       	 .byte 0
ARM GAS   			page 285


 15442 0597 03       	 .uleb128 0x3
 15443 0598 08       	 .uleb128 0x8
 15444 0599 3A       	 .uleb128 0x3a
 15445 059a 0B       	 .uleb128 0xb
 15446 059b 3B       	 .uleb128 0x3b
 15447 059c 0B       	 .uleb128 0xb
 15448 059d 39       	 .uleb128 0x39
 15449 059e 0B       	 .uleb128 0xb
 15450 059f 49       	 .uleb128 0x49
 15451 05a0 13       	 .uleb128 0x13
 15452 05a1 02       	 .uleb128 0x2
 15453 05a2 18       	 .uleb128 0x18
 15454 05a3 00       	 .byte 0
 15455 05a4 00       	 .byte 0
 15456 05a5 58       	 .uleb128 0x58
 15457 05a6 2E       	 .uleb128 0x2e
 15458 05a7 01       	 .byte 0x1
 15459 05a8 47       	 .uleb128 0x47
 15460 05a9 13       	 .uleb128 0x13
 15461 05aa 11       	 .uleb128 0x11
 15462 05ab 01       	 .uleb128 0x1
 15463 05ac 12       	 .uleb128 0x12
 15464 05ad 06       	 .uleb128 0x6
 15465 05ae 40       	 .uleb128 0x40
 15466 05af 18       	 .uleb128 0x18
 15467 05b0 9642     	 .uleb128 0x2116
 15468 05b2 19       	 .uleb128 0x19
 15469 05b3 01       	 .uleb128 0x1
 15470 05b4 13       	 .uleb128 0x13
 15471 05b5 00       	 .byte 0
 15472 05b6 00       	 .byte 0
 15473 05b7 59       	 .uleb128 0x59
 15474 05b8 34       	 .uleb128 0x34
 15475 05b9 00       	 .byte 0
 15476 05ba 03       	 .uleb128 0x3
 15477 05bb 0E       	 .uleb128 0xe
 15478 05bc 49       	 .uleb128 0x49
 15479 05bd 13       	 .uleb128 0x13
 15480 05be 34       	 .uleb128 0x34
 15481 05bf 19       	 .uleb128 0x19
 15482 05c0 6C       	 .uleb128 0x6c
 15483 05c1 19       	 .uleb128 0x19
 15484 05c2 02       	 .uleb128 0x2
 15485 05c3 18       	 .uleb128 0x18
 15486 05c4 00       	 .byte 0
 15487 05c5 00       	 .byte 0
 15488 05c6 5A       	 .uleb128 0x5a
 15489 05c7 11       	 .uleb128 0x11
 15490 05c8 01       	 .byte 0x1
 15491 05c9 25       	 .uleb128 0x25
 15492 05ca 0E       	 .uleb128 0xe
 15493 05cb 13       	 .uleb128 0x13
 15494 05cc 0B       	 .uleb128 0xb
 15495 05cd 03       	 .uleb128 0x3
 15496 05ce 0E       	 .uleb128 0xe
 15497 05cf 1B       	 .uleb128 0x1b
 15498 05d0 0E       	 .uleb128 0xe
ARM GAS   			page 286


 15499 05d1 55       	 .uleb128 0x55
 15500 05d2 17       	 .uleb128 0x17
 15501 05d3 11       	 .uleb128 0x11
 15502 05d4 01       	 .uleb128 0x1
 15503 05d5 10       	 .uleb128 0x10
 15504 05d6 17       	 .uleb128 0x17
 15505 05d7 00       	 .byte 0
 15506 05d8 00       	 .byte 0
 15507 05d9 5B       	 .uleb128 0x5b
 15508 05da 24       	 .uleb128 0x24
 15509 05db 00       	 .byte 0
 15510 05dc 0B       	 .uleb128 0xb
 15511 05dd 0B       	 .uleb128 0xb
 15512 05de 3E       	 .uleb128 0x3e
 15513 05df 0B       	 .uleb128 0xb
 15514 05e0 03       	 .uleb128 0x3
 15515 05e1 08       	 .uleb128 0x8
 15516 05e2 00       	 .byte 0
 15517 05e3 00       	 .byte 0
 15518 05e4 5C       	 .uleb128 0x5c
 15519 05e5 3B       	 .uleb128 0x3b
 15520 05e6 00       	 .byte 0
 15521 05e7 03       	 .uleb128 0x3
 15522 05e8 0E       	 .uleb128 0xe
 15523 05e9 00       	 .byte 0
 15524 05ea 00       	 .byte 0
 15525 05eb 5D       	 .uleb128 0x5d
 15526 05ec 13       	 .uleb128 0x13
 15527 05ed 01       	 .byte 0x1
 15528 05ee 03       	 .uleb128 0x3
 15529 05ef 0E       	 .uleb128 0xe
 15530 05f0 0B       	 .uleb128 0xb
 15531 05f1 0B       	 .uleb128 0xb
 15532 05f2 3A       	 .uleb128 0x3a
 15533 05f3 0B       	 .uleb128 0xb
 15534 05f4 3B       	 .uleb128 0x3b
 15535 05f5 0B       	 .uleb128 0xb
 15536 05f6 01       	 .uleb128 0x1
 15537 05f7 13       	 .uleb128 0x13
 15538 05f8 00       	 .byte 0
 15539 05f9 00       	 .byte 0
 15540 05fa 5E       	 .uleb128 0x5e
 15541 05fb 0D       	 .uleb128 0xd
 15542 05fc 00       	 .byte 0
 15543 05fd 03       	 .uleb128 0x3
 15544 05fe 0E       	 .uleb128 0xe
 15545 05ff 49       	 .uleb128 0x49
 15546 0600 13       	 .uleb128 0x13
 15547 0601 38       	 .uleb128 0x38
 15548 0602 0B       	 .uleb128 0xb
 15549 0603 34       	 .uleb128 0x34
 15550 0604 19       	 .uleb128 0x19
 15551 0605 00       	 .byte 0
 15552 0606 00       	 .byte 0
 15553 0607 5F       	 .uleb128 0x5f
 15554 0608 0F       	 .uleb128 0xf
 15555 0609 00       	 .byte 0
ARM GAS   			page 287


 15556 060a 0B       	 .uleb128 0xb
 15557 060b 0B       	 .uleb128 0xb
 15558 060c 00       	 .byte 0
 15559 060d 00       	 .byte 0
 15560 060e 60       	 .uleb128 0x60
 15561 060f 15       	 .uleb128 0x15
 15562 0610 00       	 .byte 0
 15563 0611 00       	 .byte 0
 15564 0612 00       	 .byte 0
 15565 0613 61       	 .uleb128 0x61
 15566 0614 13       	 .uleb128 0x13
 15567 0615 01       	 .byte 0x1
 15568 0616 03       	 .uleb128 0x3
 15569 0617 0E       	 .uleb128 0xe
 15570 0618 0B       	 .uleb128 0xb
 15571 0619 05       	 .uleb128 0x5
 15572 061a 3A       	 .uleb128 0x3a
 15573 061b 0B       	 .uleb128 0xb
 15574 061c 3B       	 .uleb128 0x3b
 15575 061d 05       	 .uleb128 0x5
 15576 061e 39       	 .uleb128 0x39
 15577 061f 0B       	 .uleb128 0xb
 15578 0620 01       	 .uleb128 0x1
 15579 0621 13       	 .uleb128 0x13
 15580 0622 00       	 .byte 0
 15581 0623 00       	 .byte 0
 15582 0624 62       	 .uleb128 0x62
 15583 0625 17       	 .uleb128 0x17
 15584 0626 01       	 .byte 0x1
 15585 0627 0B       	 .uleb128 0xb
 15586 0628 0B       	 .uleb128 0xb
 15587 0629 3A       	 .uleb128 0x3a
 15588 062a 0B       	 .uleb128 0xb
 15589 062b 3B       	 .uleb128 0x3b
 15590 062c 05       	 .uleb128 0x5
 15591 062d 39       	 .uleb128 0x39
 15592 062e 0B       	 .uleb128 0xb
 15593 062f 01       	 .uleb128 0x1
 15594 0630 13       	 .uleb128 0x13
 15595 0631 00       	 .byte 0
 15596 0632 00       	 .byte 0
 15597 0633 63       	 .uleb128 0x63
 15598 0634 39       	 .uleb128 0x39
 15599 0635 01       	 .byte 0x1
 15600 0636 03       	 .uleb128 0x3
 15601 0637 08       	 .uleb128 0x8
 15602 0638 3A       	 .uleb128 0x3a
 15603 0639 0B       	 .uleb128 0xb
 15604 063a 3B       	 .uleb128 0x3b
 15605 063b 0B       	 .uleb128 0xb
 15606 063c 01       	 .uleb128 0x1
 15607 063d 13       	 .uleb128 0x13
 15608 063e 00       	 .byte 0
 15609 063f 00       	 .byte 0
 15610 0640 64       	 .uleb128 0x64
 15611 0641 0D       	 .uleb128 0xd
 15612 0642 00       	 .byte 0
ARM GAS   			page 288


 15613 0643 03       	 .uleb128 0x3
 15614 0644 0E       	 .uleb128 0xe
 15615 0645 3A       	 .uleb128 0x3a
 15616 0646 0B       	 .uleb128 0xb
 15617 0647 3B       	 .uleb128 0x3b
 15618 0648 0B       	 .uleb128 0xb
 15619 0649 39       	 .uleb128 0x39
 15620 064a 0B       	 .uleb128 0xb
 15621 064b 49       	 .uleb128 0x49
 15622 064c 13       	 .uleb128 0x13
 15623 064d 3F       	 .uleb128 0x3f
 15624 064e 19       	 .uleb128 0x19
 15625 064f 32       	 .uleb128 0x32
 15626 0650 0B       	 .uleb128 0xb
 15627 0651 3C       	 .uleb128 0x3c
 15628 0652 19       	 .uleb128 0x19
 15629 0653 00       	 .byte 0
 15630 0654 00       	 .byte 0
 15631 0655 65       	 .uleb128 0x65
 15632 0656 0D       	 .uleb128 0xd
 15633 0657 00       	 .byte 0
 15634 0658 49       	 .uleb128 0x49
 15635 0659 13       	 .uleb128 0x13
 15636 065a 38       	 .uleb128 0x38
 15637 065b 0B       	 .uleb128 0xb
 15638 065c 00       	 .byte 0
 15639 065d 00       	 .byte 0
 15640 065e 66       	 .uleb128 0x66
 15641 065f 2E       	 .uleb128 0x2e
 15642 0660 01       	 .byte 0x1
 15643 0661 3F       	 .uleb128 0x3f
 15644 0662 19       	 .uleb128 0x19
 15645 0663 03       	 .uleb128 0x3
 15646 0664 0E       	 .uleb128 0xe
 15647 0665 3A       	 .uleb128 0x3a
 15648 0666 0B       	 .uleb128 0xb
 15649 0667 3B       	 .uleb128 0x3b
 15650 0668 0B       	 .uleb128 0xb
 15651 0669 39       	 .uleb128 0x39
 15652 066a 0B       	 .uleb128 0xb
 15653 066b 6E       	 .uleb128 0x6e
 15654 066c 0E       	 .uleb128 0xe
 15655 066d 49       	 .uleb128 0x49
 15656 066e 13       	 .uleb128 0x13
 15657 066f 3C       	 .uleb128 0x3c
 15658 0670 19       	 .uleb128 0x19
 15659 0671 63       	 .uleb128 0x63
 15660 0672 19       	 .uleb128 0x19
 15661 0673 64       	 .uleb128 0x64
 15662 0674 13       	 .uleb128 0x13
 15663 0675 01       	 .uleb128 0x1
 15664 0676 13       	 .uleb128 0x13
 15665 0677 00       	 .byte 0
 15666 0678 00       	 .byte 0
 15667 0679 67       	 .uleb128 0x67
 15668 067a 2E       	 .uleb128 0x2e
 15669 067b 01       	 .byte 0x1
ARM GAS   			page 289


 15670 067c 3F       	 .uleb128 0x3f
 15671 067d 19       	 .uleb128 0x19
 15672 067e 03       	 .uleb128 0x3
 15673 067f 0E       	 .uleb128 0xe
 15674 0680 3A       	 .uleb128 0x3a
 15675 0681 0B       	 .uleb128 0xb
 15676 0682 3B       	 .uleb128 0x3b
 15677 0683 0B       	 .uleb128 0xb
 15678 0684 39       	 .uleb128 0x39
 15679 0685 0B       	 .uleb128 0xb
 15680 0686 6E       	 .uleb128 0x6e
 15681 0687 0E       	 .uleb128 0xe
 15682 0688 49       	 .uleb128 0x49
 15683 0689 13       	 .uleb128 0x13
 15684 068a 32       	 .uleb128 0x32
 15685 068b 0B       	 .uleb128 0xb
 15686 068c 3C       	 .uleb128 0x3c
 15687 068d 19       	 .uleb128 0x19
 15688 068e 63       	 .uleb128 0x63
 15689 068f 19       	 .uleb128 0x19
 15690 0690 64       	 .uleb128 0x64
 15691 0691 13       	 .uleb128 0x13
 15692 0692 01       	 .uleb128 0x1
 15693 0693 13       	 .uleb128 0x13
 15694 0694 00       	 .byte 0
 15695 0695 00       	 .byte 0
 15696 0696 68       	 .uleb128 0x68
 15697 0697 2E       	 .uleb128 0x2e
 15698 0698 01       	 .byte 0x1
 15699 0699 3F       	 .uleb128 0x3f
 15700 069a 19       	 .uleb128 0x19
 15701 069b 03       	 .uleb128 0x3
 15702 069c 0E       	 .uleb128 0xe
 15703 069d 3A       	 .uleb128 0x3a
 15704 069e 0B       	 .uleb128 0xb
 15705 069f 3B       	 .uleb128 0x3b
 15706 06a0 0B       	 .uleb128 0xb
 15707 06a1 39       	 .uleb128 0x39
 15708 06a2 0B       	 .uleb128 0xb
 15709 06a3 6E       	 .uleb128 0x6e
 15710 06a4 0E       	 .uleb128 0xe
 15711 06a5 8701     	 .uleb128 0x87
 15712 06a7 19       	 .uleb128 0x19
 15713 06a8 3C       	 .uleb128 0x3c
 15714 06a9 19       	 .uleb128 0x19
 15715 06aa 01       	 .uleb128 0x1
 15716 06ab 13       	 .uleb128 0x13
 15717 06ac 00       	 .byte 0
 15718 06ad 00       	 .byte 0
 15719 06ae 69       	 .uleb128 0x69
 15720 06af 39       	 .uleb128 0x39
 15721 06b0 00       	 .byte 0
 15722 06b1 03       	 .uleb128 0x3
 15723 06b2 0E       	 .uleb128 0xe
 15724 06b3 3A       	 .uleb128 0x3a
 15725 06b4 0B       	 .uleb128 0xb
 15726 06b5 3B       	 .uleb128 0x3b
ARM GAS   			page 290


 15727 06b6 05       	 .uleb128 0x5
 15728 06b7 39       	 .uleb128 0x39
 15729 06b8 0B       	 .uleb128 0xb
 15730 06b9 00       	 .byte 0
 15731 06ba 00       	 .byte 0
 15732 06bb 6A       	 .uleb128 0x6a
 15733 06bc 2E       	 .uleb128 0x2e
 15734 06bd 01       	 .byte 0x1
 15735 06be 3F       	 .uleb128 0x3f
 15736 06bf 19       	 .uleb128 0x19
 15737 06c0 03       	 .uleb128 0x3
 15738 06c1 0E       	 .uleb128 0xe
 15739 06c2 3A       	 .uleb128 0x3a
 15740 06c3 0B       	 .uleb128 0xb
 15741 06c4 3B       	 .uleb128 0x3b
 15742 06c5 0B       	 .uleb128 0xb
 15743 06c6 39       	 .uleb128 0x39
 15744 06c7 0B       	 .uleb128 0xb
 15745 06c8 6E       	 .uleb128 0x6e
 15746 06c9 0E       	 .uleb128 0xe
 15747 06ca 49       	 .uleb128 0x49
 15748 06cb 13       	 .uleb128 0x13
 15749 06cc 3C       	 .uleb128 0x3c
 15750 06cd 19       	 .uleb128 0x19
 15751 06ce 63       	 .uleb128 0x63
 15752 06cf 19       	 .uleb128 0x19
 15753 06d0 8B01     	 .uleb128 0x8b
 15754 06d2 0B       	 .uleb128 0xb
 15755 06d3 64       	 .uleb128 0x64
 15756 06d4 13       	 .uleb128 0x13
 15757 06d5 00       	 .byte 0
 15758 06d6 00       	 .byte 0
 15759 06d7 6B       	 .uleb128 0x6b
 15760 06d8 34       	 .uleb128 0x34
 15761 06d9 00       	 .byte 0
 15762 06da 03       	 .uleb128 0x3
 15763 06db 0E       	 .uleb128 0xe
 15764 06dc 3A       	 .uleb128 0x3a
 15765 06dd 0B       	 .uleb128 0xb
 15766 06de 3B       	 .uleb128 0x3b
 15767 06df 0B       	 .uleb128 0xb
 15768 06e0 39       	 .uleb128 0x39
 15769 06e1 0B       	 .uleb128 0xb
 15770 06e2 49       	 .uleb128 0x49
 15771 06e3 13       	 .uleb128 0x13
 15772 06e4 3C       	 .uleb128 0x3c
 15773 06e5 19       	 .uleb128 0x19
 15774 06e6 1C       	 .uleb128 0x1c
 15775 06e7 0A       	 .uleb128 0xa
 15776 06e8 6C       	 .uleb128 0x6c
 15777 06e9 19       	 .uleb128 0x19
 15778 06ea 00       	 .byte 0
 15779 06eb 00       	 .byte 0
 15780 06ec 6C       	 .uleb128 0x6c
 15781 06ed 2E       	 .uleb128 0x2e
 15782 06ee 00       	 .byte 0
 15783 06ef 3F       	 .uleb128 0x3f
ARM GAS   			page 291


 15784 06f0 19       	 .uleb128 0x19
 15785 06f1 03       	 .uleb128 0x3
 15786 06f2 08       	 .uleb128 0x8
 15787 06f3 3A       	 .uleb128 0x3a
 15788 06f4 0B       	 .uleb128 0xb
 15789 06f5 3B       	 .uleb128 0x3b
 15790 06f6 05       	 .uleb128 0x5
 15791 06f7 39       	 .uleb128 0x39
 15792 06f8 0B       	 .uleb128 0xb
 15793 06f9 6E       	 .uleb128 0x6e
 15794 06fa 0E       	 .uleb128 0xe
 15795 06fb 49       	 .uleb128 0x49
 15796 06fc 13       	 .uleb128 0x13
 15797 06fd 3C       	 .uleb128 0x3c
 15798 06fe 19       	 .uleb128 0x19
 15799 06ff 00       	 .byte 0
 15800 0700 00       	 .byte 0
 15801 0701 6D       	 .uleb128 0x6d
 15802 0702 2E       	 .uleb128 0x2e
 15803 0703 01       	 .byte 0x1
 15804 0704 3F       	 .uleb128 0x3f
 15805 0705 19       	 .uleb128 0x19
 15806 0706 03       	 .uleb128 0x3
 15807 0707 0E       	 .uleb128 0xe
 15808 0708 3A       	 .uleb128 0x3a
 15809 0709 0B       	 .uleb128 0xb
 15810 070a 3B       	 .uleb128 0x3b
 15811 070b 0B       	 .uleb128 0xb
 15812 070c 39       	 .uleb128 0x39
 15813 070d 0B       	 .uleb128 0xb
 15814 070e 6E       	 .uleb128 0x6e
 15815 070f 0E       	 .uleb128 0xe
 15816 0710 49       	 .uleb128 0x49
 15817 0711 13       	 .uleb128 0x13
 15818 0712 32       	 .uleb128 0x32
 15819 0713 0B       	 .uleb128 0xb
 15820 0714 3C       	 .uleb128 0x3c
 15821 0715 19       	 .uleb128 0x19
 15822 0716 8B01     	 .uleb128 0x8b
 15823 0718 0B       	 .uleb128 0xb
 15824 0719 64       	 .uleb128 0x64
 15825 071a 13       	 .uleb128 0x13
 15826 071b 01       	 .uleb128 0x1
 15827 071c 13       	 .uleb128 0x13
 15828 071d 00       	 .byte 0
 15829 071e 00       	 .byte 0
 15830 071f 6E       	 .uleb128 0x6e
 15831 0720 2E       	 .uleb128 0x2e
 15832 0721 01       	 .byte 0x1
 15833 0722 3F       	 .uleb128 0x3f
 15834 0723 19       	 .uleb128 0x19
 15835 0724 03       	 .uleb128 0x3
 15836 0725 08       	 .uleb128 0x8
 15837 0726 3A       	 .uleb128 0x3a
 15838 0727 0B       	 .uleb128 0xb
 15839 0728 3B       	 .uleb128 0x3b
 15840 0729 0B       	 .uleb128 0xb
ARM GAS   			page 292


 15841 072a 39       	 .uleb128 0x39
 15842 072b 0B       	 .uleb128 0xb
 15843 072c 6E       	 .uleb128 0x6e
 15844 072d 0E       	 .uleb128 0xe
 15845 072e 49       	 .uleb128 0x49
 15846 072f 13       	 .uleb128 0x13
 15847 0730 32       	 .uleb128 0x32
 15848 0731 0B       	 .uleb128 0xb
 15849 0732 3C       	 .uleb128 0x3c
 15850 0733 19       	 .uleb128 0x19
 15851 0734 64       	 .uleb128 0x64
 15852 0735 13       	 .uleb128 0x13
 15853 0736 01       	 .uleb128 0x1
 15854 0737 13       	 .uleb128 0x13
 15855 0738 00       	 .byte 0
 15856 0739 00       	 .byte 0
 15857 073a 6F       	 .uleb128 0x6f
 15858 073b 13       	 .uleb128 0x13
 15859 073c 01       	 .byte 0x1
 15860 073d 03       	 .uleb128 0x3
 15861 073e 0E       	 .uleb128 0xe
 15862 073f 0B       	 .uleb128 0xb
 15863 0740 0B       	 .uleb128 0xb
 15864 0741 3A       	 .uleb128 0x3a
 15865 0742 0B       	 .uleb128 0xb
 15866 0743 3B       	 .uleb128 0x3b
 15867 0744 0B       	 .uleb128 0xb
 15868 0745 39       	 .uleb128 0x39
 15869 0746 0B       	 .uleb128 0xb
 15870 0747 00       	 .byte 0
 15871 0748 00       	 .byte 0
 15872 0749 70       	 .uleb128 0x70
 15873 074a 39       	 .uleb128 0x39
 15874 074b 01       	 .byte 0x1
 15875 074c 03       	 .uleb128 0x3
 15876 074d 0E       	 .uleb128 0xe
 15877 074e 3A       	 .uleb128 0x3a
 15878 074f 0B       	 .uleb128 0xb
 15879 0750 3B       	 .uleb128 0x3b
 15880 0751 05       	 .uleb128 0x5
 15881 0752 39       	 .uleb128 0x39
 15882 0753 0B       	 .uleb128 0xb
 15883 0754 01       	 .uleb128 0x1
 15884 0755 13       	 .uleb128 0x13
 15885 0756 00       	 .byte 0
 15886 0757 00       	 .byte 0
 15887 0758 71       	 .uleb128 0x71
 15888 0759 2E       	 .uleb128 0x2e
 15889 075a 01       	 .byte 0x1
 15890 075b 3F       	 .uleb128 0x3f
 15891 075c 19       	 .uleb128 0x19
 15892 075d 03       	 .uleb128 0x3
 15893 075e 0E       	 .uleb128 0xe
 15894 075f 3A       	 .uleb128 0x3a
 15895 0760 0B       	 .uleb128 0xb
 15896 0761 3B       	 .uleb128 0x3b
 15897 0762 0B       	 .uleb128 0xb
ARM GAS   			page 293


 15898 0763 39       	 .uleb128 0x39
 15899 0764 0B       	 .uleb128 0xb
 15900 0765 6E       	 .uleb128 0x6e
 15901 0766 0E       	 .uleb128 0xe
 15902 0767 3C       	 .uleb128 0x3c
 15903 0768 19       	 .uleb128 0x19
 15904 0769 01       	 .uleb128 0x1
 15905 076a 13       	 .uleb128 0x13
 15906 076b 00       	 .byte 0
 15907 076c 00       	 .byte 0
 15908 076d 72       	 .uleb128 0x72
 15909 076e 26       	 .uleb128 0x26
 15910 076f 00       	 .byte 0
 15911 0770 00       	 .byte 0
 15912 0771 00       	 .byte 0
 15913 0772 73       	 .uleb128 0x73
 15914 0773 34       	 .uleb128 0x34
 15915 0774 00       	 .byte 0
 15916 0775 03       	 .uleb128 0x3
 15917 0776 08       	 .uleb128 0x8
 15918 0777 3A       	 .uleb128 0x3a
 15919 0778 0B       	 .uleb128 0xb
 15920 0779 3B       	 .uleb128 0x3b
 15921 077a 0B       	 .uleb128 0xb
 15922 077b 39       	 .uleb128 0x39
 15923 077c 0B       	 .uleb128 0xb
 15924 077d 49       	 .uleb128 0x49
 15925 077e 13       	 .uleb128 0x13
 15926 077f 6C       	 .uleb128 0x6c
 15927 0780 19       	 .uleb128 0x19
 15928 0781 02       	 .uleb128 0x2
 15929 0782 18       	 .uleb128 0x18
 15930 0783 00       	 .byte 0
 15931 0784 00       	 .byte 0
 15932 0785 74       	 .uleb128 0x74
 15933 0786 28       	 .uleb128 0x28
 15934 0787 00       	 .byte 0
 15935 0788 03       	 .uleb128 0x3
 15936 0789 08       	 .uleb128 0x8
 15937 078a 1C       	 .uleb128 0x1c
 15938 078b 0B       	 .uleb128 0xb
 15939 078c 00       	 .byte 0
 15940 078d 00       	 .byte 0
 15941 078e 75       	 .uleb128 0x75
 15942 078f 34       	 .uleb128 0x34
 15943 0790 00       	 .byte 0
 15944 0791 47       	 .uleb128 0x47
 15945 0792 13       	 .uleb128 0x13
 15946 0793 00       	 .byte 0
 15947 0794 00       	 .byte 0
 15948 0795 76       	 .uleb128 0x76
 15949 0796 13       	 .uleb128 0x13
 15950 0797 00       	 .byte 0
 15951 0798 03       	 .uleb128 0x3
 15952 0799 08       	 .uleb128 0x8
 15953 079a 3C       	 .uleb128 0x3c
 15954 079b 19       	 .uleb128 0x19
ARM GAS   			page 294


 15955 079c 00       	 .byte 0
 15956 079d 00       	 .byte 0
 15957 079e 77       	 .uleb128 0x77
 15958 079f 2E       	 .uleb128 0x2e
 15959 07a0 01       	 .byte 0x1
 15960 07a1 3F       	 .uleb128 0x3f
 15961 07a2 19       	 .uleb128 0x19
 15962 07a3 03       	 .uleb128 0x3
 15963 07a4 08       	 .uleb128 0x8
 15964 07a5 3A       	 .uleb128 0x3a
 15965 07a6 0B       	 .uleb128 0xb
 15966 07a7 3B       	 .uleb128 0x3b
 15967 07a8 0B       	 .uleb128 0xb
 15968 07a9 39       	 .uleb128 0x39
 15969 07aa 0B       	 .uleb128 0xb
 15970 07ab 49       	 .uleb128 0x49
 15971 07ac 13       	 .uleb128 0x13
 15972 07ad 3C       	 .uleb128 0x3c
 15973 07ae 19       	 .uleb128 0x19
 15974 07af 01       	 .uleb128 0x1
 15975 07b0 13       	 .uleb128 0x13
 15976 07b1 00       	 .byte 0
 15977 07b2 00       	 .byte 0
 15978 07b3 78       	 .uleb128 0x78
 15979 07b4 02       	 .uleb128 0x2
 15980 07b5 01       	 .byte 0x1
 15981 07b6 03       	 .uleb128 0x3
 15982 07b7 0E       	 .uleb128 0xe
 15983 07b8 3C       	 .uleb128 0x3c
 15984 07b9 19       	 .uleb128 0x19
 15985 07ba 01       	 .uleb128 0x1
 15986 07bb 13       	 .uleb128 0x13
 15987 07bc 00       	 .byte 0
 15988 07bd 00       	 .byte 0
 15989 07be 79       	 .uleb128 0x79
 15990 07bf 30       	 .uleb128 0x30
 15991 07c0 00       	 .byte 0
 15992 07c1 03       	 .uleb128 0x3
 15993 07c2 0E       	 .uleb128 0xe
 15994 07c3 49       	 .uleb128 0x49
 15995 07c4 13       	 .uleb128 0x13
 15996 07c5 1C       	 .uleb128 0x1c
 15997 07c6 0B       	 .uleb128 0xb
 15998 07c7 00       	 .byte 0
 15999 07c8 00       	 .byte 0
 16000 07c9 7A       	 .uleb128 0x7a
 16001 07ca 2E       	 .uleb128 0x2e
 16002 07cb 01       	 .byte 0x1
 16003 07cc 3F       	 .uleb128 0x3f
 16004 07cd 19       	 .uleb128 0x19
 16005 07ce 03       	 .uleb128 0x3
 16006 07cf 0E       	 .uleb128 0xe
 16007 07d0 3A       	 .uleb128 0x3a
 16008 07d1 0B       	 .uleb128 0xb
 16009 07d2 3B       	 .uleb128 0x3b
 16010 07d3 0B       	 .uleb128 0xb
 16011 07d4 39       	 .uleb128 0x39
ARM GAS   			page 295


 16012 07d5 0B       	 .uleb128 0xb
 16013 07d6 6E       	 .uleb128 0x6e
 16014 07d7 0E       	 .uleb128 0xe
 16015 07d8 32       	 .uleb128 0x32
 16016 07d9 0B       	 .uleb128 0xb
 16017 07da 3C       	 .uleb128 0x3c
 16018 07db 19       	 .uleb128 0x19
 16019 07dc 01       	 .uleb128 0x1
 16020 07dd 13       	 .uleb128 0x13
 16021 07de 00       	 .byte 0
 16022 07df 00       	 .byte 0
 16023 07e0 7B       	 .uleb128 0x7b
 16024 07e1 0D       	 .uleb128 0xd
 16025 07e2 00       	 .byte 0
 16026 07e3 03       	 .uleb128 0x3
 16027 07e4 0E       	 .uleb128 0xe
 16028 07e5 3A       	 .uleb128 0x3a
 16029 07e6 0B       	 .uleb128 0xb
 16030 07e7 3B       	 .uleb128 0x3b
 16031 07e8 0B       	 .uleb128 0xb
 16032 07e9 39       	 .uleb128 0x39
 16033 07ea 0B       	 .uleb128 0xb
 16034 07eb 49       	 .uleb128 0x49
 16035 07ec 13       	 .uleb128 0x13
 16036 07ed 3F       	 .uleb128 0x3f
 16037 07ee 19       	 .uleb128 0x19
 16038 07ef 3C       	 .uleb128 0x3c
 16039 07f0 19       	 .uleb128 0x19
 16040 07f1 1C       	 .uleb128 0x1c
 16041 07f2 0B       	 .uleb128 0xb
 16042 07f3 6C       	 .uleb128 0x6c
 16043 07f4 19       	 .uleb128 0x19
 16044 07f5 00       	 .byte 0
 16045 07f6 00       	 .byte 0
 16046 07f7 7C       	 .uleb128 0x7c
 16047 07f8 0D       	 .uleb128 0xd
 16048 07f9 00       	 .byte 0
 16049 07fa 03       	 .uleb128 0x3
 16050 07fb 0E       	 .uleb128 0xe
 16051 07fc 3A       	 .uleb128 0x3a
 16052 07fd 0B       	 .uleb128 0xb
 16053 07fe 3B       	 .uleb128 0x3b
 16054 07ff 0B       	 .uleb128 0xb
 16055 0800 39       	 .uleb128 0x39
 16056 0801 0B       	 .uleb128 0xb
 16057 0802 49       	 .uleb128 0x49
 16058 0803 13       	 .uleb128 0x13
 16059 0804 3F       	 .uleb128 0x3f
 16060 0805 19       	 .uleb128 0x19
 16061 0806 3C       	 .uleb128 0x3c
 16062 0807 19       	 .uleb128 0x19
 16063 0808 00       	 .byte 0
 16064 0809 00       	 .byte 0
 16065 080a 7D       	 .uleb128 0x7d
 16066 080b 34       	 .uleb128 0x34
 16067 080c 00       	 .byte 0
 16068 080d 6E       	 .uleb128 0x6e
ARM GAS   			page 296


 16069 080e 0E       	 .uleb128 0xe
 16070 080f 47       	 .uleb128 0x47
 16071 0810 13       	 .uleb128 0x13
 16072 0811 02       	 .uleb128 0x2
 16073 0812 18       	 .uleb128 0x18
 16074 0813 00       	 .byte 0
 16075 0814 00       	 .byte 0
 16076 0815 7E       	 .uleb128 0x7e
 16077 0816 2E       	 .uleb128 0x2e
 16078 0817 01       	 .byte 0x1
 16079 0818 31       	 .uleb128 0x31
 16080 0819 13       	 .uleb128 0x13
 16081 081a 6E       	 .uleb128 0x6e
 16082 081b 0E       	 .uleb128 0xe
 16083 081c 64       	 .uleb128 0x64
 16084 081d 13       	 .uleb128 0x13
 16085 081e 11       	 .uleb128 0x11
 16086 081f 01       	 .uleb128 0x1
 16087 0820 12       	 .uleb128 0x12
 16088 0821 06       	 .uleb128 0x6
 16089 0822 40       	 .uleb128 0x40
 16090 0823 18       	 .uleb128 0x18
 16091 0824 9742     	 .uleb128 0x2117
 16092 0826 19       	 .uleb128 0x19
 16093 0827 01       	 .uleb128 0x1
 16094 0828 13       	 .uleb128 0x13
 16095 0829 00       	 .byte 0
 16096 082a 00       	 .byte 0
 16097 082b 7F       	 .uleb128 0x7f
 16098 082c 2E       	 .uleb128 0x2e
 16099 082d 01       	 .byte 0x1
 16100 082e 47       	 .uleb128 0x47
 16101 082f 13       	 .uleb128 0x13
 16102 0830 11       	 .uleb128 0x11
 16103 0831 01       	 .uleb128 0x1
 16104 0832 12       	 .uleb128 0x12
 16105 0833 06       	 .uleb128 0x6
 16106 0834 40       	 .uleb128 0x40
 16107 0835 18       	 .uleb128 0x18
 16108 0836 9742     	 .uleb128 0x2117
 16109 0838 19       	 .uleb128 0x19
 16110 0839 01       	 .uleb128 0x1
 16111 083a 13       	 .uleb128 0x13
 16112 083b 00       	 .byte 0
 16113 083c 00       	 .byte 0
 16114 083d 8001     	 .uleb128 0x80
 16115 083f 34       	 .uleb128 0x34
 16116 0840 00       	 .byte 0
 16117 0841 03       	 .uleb128 0x3
 16118 0842 0E       	 .uleb128 0xe
 16119 0843 49       	 .uleb128 0x49
 16120 0844 13       	 .uleb128 0x13
 16121 0845 34       	 .uleb128 0x34
 16122 0846 19       	 .uleb128 0x19
 16123 0847 6C       	 .uleb128 0x6c
 16124 0848 19       	 .uleb128 0x19
 16125 0849 00       	 .byte 0
ARM GAS   			page 297


 16126 084a 00       	 .byte 0
 16127 084b 8101     	 .uleb128 0x81
 16128 084d 34       	 .uleb128 0x34
 16129 084e 00       	 .byte 0
 16130 084f 03       	 .uleb128 0x3
 16131 0850 08       	 .uleb128 0x8
 16132 0851 3A       	 .uleb128 0x3a
 16133 0852 0B       	 .uleb128 0xb
 16134 0853 3B       	 .uleb128 0x3b
 16135 0854 0B       	 .uleb128 0xb
 16136 0855 39       	 .uleb128 0x39
 16137 0856 0B       	 .uleb128 0xb
 16138 0857 49       	 .uleb128 0x49
 16139 0858 13       	 .uleb128 0x13
 16140 0859 02       	 .uleb128 0x2
 16141 085a 18       	 .uleb128 0x18
 16142 085b 00       	 .byte 0
 16143 085c 00       	 .byte 0
 16144 085d 8201     	 .uleb128 0x82
 16145 085f 2E       	 .uleb128 0x2e
 16146 0860 01       	 .byte 0x1
 16147 0861 31       	 .uleb128 0x31
 16148 0862 13       	 .uleb128 0x13
 16149 0863 6E       	 .uleb128 0x6e
 16150 0864 0E       	 .uleb128 0xe
 16151 0865 64       	 .uleb128 0x64
 16152 0866 13       	 .uleb128 0x13
 16153 0867 11       	 .uleb128 0x11
 16154 0868 01       	 .uleb128 0x1
 16155 0869 12       	 .uleb128 0x12
 16156 086a 06       	 .uleb128 0x6
 16157 086b 40       	 .uleb128 0x40
 16158 086c 18       	 .uleb128 0x18
 16159 086d 9642     	 .uleb128 0x2116
 16160 086f 19       	 .uleb128 0x19
 16161 0870 01       	 .uleb128 0x1
 16162 0871 13       	 .uleb128 0x13
 16163 0872 00       	 .byte 0
 16164 0873 00       	 .byte 0
 16165 0874 8301     	 .uleb128 0x83
 16166 0876 05       	 .uleb128 0x5
 16167 0877 00       	 .byte 0
 16168 0878 03       	 .uleb128 0x3
 16169 0879 0E       	 .uleb128 0xe
 16170 087a 3A       	 .uleb128 0x3a
 16171 087b 0B       	 .uleb128 0xb
 16172 087c 3B       	 .uleb128 0x3b
 16173 087d 05       	 .uleb128 0x5
 16174 087e 39       	 .uleb128 0x39
 16175 087f 0B       	 .uleb128 0xb
 16176 0880 49       	 .uleb128 0x49
 16177 0881 13       	 .uleb128 0x13
 16178 0882 02       	 .uleb128 0x2
 16179 0883 18       	 .uleb128 0x18
 16180 0884 00       	 .byte 0
 16181 0885 00       	 .byte 0
 16182 0886 8401     	 .uleb128 0x84
ARM GAS   			page 298


 16183 0888 2E       	 .uleb128 0x2e
 16184 0889 01       	 .byte 0x1
 16185 088a 03       	 .uleb128 0x3
 16186 088b 0E       	 .uleb128 0xe
 16187 088c 3A       	 .uleb128 0x3a
 16188 088d 0B       	 .uleb128 0xb
 16189 088e 3B       	 .uleb128 0x3b
 16190 088f 0B       	 .uleb128 0xb
 16191 0890 39       	 .uleb128 0x39
 16192 0891 0B       	 .uleb128 0xb
 16193 0892 49       	 .uleb128 0x49
 16194 0893 13       	 .uleb128 0x13
 16195 0894 11       	 .uleb128 0x11
 16196 0895 01       	 .uleb128 0x1
 16197 0896 12       	 .uleb128 0x12
 16198 0897 06       	 .uleb128 0x6
 16199 0898 40       	 .uleb128 0x40
 16200 0899 18       	 .uleb128 0x18
 16201 089a 9742     	 .uleb128 0x2117
 16202 089c 19       	 .uleb128 0x19
 16203 089d 00       	 .byte 0
 16204 089e 00       	 .byte 0
 16205 089f 00       	 .byte 0
 16206              	 .section .debug_aranges,"",%progbits
 16207 0000 BC000000 	 .4byte 0xbc
 16208 0004 0200     	 .2byte 0x2
 16209 0006 00000000 	 .4byte .Ldebug_info0
 16210 000a 04       	 .byte 0x4
 16211 000b 00       	 .byte 0
 16212 000c 0000     	 .2byte 0
 16213 000e 0000     	 .2byte 0
 16214 0010 00000000 	 .4byte .LFB893
 16215 0014 16000000 	 .4byte .LFE893-.LFB893
 16216 0018 00000000 	 .4byte .LFB1264
 16217 001c 18000000 	 .4byte .LFE1264-.LFB1264
 16218 0020 00000000 	 .4byte .LFB1271
 16219 0024 20000000 	 .4byte .LFE1271-.LFB1271
 16220 0028 00000000 	 .4byte .LFB1275
 16221 002c 18000000 	 .4byte .LFE1275-.LFB1275
 16222 0030 00000000 	 .4byte .LFB1298
 16223 0034 50000000 	 .4byte .LFE1298-.LFB1298
 16224 0038 00000000 	 .4byte .LFB1300
 16225 003c 1E000000 	 .4byte .LFE1300-.LFB1300
 16226 0040 00000000 	 .4byte .LFB1301
 16227 0044 44000000 	 .4byte .LFE1301-.LFB1301
 16228 0048 00000000 	 .4byte .LFB1302
 16229 004c 5C000000 	 .4byte .LFE1302-.LFB1302
 16230 0050 00000000 	 .4byte .LFB1303
 16231 0054 2E000000 	 .4byte .LFE1303-.LFB1303
 16232 0058 00000000 	 .4byte .LFB1304
 16233 005c 4E000000 	 .4byte .LFE1304-.LFB1304
 16234 0060 00000000 	 .4byte .LFB1305
 16235 0064 28000000 	 .4byte .LFE1305-.LFB1305
 16236 0068 00000000 	 .4byte .LFB1306
 16237 006c 1E000000 	 .4byte .LFE1306-.LFB1306
 16238 0070 00000000 	 .4byte .LFB1307
 16239 0074 1E000000 	 .4byte .LFE1307-.LFB1307
ARM GAS   			page 299


 16240 0078 00000000 	 .4byte .LFB1308
 16241 007c 1E000000 	 .4byte .LFE1308-.LFB1308
 16242 0080 00000000 	 .4byte .LFB1309
 16243 0084 32000000 	 .4byte .LFE1309-.LFB1309
 16244 0088 00000000 	 .4byte .LFB1310
 16245 008c 28000000 	 .4byte .LFE1310-.LFB1310
 16246 0090 00000000 	 .4byte .LFB1311
 16247 0094 2C000000 	 .4byte .LFE1311-.LFB1311
 16248 0098 00000000 	 .4byte .LFB1557
 16249 009c 28000000 	 .4byte .LFE1557-.LFB1557
 16250 00a0 00000000 	 .4byte .LFB1559
 16251 00a4 18000000 	 .4byte .LFE1559-.LFB1559
 16252 00a8 00000000 	 .4byte .LFB1560
 16253 00ac 18000000 	 .4byte .LFE1560-.LFB1560
 16254 00b0 00000000 	 .4byte .LFB1561
 16255 00b4 18000000 	 .4byte .LFE1561-.LFB1561
 16256 00b8 00000000 	 .4byte 0
 16257 00bc 00000000 	 .4byte 0
 16258              	 .section .debug_ranges,"",%progbits
 16259              	.Ldebug_ranges0:
 16260 0000 00000000 	 .4byte .LFB893
 16261 0004 16000000 	 .4byte .LFE893
 16262 0008 00000000 	 .4byte .LFB1264
 16263 000c 18000000 	 .4byte .LFE1264
 16264 0010 00000000 	 .4byte .LFB1271
 16265 0014 20000000 	 .4byte .LFE1271
 16266 0018 00000000 	 .4byte .LFB1275
 16267 001c 18000000 	 .4byte .LFE1275
 16268 0020 00000000 	 .4byte .LFB1298
 16269 0024 50000000 	 .4byte .LFE1298
 16270 0028 00000000 	 .4byte .LFB1300
 16271 002c 1E000000 	 .4byte .LFE1300
 16272 0030 00000000 	 .4byte .LFB1301
 16273 0034 44000000 	 .4byte .LFE1301
 16274 0038 00000000 	 .4byte .LFB1302
 16275 003c 5C000000 	 .4byte .LFE1302
 16276 0040 00000000 	 .4byte .LFB1303
 16277 0044 2E000000 	 .4byte .LFE1303
 16278 0048 00000000 	 .4byte .LFB1304
 16279 004c 4E000000 	 .4byte .LFE1304
 16280 0050 00000000 	 .4byte .LFB1305
 16281 0054 28000000 	 .4byte .LFE1305
 16282 0058 00000000 	 .4byte .LFB1306
 16283 005c 1E000000 	 .4byte .LFE1306
 16284 0060 00000000 	 .4byte .LFB1307
 16285 0064 1E000000 	 .4byte .LFE1307
 16286 0068 00000000 	 .4byte .LFB1308
 16287 006c 1E000000 	 .4byte .LFE1308
 16288 0070 00000000 	 .4byte .LFB1309
 16289 0074 32000000 	 .4byte .LFE1309
 16290 0078 00000000 	 .4byte .LFB1310
 16291 007c 28000000 	 .4byte .LFE1310
 16292 0080 00000000 	 .4byte .LFB1311
 16293 0084 2C000000 	 .4byte .LFE1311
 16294 0088 00000000 	 .4byte .LFB1557
 16295 008c 28000000 	 .4byte .LFE1557
 16296 0090 00000000 	 .4byte .LFB1559
ARM GAS   			page 300


 16297 0094 18000000 	 .4byte .LFE1559
 16298 0098 00000000 	 .4byte .LFB1560
 16299 009c 18000000 	 .4byte .LFE1560
 16300 00a0 00000000 	 .4byte .LFB1561
 16301 00a4 18000000 	 .4byte .LFE1561
 16302 00a8 00000000 	 .4byte 0
 16303 00ac 00000000 	 .4byte 0
 16304              	 .section .debug_line,"",%progbits
 16305              	.Ldebug_line0:
 16306 0000 5A0A0000 	 .section .debug_str,"MS",%progbits,1
 16306      03008F07 
 16306      00000201 
 16306      FB0E0D00 
 16306      01010101 
 16307              	.LASF470:
 16308 0000 6C6F6731 	 .ascii "log10\000"
 16308      3000
 16309              	.LASF564:
 16310 0006 6578706D 	 .ascii "expm1\000"
 16310      3100
 16311              	.LASF896:
 16312 000c 6C636F6E 	 .ascii "lconv\000"
 16312      7600
 16313              	.LASF535:
 16314 0012 5F5A5374 	 .ascii "_ZSt13islessgreaterdd\000"
 16314      31336973 
 16314      6C657373 
 16314      67726561 
 16314      74657264 
 16315              	.LASF313:
 16316 0028 5F5A4E4B 	 .ascii "_ZNKSt7__cxx1112basic_stringIcSt11char_traitsIcESaI"
 16316      5374375F 
 16316      5F637878 
 16316      31313132 
 16316      62617369 
 16317 005b 63454534 	 .ascii "cEE4backEv\000"
 16317      6261636B 
 16317      457600
 16318              	.LASF884:
 16319 0066 776D656D 	 .ascii "wmemmove\000"
 16319      6D6F7665 
 16319      00
 16320              	.LASF804:
 16321 006f 5F5A4E4B 	 .ascii "_ZNK9__gnu_cxx17__normal_iteratorIPKcNSt7__cxx1112b"
 16321      395F5F67 
 16321      6E755F63 
 16321      78783137 
 16321      5F5F6E6F 
 16322 00a2 61736963 	 .ascii "asic_stringIcSt11char_traitsIcESaIcEEEEplEi\000"
 16322      5F737472 
 16322      696E6749 
 16322      63537431 
 16322      31636861 
 16323              	.LASF22:
 16324 00ce 5F5F696E 	 .ascii "__int_least64_t\000"
 16324      745F6C65 
 16324      61737436 
ARM GAS   			page 301


 16324      345F7400 
 16325              	.LASF682:
 16326 00de 746F5F63 	 .ascii "to_char_type\000"
 16326      6861725F 
 16326      74797065 
 16326      00
 16327              	.LASF443:
 16328 00eb 5F5A5374 	 .ascii "_ZSt5atan2ee\000"
 16328      35617461 
 16328      6E326565 
 16328      00
 16329              	.LASF689:
 16330 00f8 6E6F745F 	 .ascii "not_eof\000"
 16330      656F6600 
 16331              	.LASF1020:
 16332 0100 67656566 	 .ascii "geefOntvanger\000"
 16332      4F6E7476 
 16332      616E6765 
 16332      7200
 16333              	.LASF266:
 16334 010e 72657665 	 .ascii "reverse_iterator\000"
 16334      7273655F 
 16334      69746572 
 16334      61746F72 
 16334      00
 16335              	.LASF593:
 16336 011f 6C6F6731 	 .ascii "log1p\000"
 16336      7000
 16337              	.LASF701:
 16338 0125 616C6C6F 	 .ascii "allocate\000"
 16338      63617465 
 16338      00
 16339              	.LASF534:
 16340 012e 5F5A5374 	 .ascii "_ZSt13islessgreateree\000"
 16340      31336973 
 16340      6C657373 
 16340      67726561 
 16340      74657265 
 16341              	.LASF843:
 16342 0144 66776964 	 .ascii "fwide\000"
 16342      6500
 16343              	.LASF588:
 16344 014a 5F5A5374 	 .ascii "_ZSt6llrinte\000"
 16344      366C6C72 
 16344      696E7465 
 16344      00
 16345              	.LASF589:
 16346 0157 5F5A5374 	 .ascii "_ZSt6llrintf\000"
 16346      366C6C72 
 16346      696E7466 
 16346      00
 16347              	.LASF705:
 16348 0164 6465616C 	 .ascii "deallocate\000"
 16348      6C6F6361 
 16348      746500
 16349              	.LASF735:
 16350 016f 6E65775F 	 .ascii "new_allocator\000"
ARM GAS   			page 302


 16350      616C6C6F 
 16350      6361746F 
 16350      7200
 16351              	.LASF919:
 16352 017d 696E745F 	 .ascii "int_p_sep_by_space\000"
 16352      705F7365 
 16352      705F6279 
 16352      5F737061 
 16352      636500
 16353              	.LASF672:
 16354 0190 63686172 	 .ascii "char_type\000"
 16354      5F747970 
 16354      6500
 16355              	.LASF579:
 16356 019a 5F5A5374 	 .ascii "_ZSt5hypotee\000"
 16356      35687970 
 16356      6F746565 
 16356      00
 16357              	.LASF216:
 16358 01a7 5F5A4E4B 	 .ascii "_ZNKSt7__cxx1112basic_stringIcSt11char_traitsIcESaI"
 16358      5374375F 
 16358      5F637878 
 16358      31313132 
 16358      62617369 
 16359 01da 63454538 	 .ascii "cEE8_M_limitEjj\000"
 16359      5F4D5F6C 
 16359      696D6974 
 16359      456A6A00 
 16360              	.LASF1:
 16361 01ea 5F5F7569 	 .ascii "__uint8_t\000"
 16361      6E74385F 
 16361      7400
 16362              	.LASF846:
 16363 01f4 67657477 	 .ascii "getwc\000"
 16363      6300
 16364              	.LASF762:
 16365 01fa 5F5A4E39 	 .ascii "_ZN9__gnu_cxx14__alloc_traitsISaIcEcE15_S_nothrow_m"
 16365      5F5F676E 
 16365      755F6378 
 16365      7831345F 
 16365      5F616C6C 
 16366 022d 6F766545 	 .ascii "oveEv\000"
 16366      7600
 16367              	.LASF818:
 16368 0233 376C6C64 	 .ascii "7lldiv_t\000"
 16368      69765F74 
 16368      00
 16369              	.LASF444:
 16370 023c 5F5A5374 	 .ascii "_ZSt5atan2ff\000"
 16370      35617461 
 16370      6E326666 
 16370      00
 16371              	.LASF154:
 16372 0249 66706F73 	 .ascii "fpos_t\000"
 16372      5F7400
 16373              	.LASF84:
 16374 0250 5F6D6273 	 .ascii "_mbstate\000"
ARM GAS   			page 303


 16374      74617465 
 16374      00
 16375              	.LASF733:
 16376 0259 5F5F6F70 	 .ascii "__ops\000"
 16376      7300
 16377              	.LASF1030:
 16378 025f 5F5A4E37 	 .ascii "_ZN7StdTaakC4ERKS_\000"
 16378      53746454 
 16378      61616B43 
 16378      3445524B 
 16378      535F00
 16379              	.LASF63:
 16380 0272 5F617465 	 .ascii "_atexit\000"
 16380      78697400 
 16381              	.LASF536:
 16382 027a 5F5A5374 	 .ascii "_ZSt13islessgreaterff\000"
 16382      31336973 
 16382      6C657373 
 16382      67726561 
 16382      74657266 
 16383              	.LASF263:
 16384 0290 5F5A4E4B 	 .ascii "_ZNKSt7__cxx1112basic_stringIcSt11char_traitsIcESaI"
 16384      5374375F 
 16384      5F637878 
 16384      31313132 
 16384      62617369 
 16385 02c3 63454535 	 .ascii "cEE5beginEv\000"
 16385      62656769 
 16385      6E457600 
 16386              	.LASF230:
 16387 02cf 5F5A4E53 	 .ascii "_ZNSt7__cxx1112basic_stringIcSt11char_traitsIcESaIc"
 16387      74375F5F 
 16387      63787831 
 16387      31313262 
 16387      61736963 
 16388 0302 45453133 	 .ascii "EE13_S_copy_charsEPcS5_S5_\000"
 16388      5F535F63 
 16388      6F70795F 
 16388      63686172 
 16388      73455063 
 16389              	.LASF779:
 16390 031d 5F5A4E39 	 .ascii "_ZN9__gnu_cxx17__normal_iteratorIPcNSt7__cxx1112bas"
 16390      5F5F676E 
 16390      755F6378 
 16390      7831375F 
 16390      5F6E6F72 
 16391 0350 69635F73 	 .ascii "ic_stringIcSt11char_traitsIcESaIcEEEEmmEi\000"
 16391      7472696E 
 16391      67496353 
 16391      74313163 
 16391      6861725F 
 16392              	.LASF476:
 16393 037a 5F5A5374 	 .ascii "_ZSt3powee\000"
 16393      33706F77 
 16393      656500
 16394              	.LASF976:
 16395 0385 55426173 	 .ascii "UBaseType_t\000"
ARM GAS   			page 304


 16395      65547970 
 16395      655F7400 
 16396              	.LASF731:
 16397 0391 5F5F676E 	 .ascii "__gnu_cxx\000"
 16397      755F6378 
 16397      7800
 16398              	.LASF1075:
 16399 039b 7072696F 	 .ascii "prio\000"
 16399      00
 16400              	.LASF744:
 16401 03a0 5F5A4E39 	 .ascii "_ZN9__gnu_cxx13new_allocatorIcE10deallocateEPcj\000"
 16401      5F5F676E 
 16401      755F6378 
 16401      7831336E 
 16401      65775F61 
 16402              	.LASF389:
 16403 03d0 5F5A4E4B 	 .ascii "_ZNKSt7__cxx1112basic_stringIcSt11char_traitsIcESaI"
 16403      5374375F 
 16403      5F637878 
 16403      31313132 
 16403      62617369 
 16404 0403 63454535 	 .ascii "cEE5rfindERKS4_j\000"
 16404      7266696E 
 16404      6445524B 
 16404      53345F6A 
 16404      00
 16405              	.LASF347:
 16406 0414 5F5A4E53 	 .ascii "_ZNSt7__cxx1112basic_stringIcSt11char_traitsIcESaIc"
 16406      74375F5F 
 16406      63787831 
 16406      31313262 
 16406      61736963 
 16407 0447 45453565 	 .ascii "EE5eraseEjj\000"
 16407      72617365 
 16407      456A6A00 
 16408              	.LASF508:
 16409 0453 5F5A5374 	 .ascii "_ZSt5isnanf\000"
 16409      3569736E 
 16409      616E6600 
 16410              	.LASF768:
 16411 045f 5F5A4E53 	 .ascii "_ZNSt7__cxx1112basic_stringIcSt11char_traitsIcESaIc"
 16411      74375F5F 
 16411      63787831 
 16411      31313262 
 16411      61736963 
 16412 0492 45454334 	 .ascii "EEC4ERKS3_\000"
 16412      45524B53 
 16412      335F00
 16413              	.LASF53:
 16414 049d 5F5F746D 	 .ascii "__tm_mon\000"
 16414      5F6D6F6E 
 16414      00
 16415              	.LASF61:
 16416 04a6 5F666E74 	 .ascii "_fntypes\000"
 16416      79706573 
 16416      00
 16417              	.LASF437:
ARM GAS   			page 305


 16418 04af 5F5A5374 	 .ascii "_ZSt4asine\000"
 16418      34617369 
 16418      6E6500
 16419              	.LASF438:
 16420 04ba 5F5A5374 	 .ascii "_ZSt4asinf\000"
 16420      34617369 
 16420      6E6600
 16421              	.LASF729:
 16422 04c5 69746572 	 .ascii "iterator_traits<char const*>\000"
 16422      61746F72 
 16422      5F747261 
 16422      6974733C 
 16422      63686172 
 16423              	.LASF197:
 16424 04e2 5F5A4E53 	 .ascii "_ZNSt7__cxx1112basic_stringIcSt11char_traitsIcESaIc"
 16424      74375F5F 
 16424      63787831 
 16424      31313262 
 16424      61736963 
 16425 0515 4545395F 	 .ascii "EE9_M_createERjj\000"
 16425      4D5F6372 
 16425      65617465 
 16425      45526A6A 
 16425      00
 16426              	.LASF113:
 16427 0526 5F696E63 	 .ascii "_inc\000"
 16427      00
 16428              	.LASF64:
 16429 052b 5F696E64 	 .ascii "_ind\000"
 16429      00
 16430              	.LASF537:
 16431 0530 6973756E 	 .ascii "isunordered\000"
 16431      6F726465 
 16431      72656400 
 16432              	.LASF293:
 16433 053c 63617061 	 .ascii "capacity\000"
 16433      63697479 
 16433      00
 16434              	.LASF669:
 16435 0545 5F5F6465 	 .ascii "__debug\000"
 16435      62756700 
 16436              	.LASF167:
 16437 054d 696E745F 	 .ascii "int_fast32_t\000"
 16437      66617374 
 16437      33325F74 
 16437      00
 16438              	.LASF477:
 16439 055a 5F5A5374 	 .ascii "_ZSt3powff\000"
 16439      33706F77 
 16439      666600
 16440              	.LASF517:
 16441 0565 69736772 	 .ascii "isgreater\000"
 16441      65617465 
 16441      7200
 16442              	.LASF468:
 16443 056f 5F5A5374 	 .ascii "_ZSt3loge\000"
 16443      336C6F67 
ARM GAS   			page 306


 16443      6500
 16444              	.LASF469:
 16445 0579 5F5A5374 	 .ascii "_ZSt3logf\000"
 16445      336C6F67 
 16445      6600
 16446              	.LASF952:
 16447 0583 66656F66 	 .ascii "feof\000"
 16447      00
 16448              	.LASF144:
 16449 0588 75696E74 	 .ascii "uint16_t\000"
 16449      31365F74 
 16449      00
 16450              	.LASF248:
 16451 0591 5F5A4E53 	 .ascii "_ZNSt7__cxx1112basic_stringIcSt11char_traitsIcESaIc"
 16451      74375F5F 
 16451      63787831 
 16451      31313262 
 16451      61736963 
 16452 05c4 45454334 	 .ascii "EEC4EjcRKS3_\000"
 16452      456A6352 
 16452      4B53335F 
 16452      00
 16453              	.LASF1002:
 16454 05d1 4D736754 	 .ascii "MsgType\000"
 16454      79706500 
 16455              	.LASF778:
 16456 05d9 5F5A4E39 	 .ascii "_ZN9__gnu_cxx17__normal_iteratorIPcNSt7__cxx1112bas"
 16456      5F5F676E 
 16456      755F6378 
 16456      7831375F 
 16456      5F6E6F72 
 16457 060c 69635F73 	 .ascii "ic_stringIcSt11char_traitsIcESaIcEEEEmmEv\000"
 16457      7472696E 
 16457      67496353 
 16457      74313163 
 16457      6861725F 
 16458              	.LASF172:
 16459 0636 5F5A4E53 	 .ascii "_ZNSt7__cxx1112basic_stringIcSt11char_traitsIcESaIc"
 16459      74375F5F 
 16459      63787831 
 16459      31313262 
 16459      61736963 
 16460 0669 45453132 	 .ascii "EE12_Alloc_hiderC4EPcRKS3_\000"
 16460      5F416C6C 
 16460      6F635F68 
 16460      69646572 
 16460      43344550 
 16461              	.LASF242:
 16462 0684 5F5A4E53 	 .ascii "_ZNSt7__cxx1112basic_stringIcSt11char_traitsIcESaIc"
 16462      74375F5F 
 16462      63787831 
 16462      31313262 
 16462      61736963 
 16463 06b7 45454334 	 .ascii "EEC4ERKS4_\000"
 16463      45524B53 
 16463      345F00
 16464              	.LASF260:
ARM GAS   			page 307


 16465 06c2 5F5A4E53 	 .ascii "_ZNSt7__cxx1112basic_stringIcSt11char_traitsIcESaIc"
 16465      74375F5F 
 16465      63787831 
 16465      31313262 
 16465      61736963 
 16466 06f5 45456153 	 .ascii "EEaSESt16initializer_listIcE\000"
 16466      45537431 
 16466      36696E69 
 16466      7469616C 
 16466      697A6572 
 16467              	.LASF70:
 16468 0712 5F666C61 	 .ascii "_flags\000"
 16468      677300
 16469              	.LASF513:
 16470 0719 7369676E 	 .ascii "signbit\000"
 16470      62697400 
 16471              	.LASF186:
 16472 0721 5F4D5F6C 	 .ascii "_M_local_data\000"
 16472      6F63616C 
 16472      5F646174 
 16472      6100
 16473              	.LASF810:
 16474 072f 666C6F61 	 .ascii "float_t\000"
 16474      745F7400 
 16475              	.LASF284:
 16476 0737 6C656E67 	 .ascii "length\000"
 16476      746800
 16477              	.LASF991:
 16478 073e 5F5A4E31 	 .ascii "_ZN12cpp_freertos5Deque14EnqueueToFrontEPvm\000"
 16478      32637070 
 16478      5F667265 
 16478      6572746F 
 16478      73354465 
 16479              	.LASF569:
 16480 076a 5F5A5374 	 .ascii "_ZSt4fdimff\000"
 16480      34666469 
 16480      6D666600 
 16481              	.LASF123:
 16482 0776 5F637674 	 .ascii "_cvtlen\000"
 16482      6C656E00 
 16483              	.LASF938:
 16484 077e 73747274 	 .ascii "strtod\000"
 16484      6F6400
 16485              	.LASF188:
 16486 0785 636F6E73 	 .ascii "const_pointer\000"
 16486      745F706F 
 16486      696E7465 
 16486      7200
 16487              	.LASF948:
 16488 0793 73747274 	 .ascii "strtof\000"
 16488      6F6600
 16489              	.LASF1050:
 16490 079a 5F5A4E4B 	 .ascii "_ZNK7StdTaak8geefTypeEv\000"
 16490      37537464 
 16490      5461616B 
 16490      38676565 
 16490      66547970 
ARM GAS   			page 308


 16491              	.LASF127:
 16492 07b2 5F736967 	 .ascii "_sig_func\000"
 16492      5F66756E 
 16492      6300
 16493              	.LASF408:
 16494 07bc 66696E64 	 .ascii "find_last_not_of\000"
 16494      5F6C6173 
 16494      745F6E6F 
 16494      745F6F66 
 16494      00
 16495              	.LASF939:
 16496 07cd 73747274 	 .ascii "strtol\000"
 16496      6F6C00
 16497              	.LASF213:
 16498 07d4 5F4D5F63 	 .ascii "_M_check_length\000"
 16498      6865636B 
 16498      5F6C656E 
 16498      67746800 
 16499              	.LASF292:
 16500 07e4 5F5A4E53 	 .ascii "_ZNSt7__cxx1112basic_stringIcSt11char_traitsIcESaIc"
 16500      74375F5F 
 16500      63787831 
 16500      31313262 
 16500      61736963 
 16501 0817 45453133 	 .ascii "EE13shrink_to_fitEv\000"
 16501      73687269 
 16501      6E6B5F74 
 16501      6F5F6669 
 16501      74457600 
 16502              	.LASF334:
 16503 082b 5F5A4E53 	 .ascii "_ZNSt7__cxx1112basic_stringIcSt11char_traitsIcESaIc"
 16503      74375F5F 
 16503      63787831 
 16503      31313262 
 16503      61736963 
 16504 085e 45453661 	 .ascii "EE6assignEjc\000"
 16504      73736967 
 16504      6E456A63 
 16504      00
 16505              	.LASF1024:
 16506 086b 7A656E64 	 .ascii "zender\000"
 16506      657200
 16507              	.LASF168:
 16508 0872 75696E74 	 .ascii "uint_fast32_t\000"
 16508      5F666173 
 16508      7433325F 
 16508      7400
 16509              	.LASF899:
 16510 0880 67726F75 	 .ascii "grouping\000"
 16510      70696E67 
 16510      00
 16511              	.LASF83:
 16512 0889 5F6C6F63 	 .ascii "_lock\000"
 16512      6B00
 16513              	.LASF79:
 16514 088f 5F6E6275 	 .ascii "_nbuf\000"
 16514      6600
ARM GAS   			page 309


 16515              	.LASF250:
 16516 0895 5F5A4E53 	 .ascii "_ZNSt7__cxx1112basic_stringIcSt11char_traitsIcESaIc"
 16516      74375F5F 
 16516      63787831 
 16516      31313262 
 16516      61736963 
 16517 08c8 45454334 	 .ascii "EEC4ESt16initializer_listIcERKS3_\000"
 16517      45537431 
 16517      36696E69 
 16517      7469616C 
 16517      697A6572 
 16518              	.LASF108:
 16519 08ea 5F756E75 	 .ascii "_unused\000"
 16519      73656400 
 16520              	.LASF743:
 16521 08f2 5F5A4E39 	 .ascii "_ZN9__gnu_cxx13new_allocatorIcE8allocateEjPKv\000"
 16521      5F5F676E 
 16521      755F6378 
 16521      7831336E 
 16521      65775F61 
 16522              	.LASF894:
 16523 0920 77637374 	 .ascii "wcstoll\000"
 16523      6F6C6C00 
 16524              	.LASF1018:
 16525 0928 67656566 	 .ascii "geefType\000"
 16525      54797065 
 16525      00
 16526              	.LASF718:
 16527 0931 5F5A4E4B 	 .ascii "_ZNKSt16initializer_listIcE4sizeEv\000"
 16527      53743136 
 16527      696E6974 
 16527      69616C69 
 16527      7A65725F 
 16528              	.LASF760:
 16529 0954 5F5A4E39 	 .ascii "_ZN9__gnu_cxx14__alloc_traitsISaIcEcE15_S_always_eq"
 16529      5F5F676E 
 16529      755F6378 
 16529      7831345F 
 16529      5F616C6C 
 16530 0987 75616C45 	 .ascii "ualEv\000"
 16530      7600
 16531              	.LASF660:
 16532 098d 6F706572 	 .ascii "operator bool\000"
 16532      61746F72 
 16532      20626F6F 
 16532      6C00
 16533              	.LASF199:
 16534 099b 5F5A4E53 	 .ascii "_ZNSt7__cxx1112basic_stringIcSt11char_traitsIcESaIc"
 16534      74375F5F 
 16534      63787831 
 16534      31313262 
 16534      61736963 
 16535 09ce 45453130 	 .ascii "EE10_M_disposeEv\000"
 16535      5F4D5F64 
 16535      6973706F 
 16535      73654576 
 16535      00
ARM GAS   			page 310


 16536              	.LASF286:
 16537 09df 6D61785F 	 .ascii "max_size\000"
 16537      73697A65 
 16537      00
 16538              	.LASF552:
 16539 09e8 5F5A5374 	 .ascii "_ZSt4cbrtf\000"
 16539      34636272 
 16539      746600
 16540              	.LASF821:
 16541 09f3 626F6F6C 	 .ascii "bool\000"
 16541      00
 16542              	.LASF999:
 16543 09f8 5461616B 	 .ascii "Taak2\000"
 16543      3200
 16544              	.LASF1087:
 16545 09fe 433A5C55 	 .ascii "C:\\Users\\niels\\Documents\\GitHub\\DSP\\software\\"
 16545      73657273 
 16545      5C6E6965 
 16545      6C735C44 
 16545      6F63756D 
 16546 0a2b 6F706472 	 .ascii "opdracht5\\CLion\\Debug\\ESE_FreeRTOS\000"
 16546      61636874 
 16546      355C434C 
 16546      696F6E5C 
 16546      44656275 
 16547              	.LASF927:
 16548 0a4e 61746F69 	 .ascii "atoi\000"
 16548      00
 16549              	.LASF807:
 16550 0a53 5F5A4E4B 	 .ascii "_ZNK9__gnu_cxx17__normal_iteratorIPKcNSt7__cxx1112b"
 16550      395F5F67 
 16550      6E755F63 
 16550      78783137 
 16550      5F5F6E6F 
 16551 0a86 61736963 	 .ascii "asic_stringIcSt11char_traitsIcESaIcEEEE4baseEv\000"
 16551      5F737472 
 16551      696E6749 
 16551      63537431 
 16551      31636861 
 16552              	.LASF174:
 16553 0ab5 5F4D5F70 	 .ascii "_M_p\000"
 16553      00
 16554              	.LASF872:
 16555 0aba 7763736E 	 .ascii "wcsncpy\000"
 16555      63707900 
 16556              	.LASF874:
 16557 0ac2 77637373 	 .ascii "wcsspn\000"
 16557      706E00
 16558              	.LASF333:
 16559 0ac9 5F5A4E53 	 .ascii "_ZNSt7__cxx1112basic_stringIcSt11char_traitsIcESaIc"
 16559      74375F5F 
 16559      63787831 
 16559      31313262 
 16559      61736963 
 16560 0afc 45453661 	 .ascii "EE6assignEPKc\000"
 16560      73736967 
 16560      6E45504B 
ARM GAS   			page 311


 16560      6300
 16561              	.LASF220:
 16562 0b0a 5F535F6D 	 .ascii "_S_move\000"
 16562      6F766500 
 16563              	.LASF582:
 16564 0b12 5F5A5374 	 .ascii "_ZSt5ilogbe\000"
 16564      35696C6F 
 16564      67626500 
 16565              	.LASF583:
 16566 0b1e 5F5A5374 	 .ascii "_ZSt5ilogbf\000"
 16566      35696C6F 
 16566      67626600 
 16567              	.LASF1059:
 16568 0b2a 74616B65 	 .ascii "takenIndex\000"
 16568      6E496E64 
 16568      657800
 16569              	.LASF353:
 16570 0b35 5F5A4E53 	 .ascii "_ZNSt7__cxx1112basic_stringIcSt11char_traitsIcESaIc"
 16570      74375F5F 
 16570      63787831 
 16570      31313262 
 16570      61736963 
 16571 0b68 45453772 	 .ascii "EE7replaceEjjRKS4_\000"
 16571      65706C61 
 16571      6365456A 
 16571      6A524B53 
 16571      345F00
 16572              	.LASF278:
 16573 0b7b 63726265 	 .ascii "crbegin\000"
 16573      67696E00 
 16574              	.LASF737:
 16575 0b83 5F5A4E39 	 .ascii "_ZN9__gnu_cxx13new_allocatorIcEC4ERKS1_\000"
 16575      5F5F676E 
 16575      755F6378 
 16575      7831336E 
 16575      65775F61 
 16576              	.LASF982:
 16577 0bab 47657450 	 .ascii "GetPriority\000"
 16577      72696F72 
 16577      69747900 
 16578              	.LASF1006:
 16579 0bb7 53746172 	 .ascii "StartStopGedrukt\000"
 16579      7453746F 
 16579      70476564 
 16579      72756B74 
 16579      00
 16580              	.LASF145:
 16581 0bc8 696E7433 	 .ascii "int32_t\000"
 16581      325F7400 
 16582              	.LASF149:
 16583 0bd0 696E746D 	 .ascii "intmax_t\000"
 16583      61785F74 
 16583      00
 16584              	.LASF511:
 16585 0bd9 5F5A5374 	 .ascii "_ZSt8isnormald\000"
 16585      3869736E 
 16585      6F726D61 
ARM GAS   			page 312


 16585      6C6400
 16586              	.LASF510:
 16587 0be8 5F5A5374 	 .ascii "_ZSt8isnormale\000"
 16587      3869736E 
 16587      6F726D61 
 16587      6C6500
 16588              	.LASF138:
 16589 0bf7 5F616464 	 .ascii "_add\000"
 16589      00
 16590              	.LASF332:
 16591 0bfc 5F5A4E53 	 .ascii "_ZNSt7__cxx1112basic_stringIcSt11char_traitsIcESaIc"
 16591      74375F5F 
 16591      63787831 
 16591      31313262 
 16591      61736963 
 16592 0c2f 45453661 	 .ascii "EE6assignEPKcj\000"
 16592      73736967 
 16592      6E45504B 
 16592      636A00
 16593              	.LASF203:
 16594 0c3e 5F4D5F63 	 .ascii "_M_construct\000"
 16594      6F6E7374 
 16594      72756374 
 16594      00
 16595              	.LASF900:
 16596 0c4b 696E745F 	 .ascii "int_curr_symbol\000"
 16596      63757272 
 16596      5F73796D 
 16596      626F6C00 
 16597              	.LASF636:
 16598 0c5b 5F5A5374 	 .ascii "_ZSt6tgammae\000"
 16598      36746761 
 16598      6D6D6165 
 16598      00
 16599              	.LASF637:
 16600 0c68 5F5A5374 	 .ascii "_ZSt6tgammaf\000"
 16600      36746761 
 16600      6D6D6166 
 16600      00
 16601              	.LASF695:
 16602 0c75 5F5A4E53 	 .ascii "_ZNSaIcEC4ERKS_\000"
 16602      61496345 
 16602      43344552 
 16602      4B535F00 
 16603              	.LASF325:
 16604 0c85 5F5A4E53 	 .ascii "_ZNSt7__cxx1112basic_stringIcSt11char_traitsIcESaIc"
 16604      74375F5F 
 16604      63787831 
 16604      31313262 
 16604      61736963 
 16605 0cb8 45453661 	 .ascii "EE6appendESt16initializer_listIcE\000"
 16605      7070656E 
 16605      64455374 
 16605      3136696E 
 16605      69746961 
 16606              	.LASF990:
 16607 0cda 456E7175 	 .ascii "EnqueueToFront\000"
ARM GAS   			page 313


 16607      65756554 
 16607      6F46726F 
 16607      6E7400
 16608              	.LASF921:
 16609 0ce9 7365746C 	 .ascii "setlocale\000"
 16609      6F63616C 
 16609      6500
 16610              	.LASF150:
 16611 0cf3 75696E74 	 .ascii "uintmax_t\000"
 16611      6D61785F 
 16611      7400
 16612              	.LASF419:
 16613 0cfd 5F5A4E4B 	 .ascii "_ZNKSt7__cxx1112basic_stringIcSt11char_traitsIcESaI"
 16613      5374375F 
 16613      5F637878 
 16613      31313132 
 16613      62617369 
 16614 0d30 63454537 	 .ascii "cEE7compareEPKc\000"
 16614      636F6D70 
 16614      61726545 
 16614      504B6300 
 16615              	.LASF677:
 16616 0d40 5F5A4E53 	 .ascii "_ZNSt11char_traitsIcE4findEPKcjRS1_\000"
 16616      74313163 
 16616      6861725F 
 16616      74726169 
 16616      74734963 
 16617              	.LASF212:
 16618 0d64 5F5A4E4B 	 .ascii "_ZNKSt7__cxx1112basic_stringIcSt11char_traitsIcESaI"
 16618      5374375F 
 16618      5F637878 
 16618      31313132 
 16618      62617369 
 16619 0d97 63454538 	 .ascii "cEE8_M_checkEjPKc\000"
 16619      5F4D5F63 
 16619      6865636B 
 16619      456A504B 
 16619      6300
 16620              	.LASF396:
 16621 0da9 5F5A4E4B 	 .ascii "_ZNKSt7__cxx1112basic_stringIcSt11char_traitsIcESaI"
 16621      5374375F 
 16621      5F637878 
 16621      31313132 
 16621      62617369 
 16622 0ddc 63454531 	 .ascii "cEE13find_first_ofEPKcj\000"
 16622      3366696E 
 16622      645F6669 
 16622      7273745F 
 16622      6F664550 
 16623              	.LASF352:
 16624 0df4 7265706C 	 .ascii "replace\000"
 16624      61636500 
 16625              	.LASF374:
 16626 0dfc 5F5A4E4B 	 .ascii "_ZNKSt7__cxx1112basic_stringIcSt11char_traitsIcESaI"
 16626      5374375F 
 16626      5F637878 
 16626      31313132 
ARM GAS   			page 314


 16626      62617369 
 16627 0e2f 63454534 	 .ascii "cEE4copyEPcjj\000"
 16627      636F7079 
 16627      4550636A 
 16627      6A00
 16628              	.LASF397:
 16629 0e3d 5F5A4E4B 	 .ascii "_ZNKSt7__cxx1112basic_stringIcSt11char_traitsIcESaI"
 16629      5374375F 
 16629      5F637878 
 16629      31313132 
 16629      62617369 
 16630 0e70 63454531 	 .ascii "cEE13find_first_ofEcj\000"
 16630      3366696E 
 16630      645F6669 
 16630      7273745F 
 16630      6F664563 
 16631              	.LASF624:
 16632 0e86 5F5A5374 	 .ascii "_ZSt4rinte\000"
 16632      3472696E 
 16632      746500
 16633              	.LASF625:
 16634 0e91 5F5A5374 	 .ascii "_ZSt4rintf\000"
 16634      3472696E 
 16634      746600
 16635              	.LASF21:
 16636 0e9c 5F5F7569 	 .ascii "__uint_least32_t\000"
 16636      6E745F6C 
 16636      65617374 
 16636      33325F74 
 16636      00
 16637              	.LASF72:
 16638 0ead 5F6C6266 	 .ascii "_lbfsize\000"
 16638      73697A65 
 16638      00
 16639              	.LASF632:
 16640 0eb6 7363616C 	 .ascii "scalbn\000"
 16640      626E00
 16641              	.LASF275:
 16642 0ebd 5F5A4E4B 	 .ascii "_ZNKSt7__cxx1112basic_stringIcSt11char_traitsIcESaI"
 16642      5374375F 
 16642      5F637878 
 16642      31313132 
 16642      62617369 
 16643 0ef0 63454536 	 .ascii "cEE6cbeginEv\000"
 16643      63626567 
 16643      696E4576 
 16643      00
 16644              	.LASF282:
 16645 0efd 73697A65 	 .ascii "size\000"
 16645      00
 16646              	.LASF249:
 16647 0f02 5F5A4E53 	 .ascii "_ZNSt7__cxx1112basic_stringIcSt11char_traitsIcESaIc"
 16647      74375F5F 
 16647      63787831 
 16647      31313262 
 16647      61736963 
 16648 0f35 45454334 	 .ascii "EEC4EOS4_\000"
ARM GAS   			page 315


 16648      454F5334 
 16648      5F00
 16649              	.LASF996:
 16650 0f3f 466F7574 	 .ascii "FoutCode\000"
 16650      436F6465 
 16650      00
 16651              	.LASF710:
 16652 0f48 76616C75 	 .ascii "value_type\000"
 16652      655F7479 
 16652      706500
 16653              	.LASF161:
 16654 0f53 696E745F 	 .ascii "int_least64_t\000"
 16654      6C656173 
 16654      7436345F 
 16654      7400
 16655              	.LASF1098:
 16656 0f61 5F5A4E37 	 .ascii "_ZN7StdTaak10takenIndexE\000"
 16656      53746454 
 16656      61616B31 
 16656      3074616B 
 16656      656E496E 
 16657              	.LASF943:
 16658 0f7a 7763746F 	 .ascii "wctomb\000"
 16658      6D6200
 16659              	.LASF165:
 16660 0f81 696E745F 	 .ascii "int_fast16_t\000"
 16660      66617374 
 16660      31365F74 
 16660      00
 16661              	.LASF503:
 16662 0f8e 5F5A5374 	 .ascii "_ZSt5isinfd\000"
 16662      35697369 
 16662      6E666400 
 16663              	.LASF502:
 16664 0f9a 5F5A5374 	 .ascii "_ZSt5isinfe\000"
 16664      35697369 
 16664      6E666500 
 16665              	.LASF504:
 16666 0fa6 5F5A5374 	 .ascii "_ZSt5isinff\000"
 16666      35697369 
 16666      6E666600 
 16667              	.LASF82:
 16668 0fb2 5F646174 	 .ascii "_data\000"
 16668      6100
 16669              	.LASF515:
 16670 0fb8 5F5A5374 	 .ascii "_ZSt7signbitd\000"
 16670      37736967 
 16670      6E626974 
 16670      6400
 16671              	.LASF364:
 16672 0fc6 5F5A4E53 	 .ascii "_ZNSt7__cxx1112basic_stringIcSt11char_traitsIcESaIc"
 16672      74375F5F 
 16672      63787831 
 16672      31313262 
 16672      61736963 
 16673 0ff9 45453772 	 .ascii "EE7replaceEN9__gnu_cxx17__normal_iteratorIPKcS4_EES"
 16673      65706C61 
ARM GAS   			page 316


 16673      6365454E 
 16673      395F5F67 
 16673      6E755F63 
 16674 102c 395F4E53 	 .ascii "9_NS6_IPcS4_EESB_\000"
 16674      365F4950 
 16674      6353345F 
 16674      45455342 
 16674      5F00
 16675              	.LASF516:
 16676 103e 5F5A5374 	 .ascii "_ZSt7signbitf\000"
 16676      37736967 
 16676      6E626974 
 16676      6600
 16677              	.LASF688:
 16678 104c 5F5A4E53 	 .ascii "_ZNSt11char_traitsIcE11eq_int_typeERKiS2_\000"
 16678      74313163 
 16678      6861725F 
 16678      74726169 
 16678      74734963 
 16679              	.LASF279:
 16680 1076 5F5A4E4B 	 .ascii "_ZNKSt7__cxx1112basic_stringIcSt11char_traitsIcESaI"
 16680      5374375F 
 16680      5F637878 
 16680      31313132 
 16680      62617369 
 16681 10a9 63454537 	 .ascii "cEE7crbeginEv\000"
 16681      63726265 
 16681      67696E45 
 16681      7600
 16682              	.LASF750:
 16683 10b7 5F535F73 	 .ascii "_S_select_on_copy\000"
 16683      656C6563 
 16683      745F6F6E 
 16683      5F636F70 
 16683      7900
 16684              	.LASF1076:
 16685 10c9 696E6465 	 .ascii "index\000"
 16685      7800
 16686              	.LASF926:
 16687 10cf 61746F66 	 .ascii "atof\000"
 16687      00
 16688              	.LASF416:
 16689 10d4 5F5A4E4B 	 .ascii "_ZNKSt7__cxx1112basic_stringIcSt11char_traitsIcESaI"
 16689      5374375F 
 16689      5F637878 
 16689      31313132 
 16689      62617369 
 16690 1107 63454537 	 .ascii "cEE7compareERKS4_\000"
 16690      636F6D70 
 16690      61726545 
 16690      524B5334 
 16690      5F00
 16691              	.LASF196:
 16692 1119 5F4D5F63 	 .ascii "_M_create\000"
 16692      72656174 
 16692      6500
 16693              	.LASF796:
ARM GAS   			page 317


 16694 1123 5F5A4E4B 	 .ascii "_ZNK9__gnu_cxx17__normal_iteratorIPKcNSt7__cxx1112b"
 16694      395F5F67 
 16694      6E755F63 
 16694      78783137 
 16694      5F5F6E6F 
 16695 1156 61736963 	 .ascii "asic_stringIcSt11char_traitsIcESaIcEEEEdeEv\000"
 16695      5F737472 
 16695      696E6749 
 16695      63537431 
 16695      31636861 
 16696              	.LASF139:
 16697 1182 5F5F6C6F 	 .ascii "__lock\000"
 16697      636B00
 16698              	.LASF680:
 16699 1189 5F5A4E53 	 .ascii "_ZNSt11char_traitsIcE4copyEPcPKcj\000"
 16699      74313163 
 16699      6861725F 
 16699      74726169 
 16699      74734963 
 16700              	.LASF86:
 16701 11ab 5F726565 	 .ascii "_reent\000"
 16701      6E7400
 16702              	.LASF928:
 16703 11b2 61746F6C 	 .ascii "atol\000"
 16703      00
 16704              	.LASF639:
 16705 11b7 5F5A5374 	 .ascii "_ZSt5trunce\000"
 16705      35747275 
 16705      6E636500 
 16706              	.LASF640:
 16707 11c3 5F5A5374 	 .ascii "_ZSt5truncf\000"
 16707      35747275 
 16707      6E636600 
 16708              	.LASF649:
 16709 11cf 5F5A4E4B 	 .ascii "_ZNKSt15__exception_ptr13exception_ptr6_M_getEv\000"
 16709      53743135 
 16709      5F5F6578 
 16709      63657074 
 16709      696F6E5F 
 16710              	.LASF499:
 16711 11ff 5F5A5374 	 .ascii "_ZSt8isfinited\000"
 16711      38697366 
 16711      696E6974 
 16711      656400
 16712              	.LASF498:
 16713 120e 5F5A5374 	 .ascii "_ZSt8isfinitee\000"
 16713      38697366 
 16713      696E6974 
 16713      656500
 16714              	.LASF500:
 16715 121d 5F5A5374 	 .ascii "_ZSt8isfinitef\000"
 16715      38697366 
 16715      696E6974 
 16715      656600
 16716              	.LASF208:
 16717 122c 5F4D5F67 	 .ascii "_M_get_allocator\000"
 16717      65745F61 
ARM GAS   			page 318


 16717      6C6C6F63 
 16717      61746F72 
 16717      00
 16718              	.LASF1054:
 16719 123d 5F5A4E37 	 .ascii "_ZN7StdTaak11aantalTicksEm\000"
 16719      53746454 
 16719      61616B31 
 16719      3161616E 
 16719      74616C54 
 16720              	.LASF129:
 16721 1258 5F5F7366 	 .ascii "__sf\000"
 16721      00
 16722              	.LASF171:
 16723 125d 5F416C6C 	 .ascii "_Alloc_hider\000"
 16723      6F635F68 
 16723      69646572 
 16723      00
 16724              	.LASF67:
 16725 126a 5F626173 	 .ascii "_base\000"
 16725      6500
 16726              	.LASF891:
 16727 1270 77637373 	 .ascii "wcsstr\000"
 16727      747200
 16728              	.LASF1043:
 16729 1277 5F5A4E37 	 .ascii "_ZN7StdTaak10registreerEPS_8TaakPrio\000"
 16729      53746454 
 16729      61616B31 
 16729      30726567 
 16729      69737472 
 16730              	.LASF959:
 16731 129c 66726561 	 .ascii "fread\000"
 16731      6400
 16732              	.LASF907:
 16733 12a2 696E745F 	 .ascii "int_frac_digits\000"
 16733      66726163 
 16733      5F646967 
 16733      69747300 
 16734              	.LASF95:
 16735 12b2 5F6D6274 	 .ascii "_mbtowc_state\000"
 16735      6F77635F 
 16735      73746174 
 16735      6500
 16736              	.LASF426:
 16737 12c0 5F5F6973 	 .ascii "__is_integer<double>\000"
 16737      5F696E74 
 16737      65676572 
 16737      3C646F75 
 16737      626C653E 
 16738              	.LASF200:
 16739 12d5 5F4D5F64 	 .ascii "_M_destroy\000"
 16739      65737472 
 16739      6F7900
 16740              	.LASF600:
 16741 12e0 5F5A5374 	 .ascii "_ZSt4logbe\000"
 16741      346C6F67 
 16741      626500
 16742              	.LASF601:
ARM GAS   			page 319


 16743 12eb 5F5A5374 	 .ascii "_ZSt4logbf\000"
 16743      346C6F67 
 16743      626600
 16744              	.LASF898:
 16745 12f6 74686F75 	 .ascii "thousands_sep\000"
 16745      73616E64 
 16745      735F7365 
 16745      7000
 16746              	.LASF1057:
 16747 1304 6E696575 	 .ascii "nieuwBericht\000"
 16747      77426572 
 16747      69636874 
 16747      00
 16748              	.LASF388:
 16749 1311 7266696E 	 .ascii "rfind\000"
 16749      6400
 16750              	.LASF771:
 16751 1317 5F5A4E4B 	 .ascii "_ZNK9__gnu_cxx17__normal_iteratorIPcNSt7__cxx1112ba"
 16751      395F5F67 
 16751      6E755F63 
 16751      78783137 
 16751      5F5F6E6F 
 16752 134a 7369635F 	 .ascii "sic_stringIcSt11char_traitsIcESaIcEEEEdeEv\000"
 16752      73747269 
 16752      6E674963 
 16752      53743131 
 16752      63686172 
 16753              	.LASF1040:
 16754 1375 77616368 	 .ascii "wacht\000"
 16754      7400
 16755              	.LASF957:
 16756 137b 66676574 	 .ascii "fgets\000"
 16756      7300
 16757              	.LASF875:
 16758 1381 77637374 	 .ascii "wcstod\000"
 16758      6F6400
 16759              	.LASF25:
 16760 1388 5F5F7569 	 .ascii "__uintmax_t\000"
 16760      6E746D61 
 16760      785F7400 
 16761              	.LASF876:
 16762 1394 77637374 	 .ascii "wcstof\000"
 16762      6F6600
 16763              	.LASF338:
 16764 139b 5F5A4E53 	 .ascii "_ZNSt7__cxx1112basic_stringIcSt11char_traitsIcESaIc"
 16764      74375F5F 
 16764      63787831 
 16764      31313262 
 16764      61736963 
 16765 13ce 45453669 	 .ascii "EE6insertEN9__gnu_cxx17__normal_iteratorIPKcS4_EESt"
 16765      6E736572 
 16765      74454E39 
 16765      5F5F676E 
 16765      755F6378 
 16766 1401 3136696E 	 .ascii "16initializer_listIcE\000"
 16766      69746961 
 16766      6C697A65 
ARM GAS   			page 320


 16766      725F6C69 
 16766      73744963 
 16767              	.LASF877:
 16768 1417 77637374 	 .ascii "wcstok\000"
 16768      6F6B00
 16769              	.LASF878:
 16770 141e 77637374 	 .ascii "wcstol\000"
 16770      6F6C00
 16771              	.LASF960:
 16772 1425 6672656F 	 .ascii "freopen\000"
 16772      70656E00 
 16773              	.LASF48:
 16774 142d 5F5F746D 	 .ascii "__tm\000"
 16774      00
 16775              	.LASF309:
 16776 1432 5F5A4E53 	 .ascii "_ZNSt7__cxx1112basic_stringIcSt11char_traitsIcESaIc"
 16776      74375F5F 
 16776      63787831 
 16776      31313262 
 16776      61736963 
 16777 1465 45453566 	 .ascii "EE5frontEv\000"
 16777      726F6E74 
 16777      457600
 16778              	.LASF257:
 16779 1470 5F5A4E53 	 .ascii "_ZNSt7__cxx1112basic_stringIcSt11char_traitsIcESaIc"
 16779      74375F5F 
 16779      63787831 
 16779      31313262 
 16779      61736963 
 16780 14a3 45456153 	 .ascii "EEaSEPKc\000"
 16780      45504B63 
 16780      00
 16781              	.LASF214:
 16782 14ac 5F5A4E4B 	 .ascii "_ZNKSt7__cxx1112basic_stringIcSt11char_traitsIcESaI"
 16782      5374375F 
 16782      5F637878 
 16782      31313132 
 16782      62617369 
 16783 14df 63454531 	 .ascii "cEE15_M_check_lengthEjjPKc\000"
 16783      355F4D5F 
 16783      63686563 
 16783      6B5F6C65 
 16783      6E677468 
 16784              	.LASF219:
 16785 14fa 5F535F63 	 .ascii "_S_copy\000"
 16785      6F707900 
 16786              	.LASF358:
 16787 1502 5F5A4E53 	 .ascii "_ZNSt7__cxx1112basic_stringIcSt11char_traitsIcESaIc"
 16787      74375F5F 
 16787      63787831 
 16787      31313262 
 16787      61736963 
 16788 1535 45453772 	 .ascii "EE7replaceEN9__gnu_cxx17__normal_iteratorIPKcS4_EES"
 16788      65706C61 
 16788      6365454E 
 16788      395F5F67 
 16788      6E755F63 
ARM GAS   			page 321


 16789 1568 395F524B 	 .ascii "9_RKS4_\000"
 16789      53345F00 
 16790              	.LASF1010:
 16791 1570 56657262 	 .ascii "VerbindingLosgemaakt\000"
 16791      696E6469 
 16791      6E674C6F 
 16791      7367656D 
 16791      61616B74 
 16792              	.LASF501:
 16793 1585 6973696E 	 .ascii "isinf\000"
 16793      6600
 16794              	.LASF832:
 16795 158b 54656C6C 	 .ascii "Teller\000"
 16795      657200
 16796              	.LASF944:
 16797 1592 6C6C6469 	 .ascii "lldiv\000"
 16797      7600
 16798              	.LASF56:
 16799 1598 5F5F746D 	 .ascii "__tm_yday\000"
 16799      5F796461 
 16799      7900
 16800              	.LASF258:
 16801 15a2 5F5A4E53 	 .ascii "_ZNSt7__cxx1112basic_stringIcSt11char_traitsIcESaIc"
 16801      74375F5F 
 16801      63787831 
 16801      31313262 
 16801      61736963 
 16802 15d5 45456153 	 .ascii "EEaSEc\000"
 16802      456300
 16803              	.LASF1026:
 16804 15dc 74797065 	 .ascii "type\000"
 16804      00
 16805              	.LASF41:
 16806 15e1 5F4C4F43 	 .ascii "_LOCK_T\000"
 16806      4B5F5400 
 16807              	.LASF770:
 16808 15e9 6F706572 	 .ascii "operator*\000"
 16808      61746F72 
 16808      2A00
 16809              	.LASF782:
 16810 15f3 6F706572 	 .ascii "operator+\000"
 16810      61746F72 
 16810      2B00
 16811              	.LASF786:
 16812 15fd 6F706572 	 .ascii "operator-\000"
 16812      61746F72 
 16812      2D00
 16813              	.LASF341:
 16814 1607 5F5A4E53 	 .ascii "_ZNSt7__cxx1112basic_stringIcSt11char_traitsIcESaIc"
 16814      74375F5F 
 16814      63787831 
 16814      31313262 
 16814      61736963 
 16815 163a 45453669 	 .ascii "EE6insertEjPKcj\000"
 16815      6E736572 
 16815      74456A50 
 16815      4B636A00 
ARM GAS   			page 322


 16816              	.LASF836:
 16817 164a 5F5F676E 	 .ascii "__gnu_debug\000"
 16817      755F6465 
 16817      62756700 
 16818              	.LASF975:
 16819 1656 42617365 	 .ascii "BaseType_t\000"
 16819      54797065 
 16819      5F7400
 16820              	.LASF237:
 16821 1661 5F5A4E53 	 .ascii "_ZNSt7__cxx1112basic_stringIcSt11char_traitsIcESaIc"
 16821      74375F5F 
 16821      63787831 
 16821      31313262 
 16821      61736963 
 16822 1694 4545395F 	 .ascii "EE9_M_mutateEjjPKcj\000"
 16822      4D5F6D75 
 16822      74617465 
 16822      456A6A50 
 16822      4B636A00 
 16823              	.LASF4:
 16824 16a8 5F5F696E 	 .ascii "__int16_t\000"
 16824      7431365F 
 16824      7400
 16825              	.LASF885:
 16826 16b2 776D656D 	 .ascii "wmemset\000"
 16826      73657400 
 16827              	.LASF255:
 16828 16ba 6F706572 	 .ascii "operator=\000"
 16828      61746F72 
 16828      3D00
 16829              	.LASF6:
 16830 16c4 5F5F7569 	 .ascii "__uint16_t\000"
 16830      6E743136 
 16830      5F7400
 16831              	.LASF622:
 16832 16cf 5F5A5374 	 .ascii "_ZSt6remquoffPi\000"
 16832      3672656D 
 16832      71756F66 
 16832      66506900 
 16833              	.LASF418:
 16834 16df 5F5A4E4B 	 .ascii "_ZNKSt7__cxx1112basic_stringIcSt11char_traitsIcESaI"
 16834      5374375F 
 16834      5F637878 
 16834      31313132 
 16834      62617369 
 16835 1712 63454537 	 .ascii "cEE7compareEjjRKS4_jj\000"
 16835      636F6D70 
 16835      61726545 
 16835      6A6A524B 
 16835      53345F6A 
 16836              	.LASF87:
 16837 1728 5F756E75 	 .ascii "_unused_rand\000"
 16837      7365645F 
 16837      72616E64 
 16837      00
 16838              	.LASF838:
 16839 1735 62746F77 	 .ascii "btowc\000"
ARM GAS   			page 323


 16839      6300
 16840              	.LASF977:
 16841 173b 5469636B 	 .ascii "TickType_t\000"
 16841      54797065 
 16841      5F7400
 16842              	.LASF254:
 16843 1746 5F5A4E53 	 .ascii "_ZNSt7__cxx1112basic_stringIcSt11char_traitsIcESaIc"
 16843      74375F5F 
 16843      63787831 
 16843      31313262 
 16843      61736963 
 16844 1779 45454434 	 .ascii "EED4Ei\000"
 16844      456900
 16845              	.LASF630:
 16846 1780 5F5A5374 	 .ascii "_ZSt7scalblnel\000"
 16846      37736361 
 16846      6C626C6E 
 16846      656C00
 16847              	.LASF852:
 16848 178f 70757477 	 .ascii "putwchar\000"
 16848      63686172 
 16848      00
 16849              	.LASF901:
 16850 1798 63757272 	 .ascii "currency_symbol\000"
 16850      656E6379 
 16850      5F73796D 
 16850      626F6C00 
 16851              	.LASF26:
 16852 17a8 5F5F696E 	 .ascii "__intptr_t\000"
 16852      74707472 
 16852      5F7400
 16853              	.LASF811:
 16854 17b3 646F7562 	 .ascii "double_t\000"
 16854      6C655F74 
 16854      00
 16855              	.LASF653:
 16856 17bc 5F5A4E53 	 .ascii "_ZNSt15__exception_ptr13exception_ptrC4EDn\000"
 16856      7431355F 
 16856      5F657863 
 16856      65707469 
 16856      6F6E5F70 
 16857              	.LASF120:
 16858 17e7 5F726573 	 .ascii "_result_k\000"
 16858      756C745F 
 16858      6B00
 16859              	.LASF739:
 16860 17f1 5F5A4E39 	 .ascii "_ZN9__gnu_cxx13new_allocatorIcED4Ev\000"
 16860      5F5F676E 
 16860      755F6378 
 16860      7831336E 
 16860      65775F61 
 16861              	.LASF112:
 16862 1815 5F737464 	 .ascii "_stderr\000"
 16862      65727200 
 16863              	.LASF119:
 16864 181d 5F726573 	 .ascii "_result\000"
 16864      756C7400 
ARM GAS   			page 324


 16865              	.LASF666:
 16866 1825 70696563 	 .ascii "piecewise_construct_t\000"
 16866      65776973 
 16866      655F636F 
 16866      6E737472 
 16866      7563745F 
 16867              	.LASF60:
 16868 183b 5F64736F 	 .ascii "_dso_handle\000"
 16868      5F68616E 
 16868      646C6500 
 16869              	.LASF31:
 16870 1847 5F5F676E 	 .ascii "__gnuc_va_list\000"
 16870      75635F76 
 16870      615F6C69 
 16870      737400
 16871              	.LASF763:
 16872 1856 72656269 	 .ascii "rebind<char>\000"
 16872      6E643C63 
 16872      6861723E 
 16872      00
 16873              	.LASF413:
 16874 1863 73756273 	 .ascii "substr\000"
 16874      747200
 16875              	.LASF1015:
 16876 186a 5F5A4E4B 	 .ascii "_ZNK10StdTaakMsgILj16EEixEm\000"
 16876      31305374 
 16876      64546161 
 16876      6B4D7367 
 16876      494C6A31 
 16877              	.LASF55:
 16878 1886 5F5F746D 	 .ascii "__tm_wday\000"
 16878      5F776461 
 16878      7900
 16879              	.LASF1073:
 16880 1890 6E696575 	 .ascii "nieuwAanwezig\000"
 16880      7741616E 
 16880      77657A69 
 16880      6700
 16881              	.LASF57:
 16882 189e 5F5F746D 	 .ascii "__tm_isdst\000"
 16882      5F697364 
 16882      737400
 16883              	.LASF631:
 16884 18a9 5F5A5374 	 .ascii "_ZSt7scalblnfl\000"
 16884      37736361 
 16884      6C626C6E 
 16884      666C00
 16885              	.LASF431:
 16886 18b8 5F5A5374 	 .ascii "_ZSt3absx\000"
 16886      33616273 
 16886      7800
 16887              	.LASF879:
 16888 18c2 77637374 	 .ascii "wcstoul\000"
 16888      6F756C00 
 16889              	.LASF411:
 16890 18ca 5F5A4E4B 	 .ascii "_ZNKSt7__cxx1112basic_stringIcSt11char_traitsIcESaI"
 16890      5374375F 
ARM GAS   			page 325


 16890      5F637878 
 16890      31313132 
 16890      62617369 
 16891 18fd 63454531 	 .ascii "cEE16find_last_not_ofEPKcj\000"
 16891      3666696E 
 16891      645F6C61 
 16891      73745F6E 
 16891      6F745F6F 
 16892              	.LASF251:
 16893 1918 5F5A4E53 	 .ascii "_ZNSt7__cxx1112basic_stringIcSt11char_traitsIcESaIc"
 16893      74375F5F 
 16893      63787831 
 16893      31313262 
 16893      61736963 
 16894 194b 45454334 	 .ascii "EEC4ERKS4_RKS3_\000"
 16894      45524B53 
 16894      345F524B 
 16894      53335F00 
 16895              	.LASF322:
 16896 195b 5F5A4E53 	 .ascii "_ZNSt7__cxx1112basic_stringIcSt11char_traitsIcESaIc"
 16896      74375F5F 
 16896      63787831 
 16896      31313262 
 16896      61736963 
 16897 198e 45453661 	 .ascii "EE6appendEPKcj\000"
 16897      7070656E 
 16897      6445504B 
 16897      636A00
 16898              	.LASF3:
 16899 199d 756E7369 	 .ascii "unsigned char\000"
 16899      676E6564 
 16899      20636861 
 16899      7200
 16900              	.LASF111:
 16901 19ab 5F737464 	 .ascii "_stdout\000"
 16901      6F757400 
 16902              	.LASF401:
 16903 19b3 5F5A4E4B 	 .ascii "_ZNKSt7__cxx1112basic_stringIcSt11char_traitsIcESaI"
 16903      5374375F 
 16903      5F637878 
 16903      31313132 
 16903      62617369 
 16904 19e6 63454531 	 .ascii "cEE12find_last_ofEPKcj\000"
 16904      3266696E 
 16904      645F6C61 
 16904      73745F6F 
 16904      6645504B 
 16905              	.LASF803:
 16906 19fd 5F5A4E39 	 .ascii "_ZN9__gnu_cxx17__normal_iteratorIPKcNSt7__cxx1112ba"
 16906      5F5F676E 
 16906      755F6378 
 16906      7831375F 
 16906      5F6E6F72 
 16907 1a30 7369635F 	 .ascii "sic_stringIcSt11char_traitsIcESaIcEEEEpLEi\000"
 16907      73747269 
 16907      6E674963 
 16907      53743131 
ARM GAS   			page 326


 16907      63686172 
 16908              	.LASF880:
 16909 1a5b 77637378 	 .ascii "wcsxfrm\000"
 16909      66726D00 
 16910              	.LASF102:
 16911 1a63 5F6D6273 	 .ascii "_mbsrtowcs_state\000"
 16911      72746F77 
 16911      63735F73 
 16911      74617465 
 16911      00
 16912              	.LASF869:
 16913 1a74 7763736C 	 .ascii "wcslen\000"
 16913      656E00
 16914              	.LASF46:
 16915 1a7b 5F776473 	 .ascii "_wds\000"
 16915      00
 16916              	.LASF809:
 16917 1a80 666C6F61 	 .ascii "float\000"
 16917      7400
 16918              	.LASF315:
 16919 1a86 5F5A4E53 	 .ascii "_ZNSt7__cxx1112basic_stringIcSt11char_traitsIcESaIc"
 16919      74375F5F 
 16919      63787831 
 16919      31313262 
 16919      61736963 
 16920 1ab9 4545704C 	 .ascii "EEpLERKS4_\000"
 16920      45524B53 
 16920      345F00
 16921              	.LASF455:
 16922 1ac4 5F5A5374 	 .ascii "_ZSt4sinhe\000"
 16922      3473696E 
 16922      686500
 16923              	.LASF456:
 16924 1acf 5F5A5374 	 .ascii "_ZSt4sinhf\000"
 16924      3473696E 
 16924      686600
 16925              	.LASF370:
 16926 1ada 5F5A4E53 	 .ascii "_ZNSt7__cxx1112basic_stringIcSt11char_traitsIcESaIc"
 16926      74375F5F 
 16926      63787831 
 16926      31313262 
 16926      61736963 
 16927 1b0d 45453130 	 .ascii "EE10_M_replaceEjjPKcj\000"
 16927      5F4D5F72 
 16927      65706C61 
 16927      6365456A 
 16927      6A504B63 
 16928              	.LASF1071:
 16929 1b23 70657269 	 .ascii "periode\000"
 16929      6F646500 
 16930              	.LASF673:
 16931 1b2b 5F5A4E53 	 .ascii "_ZNSt11char_traitsIcE2eqERKcS2_\000"
 16931      74313163 
 16931      6861725F 
 16931      74726169 
 16931      74734963 
 16932              	.LASF749:
ARM GAS   			page 327


 16933 1b4b 5F5F616C 	 .ascii "__alloc_traits<std::allocator<char>, char>\000"
 16933      6C6F635F 
 16933      74726169 
 16933      74733C73 
 16933      74643A3A 
 16934              	.LASF1028:
 16935 1b76 53746454 	 .ascii "StdTaak\000"
 16935      61616B00 
 16936              	.LASF68:
 16937 1b7e 5F73697A 	 .ascii "_size\000"
 16937      6500
 16938              	.LASF328:
 16939 1b84 61737369 	 .ascii "assign\000"
 16939      676E00
 16940              	.LASF160:
 16941 1b8b 75696E74 	 .ascii "uint_least32_t\000"
 16941      5F6C6561 
 16941      73743332 
 16941      5F7400
 16942              	.LASF684:
 16943 1b9a 696E745F 	 .ascii "int_type\000"
 16943      74797065 
 16943      00
 16944              	.LASF759:
 16945 1ba3 5F535F61 	 .ascii "_S_always_equal\000"
 16945      6C776179 
 16945      735F6571 
 16945      75616C00 
 16946              	.LASF1033:
 16947 1bb3 5F5A4E37 	 .ascii "_ZN7StdTaak14geefPrioriteitEv\000"
 16947      53746454 
 16947      61616B31 
 16947      34676565 
 16947      66507269 
 16948              	.LASF1005:
 16949 1bd1 4B6E6F70 	 .ascii "KnopGedrukt\000"
 16949      47656472 
 16949      756B7400 
 16950              	.LASF271:
 16951 1bdd 72656E64 	 .ascii "rend\000"
 16951      00
 16952              	.LASF75:
 16953 1be2 5F777269 	 .ascii "_write\000"
 16953      746500
 16954              	.LASF209:
 16955 1be9 5F5A4E53 	 .ascii "_ZNSt7__cxx1112basic_stringIcSt11char_traitsIcESaIc"
 16955      74375F5F 
 16955      63787831 
 16955      31313262 
 16955      61736963 
 16956 1c1c 45453136 	 .ascii "EE16_M_get_allocatorEv\000"
 16956      5F4D5F67 
 16956      65745F61 
 16956      6C6C6F63 
 16956      61746F72 
 16957              	.LASF361:
 16958 1c33 5F5A4E53 	 .ascii "_ZNSt7__cxx1112basic_stringIcSt11char_traitsIcESaIc"
ARM GAS   			page 328


 16958      74375F5F 
 16958      63787831 
 16958      31313262 
 16958      61736963 
 16959 1c66 45453772 	 .ascii "EE7replaceEN9__gnu_cxx17__normal_iteratorIPKcS4_EES"
 16959      65706C61 
 16959      6365454E 
 16959      395F5F67 
 16959      6E755F63 
 16960 1c99 395F6A63 	 .ascii "9_jc\000"
 16960      00
 16961              	.LASF985:
 16962 1c9e 5F5A4E31 	 .ascii "_ZN12cpp_freertos6Thread9GetHandleEv\000"
 16962      32637070 
 16962      5F667265 
 16962      6572746F 
 16962      73365468 
 16963              	.LASF658:
 16964 1cc3 5F5A4E53 	 .ascii "_ZNSt15__exception_ptr13exception_ptrD4Ev\000"
 16964      7431355F 
 16964      5F657863 
 16964      65707469 
 16964      6F6E5F70 
 16965              	.LASF734:
 16966 1ced 6E65775F 	 .ascii "new_allocator<char>\000"
 16966      616C6C6F 
 16966      6361746F 
 16966      723C6368 
 16966      61723E00 
 16967              	.LASF992:
 16968 1d01 456E7175 	 .ascii "EnqueueToFrontFromISR\000"
 16968      65756554 
 16968      6F46726F 
 16968      6E744672 
 16968      6F6D4953 
 16969              	.LASF148:
 16970 1d17 75696E74 	 .ascii "uint64_t\000"
 16970      36345F74 
 16970      00
 16971              	.LASF845:
 16972 1d20 66777363 	 .ascii "fwscanf\000"
 16972      616E6600 
 16973              	.LASF1021:
 16974 1d28 5F5A4E4B 	 .ascii "_ZNK10StdTaakMsgILj16EE13geefOntvangerEv\000"
 16974      31305374 
 16974      64546161 
 16974      6B4D7367 
 16974      494C6A31 
 16975              	.LASF868:
 16976 1d51 77637366 	 .ascii "wcsftime\000"
 16976      74696D65 
 16976      00
 16977              	.LASF375:
 16978 1d5a 73776170 	 .ascii "swap\000"
 16978      00
 16979              	.LASF970:
 16980 1d5f 73657462 	 .ascii "setbuf\000"
ARM GAS   			page 329


 16980      756600
 16981              	.LASF1095:
 16982 1d66 54687265 	 .ascii "Thread\000"
 16982      616400
 16983              	.LASF581:
 16984 1d6d 696C6F67 	 .ascii "ilogb\000"
 16984      6200
 16985              	.LASF268:
 16986 1d73 5F5A4E53 	 .ascii "_ZNSt7__cxx1112basic_stringIcSt11char_traitsIcESaIc"
 16986      74375F5F 
 16986      63787831 
 16986      31313262 
 16986      61736963 
 16987 1da6 45453672 	 .ascii "EE6rbeginEv\000"
 16987      62656769 
 16987      6E457600 
 16988              	.LASF644:
 16989 1db2 5F4D5F61 	 .ascii "_M_addref\000"
 16989      64647265 
 16989      6600
 16990              	.LASF847:
 16991 1dbc 6D62726C 	 .ascii "mbrlen\000"
 16991      656E00
 16992              	.LASF218:
 16993 1dc3 5F5A4E4B 	 .ascii "_ZNKSt7__cxx1112basic_stringIcSt11char_traitsIcESaI"
 16993      5374375F 
 16993      5F637878 
 16993      31313132 
 16993      62617369 
 16994 1df6 63454531 	 .ascii "cEE11_M_disjunctEPKc\000"
 16994      315F4D5F 
 16994      6469736A 
 16994      756E6374 
 16994      45504B63 
 16995              	.LASF587:
 16996 1e0b 6C6C7269 	 .ascii "llrint\000"
 16996      6E7400
 16997              	.LASF1022:
 16998 1e12 67656566 	 .ascii "geefZender\000"
 16998      5A656E64 
 16998      657200
 16999              	.LASF979:
 17000 1e1d 6370705F 	 .ascii "cpp_freertos\000"
 17000      66726565 
 17000      72746F73 
 17000      00
 17001              	.LASF54:
 17002 1e2a 5F5F746D 	 .ascii "__tm_year\000"
 17002      5F796561 
 17002      7200
 17003              	.LASF178:
 17004 1e34 73697A65 	 .ascii "size_type\000"
 17004      5F747970 
 17004      6500
 17005              	.LASF969:
 17006 1e3e 72657769 	 .ascii "rewind\000"
 17006      6E6400
ARM GAS   			page 330


 17007              	.LASF1017:
 17008 1e45 5F5A4E31 	 .ascii "_ZN10StdTaakMsgILj16EE9zetVrachtEmm\000"
 17008      30537464 
 17008      5461616B 
 17008      4D736749 
 17008      4C6A3136 
 17009              	.LASF226:
 17010 1e69 5F5A4E53 	 .ascii "_ZNSt7__cxx1112basic_stringIcSt11char_traitsIcESaIc"
 17010      74375F5F 
 17010      63787831 
 17010      31313262 
 17010      61736963 
 17011 1e9c 45453133 	 .ascii "EE13_S_copy_charsEPcN9__gnu_cxx17__normal_iteratorI"
 17011      5F535F63 
 17011      6F70795F 
 17011      63686172 
 17011      73455063 
 17012 1ecf 53355F53 	 .ascii "S5_S4_EES8_\000"
 17012      345F4545 
 17012      53385F00 
 17013              	.LASF1047:
 17014 1edb 5F5A4E37 	 .ascii "_ZN7StdTaak17isBerichtAanwezigEv\000"
 17014      53746454 
 17014      61616B31 
 17014      37697342 
 17014      65726963 
 17015              	.LASF1038:
 17016 1efc 5F5A4E37 	 .ascii "_ZN7StdTaak12stuurBerichtERK10StdTaakMsgILj16EE\000"
 17016      53746454 
 17016      61616B31 
 17016      32737475 
 17016      75724265 
 17017              	.LASF343:
 17018 1f2c 5F5A4E53 	 .ascii "_ZNSt7__cxx1112basic_stringIcSt11char_traitsIcESaIc"
 17018      74375F5F 
 17018      63787831 
 17018      31313262 
 17018      61736963 
 17019 1f5f 45453669 	 .ascii "EE6insertEjjc\000"
 17019      6E736572 
 17019      74456A6A 
 17019      6300
 17020              	.LASF704:
 17021 1f6d 636F6E73 	 .ascii "const_void_pointer\000"
 17021      745F766F 
 17021      69645F70 
 17021      6F696E74 
 17021      657200
 17022              	.LASF384:
 17023 1f80 5F5A4E4B 	 .ascii "_ZNKSt7__cxx1112basic_stringIcSt11char_traitsIcESaI"
 17023      5374375F 
 17023      5F637878 
 17023      31313132 
 17023      62617369 
 17024 1fb3 63454534 	 .ascii "cEE4findEPKcjj\000"
 17024      66696E64 
 17024      45504B63 
ARM GAS   			page 331


 17024      6A6A00
 17025              	.LASF227:
 17026 1fc2 69746572 	 .ascii "iterator\000"
 17026      61746F72 
 17026      00
 17027              	.LASF949:
 17028 1fcb 73747274 	 .ascii "strtold\000"
 17028      6F6C6400 
 17029              	.LASF137:
 17030 1fd3 5F6D756C 	 .ascii "_mult\000"
 17030      7400
 17031              	.LASF946:
 17032 1fd9 73747274 	 .ascii "strtoll\000"
 17032      6F6C6C00 
 17033              	.LASF994:
 17034 1fe1 7E446571 	 .ascii "~Deque\000"
 17034      756500
 17035              	.LASF487:
 17036 1fe8 666C6F6F 	 .ascii "floor\000"
 17036      7200
 17037              	.LASF1079:
 17038 1fee 6E61616D 	 .ascii "naam\000"
 17038      00
 17039              	.LASF722:
 17040 1ff3 72657665 	 .ascii "reverse_iterator<__gnu_cxx::__normal_iterator<char "
 17040      7273655F 
 17040      69746572 
 17040      61746F72 
 17040      3C5F5F67 
 17041 2026 636F6E73 	 .ascii "const*, std::__cxx11::basic_string<char, std::char_"
 17041      742A2C20 
 17041      7374643A 
 17041      3A5F5F63 
 17041      78783131 
 17042 2059 74726169 	 .ascii "traits<char>, std::allocator<char> > > >\000"
 17042      74733C63 
 17042      6861723E 
 17042      2C207374 
 17042      643A3A61 
 17043              	.LASF473:
 17044 2082 6D6F6466 	 .ascii "modf\000"
 17044      00
 17045              	.LASF925:
 17046 2087 61746578 	 .ascii "atexit\000"
 17046      697400
 17047              	.LASF690:
 17048 208e 5F5A4E53 	 .ascii "_ZNSt11char_traitsIcE7not_eofERKi\000"
 17048      74313163 
 17048      6861725F 
 17048      74726169 
 17048      74734963 
 17049              	.LASF277:
 17050 20b0 5F5A4E4B 	 .ascii "_ZNKSt7__cxx1112basic_stringIcSt11char_traitsIcESaI"
 17050      5374375F 
 17050      5F637878 
 17050      31313132 
 17050      62617369 
ARM GAS   			page 332


 17051 20e3 63454534 	 .ascii "cEE4cendEv\000"
 17051      63656E64 
 17051      457600
 17052              	.LASF987:
 17053 20ee 5F5A4E31 	 .ascii "_ZN12cpp_freertos5DequeC4EOS0_\000"
 17053      32637070 
 17053      5F667265 
 17053      6572746F 
 17053      73354465 
 17054              	.LASF100:
 17055 210d 5F6D6272 	 .ascii "_mbrlen_state\000"
 17055      6C656E5F 
 17055      73746174 
 17055      6500
 17056              	.LASF224:
 17057 211b 5F5A4E53 	 .ascii "_ZNSt7__cxx1112basic_stringIcSt11char_traitsIcESaIc"
 17057      74375F5F 
 17057      63787831 
 17057      31313262 
 17057      61736963 
 17058 214e 4545395F 	 .ascii "EE9_S_assignEPcjc\000"
 17058      535F6173 
 17058      7369676E 
 17058      4550636A 
 17058      6300
 17059              	.LASF906:
 17060 2160 6E656761 	 .ascii "negative_sign\000"
 17060      74697665 
 17060      5F736967 
 17060      6E00
 17061              	.LASF183:
 17062 216e 5F5A4E53 	 .ascii "_ZNSt7__cxx1112basic_stringIcSt11char_traitsIcESaIc"
 17062      74375F5F 
 17062      63787831 
 17062      31313262 
 17062      61736963 
 17063 21a1 4545375F 	 .ascii "EE7_M_dataEPc\000"
 17063      4D5F6461 
 17063      74614550 
 17063      6300
 17064              	.LASF697:
 17065 21af 5F5A4E53 	 .ascii "_ZNSaIcEaSERKS_\000"
 17065      61496345 
 17065      61534552 
 17065      4B535F00 
 17066              	.LASF16:
 17067 21bf 5F5F696E 	 .ascii "__int_least8_t\000"
 17067      745F6C65 
 17067      61737438 
 17067      5F7400
 17068              	.LASF716:
 17069 21ce 5F5A4E53 	 .ascii "_ZNSt16initializer_listIcEC4EPKcj\000"
 17069      74313669 
 17069      6E697469 
 17069      616C697A 
 17069      65725F6C 
 17070              	.LASF253:
ARM GAS   			page 333


 17071 21f0 7E626173 	 .ascii "~basic_string\000"
 17071      69635F73 
 17071      7472696E 
 17071      6700
 17072              	.LASF863:
 17073 21fe 77637363 	 .ascii "wcscat\000"
 17073      617400
 17074              	.LASF781:
 17075 2205 5F5A4E39 	 .ascii "_ZN9__gnu_cxx17__normal_iteratorIPcNSt7__cxx1112bas"
 17075      5F5F676E 
 17075      755F6378 
 17075      7831375F 
 17075      5F6E6F72 
 17076 2238 69635F73 	 .ascii "ic_stringIcSt11char_traitsIcESaIcEEEEpLEi\000"
 17076      7472696E 
 17076      67496353 
 17076      74313163 
 17076      6861725F 
 17077              	.LASF764:
 17078 2262 6F746865 	 .ascii "other\000"
 17078      7200
 17079              	.LASF713:
 17080 2268 5F4D5F61 	 .ascii "_M_array\000"
 17080      72726179 
 17080      00
 17081              	.LASF656:
 17082 2271 5F5A4E53 	 .ascii "_ZNSt15__exception_ptr13exception_ptraSEOS0_\000"
 17082      7431355F 
 17082      5F657863 
 17082      65707469 
 17082      6F6E5F70 
 17083              	.LASF963:
 17084 229e 6674656C 	 .ascii "ftell\000"
 17084      6C00
 17085              	.LASF110:
 17086 22a4 5F737464 	 .ascii "_stdin\000"
 17086      696E00
 17087              	.LASF514:
 17088 22ab 5F5A5374 	 .ascii "_ZSt7signbite\000"
 17088      37736967 
 17088      6E626974 
 17088      6500
 17089              	.LASF512:
 17090 22b9 5F5A5374 	 .ascii "_ZSt8isnormalf\000"
 17090      3869736E 
 17090      6F726D61 
 17090      6C6600
 17091              	.LASF107:
 17092 22c8 5F6E6D61 	 .ascii "_nmalloc\000"
 17092      6C6C6F63 
 17092      00
 17093              	.LASF285:
 17094 22d1 5F5A4E4B 	 .ascii "_ZNKSt7__cxx1112basic_stringIcSt11char_traitsIcESaI"
 17094      5374375F 
 17094      5F637878 
 17094      31313132 
 17094      62617369 
ARM GAS   			page 334


 17095 2304 63454536 	 .ascii "cEE6lengthEv\000"
 17095      6C656E67 
 17095      74684576 
 17095      00
 17096              	.LASF608:
 17097 2311 6E656172 	 .ascii "nearbyint\000"
 17097      6279696E 
 17097      7400
 17098              	.LASF523:
 17099 231b 5F5A5374 	 .ascii "_ZSt14isgreaterequaldd\000"
 17099      31346973 
 17099      67726561 
 17099      74657265 
 17099      7175616C 
 17100              	.LASF201:
 17101 2332 5F5A4E53 	 .ascii "_ZNSt7__cxx1112basic_stringIcSt11char_traitsIcESaIc"
 17101      74375F5F 
 17101      63787831 
 17101      31313262 
 17101      61736963 
 17102 2365 45453130 	 .ascii "EE10_M_destroyEj\000"
 17102      5F4D5F64 
 17102      65737472 
 17102      6F79456A 
 17102      00
 17103              	.LASF1046:
 17104 2376 69734265 	 .ascii "isBerichtAanwezig\000"
 17104      72696368 
 17104      7441616E 
 17104      77657A69 
 17104      6700
 17105              	.LASF741:
 17106 2388 5F5A4E4B 	 .ascii "_ZNK9__gnu_cxx13new_allocatorIcE7addressERc\000"
 17106      395F5F67 
 17106      6E755F63 
 17106      78783133 
 17106      6E65775F 
 17107              	.LASF664:
 17108 23b4 5F5A5374 	 .ascii "_ZSt17rethrow_exceptionNSt15__exception_ptr13except"
 17108      31377265 
 17108      7468726F 
 17108      775F6578 
 17108      63657074 
 17109 23e7 696F6E5F 	 .ascii "ion_ptrE\000"
 17109      70747245 
 17109      00
 17110              	.LASF519:
 17111 23f0 5F5A5374 	 .ascii "_ZSt9isgreaterdd\000"
 17111      39697367 
 17111      72656174 
 17111      65726464 
 17111      00
 17112              	.LASF270:
 17113 2401 5F5A4E4B 	 .ascii "_ZNKSt7__cxx1112basic_stringIcSt11char_traitsIcESaI"
 17113      5374375F 
 17113      5F637878 
 17113      31313132 
ARM GAS   			page 335


 17113      62617369 
 17114 2434 63454536 	 .ascii "cEE6rbeginEv\000"
 17114      72626567 
 17114      696E4576 
 17114      00
 17115              	.LASF668:
 17116 2441 5F5F7377 	 .ascii "__swappable_details\000"
 17116      61707061 
 17116      626C655F 
 17116      64657461 
 17116      696C7300 
 17117              	.LASF153:
 17118 2455 46494C45 	 .ascii "FILE\000"
 17118      00
 17119              	.LASF1058:
 17120 245a 62726965 	 .ascii "brievenbus\000"
 17120      76656E62 
 17120      757300
 17121              	.LASF485:
 17122 2465 5F5A5374 	 .ascii "_ZSt4fabse\000"
 17122      34666162 
 17122      736500
 17123              	.LASF486:
 17124 2470 5F5A5374 	 .ascii "_ZSt4fabsf\000"
 17124      34666162 
 17124      736600
 17125              	.LASF522:
 17126 247b 5F5A5374 	 .ascii "_ZSt14isgreaterequalee\000"
 17126      31346973 
 17126      67726561 
 17126      74657265 
 17126      7175616C 
 17127              	.LASF751:
 17128 2492 5F5A4E39 	 .ascii "_ZN9__gnu_cxx14__alloc_traitsISaIcEcE17_S_select_on"
 17128      5F5F676E 
 17128      755F6378 
 17128      7831345F 
 17128      5F616C6C 
 17129 24c5 5F636F70 	 .ascii "_copyERKS1_\000"
 17129      7945524B 
 17129      53315F00 
 17130              	.LASF297:
 17131 24d1 636C6561 	 .ascii "clear\000"
 17131      7200
 17132              	.LASF674:
 17133 24d7 5F5A4E53 	 .ascii "_ZNSt11char_traitsIcE2ltERKcS2_\000"
 17133      74313163 
 17133      6861725F 
 17133      74726169 
 17133      74734963 
 17134              	.LASF454:
 17135 24f7 73696E68 	 .ascii "sinh\000"
 17135      00
 17136              	.LASF33:
 17137 24fc 5F6F6666 	 .ascii "_off_t\000"
 17137      5F7400
 17138              	.LASF518:
ARM GAS   			page 336


 17139 2503 5F5A5374 	 .ascii "_ZSt9isgreateree\000"
 17139      39697367 
 17139      72656174 
 17139      65726565 
 17139      00
 17140              	.LASF29:
 17141 2514 73697A65 	 .ascii "size_t\000"
 17141      5F7400
 17142              	.LASF90:
 17143 251b 5F6C6F63 	 .ascii "_localtime_buf\000"
 17143      616C7469 
 17143      6D655F62 
 17143      756600
 17144              	.LASF609:
 17145 252a 5F5A5374 	 .ascii "_ZSt9nearbyinte\000"
 17145      396E6561 
 17145      72627969 
 17145      6E746500 
 17146              	.LASF610:
 17147 253a 5F5A5374 	 .ascii "_ZSt9nearbyintf\000"
 17147      396E6561 
 17147      72627969 
 17147      6E746600 
 17148              	.LASF702:
 17149 254a 5F5A4E53 	 .ascii "_ZNSt16allocator_traitsISaIcEE8allocateERS0_j\000"
 17149      74313661 
 17149      6C6C6F63 
 17149      61746F72 
 17149      5F747261 
 17150              	.LASF559:
 17151 2578 5F5A5374 	 .ascii "_ZSt4erfce\000"
 17151      34657266 
 17151      636500
 17152              	.LASF560:
 17153 2583 5F5A5374 	 .ascii "_ZSt4erfcf\000"
 17153      34657266 
 17153      636600
 17154              	.LASF699:
 17155 258e 5F5A4E53 	 .ascii "_ZNSaIcED4Ei\000"
 17155      61496345 
 17155      44344569 
 17155      00
 17156              	.LASF542:
 17157 259b 5F5A5374 	 .ascii "_ZSt5acoshe\000"
 17157      3561636F 
 17157      73686500 
 17158              	.LASF543:
 17159 25a7 5F5A5374 	 .ascii "_ZSt5acoshf\000"
 17159      3561636F 
 17159      73686600 
 17160              	.LASF37:
 17161 25b3 5F5F636F 	 .ascii "__count\000"
 17161      756E7400 
 17162              	.LASF222:
 17163 25bb 5F5A4E53 	 .ascii "_ZNSt7__cxx1112basic_stringIcSt11char_traitsIcESaIc"
 17163      74375F5F 
 17163      63787831 
ARM GAS   			page 337


 17163      31313262 
 17163      61736963 
 17164 25ee 4545375F 	 .ascii "EE7_S_moveEPcPKcj\000"
 17164      535F6D6F 
 17164      76654550 
 17164      63504B63 
 17164      6A00
 17165              	.LASF142:
 17166 2600 75696E74 	 .ascii "uint8_t\000"
 17166      385F7400 
 17167              	.LASF814:
 17168 2608 71756F74 	 .ascii "quot\000"
 17168      00
 17169              	.LASF412:
 17170 260d 5F5A4E4B 	 .ascii "_ZNKSt7__cxx1112basic_stringIcSt11char_traitsIcESaI"
 17170      5374375F 
 17170      5F637878 
 17170      31313132 
 17170      62617369 
 17171 2640 63454531 	 .ascii "cEE16find_last_not_ofEcj\000"
 17171      3666696E 
 17171      645F6C61 
 17171      73745F6E 
 17171      6F745F6F 
 17172              	.LASF362:
 17173 2659 5F5A4E53 	 .ascii "_ZNSt7__cxx1112basic_stringIcSt11char_traitsIcESaIc"
 17173      74375F5F 
 17173      63787831 
 17173      31313262 
 17173      61736963 
 17174 268c 45453772 	 .ascii "EE7replaceEN9__gnu_cxx17__normal_iteratorIPKcS4_EES"
 17174      65706C61 
 17174      6365454E 
 17174      395F5F67 
 17174      6E755F63 
 17175 26bf 395F5063 	 .ascii "9_PcSA_\000"
 17175      53415F00 
 17176              	.LASF1066:
 17177 26c7 61616E77 	 .ascii "aanwezig\000"
 17177      657A6967 
 17177      00
 17178              	.LASF345:
 17179 26d0 5F5F636F 	 .ascii "__const_iterator\000"
 17179      6E73745F 
 17179      69746572 
 17179      61746F72 
 17179      00
 17180              	.LASF889:
 17181 26e1 77637370 	 .ascii "wcspbrk\000"
 17181      62726B00 
 17182              	.LASF308:
 17183 26e9 66726F6E 	 .ascii "front\000"
 17183      7400
 17184              	.LASF524:
 17185 26ef 5F5A5374 	 .ascii "_ZSt14isgreaterequalff\000"
 17185      31346973 
 17185      67726561 
ARM GAS   			page 338


 17185      74657265 
 17185      7175616C 
 17186              	.LASF620:
 17187 2706 72656D71 	 .ascii "remquo\000"
 17187      756F00
 17188              	.LASF320:
 17189 270d 5F5A4E53 	 .ascii "_ZNSt7__cxx1112basic_stringIcSt11char_traitsIcESaIc"
 17189      74375F5F 
 17189      63787831 
 17189      31313262 
 17189      61736963 
 17190 2740 45453661 	 .ascii "EE6appendERKS4_\000"
 17190      7070656E 
 17190      6445524B 
 17190      53345F00 
 17191              	.LASF526:
 17192 2750 5F5A5374 	 .ascii "_ZSt6islessee\000"
 17192      3669736C 
 17192      65737365 
 17192      6500
 17193              	.LASF966:
 17194 275e 70657272 	 .ascii "perror\000"
 17194      6F7200
 17195              	.LASF414:
 17196 2765 5F5A4E4B 	 .ascii "_ZNKSt7__cxx1112basic_stringIcSt11char_traitsIcESaI"
 17196      5374375F 
 17196      5F637878 
 17196      31313132 
 17196      62617369 
 17197 2798 63454536 	 .ascii "cEE6substrEjj\000"
 17197      73756273 
 17197      7472456A 
 17197      6A00
 17198              	.LASF1060:
 17199 27a6 7E537464 	 .ascii "~StdTaak\000"
 17199      5461616B 
 17199      00
 17200              	.LASF793:
 17201 27af 5F4D5F63 	 .ascii "_M_current\000"
 17201      75727265 
 17201      6E7400
 17202              	.LASF520:
 17203 27ba 5F5A5374 	 .ascii "_ZSt9isgreaterff\000"
 17203      39697367 
 17203      72656174 
 17203      65726666 
 17203      00
 17204              	.LASF20:
 17205 27cb 5F5F696E 	 .ascii "__int_least32_t\000"
 17205      745F6C65 
 17205      61737433 
 17205      325F7400 
 17206              	.LASF124:
 17207 27db 5F637674 	 .ascii "_cvtbuf\000"
 17207      62756600 
 17208              	.LASF995:
 17209 27e3 51756575 	 .ascii "Queue\000"
ARM GAS   			page 339


 17209      6500
 17210              	.LASF400:
 17211 27e9 5F5A4E4B 	 .ascii "_ZNKSt7__cxx1112basic_stringIcSt11char_traitsIcESaI"
 17211      5374375F 
 17211      5F637878 
 17211      31313132 
 17211      62617369 
 17212 281c 63454531 	 .ascii "cEE12find_last_ofEPKcjj\000"
 17212      3266696E 
 17212      645F6C61 
 17212      73745F6F 
 17212      6645504B 
 17213              	.LASF1097:
 17214 2834 41616E74 	 .ascii "AantalTaken\000"
 17214      616C5461 
 17214      6B656E00 
 17215              	.LASF833:
 17216 2840 77636861 	 .ascii "wchar_t\000"
 17216      725F7400 
 17217              	.LASF550:
 17218 2848 63627274 	 .ascii "cbrt\000"
 17218      00
 17219              	.LASF357:
 17220 284d 5F5A4E53 	 .ascii "_ZNSt7__cxx1112basic_stringIcSt11char_traitsIcESaIc"
 17220      74375F5F 
 17220      63787831 
 17220      31313262 
 17220      61736963 
 17221 2880 45453772 	 .ascii "EE7replaceEjjjc\000"
 17221      65706C61 
 17221      6365456A 
 17221      6A6A6300 
 17222              	.LASF1042:
 17223 2890 72656769 	 .ascii "registreer\000"
 17223      73747265 
 17223      657200
 17224              	.LASF881:
 17225 289b 7763746F 	 .ascii "wctob\000"
 17225      6200
 17226              	.LASF903:
 17227 28a1 6D6F6E5F 	 .ascii "mon_thousands_sep\000"
 17227      74686F75 
 17227      73616E64 
 17227      735F7365 
 17227      7000
 17228              	.LASF252:
 17229 28b3 5F5A4E53 	 .ascii "_ZNSt7__cxx1112basic_stringIcSt11char_traitsIcESaIc"
 17229      74375F5F 
 17229      63787831 
 17229      31313262 
 17229      61736963 
 17230 28e6 45454334 	 .ascii "EEC4EOS4_RKS3_\000"
 17230      454F5334 
 17230      5F524B53 
 17230      335F00
 17231              	.LASF844:
 17232 28f5 66777072 	 .ascii "fwprintf\000"
ARM GAS   			page 340


 17232      696E7466 
 17232      00
 17233              	.LASF234:
 17234 28fe 5F4D5F61 	 .ascii "_M_assign\000"
 17234      73736967 
 17234      6E00
 17235              	.LASF1082:
 17236 2908 5F5A4E31 	 .ascii "_ZN10StdTaakMsgILj16EEC2Ev\000"
 17236      30537464 
 17236      5461616B 
 17236      4D736749 
 17236      4C6A3136 
 17237              	.LASF323:
 17238 2923 5F5A4E53 	 .ascii "_ZNSt7__cxx1112basic_stringIcSt11char_traitsIcESaIc"
 17238      74375F5F 
 17238      63787831 
 17238      31313262 
 17238      61736963 
 17239 2956 45453661 	 .ascii "EE6appendEPKc\000"
 17239      7070656E 
 17239      6445504B 
 17239      6300
 17240              	.LASF1041:
 17241 2964 5F5A4E37 	 .ascii "_ZN7StdTaak5wachtEm\000"
 17241      53746454 
 17241      61616B35 
 17241      77616368 
 17241      74456D00 
 17242              	.LASF978:
 17243 2978 5461736B 	 .ascii "TaskHandle_t\000"
 17243      48616E64 
 17243      6C655F74 
 17243      00
 17244              	.LASF442:
 17245 2985 6174616E 	 .ascii "atan2\000"
 17245      3200
 17246              	.LASF655:
 17247 298b 5F5A4E53 	 .ascii "_ZNSt15__exception_ptr13exception_ptraSERKS0_\000"
 17247      7431355F 
 17247      5F657863 
 17247      65707469 
 17247      6F6E5F70 
 17248              	.LASF36:
 17249 29b9 5F5F7763 	 .ascii "__wchb\000"
 17249      686200
 17250              	.LASF101:
 17251 29c0 5F6D6272 	 .ascii "_mbrtowc_state\000"
 17251      746F7763 
 17251      5F737461 
 17251      746500
 17252              	.LASF799:
 17253 29cf 5F5A4E39 	 .ascii "_ZN9__gnu_cxx17__normal_iteratorIPKcNSt7__cxx1112ba"
 17253      5F5F676E 
 17253      755F6378 
 17253      7831375F 
 17253      5F6E6F72 
 17254 2a02 7369635F 	 .ascii "sic_stringIcSt11char_traitsIcESaIcEEEEppEi\000"
ARM GAS   			page 341


 17254      73747269 
 17254      6E674963 
 17254      53743131 
 17254      63686172 
 17255              	.LASF51:
 17256 2a2d 5F5F746D 	 .ascii "__tm_hour\000"
 17256      5F686F75 
 17256      7200
 17257              	.LASF819:
 17258 2a37 6C6C6469 	 .ascii "lldiv_t\000"
 17258      765F7400 
 17259              	.LASF597:
 17260 2a3f 5F5A5374 	 .ascii "_ZSt4log2e\000"
 17260      346C6F67 
 17260      326500
 17261              	.LASF598:
 17262 2a4a 5F5A5374 	 .ascii "_ZSt4log2f\000"
 17262      346C6F67 
 17262      326600
 17263              	.LASF857:
 17264 2a55 76667773 	 .ascii "vfwscanf\000"
 17264      63616E66 
 17264      00
 17265              	.LASF32:
 17266 2a5e 77696E74 	 .ascii "wint_t\000"
 17266      5F7400
 17267              	.LASF404:
 17268 2a65 5F5A4E4B 	 .ascii "_ZNKSt7__cxx1112basic_stringIcSt11char_traitsIcESaI"
 17268      5374375F 
 17268      5F637878 
 17268      31313132 
 17268      62617369 
 17269 2a98 63454531 	 .ascii "cEE17find_first_not_ofERKS4_j\000"
 17269      3766696E 
 17269      645F6669 
 17269      7273745F 
 17269      6E6F745F 
 17270              	.LASF932:
 17271 2ab6 6D626C65 	 .ascii "mblen\000"
 17271      6E00
 17272              	.LASF606:
 17273 2abc 5F5A5374 	 .ascii "_ZSt6lrounde\000"
 17273      366C726F 
 17273      756E6465 
 17273      00
 17274              	.LASF607:
 17275 2ac9 5F5A5374 	 .ascii "_ZSt6lroundf\000"
 17275      366C726F 
 17275      756E6466 
 17275      00
 17276              	.LASF696:
 17277 2ad6 5F5A4E4B 	 .ascii "_ZNKSt15__exception_ptr13exception_ptrcvbEv\000"
 17277      53743135 
 17277      5F5F6578 
 17277      63657074 
 17277      696F6E5F 
 17278              	.LASF125:
ARM GAS   			page 342


 17279 2b02 5F6E6577 	 .ascii "_new\000"
 17279      00
 17280              	.LASF547:
 17281 2b07 6174616E 	 .ascii "atanh\000"
 17281      6800
 17282              	.LASF694:
 17283 2b0d 5F5A4E53 	 .ascii "_ZNSaIcEC4Ev\000"
 17283      61496345 
 17283      43344576 
 17283      00
 17284              	.LASF1036:
 17285 2b1a 51756575 	 .ascii "QueueMsgGrootte\000"
 17285      654D7367 
 17285      47726F6F 
 17285      74746500 
 17286              	.LASF283:
 17287 2b2a 5F5A4E4B 	 .ascii "_ZNKSt7__cxx1112basic_stringIcSt11char_traitsIcESaI"
 17287      5374375F 
 17287      5F637878 
 17287      31313132 
 17287      62617369 
 17288 2b5d 63454534 	 .ascii "cEE4sizeEv\000"
 17288      73697A65 
 17288      457600
 17289              	.LASF133:
 17290 2b68 5F6E696F 	 .ascii "_niobs\000"
 17290      627300
 17291              	.LASF267:
 17292 2b6f 72626567 	 .ascii "rbegin\000"
 17292      696E00
 17293              	.LASF895:
 17294 2b76 77637374 	 .ascii "wcstoull\000"
 17294      6F756C6C 
 17294      00
 17295              	.LASF1055:
 17296 2b7f 5F5A4E4B 	 .ascii "_ZNK7StdTaak10geefZenderEv\000"
 17296      37537464 
 17296      5461616B 
 17296      31306765 
 17296      65665A65 
 17297              	.LASF109:
 17298 2b9a 5F657272 	 .ascii "_errno\000"
 17298      6E6F00
 17299              	.LASF954:
 17300 2ba1 66666C75 	 .ascii "fflush\000"
 17300      736800
 17301              	.LASF52:
 17302 2ba8 5F5F746D 	 .ascii "__tm_mday\000"
 17302      5F6D6461 
 17302      7900
 17303              	.LASF841:
 17304 2bb2 66707574 	 .ascii "fputwc\000"
 17304      776300
 17305              	.LASF327:
 17306 2bb9 5F5A4E53 	 .ascii "_ZNSt7__cxx1112basic_stringIcSt11char_traitsIcESaIc"
 17306      74375F5F 
 17306      63787831 
ARM GAS   			page 343


 17306      31313262 
 17306      61736963 
 17307 2bec 45453970 	 .ascii "EE9push_backEc\000"
 17307      7573685F 
 17307      6261636B 
 17307      456300
 17308              	.LASF562:
 17309 2bfb 5F5A5374 	 .ascii "_ZSt4exp2e\000"
 17309      34657870 
 17309      326500
 17310              	.LASF563:
 17311 2c06 5F5A5374 	 .ascii "_ZSt4exp2f\000"
 17311      34657870 
 17311      326600
 17312              	.LASF842:
 17313 2c11 66707574 	 .ascii "fputws\000"
 17313      777300
 17314              	.LASF59:
 17315 2c18 5F666E61 	 .ascii "_fnargs\000"
 17315      72677300 
 17316              	.LASF585:
 17317 2c20 5F5A5374 	 .ascii "_ZSt6lgammae\000"
 17317      366C6761 
 17317      6D6D6165 
 17317      00
 17318              	.LASF586:
 17319 2c2d 5F5A5374 	 .ascii "_ZSt6lgammaf\000"
 17319      366C6761 
 17319      6D6D6166 
 17319      00
 17320              	.LASF294:
 17321 2c3a 5F5A4E4B 	 .ascii "_ZNKSt7__cxx1112basic_stringIcSt11char_traitsIcESaI"
 17321      5374375F 
 17321      5F637878 
 17321      31313132 
 17321      62617369 
 17322 2c6d 63454538 	 .ascii "cEE8capacityEv\000"
 17322      63617061 
 17322      63697479 
 17322      457600
 17323              	.LASF812:
 17324 2c7c 31305F6D 	 .ascii "10_mbstate_t\000"
 17324      62737461 
 17324      74655F74 
 17324      00
 17325              	.LASF773:
 17326 2c89 5F5A4E4B 	 .ascii "_ZNK9__gnu_cxx17__normal_iteratorIPcNSt7__cxx1112ba"
 17326      395F5F67 
 17326      6E755F63 
 17326      78783137 
 17326      5F5F6E6F 
 17327 2cbc 7369635F 	 .ascii "sic_stringIcSt11char_traitsIcESaIcEEEEptEv\000"
 17327      73747269 
 17327      6E674963 
 17327      53743131 
 17327      63686172 
 17328              	.LASF561:
ARM GAS   			page 344


 17329 2ce7 65787032 	 .ascii "exp2\000"
 17329      00
 17330              	.LASF1031:
 17331 2cec 5F5A4E37 	 .ascii "_ZN7StdTaakC4ERKNSt7__cxx1112basic_stringIcSt11char"
 17331      53746454 
 17331      61616B43 
 17331      3445524B 
 17331      4E537437 
 17332 2d1f 5F747261 	 .ascii "_traitsIcESaIcEEEt8TaakPrio\000"
 17332      69747349 
 17332      63455361 
 17332      49634545 
 17332      45743854 
 17333              	.LASF947:
 17334 2d3b 73747274 	 .ascii "strtoull\000"
 17334      6F756C6C 
 17334      00
 17335              	.LASF1049:
 17336 2d44 5F5A4E37 	 .ascii "_ZN7StdTaak14wachtOpBerichtEt\000"
 17336      53746454 
 17336      61616B31 
 17336      34776163 
 17336      68744F70 
 17337              	.LASF1019:
 17338 2d62 5F5A4E4B 	 .ascii "_ZNK10StdTaakMsgILj16EE8geefTypeEv\000"
 17338      31305374 
 17338      64546161 
 17338      6B4D7367 
 17338      494C6A31 
 17339              	.LASF924:
 17340 2d85 5F5F6774 	 .ascii "__gthread_key_t\000"
 17340      68726561 
 17340      645F6B65 
 17340      795F7400 
 17341              	.LASF545:
 17342 2d95 5F5A5374 	 .ascii "_ZSt5asinhe\000"
 17342      35617369 
 17342      6E686500 
 17343              	.LASF546:
 17344 2da1 5F5A5374 	 .ascii "_ZSt5asinhf\000"
 17344      35617369 
 17344      6E686600 
 17345              	.LASF791:
 17346 2dad 5F436F6E 	 .ascii "_Container\000"
 17346      7461696E 
 17346      657200
 17347              	.LASF12:
 17348 2db8 5F5F696E 	 .ascii "__int64_t\000"
 17348      7436345F 
 17348      7400
 17349              	.LASF974:
 17350 2dc2 756E6765 	 .ascii "ungetc\000"
 17350      746300
 17351              	.LASF822:
 17352 2dc9 54776565 	 .ascii "TweePI\000"
 17352      504900
 17353              	.LASF14:
ARM GAS   			page 345


 17354 2dd0 5F5F7569 	 .ascii "__uint64_t\000"
 17354      6E743634 
 17354      5F7400
 17355              	.LASF780:
 17356 2ddb 5F5A4E4B 	 .ascii "_ZNK9__gnu_cxx17__normal_iteratorIPcNSt7__cxx1112ba"
 17356      395F5F67 
 17356      6E755F63 
 17356      78783137 
 17356      5F5F6E6F 
 17357 2e0e 7369635F 	 .ascii "sic_stringIcSt11char_traitsIcESaIcEEEEixEi\000"
 17357      73747269 
 17357      6E674963 
 17357      53743131 
 17357      63686172 
 17358              	.LASF274:
 17359 2e39 63626567 	 .ascii "cbegin\000"
 17359      696E00
 17360              	.LASF43:
 17361 2e40 5F6E6578 	 .ascii "_next\000"
 17361      7400
 17362              	.LASF381:
 17363 2e46 6765745F 	 .ascii "get_allocator\000"
 17363      616C6C6F 
 17363      6361746F 
 17363      7200
 17364              	.LASF507:
 17365 2e54 5F5A5374 	 .ascii "_ZSt5isnand\000"
 17365      3569736E 
 17365      616E6400 
 17366              	.LASF506:
 17367 2e60 5F5A5374 	 .ascii "_ZSt5isnane\000"
 17367      3569736E 
 17367      616E6500 
 17368              	.LASF215:
 17369 2e6c 5F4D5F6C 	 .ascii "_M_limit\000"
 17369      696D6974 
 17369      00
 17370              	.LASF98:
 17371 2e75 5F736967 	 .ascii "_signal_buf\000"
 17371      6E616C5F 
 17371      62756600 
 17372              	.LASF897:
 17373 2e81 64656369 	 .ascii "decimal_point\000"
 17373      6D616C5F 
 17373      706F696E 
 17373      7400
 17374              	.LASF740:
 17375 2e8f 61646472 	 .ascii "address\000"
 17375      65737300 
 17376              	.LASF73:
 17377 2e97 5F636F6F 	 .ascii "_cookie\000"
 17377      6B696500 
 17378              	.LASF193:
 17379 2e9f 5F5A4E53 	 .ascii "_ZNSt7__cxx1112basic_stringIcSt11char_traitsIcESaIc"
 17379      74375F5F 
 17379      63787831 
 17379      31313262 
ARM GAS   			page 346


 17379      61736963 
 17380 2ed2 45453133 	 .ascii "EE13_M_set_lengthEj\000"
 17380      5F4D5F73 
 17380      65745F6C 
 17380      656E6774 
 17380      68456A00 
 17381              	.LASF1067:
 17382 2ee6 6B6F7069 	 .ascii "kopie\000"
 17382      6500
 17383              	.LASF162:
 17384 2eec 75696E74 	 .ascii "uint_least64_t\000"
 17384      5F6C6561 
 17384      73743634 
 17384      5F7400
 17385              	.LASF745:
 17386 2efb 5F5A4E4B 	 .ascii "_ZNK9__gnu_cxx13new_allocatorIcE8max_sizeEv\000"
 17386      395F5F67 
 17386      6E755F63 
 17386      78783133 
 17386      6E65775F 
 17387              	.LASF420:
 17388 2f27 5F5A4E4B 	 .ascii "_ZNKSt7__cxx1112basic_stringIcSt11char_traitsIcESaI"
 17388      5374375F 
 17388      5F637878 
 17388      31313132 
 17388      62617369 
 17389 2f5a 63454537 	 .ascii "cEE7compareEjjPKc\000"
 17389      636F6D70 
 17389      61726545 
 17389      6A6A504B 
 17389      6300
 17390              	.LASF1088:
 17391 2f6c 6465636C 	 .ascii "decltype(nullptr)\000"
 17391      74797065 
 17391      286E756C 
 17391      6C707472 
 17391      2900
 17392              	.LASF1063:
 17393 2f7e 74686973 	 .ascii "this\000"
 17393      00
 17394              	.LASF493:
 17395 2f83 6670636C 	 .ascii "fpclassify\000"
 17395      61737369 
 17395      667900
 17396              	.LASF280:
 17397 2f8e 6372656E 	 .ascii "crend\000"
 17397      6400
 17398              	.LASF1051:
 17399 2f94 67656566 	 .ascii "geefBericht\000"
 17399      42657269 
 17399      63687400 
 17400              	.LASF789:
 17401 2fa0 5F5A4E4B 	 .ascii "_ZNK9__gnu_cxx17__normal_iteratorIPcNSt7__cxx1112ba"
 17401      395F5F67 
 17401      6E755F63 
 17401      78783137 
 17401      5F5F6E6F 
ARM GAS   			page 347


 17402 2fd3 7369635F 	 .ascii "sic_stringIcSt11char_traitsIcESaIcEEEE4baseEv\000"
 17402      73747269 
 17402      6E674963 
 17402      53743131 
 17402      63686172 
 17403              	.LASF551:
 17404 3001 5F5A5374 	 .ascii "_ZSt4cbrte\000"
 17404      34636272 
 17404      746500
 17405              	.LASF155:
 17406 300c 696E745F 	 .ascii "int_least8_t\000"
 17406      6C656173 
 17406      74385F74 
 17406      00
 17407              	.LASF951:
 17408 3019 66636C6F 	 .ascii "fclose\000"
 17408      736500
 17409              	.LASF940:
 17410 3020 73747274 	 .ascii "strtoul\000"
 17410      6F756C00 
 17411              	.LASF676:
 17412 3028 5F5A4E53 	 .ascii "_ZNSt11char_traitsIcE6lengthEPKc\000"
 17412      74313163 
 17412      6861725F 
 17412      74726169 
 17412      74734963 
 17413              	.LASF683:
 17414 3049 5F5A4E53 	 .ascii "_ZNSt11char_traitsIcE12to_char_typeERKi\000"
 17414      74313163 
 17414      6861725F 
 17414      74726169 
 17414      74734963 
 17415              	.LASF908:
 17416 3071 66726163 	 .ascii "frac_digits\000"
 17416      5F646967 
 17416      69747300 
 17417              	.LASF726:
 17418 307d 69746572 	 .ascii "iterator_traits<char*>\000"
 17418      61746F72 
 17418      5F747261 
 17418      6974733C 
 17418      63686172 
 17419              	.LASF202:
 17420 3094 5F4D5F63 	 .ascii "_M_construct_aux_2\000"
 17420      6F6E7374 
 17420      72756374 
 17420      5F617578 
 17420      5F3200
 17421              	.LASF817:
 17422 30a7 6C646976 	 .ascii "ldiv_t\000"
 17422      5F7400
 17423              	.LASF302:
 17424 30ae 6F706572 	 .ascii "operator[]\000"
 17424      61746F72 
 17424      5B5D00
 17425              	.LASF433:
 17426 30b9 61636F73 	 .ascii "acos\000"
ARM GAS   			page 348


 17426      00
 17427              	.LASF1092:
 17428 30be 5F5A4E53 	 .ascii "_ZNSt11char_traitsIcE3eofEv\000"
 17428      74313163 
 17428      6861725F 
 17428      74726169 
 17428      74734963 
 17429              	.LASF603:
 17430 30da 5F5A5374 	 .ascii "_ZSt5lrinte\000"
 17430      356C7269 
 17430      6E746500 
 17431              	.LASF604:
 17432 30e6 5F5A5374 	 .ascii "_ZSt5lrintf\000"
 17432      356C7269 
 17432      6E746600 
 17433              	.LASF972:
 17434 30f2 746D7066 	 .ascii "tmpfile\000"
 17434      696C6500 
 17435              	.LASF692:
 17436 30fa 616C6C6F 	 .ascii "allocator<char>\000"
 17436      6361746F 
 17436      723C6368 
 17436      61723E00 
 17437              	.LASF359:
 17438 310a 5F5A4E53 	 .ascii "_ZNSt7__cxx1112basic_stringIcSt11char_traitsIcESaIc"
 17438      74375F5F 
 17438      63787831 
 17438      31313262 
 17438      61736963 
 17439 313d 45453772 	 .ascii "EE7replaceEN9__gnu_cxx17__normal_iteratorIPKcS4_EES"
 17439      65706C61 
 17439      6365454E 
 17439      395F5F67 
 17439      6E755F63 
 17440 3170 395F5338 	 .ascii "9_S8_j\000"
 17440      5F6A00
 17441              	.LASF484:
 17442 3177 66616273 	 .ascii "fabs\000"
 17442      00
 17443              	.LASF383:
 17444 317c 66696E64 	 .ascii "find\000"
 17444      00
 17445              	.LASF49:
 17446 3181 5F5F746D 	 .ascii "__tm_sec\000"
 17446      5F736563 
 17446      00
 17447              	.LASF942:
 17448 318a 77637374 	 .ascii "wcstombs\000"
 17448      6F6D6273 
 17448      00
 17449              	.LASF795:
 17450 3193 5F5A4E39 	 .ascii "_ZN9__gnu_cxx17__normal_iteratorIPKcNSt7__cxx1112ba"
 17450      5F5F676E 
 17450      755F6378 
 17450      7831375F 
 17450      5F6E6F72 
 17451 31c6 7369635F 	 .ascii "sic_stringIcSt11char_traitsIcESaIcEEEEC4ERKS2_\000"
ARM GAS   			page 349


 17451      73747269 
 17451      6E674963 
 17451      53743131 
 17451      63686172 
 17452              	.LASF58:
 17453 31f5 5F6F6E5F 	 .ascii "_on_exit_args\000"
 17453      65786974 
 17453      5F617267 
 17453      7300
 17454              	.LASF505:
 17455 3203 69736E61 	 .ascii "isnan\000"
 17455      6E00
 17456              	.LASF747:
 17457 3209 5F5A4E4B 	 .ascii "_ZNK9__gnu_cxx13new_allocatorIcE11_M_max_sizeEv\000"
 17457      395F5F67 
 17457      6E755F63 
 17457      78783133 
 17457      6E65775F 
 17458              	.LASF1096:
 17459 3239 47726F6F 	 .ascii "Grootte\000"
 17459      74746500 
 17460              	.LASF578:
 17461 3241 6879706F 	 .ascii "hypot\000"
 17461      7400
 17462              	.LASF206:
 17463 3247 616C6C6F 	 .ascii "allocator_type\000"
 17463      6361746F 
 17463      725F7479 
 17463      706500
 17464              	.LASF993:
 17465 3256 5F5A4E31 	 .ascii "_ZN12cpp_freertos5Deque21EnqueueToFrontFromISREPvPl"
 17465      32637070 
 17465      5F667265 
 17465      6572746F 
 17465      73354465 
 17466 3289 00       	 .ascii "\000"
 17467              	.LASF350:
 17468 328a 706F705F 	 .ascii "pop_back\000"
 17468      6261636B 
 17468      00
 17469              	.LASF265:
 17470 3293 5F5A4E4B 	 .ascii "_ZNKSt7__cxx1112basic_stringIcSt11char_traitsIcESaI"
 17470      5374375F 
 17470      5F637878 
 17470      31313132 
 17470      62617369 
 17471 32c6 63454533 	 .ascii "cEE3endEv\000"
 17471      656E6445 
 17471      7600
 17472              	.LASF816:
 17473 32d0 366C6469 	 .ascii "6ldiv_t\000"
 17473      765F7400 
 17474              	.LASF103:
 17475 32d8 5F776372 	 .ascii "_wcrtomb_state\000"
 17475      746F6D62 
 17475      5F737461 
 17475      746500
ARM GAS   			page 350


 17476              	.LASF792:
 17477 32e7 5F5F6E6F 	 .ascii "__normal_iterator<char const*, std::__cxx11::basic_"
 17477      726D616C 
 17477      5F697465 
 17477      7261746F 
 17477      723C6368 
 17478 331a 73747269 	 .ascii "string<char, std::char_traits<char>, std::allocator"
 17478      6E673C63 
 17478      6861722C 
 17478      20737464 
 17478      3A3A6368 
 17479 334d 3C636861 	 .ascii "<char> > >\000"
 17479      723E203E 
 17479      203E00
 17480              	.LASF828:
 17481 3358 45726E73 	 .ascii "Ernstig\000"
 17481      74696700 
 17482              	.LASF1009:
 17483 3360 56657262 	 .ascii "VerbindingGemaakt\000"
 17483      696E6469 
 17483      6E674765 
 17483      6D61616B 
 17483      7400
 17484              	.LASF629:
 17485 3372 7363616C 	 .ascii "scalbln\000"
 17485      626C6E00 
 17486              	.LASF591:
 17487 337a 5F5A5374 	 .ascii "_ZSt7llrounde\000"
 17487      376C6C72 
 17487      6F756E64 
 17487      6500
 17488              	.LASF592:
 17489 3388 5F5A5374 	 .ascii "_ZSt7llroundf\000"
 17489      376C6C72 
 17489      6F756E64 
 17489      6600
 17490              	.LASF854:
 17491 3396 73777363 	 .ascii "swscanf\000"
 17491      616E6600 
 17492              	.LASF1011:
 17493 339e 53746454 	 .ascii "StdTaakMsg<16>\000"
 17493      61616B4D 
 17493      73673C31 
 17493      363E00
 17494              	.LASF984:
 17495 33ad 47657448 	 .ascii "GetHandle\000"
 17495      616E646C 
 17495      6500
 17496              	.LASF210:
 17497 33b7 5F5A4E4B 	 .ascii "_ZNKSt7__cxx1112basic_stringIcSt11char_traitsIcESaI"
 17497      5374375F 
 17497      5F637878 
 17497      31313132 
 17497      62617369 
 17498 33ea 63454531 	 .ascii "cEE16_M_get_allocatorEv\000"
 17498      365F4D5F 
 17498      6765745F 
ARM GAS   			page 351


 17498      616C6C6F 
 17498      6361746F 
 17499              	.LASF553:
 17500 3402 636F7079 	 .ascii "copysign\000"
 17500      7369676E 
 17500      00
 17501              	.LASF1025:
 17502 340b 6F6E7476 	 .ascii "ontvanger\000"
 17502      616E6765 
 17502      7200
 17503              	.LASF243:
 17504 3415 5F5A4E53 	 .ascii "_ZNSt7__cxx1112basic_stringIcSt11char_traitsIcESaIc"
 17504      74375F5F 
 17504      63787831 
 17504      31313262 
 17504      61736963 
 17505 3448 45454334 	 .ascii "EEC4ERKS4_jRKS3_\000"
 17505      45524B53 
 17505      345F6A52 
 17505      4B53335F 
 17505      00
 17506              	.LASF950:
 17507 3459 636C6561 	 .ascii "clearerr\000"
 17507      72657272 
 17507      00
 17508              	.LASF337:
 17509 3462 5F5A4E53 	 .ascii "_ZNSt7__cxx1112basic_stringIcSt11char_traitsIcESaIc"
 17509      74375F5F 
 17509      63787831 
 17509      31313262 
 17509      61736963 
 17510 3495 45453669 	 .ascii "EE6insertEN9__gnu_cxx17__normal_iteratorIPKcS4_EEjc"
 17510      6E736572 
 17510      74454E39 
 17510      5F5F676E 
 17510      755F6378 
 17511 34c8 00       	 .ascii "\000"
 17512              	.LASF231:
 17513 34c9 5F5A4E53 	 .ascii "_ZNSt7__cxx1112basic_stringIcSt11char_traitsIcESaIc"
 17513      74375F5F 
 17513      63787831 
 17513      31313262 
 17513      61736963 
 17514 34fc 45453133 	 .ascii "EE13_S_copy_charsEPcPKcS7_\000"
 17514      5F535F63 
 17514      6F70795F 
 17514      63686172 
 17514      73455063 
 17515              	.LASF912:
 17516 3517 6E5F7365 	 .ascii "n_sep_by_space\000"
 17516      705F6279 
 17516      5F737061 
 17516      636500
 17517              	.LASF671:
 17518 3526 5F5A4E53 	 .ascii "_ZNSt11char_traitsIcE6assignERcRKc\000"
 17518      74313163 
 17518      6861725F 
ARM GAS   			page 352


 17518      74726169 
 17518      74734963 
 17519              	.LASF141:
 17520 3549 696E7438 	 .ascii "int8_t\000"
 17520      5F7400
 17521              	.LASF236:
 17522 3550 5F4D5F6D 	 .ascii "_M_mutate\000"
 17522      75746174 
 17522      6500
 17523              	.LASF886:
 17524 355a 77707269 	 .ascii "wprintf\000"
 17524      6E746600 
 17525              	.LASF194:
 17526 3562 5F4D5F69 	 .ascii "_M_is_local\000"
 17526      735F6C6F 
 17526      63616C00 
 17527              	.LASF40:
 17528 356e 5F5F554C 	 .ascii "__ULong\000"
 17528      6F6E6700 
 17529              	.LASF1091:
 17530 3576 70696563 	 .ascii "piecewise_construct\000"
 17530      65776973 
 17530      655F636F 
 17530      6E737472 
 17530      75637400 
 17531              	.LASF753:
 17532 358a 5F535F70 	 .ascii "_S_propagate_on_copy_assign\000"
 17532      726F7061 
 17532      67617465 
 17532      5F6F6E5F 
 17532      636F7079 
 17533              	.LASF527:
 17534 35a6 5F5A5374 	 .ascii "_ZSt6islessdd\000"
 17534      3669736C 
 17534      65737364 
 17534      6400
 17535              	.LASF670:
 17536 35b4 63686172 	 .ascii "char_traits<char>\000"
 17536      5F747261 
 17536      6974733C 
 17536      63686172 
 17536      3E00
 17537              	.LASF1016:
 17538 35c6 7A657456 	 .ascii "zetVracht\000"
 17538      72616368 
 17538      7400
 17539              	.LASF166:
 17540 35d0 75696E74 	 .ascii "uint_fast16_t\000"
 17540      5F666173 
 17540      7431365F 
 17540      7400
 17541              	.LASF159:
 17542 35de 696E745F 	 .ascii "int_least32_t\000"
 17542      6C656173 
 17542      7433325F 
 17542      7400
 17543              	.LASF937:
ARM GAS   			page 353


 17544 35ec 7372616E 	 .ascii "srand\000"
 17544      6400
 17545              	.LASF909:
 17546 35f2 705F6373 	 .ascii "p_cs_precedes\000"
 17546      5F707265 
 17546      63656465 
 17546      7300
 17547              	.LASF864:
 17548 3600 77637363 	 .ascii "wcscmp\000"
 17548      6D7000
 17549              	.LASF611:
 17550 3607 6E657874 	 .ascii "nextafter\000"
 17550      61667465 
 17550      7200
 17551              	.LASF850:
 17552 3611 6D627372 	 .ascii "mbsrtowcs\000"
 17552      746F7763 
 17552      7300
 17553              	.LASF904:
 17554 361b 6D6F6E5F 	 .ascii "mon_grouping\000"
 17554      67726F75 
 17554      70696E67 
 17554      00
 17555              	.LASF481:
 17556 3628 6365696C 	 .ascii "ceil\000"
 17556      00
 17557              	.LASF955:
 17558 362d 66676574 	 .ascii "fgetc\000"
 17558      6300
 17559              	.LASF88:
 17560 3633 5F737472 	 .ascii "_strtok_last\000"
 17560      746F6B5F 
 17560      6C617374 
 17560      00
 17561              	.LASF177:
 17562 3640 706F696E 	 .ascii "pointer\000"
 17562      74657200 
 17563              	.LASF1078:
 17564 3648 5F5F5052 	 .ascii "__PRETTY_FUNCTION__\000"
 17564      45545459 
 17564      5F46554E 
 17564      4354494F 
 17564      4E5F5F00 
 17565              	.LASF247:
 17566 365c 5F5A4E53 	 .ascii "_ZNSt7__cxx1112basic_stringIcSt11char_traitsIcESaIc"
 17566      74375F5F 
 17566      63787831 
 17566      31313262 
 17566      61736963 
 17567 368f 45454334 	 .ascii "EEC4EPKcRKS3_\000"
 17567      45504B63 
 17567      524B5333 
 17567      5F00
 17568              	.LASF835:
 17569 369d 63686172 	 .ascii "char32_t\000"
 17569      33325F74 
 17569      00
ARM GAS   			page 354


 17570              	.LASF648:
 17571 36a6 5F4D5F67 	 .ascii "_M_get\000"
 17571      657400
 17572              	.LASF1044:
 17573 36ad 67656566 	 .ascii "geefTaak\000"
 17573      5461616B 
 17573      00
 17574              	.LASF849:
 17575 36b6 6D627369 	 .ascii "mbsinit\000"
 17575      6E697400 
 17576              	.LASF403:
 17577 36be 66696E64 	 .ascii "find_first_not_of\000"
 17577      5F666972 
 17577      73745F6E 
 17577      6F745F6F 
 17577      6600
 17578              	.LASF136:
 17579 36d0 5F736565 	 .ascii "_seed\000"
 17579      6400
 17580              	.LASF245:
 17581 36d6 5F5A4E53 	 .ascii "_ZNSt7__cxx1112basic_stringIcSt11char_traitsIcESaIc"
 17581      74375F5F 
 17581      63787831 
 17581      31313262 
 17581      61736963 
 17582 3709 45454334 	 .ascii "EEC4ERKS4_jjRKS3_\000"
 17582      45524B53 
 17582      345F6A6A 
 17582      524B5333 
 17582      5F00
 17583              	.LASF76:
 17584 371b 5F736565 	 .ascii "_seek\000"
 17584      6B00
 17585              	.LASF256:
 17586 3721 5F5A4E53 	 .ascii "_ZNSt7__cxx1112basic_stringIcSt11char_traitsIcESaIc"
 17586      74375F5F 
 17586      63787831 
 17586      31313262 
 17586      61736963 
 17587 3754 45456153 	 .ascii "EEaSERKS4_\000"
 17587      45524B53 
 17587      345F00
 17588              	.LASF941:
 17589 375f 73797374 	 .ascii "system\000"
 17589      656D00
 17590              	.LASF143:
 17591 3766 696E7431 	 .ascii "int16_t\000"
 17591      365F7400 
 17592              	.LASF296:
 17593 376e 5F5A4E53 	 .ascii "_ZNSt7__cxx1112basic_stringIcSt11char_traitsIcESaIc"
 17593      74375F5F 
 17593      63787831 
 17593      31313262 
 17593      61736963 
 17594 37a1 45453772 	 .ascii "EE7reserveEj\000"
 17594      65736572 
 17594      7665456A 
ARM GAS   			page 355


 17594      00
 17595              	.LASF7:
 17596 37ae 73686F72 	 .ascii "short unsigned int\000"
 17596      7420756E 
 17596      7369676E 
 17596      65642069 
 17596      6E7400
 17597              	.LASF2:
 17598 37c1 7369676E 	 .ascii "signed char\000"
 17598      65642063 
 17598      68617200 
 17599              	.LASF528:
 17600 37cd 5F5A5374 	 .ascii "_ZSt6islessff\000"
 17600      3669736C 
 17600      65737366 
 17600      6600
 17601              	.LASF471:
 17602 37db 5F5A5374 	 .ascii "_ZSt5log10e\000"
 17602      356C6F67 
 17602      31306500 
 17603              	.LASF472:
 17604 37e7 5F5A5374 	 .ascii "_ZSt5log10f\000"
 17604      356C6F67 
 17604      31306600 
 17605              	.LASF340:
 17606 37f3 5F5A4E53 	 .ascii "_ZNSt7__cxx1112basic_stringIcSt11char_traitsIcESaIc"
 17606      74375F5F 
 17606      63787831 
 17606      31313262 
 17606      61736963 
 17607 3826 45453669 	 .ascii "EE6insertEjRKS4_jj\000"
 17607      6E736572 
 17607      74456A52 
 17607      4B53345F 
 17607      6A6A00
 17608              	.LASF681:
 17609 3839 5F5A4E53 	 .ascii "_ZNSt11char_traitsIcE6assignEPcjc\000"
 17609      74313163 
 17609      6861725F 
 17609      74726169 
 17609      74734963 
 17610              	.LASF390:
 17611 385b 5F5A4E4B 	 .ascii "_ZNKSt7__cxx1112basic_stringIcSt11char_traitsIcESaI"
 17611      5374375F 
 17611      5F637878 
 17611      31313132 
 17611      62617369 
 17612 388e 63454535 	 .ascii "cEE5rfindEPKcjj\000"
 17612      7266696E 
 17612      6445504B 
 17612      636A6A00 
 17613              	.LASF727:
 17614 389e 64696666 	 .ascii "difference_type\000"
 17614      6572656E 
 17614      63655F74 
 17614      79706500 
 17615              	.LASF691:
ARM GAS   			page 356


 17616 38ae 70747264 	 .ascii "ptrdiff_t\000"
 17616      6966665F 
 17616      7400
 17617              	.LASF706:
 17618 38b8 5F5A4E53 	 .ascii "_ZNSt16allocator_traitsISaIcEE10deallocateERS0_Pcj\000"
 17618      74313661 
 17618      6C6C6F63 
 17618      61746F72 
 17618      5F747261 
 17619              	.LASF853:
 17620 38eb 73777072 	 .ascii "swprintf\000"
 17620      696E7466 
 17620      00
 17621              	.LASF651:
 17622 38f4 5F5A4E53 	 .ascii "_ZNSt15__exception_ptr13exception_ptrC4Ev\000"
 17622      7431355F 
 17622      5F657863 
 17622      65707469 
 17622      6F6E5F70 
 17623              	.LASF387:
 17624 391e 5F5A4E4B 	 .ascii "_ZNKSt7__cxx1112basic_stringIcSt11char_traitsIcESaI"
 17624      5374375F 
 17624      5F637878 
 17624      31313132 
 17624      62617369 
 17625 3951 63454534 	 .ascii "cEE4findEcj\000"
 17625      66696E64 
 17625      45636A00 
 17626              	.LASF826:
 17627 395d 57616172 	 .ascii "Waarschuwing\000"
 17627      73636875 
 17627      77696E67 
 17627      00
 17628              	.LASF311:
 17629 396a 6261636B 	 .ascii "back\000"
 17629      00
 17630              	.LASF289:
 17631 396f 5F5A4E53 	 .ascii "_ZNSt7__cxx1112basic_stringIcSt11char_traitsIcESaIc"
 17631      74375F5F 
 17631      63787831 
 17631      31313262 
 17631      61736963 
 17632 39a2 45453672 	 .ascii "EE6resizeEjc\000"
 17632      6573697A 
 17632      65456A63 
 17632      00
 17633              	.LASF462:
 17634 39af 66726578 	 .ascii "frexp\000"
 17634      7000
 17635              	.LASF363:
 17636 39b5 5F5A4E53 	 .ascii "_ZNSt7__cxx1112basic_stringIcSt11char_traitsIcESaIc"
 17636      74375F5F 
 17636      63787831 
 17636      31313262 
 17636      61736963 
 17637 39e8 45453772 	 .ascii "EE7replaceEN9__gnu_cxx17__normal_iteratorIPKcS4_EES"
 17637      65706C61 
ARM GAS   			page 357


 17637      6365454E 
 17637      395F5F67 
 17637      6E755F63 
 17638 3a1b 395F5338 	 .ascii "9_S8_S8_\000"
 17638      5F53385F 
 17638      00
 17639              	.LASF356:
 17640 3a24 5F5A4E53 	 .ascii "_ZNSt7__cxx1112basic_stringIcSt11char_traitsIcESaIc"
 17640      74375F5F 
 17640      63787831 
 17640      31313262 
 17640      61736963 
 17641 3a57 45453772 	 .ascii "EE7replaceEjjPKc\000"
 17641      65706C61 
 17641      6365456A 
 17641      6A504B63 
 17641      00
 17642              	.LASF122:
 17643 3a68 5F667265 	 .ascii "_freelist\000"
 17643      656C6973 
 17643      7400
 17644              	.LASF395:
 17645 3a72 5F5A4E4B 	 .ascii "_ZNKSt7__cxx1112basic_stringIcSt11char_traitsIcESaI"
 17645      5374375F 
 17645      5F637878 
 17645      31313132 
 17645      62617369 
 17646 3aa5 63454531 	 .ascii "cEE13find_first_ofEPKcjj\000"
 17646      3366696E 
 17646      645F6669 
 17646      7273745F 
 17646      6F664550 
 17647              	.LASF19:
 17648 3abe 5F5F7569 	 .ascii "__uint_least16_t\000"
 17648      6E745F6C 
 17648      65617374 
 17648      31365F74 
 17648      00
 17649              	.LASF866:
 17650 3acf 77637363 	 .ascii "wcscpy\000"
 17650      707900
 17651              	.LASF1008:
 17652 3ad6 5369676E 	 .ascii "SignaalAmplitudeVeranderd\000"
 17652      61616C41 
 17652      6D706C69 
 17652      74756465 
 17652      56657261 
 17653              	.LASF288:
 17654 3af0 72657369 	 .ascii "resize\000"
 17654      7A6500
 17655              	.LASF858:
 17656 3af7 76737770 	 .ascii "vswprintf\000"
 17656      72696E74 
 17656      6600
 17657              	.LASF851:
 17658 3b01 70757477 	 .ascii "putwc\000"
 17658      6300
ARM GAS   			page 358


 17659              	.LASF187:
 17660 3b07 5F5A4E53 	 .ascii "_ZNSt7__cxx1112basic_stringIcSt11char_traitsIcESaIc"
 17660      74375F5F 
 17660      63787831 
 17660      31313262 
 17660      61736963 
 17661 3b3a 45453133 	 .ascii "EE13_M_local_dataEv\000"
 17661      5F4D5F6C 
 17661      6F63616C 
 17661      5F646174 
 17661      61457600 
 17662              	.LASF721:
 17663 3b4e 72657665 	 .ascii "reverse_iterator<__gnu_cxx::__normal_iterator<char*"
 17663      7273655F 
 17663      69746572 
 17663      61746F72 
 17663      3C5F5F67 
 17664 3b81 2C207374 	 .ascii ", std::__cxx11::basic_string<char, std::char_traits"
 17664      643A3A5F 
 17664      5F637878 
 17664      31313A3A 
 17664      62617369 
 17665 3bb4 3C636861 	 .ascii "<char>, std::allocator<char> > > >\000"
 17665      723E2C20 
 17665      7374643A 
 17665      3A616C6C 
 17665      6F636174 
 17666              	.LASF81:
 17667 3bd7 5F6F6666 	 .ascii "_offset\000"
 17667      73657400 
 17668              	.LASF723:
 17669 3bdf 73747269 	 .ascii "string\000"
 17669      6E6700
 17670              	.LASF577:
 17671 3be6 5F5A5374 	 .ascii "_ZSt4fminff\000"
 17671      34666D69 
 17671      6E666600 
 17672              	.LASF495:
 17673 3bf2 5F5A5374 	 .ascii "_ZSt10fpclassifyd\000"
 17673      31306670 
 17673      636C6173 
 17673      73696679 
 17673      6400
 17674              	.LASF496:
 17675 3c04 5F5A5374 	 .ascii "_ZSt10fpclassifyf\000"
 17675      31306670 
 17675      636C6173 
 17675      73696679 
 17675      6600
 17676              	.LASF491:
 17677 3c16 5F5A5374 	 .ascii "_ZSt4fmodee\000"
 17677      34666D6F 
 17677      64656500 
 17678              	.LASF66:
 17679 3c22 5F5F7362 	 .ascii "__sbuf\000"
 17679      756600
 17680              	.LASF933:
ARM GAS   			page 359


 17681 3c29 6D627374 	 .ascii "mbstowcs\000"
 17681      6F776373 
 17681      00
 17682              	.LASF989:
 17683 3c32 5F5A4E31 	 .ascii "_ZN12cpp_freertos5DequeC4Emm\000"
 17683      32637070 
 17683      5F667265 
 17683      6572746F 
 17683      73354465 
 17684              	.LASF831:
 17685 3c4f 4F6E6265 	 .ascii "Onbekend\000"
 17685      6B656E64 
 17685      00
 17686              	.LASF97:
 17687 3c58 5F6C3634 	 .ascii "_l64a_buf\000"
 17687      615F6275 
 17687      6600
 17688              	.LASF785:
 17689 3c62 5F5A4E39 	 .ascii "_ZN9__gnu_cxx17__normal_iteratorIPcNSt7__cxx1112bas"
 17689      5F5F676E 
 17689      755F6378 
 17689      7831375F 
 17689      5F6E6F72 
 17690 3c95 69635F73 	 .ascii "ic_stringIcSt11char_traitsIcESaIcEEEEmIEi\000"
 17690      7472696E 
 17690      67496353 
 17690      74313163 
 17690      6861725F 
 17691              	.LASF837:
 17692 3cbf 6D627374 	 .ascii "mbstate_t\000"
 17692      6174655F 
 17692      7400
 17693              	.LASF914:
 17694 3cc9 6E5F7369 	 .ascii "n_sign_posn\000"
 17694      676E5F70 
 17694      6F736E00 
 17695              	.LASF873:
 17696 3cd5 77637372 	 .ascii "wcsrtombs\000"
 17696      746F6D62 
 17696      7300
 17697              	.LASF238:
 17698 3cdf 5F4D5F65 	 .ascii "_M_erase\000"
 17698      72617365 
 17698      00
 17699              	.LASF892:
 17700 3ce8 776D656D 	 .ascii "wmemchr\000"
 17700      63687200 
 17701              	.LASF738:
 17702 3cf0 7E6E6577 	 .ascii "~new_allocator\000"
 17702      5F616C6C 
 17702      6F636174 
 17702      6F7200
 17703              	.LASF679:
 17704 3cff 5F5A4E53 	 .ascii "_ZNSt11char_traitsIcE4moveEPcPKcj\000"
 17704      74313163 
 17704      6861725F 
 17704      74726169 
ARM GAS   			page 360


 17704      74734963 
 17705              	.LASF867:
 17706 3d21 77637363 	 .ascii "wcscspn\000"
 17706      73706E00 
 17707              	.LASF646:
 17708 3d29 5F4D5F72 	 .ascii "_M_release\000"
 17708      656C6561 
 17708      736500
 17709              	.LASF594:
 17710 3d34 5F5A5374 	 .ascii "_ZSt5log1pe\000"
 17710      356C6F67 
 17710      31706500 
 17711              	.LASF595:
 17712 3d40 5F5A5374 	 .ascii "_ZSt5log1pf\000"
 17712      356C6F67 
 17712      31706600 
 17713              	.LASF360:
 17714 3d4c 5F5A4E53 	 .ascii "_ZNSt7__cxx1112basic_stringIcSt11char_traitsIcESaIc"
 17714      74375F5F 
 17714      63787831 
 17714      31313262 
 17714      61736963 
 17715 3d7f 45453772 	 .ascii "EE7replaceEN9__gnu_cxx17__normal_iteratorIPKcS4_EES"
 17715      65706C61 
 17715      6365454E 
 17715      395F5F67 
 17715      6E755F63 
 17716 3db2 395F5338 	 .ascii "9_S8_\000"
 17716      5F00
 17717              	.LASF968:
 17718 3db8 72656E61 	 .ascii "rename\000"
 17718      6D6500
 17719              	.LASF89:
 17720 3dbf 5F617363 	 .ascii "_asctime_buf\000"
 17720      74696D65 
 17720      5F627566 
 17720      00
 17721              	.LASF492:
 17722 3dcc 5F5A5374 	 .ascii "_ZSt4fmodff\000"
 17722      34666D6F 
 17722      64666600 
 17723              	.LASF181:
 17724 3dd8 5F4D5F64 	 .ascii "_M_data\000"
 17724      61746100 
 17725              	.LASF35:
 17726 3de0 5F5F7763 	 .ascii "__wch\000"
 17726      6800
 17727              	.LASF104:
 17728 3de6 5F776373 	 .ascii "_wcsrtombs_state\000"
 17728      72746F6D 
 17728      62735F73 
 17728      74617465 
 17728      00
 17729              	.LASF276:
 17730 3df7 63656E64 	 .ascii "cend\000"
 17730      00
 17731              	.LASF1094:
ARM GAS   			page 361


 17732 3dfc 5F5A4E39 	 .ascii "_ZN9__gnu_cxx14__alloc_traitsISaIcEcE10_S_on_swapER"
 17732      5F5F676E 
 17732      755F6378 
 17732      7831345F 
 17732      5F616C6C 
 17733 3e2f 53315F53 	 .ascii "S1_S3_\000"
 17733      335F00
 17734              	.LASF319:
 17735 3e36 61707065 	 .ascii "append\000"
 17735      6E6400
 17736              	.LASF321:
 17737 3e3d 5F5A4E53 	 .ascii "_ZNSt7__cxx1112basic_stringIcSt11char_traitsIcESaIc"
 17737      74375F5F 
 17737      63787831 
 17737      31313262 
 17737      61736963 
 17738 3e70 45453661 	 .ascii "EE6appendERKS4_jj\000"
 17738      7070656E 
 17738      6445524B 
 17738      53345F6A 
 17738      6A00
 17739              	.LASF394:
 17740 3e82 5F5A4E4B 	 .ascii "_ZNKSt7__cxx1112basic_stringIcSt11char_traitsIcESaI"
 17740      5374375F 
 17740      5F637878 
 17740      31313132 
 17740      62617369 
 17741 3eb5 63454531 	 .ascii "cEE13find_first_ofERKS4_j\000"
 17741      3366696E 
 17741      645F6669 
 17741      7273745F 
 17741      6F664552 
 17742              	.LASF859:
 17743 3ecf 76737773 	 .ascii "vswscanf\000"
 17743      63616E66 
 17743      00
 17744              	.LASF967:
 17745 3ed8 72656D6F 	 .ascii "remove\000"
 17745      766500
 17746              	.LASF373:
 17747 3edf 636F7079 	 .ascii "copy\000"
 17747      00
 17748              	.LASF687:
 17749 3ee4 65715F69 	 .ascii "eq_int_type\000"
 17749      6E745F74 
 17749      79706500 
 17750              	.LASF417:
 17751 3ef0 5F5A4E4B 	 .ascii "_ZNKSt7__cxx1112basic_stringIcSt11char_traitsIcESaI"
 17751      5374375F 
 17751      5F637878 
 17751      31313132 
 17751      62617369 
 17752 3f23 63454537 	 .ascii "cEE7compareEjjRKS4_\000"
 17752      636F6D70 
 17752      61726545 
 17752      6A6A524B 
 17752      53345F00 
ARM GAS   			page 362


 17753              	.LASF661:
 17754 3f37 5F5F6378 	 .ascii "__cxa_exception_type\000"
 17754      615F6578 
 17754      63657074 
 17754      696F6E5F 
 17754      74797065 
 17755              	.LASF204:
 17756 3f4c 5F5A4E53 	 .ascii "_ZNSt7__cxx1112basic_stringIcSt11char_traitsIcESaIc"
 17756      74375F5F 
 17756      63787831 
 17756      31313262 
 17756      61736963 
 17757 3f7f 45453138 	 .ascii "EE18_M_construct_aux_2Ejc\000"
 17757      5F4D5F63 
 17757      6F6E7374 
 17757      72756374 
 17757      5F617578 
 17758              	.LASF572:
 17759 3f99 666D6178 	 .ascii "fmax\000"
 17759      00
 17760              	.LASF9:
 17761 3f9e 6C6F6E67 	 .ascii "long int\000"
 17761      20696E74 
 17761      00
 17762              	.LASF956:
 17763 3fa7 66676574 	 .ascii "fgetpos\000"
 17763      706F7300 
 17764              	.LASF708:
 17765 3faf 73656C65 	 .ascii "select_on_container_copy_construction\000"
 17765      63745F6F 
 17765      6E5F636F 
 17765      6E746169 
 17765      6E65725F 
 17766              	.LASF742:
 17767 3fd5 5F5A4E4B 	 .ascii "_ZNK9__gnu_cxx13new_allocatorIcE7addressERKc\000"
 17767      395F5F67 
 17767      6E755F63 
 17767      78783133 
 17767      6E65775F 
 17768              	.LASF96:
 17769 4002 5F776374 	 .ascii "_wctomb_state\000"
 17769      6F6D625F 
 17769      73746174 
 17769      6500
 17770              	.LASF860:
 17771 4010 76777072 	 .ascii "vwprintf\000"
 17771      696E7466 
 17771      00
 17772              	.LASF685:
 17773 4019 746F5F69 	 .ascii "to_int_type\000"
 17773      6E745F74 
 17773      79706500 
 17774              	.LASF452:
 17775 4025 5F5A5374 	 .ascii "_ZSt4coshe\000"
 17775      34636F73 
 17775      686500
 17776              	.LASF453:
ARM GAS   			page 363


 17777 4030 5F5A5374 	 .ascii "_ZSt4coshf\000"
 17777      34636F73 
 17777      686600
 17778              	.LASF409:
 17779 403b 5F5A4E4B 	 .ascii "_ZNKSt7__cxx1112basic_stringIcSt11char_traitsIcESaI"
 17779      5374375F 
 17779      5F637878 
 17779      31313132 
 17779      62617369 
 17780 406e 63454531 	 .ascii "cEE16find_last_not_ofERKS4_j\000"
 17780      3666696E 
 17780      645F6C61 
 17780      73745F6E 
 17780      6F745F6F 
 17781              	.LASF650:
 17782 408b 5F5A4E53 	 .ascii "_ZNSt15__exception_ptr13exception_ptrC4EPv\000"
 17782      7431355F 
 17782      5F657863 
 17782      65707469 
 17782      6F6E5F70 
 17783              	.LASF466:
 17784 40b6 5F5A5374 	 .ascii "_ZSt5ldexpei\000"
 17784      356C6465 
 17784      78706569 
 17784      00
 17785              	.LASF700:
 17786 40c3 616C6C6F 	 .ascii "allocator_traits<std::allocator<char> >\000"
 17786      6361746F 
 17786      725F7472 
 17786      61697473 
 17786      3C737464 
 17787              	.LASF509:
 17788 40eb 69736E6F 	 .ascii "isnormal\000"
 17788      726D616C 
 17788      00
 17789              	.LASF17:
 17790 40f4 5F5F7569 	 .ascii "__uint_least8_t\000"
 17790      6E745F6C 
 17790      65617374 
 17790      385F7400 
 17791              	.LASF1032:
 17792 4104 67656566 	 .ascii "geefPrioriteit\000"
 17792      5072696F 
 17792      72697465 
 17792      697400
 17793              	.LASF300:
 17794 4113 5F5A4E4B 	 .ascii "_ZNKSt7__cxx1112basic_stringIcSt11char_traitsIcESaI"
 17794      5374375F 
 17794      5F637878 
 17794      31313132 
 17794      62617369 
 17795 4146 63454535 	 .ascii "cEE5emptyEv\000"
 17795      656D7074 
 17795      79457600 
 17796              	.LASF964:
 17797 4152 67657463 	 .ascii "getc\000"
 17797      00
ARM GAS   			page 364


 17798              	.LASF887:
 17799 4157 77736361 	 .ascii "wscanf\000"
 17799      6E6600
 17800              	.LASF539:
 17801 415e 5F5A5374 	 .ascii "_ZSt11isunordereddd\000"
 17801      31316973 
 17801      756E6F72 
 17801      64657265 
 17801      64646400 
 17802              	.LASF134:
 17803 4172 5F696F62 	 .ascii "_iobs\000"
 17803      7300
 17804              	.LASF114:
 17805 4178 5F656D65 	 .ascii "_emergency\000"
 17805      7267656E 
 17805      637900
 17806              	.LASF281:
 17807 4183 5F5A4E4B 	 .ascii "_ZNKSt7__cxx1112basic_stringIcSt11char_traitsIcESaI"
 17807      5374375F 
 17807      5F637878 
 17807      31313132 
 17807      62617369 
 17808 41b6 63454535 	 .ascii "cEE5crendEv\000"
 17808      6372656E 
 17808      64457600 
 17809              	.LASF823:
 17810 41c2 54776F50 	 .ascii "TwoPI\000"
 17810      4900
 17811              	.LASF494:
 17812 41c8 5F5A5374 	 .ascii "_ZSt10fpclassifye\000"
 17812      31306670 
 17812      636C6173 
 17812      73696679 
 17812      6500
 17813              	.LASF662:
 17814 41da 5F5A4E4B 	 .ascii "_ZNKSt15__exception_ptr13exception_ptr20__cxa_excep"
 17814      53743135 
 17814      5F5F6578 
 17814      63657074 
 17814      696F6E5F 
 17815 420d 74696F6E 	 .ascii "tion_typeEv\000"
 17815      5F747970 
 17815      65457600 
 17816              	.LASF621:
 17817 4219 5F5A5374 	 .ascii "_ZSt6remquoeePi\000"
 17817      3672656D 
 17817      71756F65 
 17817      65506900 
 17818              	.LASF106:
 17819 4229 5F6E6578 	 .ascii "_nextf\000"
 17819      746600
 17820              	.LASF92:
 17821 4230 5F72616E 	 .ascii "_rand_next\000"
 17821      645F6E65 
 17821      787400
 17822              	.LASF1077:
 17823 423b 7461616B 	 .ascii "taakPtr\000"
ARM GAS   			page 365


 17823      50747200 
 17824              	.LASF541:
 17825 4243 61636F73 	 .ascii "acosh\000"
 17825      6800
 17826              	.LASF191:
 17827 4249 5F5A4E53 	 .ascii "_ZNSt7__cxx1112basic_stringIcSt11char_traitsIcESaIc"
 17827      74375F5F 
 17827      63787831 
 17827      31313262 
 17827      61736963 
 17828 427c 45453131 	 .ascii "EE11_M_capacityEj\000"
 17828      5F4D5F63 
 17828      61706163 
 17828      69747945 
 17828      6A00
 17829              	.LASF151:
 17830 428e 696E7470 	 .ascii "intptr_t\000"
 17830      74725F74 
 17830      00
 17831              	.LASF173:
 17832 4297 5F5A4E53 	 .ascii "_ZNSt7__cxx1112basic_stringIcSt11char_traitsIcESaIc"
 17832      74375F5F 
 17832      63787831 
 17832      31313262 
 17832      61736963 
 17833 42ca 45453132 	 .ascii "EE12_Alloc_hiderC4EPcOS3_\000"
 17833      5F416C6C 
 17833      6F635F68 
 17833      69646572 
 17833      43344550 
 17834              	.LASF902:
 17835 42e4 6D6F6E5F 	 .ascii "mon_decimal_point\000"
 17835      64656369 
 17835      6D616C5F 
 17835      706F696E 
 17835      7400
 17836              	.LASF146:
 17837 42f6 75696E74 	 .ascii "uint32_t\000"
 17837      33325F74 
 17837      00
 17838              	.LASF305:
 17839 42ff 5F5A4E53 	 .ascii "_ZNSt7__cxx1112basic_stringIcSt11char_traitsIcESaIc"
 17839      74375F5F 
 17839      63787831 
 17839      31313262 
 17839      61736963 
 17840 4332 45456978 	 .ascii "EEixEj\000"
 17840      456A00
 17841              	.LASF538:
 17842 4339 5F5A5374 	 .ascii "_ZSt11isunorderedee\000"
 17842      31316973 
 17842      756E6F72 
 17842      64657265 
 17842      64656500 
 17843              	.LASF783:
 17844 434d 5F5A4E4B 	 .ascii "_ZNK9__gnu_cxx17__normal_iteratorIPcNSt7__cxx1112ba"
 17844      395F5F67 
ARM GAS   			page 366


 17844      6E755F63 
 17844      78783137 
 17844      5F5F6E6F 
 17845 4380 7369635F 	 .ascii "sic_stringIcSt11char_traitsIcESaIcEEEEplEi\000"
 17845      73747269 
 17845      6E674963 
 17845      53743131 
 17845      63686172 
 17846              	.LASF44:
 17847 43ab 5F6D6178 	 .ascii "_maxwds\000"
 17847      77647300 
 17848              	.LASF380:
 17849 43b3 5F5A4E4B 	 .ascii "_ZNKSt7__cxx1112basic_stringIcSt11char_traitsIcESaI"
 17849      5374375F 
 17849      5F637878 
 17849      31313132 
 17849      62617369 
 17850 43e6 63454534 	 .ascii "cEE4dataEv\000"
 17850      64617461 
 17850      457600
 17851              	.LASF617:
 17852 43f1 72656D61 	 .ascii "remainder\000"
 17852      696E6465 
 17852      7200
 17853              	.LASF758:
 17854 43fb 5F5A4E39 	 .ascii "_ZN9__gnu_cxx14__alloc_traitsISaIcEcE20_S_propagate"
 17854      5F5F676E 
 17854      755F6378 
 17854      7831345F 
 17854      5F616C6C 
 17855 442e 5F6F6E5F 	 .ascii "_on_swapEv\000"
 17855      73776170 
 17855      457600
 17856              	.LASF244:
 17857 4439 5F5A4E53 	 .ascii "_ZNSt7__cxx1112basic_stringIcSt11char_traitsIcESaIc"
 17857      74375F5F 
 17857      63787831 
 17857      31313262 
 17857      61736963 
 17858 446c 45454334 	 .ascii "EEC4ERKS4_jj\000"
 17858      45524B53 
 17858      345F6A6A 
 17858      00
 17859              	.LASF422:
 17860 4479 5F547261 	 .ascii "_Traits\000"
 17860      69747300 
 17861              	.LASF152:
 17862 4481 75696E74 	 .ascii "uintptr_t\000"
 17862      7074725F 
 17862      7400
 17863              	.LASF576:
 17864 448b 5F5A5374 	 .ascii "_ZSt4fminee\000"
 17864      34666D69 
 17864      6E656500 
 17865              	.LASF329:
 17866 4497 5F5A4E53 	 .ascii "_ZNSt7__cxx1112basic_stringIcSt11char_traitsIcESaIc"
 17866      74375F5F 
ARM GAS   			page 367


 17866      63787831 
 17866      31313262 
 17866      61736963 
 17867 44ca 45453661 	 .ascii "EE6assignERKS4_\000"
 17867      73736967 
 17867      6E45524B 
 17867      53345F00 
 17868              	.LASF407:
 17869 44da 5F5A4E4B 	 .ascii "_ZNKSt7__cxx1112basic_stringIcSt11char_traitsIcESaI"
 17869      5374375F 
 17869      5F637878 
 17869      31313132 
 17869      62617369 
 17870 450d 63454531 	 .ascii "cEE17find_first_not_ofEcj\000"
 17870      3766696E 
 17870      645F6669 
 17870      7273745F 
 17870      6E6F745F 
 17871              	.LASF1027:
 17872 4527 76726163 	 .ascii "vracht\000"
 17872      687400
 17873              	.LASF30:
 17874 452e 6C6F6E67 	 .ascii "long double\000"
 17874      20646F75 
 17874      626C6500 
 17875              	.LASF732:
 17876 453a 73747269 	 .ascii "string_literals\000"
 17876      6E675F6C 
 17876      69746572 
 17876      616C7300 
 17877              	.LASF635:
 17878 454a 7467616D 	 .ascii "tgamma\000"
 17878      6D6100
 17879              	.LASF295:
 17880 4551 72657365 	 .ascii "reserve\000"
 17880      72766500 
 17881              	.LASF1045:
 17882 4559 5F5A4E37 	 .ascii "_ZN7StdTaak8geefTaakE8TaakPrio\000"
 17882      53746454 
 17882      61616B38 
 17882      67656566 
 17882      5461616B 
 17883              	.LASF399:
 17884 4578 5F5A4E4B 	 .ascii "_ZNKSt7__cxx1112basic_stringIcSt11char_traitsIcESaI"
 17884      5374375F 
 17884      5F637878 
 17884      31313132 
 17884      62617369 
 17885 45ab 63454531 	 .ascii "cEE12find_last_ofERKS4_j\000"
 17885      3266696E 
 17885      645F6C61 
 17885      73745F6F 
 17885      6645524B 
 17886              	.LASF602:
 17887 45c4 6C72696E 	 .ascii "lrint\000"
 17887      7400
 17888              	.LASF339:
ARM GAS   			page 368


 17889 45ca 5F5A4E53 	 .ascii "_ZNSt7__cxx1112basic_stringIcSt11char_traitsIcESaIc"
 17889      74375F5F 
 17889      63787831 
 17889      31313262 
 17889      61736963 
 17890 45fd 45453669 	 .ascii "EE6insertEjRKS4_\000"
 17890      6E736572 
 17890      74456A52 
 17890      4B53345F 
 17890      00
 17891              	.LASF540:
 17892 460e 5F5A5374 	 .ascii "_ZSt11isunorderedff\000"
 17892      31316973 
 17892      756E6F72 
 17892      64657265 
 17892      64666600 
 17893              	.LASF623:
 17894 4622 72696E74 	 .ascii "rint\000"
 17894      00
 17895              	.LASF11:
 17896 4627 6C6F6E67 	 .ascii "long unsigned int\000"
 17896      20756E73 
 17896      69676E65 
 17896      6420696E 
 17896      7400
 17897              	.LASF675:
 17898 4639 5F5A4E53 	 .ascii "_ZNSt11char_traitsIcE7compareEPKcS2_j\000"
 17898      74313163 
 17898      6861725F 
 17898      74726169 
 17898      74734963 
 17899              	.LASF752:
 17900 465f 5F535F6F 	 .ascii "_S_on_swap\000"
 17900      6E5F7377 
 17900      617000
 17901              	.LASF1074:
 17902 466a 7461616B 	 .ascii "taakID\000"
 17902      494400
 17903              	.LASF314:
 17904 4671 6F706572 	 .ascii "operator+=\000"
 17904      61746F72 
 17904      2B3D00
 17905              	.LASF615:
 17906 467c 5F5A5374 	 .ascii "_ZSt10nexttowardee\000"
 17906      31306E65 
 17906      7874746F 
 17906      77617264 
 17906      656500
 17907              	.LASF973:
 17908 468f 746D706E 	 .ascii "tmpnam\000"
 17908      616D00
 17909              	.LASF953:
 17910 4696 66657272 	 .ascii "ferror\000"
 17910      6F7200
 17911              	.LASF423:
 17912 469d 5F416C6C 	 .ascii "_Alloc\000"
 17912      6F6300
ARM GAS   			page 369


 17913              	.LASF185:
 17914 46a4 5F5A4E4B 	 .ascii "_ZNKSt7__cxx1112basic_stringIcSt11char_traitsIcESaI"
 17914      5374375F 
 17914      5F637878 
 17914      31313132 
 17914      62617369 
 17915 46d7 63454537 	 .ascii "cEE7_M_dataEv\000"
 17915      5F4D5F64 
 17915      61746145 
 17915      7600
 17916              	.LASF355:
 17917 46e5 5F5A4E53 	 .ascii "_ZNSt7__cxx1112basic_stringIcSt11char_traitsIcESaIc"
 17917      74375F5F 
 17917      63787831 
 17917      31313262 
 17917      61736963 
 17918 4718 45453772 	 .ascii "EE7replaceEjjPKcj\000"
 17918      65706C61 
 17918      6365456A 
 17918      6A504B63 
 17918      6A00
 17919              	.LASF774:
 17920 472a 6F706572 	 .ascii "operator++\000"
 17920      61746F72 
 17920      2B2B00
 17921              	.LASF1099:
 17922 4735 5F5F6774 	 .ascii "__gthread_key_delete\000"
 17922      68726561 
 17922      645F6B65 
 17922      795F6465 
 17922      6C657465 
 17923              	.LASF77:
 17924 474a 5F636C6F 	 .ascii "_close\000"
 17924      736500
 17925              	.LASF179:
 17926 4751 5F4D5F64 	 .ascii "_M_dataplus\000"
 17926      61746170 
 17926      6C757300 
 17927              	.LASF368:
 17928 475d 5F5A4E53 	 .ascii "_ZNSt7__cxx1112basic_stringIcSt11char_traitsIcESaIc"
 17928      74375F5F 
 17928      63787831 
 17928      31313262 
 17928      61736963 
 17929 4790 45453134 	 .ascii "EE14_M_replace_auxEjjjc\000"
 17929      5F4D5F72 
 17929      65706C61 
 17929      63655F61 
 17929      7578456A 
 17930              	.LASF130:
 17931 47a8 63686172 	 .ascii "char\000"
 17931      00
 17932              	.LASF376:
 17933 47ad 5F5A4E53 	 .ascii "_ZNSt7__cxx1112basic_stringIcSt11char_traitsIcESaIc"
 17933      74375F5F 
 17933      63787831 
 17933      31313262 
ARM GAS   			page 370


 17933      61736963 
 17934 47e0 45453473 	 .ascii "EE4swapERS4_\000"
 17934      77617045 
 17934      5253345F 
 17934      00
 17935              	.LASF450:
 17936 47ed 5F5A5374 	 .ascii "_ZSt3tanf\000"
 17936      3374616E 
 17936      6600
 17937              	.LASF981:
 17938 47f7 5F5A4E31 	 .ascii "_ZN12cpp_freertos6Thread5DelayEm\000"
 17938      32637070 
 17938      5F667265 
 17938      6572746F 
 17938      73365468 
 17939              	.LASF465:
 17940 4818 6C646578 	 .ascii "ldexp\000"
 17940      7000
 17941              	.LASF132:
 17942 481e 5F676C75 	 .ascii "_glue\000"
 17942      6500
 17943              	.LASF893:
 17944 4824 77637374 	 .ascii "wcstold\000"
 17944      6F6C6400 
 17945              	.LASF246:
 17946 482c 5F5A4E53 	 .ascii "_ZNSt7__cxx1112basic_stringIcSt11char_traitsIcESaIc"
 17946      74375F5F 
 17946      63787831 
 17946      31313262 
 17946      61736963 
 17947 485f 45454334 	 .ascii "EEC4EPKcjRKS3_\000"
 17947      45504B63 
 17947      6A524B53 
 17947      335F00
 17948              	.LASF1037:
 17949 486e 73747575 	 .ascii "stuurBericht\000"
 17949      72426572 
 17949      69636874 
 17949      00
 17950              	.LASF1052:
 17951 487b 5F5A4E4B 	 .ascii "_ZNK7StdTaak11geefBerichtEv\000"
 17951      37537464 
 17951      5461616B 
 17951      31316765 
 17951      65664265 
 17952              	.LASF616:
 17953 4897 5F5A5374 	 .ascii "_ZSt10nexttowardfe\000"
 17953      31306E65 
 17953      7874746F 
 17953      77617264 
 17953      666500
 17954              	.LASF626:
 17955 48aa 726F756E 	 .ascii "round\000"
 17955      6400
 17956              	.LASF158:
 17957 48b0 75696E74 	 .ascii "uint_least16_t\000"
 17957      5F6C6561 
ARM GAS   			page 371


 17957      73743136 
 17957      5F7400
 17958              	.LASF336:
 17959 48bf 696E7365 	 .ascii "insert\000"
 17959      727400
 17960              	.LASF558:
 17961 48c6 65726663 	 .ascii "erfc\000"
 17961      00
 17962              	.LASF410:
 17963 48cb 5F5A4E4B 	 .ascii "_ZNKSt7__cxx1112basic_stringIcSt11char_traitsIcESaI"
 17963      5374375F 
 17963      5F637878 
 17963      31313132 
 17963      62617369 
 17964 48fe 63454531 	 .ascii "cEE16find_last_not_ofEPKcjj\000"
 17964      3666696E 
 17964      645F6C61 
 17964      73745F6E 
 17964      6F745F6F 
 17965              	.LASF1064:
 17966 491a 72617577 	 .ascii "rauweVertraging\000"
 17966      65566572 
 17966      74726167 
 17966      696E6700 
 17967              	.LASF544:
 17968 492a 6173696E 	 .ascii "asinh\000"
 17968      6800
 17969              	.LASF777:
 17970 4930 6F706572 	 .ascii "operator--\000"
 17970      61746F72 
 17970      2D2D00
 17971              	.LASF430:
 17972 493b 5F5A5374 	 .ascii "_ZSt3absd\000"
 17972      33616273 
 17972      6400
 17973              	.LASF428:
 17974 4945 5F5A5374 	 .ascii "_ZSt3abse\000"
 17974      33616273 
 17974      6500
 17975              	.LASF429:
 17976 494f 5F5A5374 	 .ascii "_ZSt3absf\000"
 17976      33616273 
 17976      6600
 17977              	.LASF479:
 17978 4959 5F5A5374 	 .ascii "_ZSt4sqrte\000"
 17978      34737172 
 17978      746500
 17979              	.LASF480:
 17980 4964 5F5A5374 	 .ascii "_ZSt4sqrtf\000"
 17980      34737172 
 17980      746600
 17981              	.LASF657:
 17982 496f 7E657863 	 .ascii "~exception_ptr\000"
 17982      65707469 
 17982      6F6E5F70 
 17982      747200
 17983              	.LASF432:
ARM GAS   			page 372


 17984 497e 5F5A5374 	 .ascii "_ZSt3absl\000"
 17984      33616273 
 17984      6C00
 17985              	.LASF331:
 17986 4988 5F5A4E53 	 .ascii "_ZNSt7__cxx1112basic_stringIcSt11char_traitsIcESaIc"
 17986      74375F5F 
 17986      63787831 
 17986      31313262 
 17986      61736963 
 17987 49bb 45453661 	 .ascii "EE6assignERKS4_jj\000"
 17987      73736967 
 17987      6E45524B 
 17987      53345F6A 
 17987      6A00
 17988              	.LASF633:
 17989 49cd 5F5A5374 	 .ascii "_ZSt6scalbnei\000"
 17989      36736361 
 17989      6C626E65 
 17989      6900
 17990              	.LASF827:
 17991 49db 466F7574 	 .ascii "Fout\000"
 17991      00
 17992              	.LASF385:
 17993 49e0 5F5A4E4B 	 .ascii "_ZNKSt7__cxx1112basic_stringIcSt11char_traitsIcESaI"
 17993      5374375F 
 17993      5F637878 
 17993      31313132 
 17993      62617369 
 17994 4a13 63454534 	 .ascii "cEE4findERKS4_j\000"
 17994      66696E64 
 17994      45524B53 
 17994      345F6A00 
 17995              	.LASF772:
 17996 4a23 6F706572 	 .ascii "operator->\000"
 17996      61746F72 
 17996      2D3E00
 17997              	.LASF47:
 17998 4a2e 5F426967 	 .ascii "_Bigint\000"
 17998      696E7400 
 17999              	.LASF391:
 18000 4a36 5F5A4E4B 	 .ascii "_ZNKSt7__cxx1112basic_stringIcSt11char_traitsIcESaI"
 18000      5374375F 
 18000      5F637878 
 18000      31313132 
 18000      62617369 
 18001 4a69 63454535 	 .ascii "cEE5rfindEPKcj\000"
 18001      7266696E 
 18001      6445504B 
 18001      636A00
 18002              	.LASF169:
 18003 4a78 696E745F 	 .ascii "int_fast64_t\000"
 18003      66617374 
 18003      36345F74 
 18003      00
 18004              	.LASF24:
 18005 4a85 5F5F696E 	 .ascii "__intmax_t\000"
 18005      746D6178 
ARM GAS   			page 373


 18005      5F7400
 18006              	.LASF190:
 18007 4a90 5F4D5F63 	 .ascii "_M_capacity\000"
 18007      61706163 
 18007      69747900 
 18008              	.LASF460:
 18009 4a9c 5F5A5374 	 .ascii "_ZSt3expe\000"
 18009      33657870 
 18009      6500
 18010              	.LASF461:
 18011 4aa6 5F5A5374 	 .ascii "_ZSt3expf\000"
 18011      33657870 
 18011      6600
 18012              	.LASF570:
 18013 4ab0 5F5A5374 	 .ascii "_ZSt3fmaeee\000"
 18013      33666D61 
 18013      65656500 
 18014              	.LASF27:
 18015 4abc 5F5F7569 	 .ascii "__uintptr_t\000"
 18015      6E747074 
 18015      725F7400 
 18016              	.LASF703:
 18017 4ac8 5F5A4E53 	 .ascii "_ZNSt16allocator_traitsISaIcEE8allocateERS0_jPKv\000"
 18017      74313661 
 18017      6C6C6F63 
 18017      61746F72 
 18017      5F747261 
 18018              	.LASF458:
 18019 4af9 5F5A5374 	 .ascii "_ZSt4tanhe\000"
 18019      3474616E 
 18019      686500
 18020              	.LASF459:
 18021 4b04 5F5A5374 	 .ascii "_ZSt4tanhf\000"
 18021      3474616E 
 18021      686600
 18022              	.LASF1072:
 18023 4b0f 61616E74 	 .ascii "aantalWachtTicks\000"
 18023      616C5761 
 18023      63687454 
 18023      69636B73 
 18023      00
 18024              	.LASF126:
 18025 4b20 5F617465 	 .ascii "_atexit0\000"
 18025      78697430 
 18025      00
 18026              	.LASF335:
 18027 4b29 5F5A4E53 	 .ascii "_ZNSt7__cxx1112basic_stringIcSt11char_traitsIcESaIc"
 18027      74375F5F 
 18027      63787831 
 18027      31313262 
 18027      61736963 
 18028 4b5c 45453661 	 .ascii "EE6assignESt16initializer_listIcE\000"
 18028      73736967 
 18028      6E455374 
 18028      3136696E 
 18028      69746961 
 18029              	.LASF1062:
ARM GAS   			page 374


 18030 4b7e 5F5A4E37 	 .ascii "_ZN7StdTaakD4Ev\000"
 18030      53746454 
 18030      61616B44 
 18030      34457600 
 18031              	.LASF634:
 18032 4b8e 5F5A5374 	 .ascii "_ZSt6scalbnfi\000"
 18032      36736361 
 18032      6C626E66 
 18032      6900
 18033              	.LASF663:
 18034 4b9c 72657468 	 .ascii "rethrow_exception\000"
 18034      726F775F 
 18034      65786365 
 18034      7074696F 
 18034      6E00
 18035              	.LASF618:
 18036 4bae 5F5A5374 	 .ascii "_ZSt9remainderee\000"
 18036      3972656D 
 18036      61696E64 
 18036      65726565 
 18036      00
 18037              	.LASF99:
 18038 4bbf 5F676574 	 .ascii "_getdate_err\000"
 18038      64617465 
 18038      5F657272 
 18038      00
 18039              	.LASF647:
 18040 4bcc 5F5A4E53 	 .ascii "_ZNSt15__exception_ptr13exception_ptr10_M_releaseEv"
 18040      7431355F 
 18040      5F657863 
 18040      65707469 
 18040      6F6E5F70 
 18041 4bff 00       	 .ascii "\000"
 18042              	.LASF371:
 18043 4c00 5F4D5F61 	 .ascii "_M_append\000"
 18043      7070656E 
 18043      6400
 18044              	.LASF945:
 18045 4c0a 61746F6C 	 .ascii "atoll\000"
 18045      6C00
 18046              	.LASF351:
 18047 4c10 5F5A4E53 	 .ascii "_ZNSt7__cxx1112basic_stringIcSt11char_traitsIcESaIc"
 18047      74375F5F 
 18047      63787831 
 18047      31313262 
 18047      61736963 
 18048 4c43 45453870 	 .ascii "EE8pop_backEv\000"
 18048      6F705F62 
 18048      61636B45 
 18048      7600
 18049              	.LASF707:
 18050 4c51 5F5A4E53 	 .ascii "_ZNSt16allocator_traitsISaIcEE8max_sizeERKS0_\000"
 18050      74313661 
 18050      6C6C6F63 
 18050      61746F72 
 18050      5F747261 
 18051              	.LASF871:
ARM GAS   			page 375


 18052 4c7f 7763736E 	 .ascii "wcsncmp\000"
 18052      636D7000 
 18053              	.LASF961:
 18054 4c87 66736565 	 .ascii "fseek\000"
 18054      6B00
 18055              	.LASF170:
 18056 4c8d 75696E74 	 .ascii "uint_fast64_t\000"
 18056      5F666173 
 18056      7436345F 
 18056      7400
 18057              	.LASF929:
 18058 4c9b 62736561 	 .ascii "bsearch\000"
 18058      72636800 
 18059              	.LASF189:
 18060 4ca3 5F5A4E4B 	 .ascii "_ZNKSt7__cxx1112basic_stringIcSt11char_traitsIcESaI"
 18060      5374375F 
 18060      5F637878 
 18060      31313132 
 18060      62617369 
 18061 4cd6 63454531 	 .ascii "cEE13_M_local_dataEv\000"
 18061      335F4D5F 
 18061      6C6F6361 
 18061      6C5F6461 
 18061      74614576 
 18062              	.LASF1080:
 18063 4ceb 73746163 	 .ascii "stackGrootte\000"
 18063      6B47726F 
 18063      6F747465 
 18063      00
 18064              	.LASF794:
 18065 4cf8 5F5A4E39 	 .ascii "_ZN9__gnu_cxx17__normal_iteratorIPKcNSt7__cxx1112ba"
 18065      5F5F676E 
 18065      755F6378 
 18065      7831375F 
 18065      5F6E6F72 
 18066 4d2b 7369635F 	 .ascii "sic_stringIcSt11char_traitsIcESaIcEEEEC4Ev\000"
 18066      73747269 
 18066      6E674963 
 18066      53743131 
 18066      63686172 
 18067              	.LASF298:
 18068 4d56 5F5A4E53 	 .ascii "_ZNSt7__cxx1112basic_stringIcSt11char_traitsIcESaIc"
 18068      74375F5F 
 18068      63787831 
 18068      31313262 
 18068      61736963 
 18069 4d89 45453563 	 .ascii "EE5clearEv\000"
 18069      6C656172 
 18069      457600
 18070              	.LASF269:
 18071 4d94 636F6E73 	 .ascii "const_reverse_iterator\000"
 18071      745F7265 
 18071      76657273 
 18071      655F6974 
 18071      65726174 
 18072              	.LASF521:
 18073 4dab 69736772 	 .ascii "isgreaterequal\000"
ARM GAS   			page 376


 18073      65617465 
 18073      72657175 
 18073      616C00
 18074              	.LASF824:
 18075 4dba 55496E74 	 .ascii "UInt16\000"
 18075      313600
 18076              	.LASF568:
 18077 4dc1 5F5A5374 	 .ascii "_ZSt4fdimee\000"
 18077      34666469 
 18077      6D656500 
 18078              	.LASF641:
 18079 4dcd 62617369 	 .ascii "basic_string<char, std::char_traits<char>, std::all"
 18079      635F7374 
 18079      72696E67 
 18079      3C636861 
 18079      722C2073 
 18080 4e00 6F636174 	 .ascii "ocator<char> >\000"
 18080      6F723C63 
 18080      6861723E 
 18080      203E00
 18081              	.LASF342:
 18082 4e0f 5F5A4E53 	 .ascii "_ZNSt7__cxx1112basic_stringIcSt11char_traitsIcESaIc"
 18082      74375F5F 
 18082      63787831 
 18082      31313262 
 18082      61736963 
 18083 4e42 45453669 	 .ascii "EE6insertEjPKc\000"
 18083      6E736572 
 18083      74456A50 
 18083      4B6300
 18084              	.LASF922:
 18085 4e51 67657477 	 .ascii "getwchar\000"
 18085      63686172 
 18085      00
 18086              	.LASF798:
 18087 4e5a 5F5A4E39 	 .ascii "_ZN9__gnu_cxx17__normal_iteratorIPKcNSt7__cxx1112ba"
 18087      5F5F676E 
 18087      755F6378 
 18087      7831375F 
 18087      5F6E6F72 
 18088 4e8d 7369635F 	 .ascii "sic_stringIcSt11char_traitsIcESaIcEEEEppEv\000"
 18088      73747269 
 18088      6E674963 
 18088      53743131 
 18088      63686172 
 18089              	.LASF917:
 18090 4eb8 696E745F 	 .ascii "int_n_sign_posn\000"
 18090      6E5F7369 
 18090      676E5F70 
 18090      6F736E00 
 18091              	.LASF652:
 18092 4ec8 5F5A4E53 	 .ascii "_ZNSt15__exception_ptr13exception_ptrC4ERKS0_\000"
 18092      7431355F 
 18092      5F657863 
 18092      65707469 
 18092      6F6E5F70 
 18093              	.LASF645:
ARM GAS   			page 377


 18094 4ef6 5F5A4E53 	 .ascii "_ZNSt15__exception_ptr13exception_ptr9_M_addrefEv\000"
 18094      7431355F 
 18094      5F657863 
 18094      65707469 
 18094      6F6E5F70 
 18095              	.LASF235:
 18096 4f28 5F5A4E53 	 .ascii "_ZNSt7__cxx1112basic_stringIcSt11char_traitsIcESaIc"
 18096      74375F5F 
 18096      63787831 
 18096      31313262 
 18096      61736963 
 18097 4f5b 4545395F 	 .ascii "EE9_M_assignERKS4_\000"
 18097      4D5F6173 
 18097      7369676E 
 18097      45524B53 
 18097      345F00
 18098              	.LASF241:
 18099 4f6e 5F5A4E53 	 .ascii "_ZNSt7__cxx1112basic_stringIcSt11char_traitsIcESaIc"
 18099      74375F5F 
 18099      63787831 
 18099      31313262 
 18099      61736963 
 18100 4fa1 45454334 	 .ascii "EEC4Ev\000"
 18100      457600
 18101              	.LASF1034:
 18102 4fa8 56726163 	 .ascii "VrachtGrootte\000"
 18102      68744772 
 18102      6F6F7474 
 18102      6500
 18103              	.LASF232:
 18104 4fb6 5F535F63 	 .ascii "_S_compare\000"
 18104      6F6D7061 
 18104      726500
 18105              	.LASF575:
 18106 4fc1 666D696E 	 .ascii "fmin\000"
 18106      00
 18107              	.LASF377:
 18108 4fc6 635F7374 	 .ascii "c_str\000"
 18108      7200
 18109              	.LASF301:
 18110 4fcc 636F6E73 	 .ascii "const_reference\000"
 18110      745F7265 
 18110      66657265 
 18110      6E636500 
 18111              	.LASF717:
 18112 4fdc 5F5A4E53 	 .ascii "_ZNSt16initializer_listIcEC4Ev\000"
 18112      74313669 
 18112      6E697469 
 18112      616C697A 
 18112      65725F6C 
 18113              	.LASF1056:
 18114 4ffb 5F5A4E4B 	 .ascii "_ZNK7StdTaak13geefOntvangerEv\000"
 18114      37537464 
 18114      5461616B 
 18114      31336765 
 18114      65664F6E 
 18115              	.LASF746:
ARM GAS   			page 378


 18116 5019 5F4D5F6D 	 .ascii "_M_max_size\000"
 18116      61785F73 
 18116      697A6500 
 18117              	.LASF80:
 18118 5025 5F626C6B 	 .ascii "_blksize\000"
 18118      73697A65 
 18118      00
 18119              	.LASF736:
 18120 502e 5F5A4E39 	 .ascii "_ZN9__gnu_cxx13new_allocatorIcEC4Ev\000"
 18120      5F5F676E 
 18120      755F6378 
 18120      7831336E 
 18120      65775F61 
 18121              	.LASF986:
 18122 5052 44657175 	 .ascii "Deque\000"
 18122      6500
 18123              	.LASF78:
 18124 5058 5F756275 	 .ascii "_ubuf\000"
 18124      6600
 18125              	.LASF784:
 18126 505e 6F706572 	 .ascii "operator-=\000"
 18126      61746F72 
 18126      2D3D00
 18127              	.LASF94:
 18128 5069 5F6D626C 	 .ascii "_mblen_state\000"
 18128      656E5F73 
 18128      74617465 
 18128      00
 18129              	.LASF128:
 18130 5076 5F5F7367 	 .ascii "__sglue\000"
 18130      6C756500 
 18131              	.LASF140:
 18132 507e 5F5F6C6F 	 .ascii "__locale_t\000"
 18132      63616C65 
 18132      5F7400
 18133              	.LASF565:
 18134 5089 5F5A5374 	 .ascii "_ZSt5expm1e\000"
 18134      35657870 
 18134      6D316500 
 18135              	.LASF566:
 18136 5095 5F5A5374 	 .ascii "_ZSt5expm1f\000"
 18136      35657870 
 18136      6D316600 
 18137              	.LASF962:
 18138 50a1 66736574 	 .ascii "fsetpos\000"
 18138      706F7300 
 18139              	.LASF118:
 18140 50a9 5F5F636C 	 .ascii "__cleanup\000"
 18140      65616E75 
 18140      7000
 18141              	.LASF488:
 18142 50b3 5F5A5374 	 .ascii "_ZSt5floore\000"
 18142      35666C6F 
 18142      6F726500 
 18143              	.LASF489:
 18144 50bf 5F5A5374 	 .ascii "_ZSt5floorf\000"
 18144      35666C6F 
ARM GAS   			page 379


 18144      6F726600 
 18145              	.LASF659:
 18146 50cb 5F5A4E53 	 .ascii "_ZNSt15__exception_ptr13exception_ptr4swapERS0_\000"
 18146      7431355F 
 18146      5F657863 
 18146      65707469 
 18146      6F6E5F70 
 18147              	.LASF765:
 18148 50fb 5F5F6E6F 	 .ascii "__normal_iterator<char*, std::__cxx11::basic_string"
 18148      726D616C 
 18148      5F697465 
 18148      7261746F 
 18148      723C6368 
 18149 512e 3C636861 	 .ascii "<char, std::char_traits<char>, std::allocator<char>"
 18149      722C2073 
 18149      74643A3A 
 18149      63686172 
 18149      5F747261 
 18150 5161 203E203E 	 .ascii " > >\000"
 18150      00
 18151              	.LASF147:
 18152 5166 696E7436 	 .ascii "int64_t\000"
 18152      345F7400 
 18153              	.LASF825:
 18154 516e 55496E74 	 .ascii "UInt32\000"
 18154      333200
 18155              	.LASF638:
 18156 5175 7472756E 	 .ascii "trunc\000"
 18156      6300
 18157              	.LASF182:
 18158 517b 5F4D5F6C 	 .ascii "_M_length\000"
 18158      656E6774 
 18158      6800
 18159              	.LASF573:
 18160 5185 5F5A5374 	 .ascii "_ZSt4fmaxee\000"
 18160      34666D61 
 18160      78656500 
 18161              	.LASF1053:
 18162 5191 61616E74 	 .ascii "aantalTicks\000"
 18162      616C5469 
 18162      636B7300 
 18163              	.LASF317:
 18164 519d 5F5A4E53 	 .ascii "_ZNSt7__cxx1112basic_stringIcSt11char_traitsIcESaIc"
 18164      74375F5F 
 18164      63787831 
 18164      31313262 
 18164      61736963 
 18165 51d0 4545704C 	 .ascii "EEpLEc\000"
 18165      456300
 18166              	.LASF709:
 18167 51d7 5F5A4E53 	 .ascii "_ZNSt16allocator_traitsISaIcEE37select_on_container"
 18167      74313661 
 18167      6C6C6F63 
 18167      61746F72 
 18167      5F747261 
 18168 520a 5F636F70 	 .ascii "_copy_constructionERKS0_\000"
 18168      795F636F 
ARM GAS   			page 380


 18168      6E737472 
 18168      75637469 
 18168      6F6E4552 
 18169              	.LASF1039:
 18170 5223 5374644D 	 .ascii "StdMsg\000"
 18170      736700
 18171              	.LASF34:
 18172 522a 5F66706F 	 .ascii "_fpos_t\000"
 18172      735F7400 
 18173              	.LASF440:
 18174 5232 5F5A5374 	 .ascii "_ZSt4atane\000"
 18174      34617461 
 18174      6E6500
 18175              	.LASF441:
 18176 523d 5F5A5374 	 .ascii "_ZSt4atanf\000"
 18176      34617461 
 18176      6E6600
 18177              	.LASF71:
 18178 5248 5F66696C 	 .ascii "_file\000"
 18178      6500
 18179              	.LASF531:
 18180 524e 5F5A5374 	 .ascii "_ZSt11islessequaldd\000"
 18180      31316973 
 18180      6C657373 
 18180      65717561 
 18180      6C646400 
 18181              	.LASF156:
 18182 5262 75696E74 	 .ascii "uint_least8_t\000"
 18182      5F6C6561 
 18182      7374385F 
 18182      7400
 18183              	.LASF931:
 18184 5270 6C646976 	 .ascii "ldiv\000"
 18184      00
 18185              	.LASF1093:
 18186 5275 5F5A4E4B 	 .ascii "_ZNKSt16initializer_listIcE3endEv\000"
 18186      53743136 
 18186      696E6974 
 18186      69616C69 
 18186      7A65725F 
 18187              	.LASF1085:
 18188 5297 474E5520 	 .ascii "GNU C++14 10.3.1 20210824 (release) -mcpu=cortex-m4"
 18188      432B2B31 
 18188      34203130 
 18188      2E332E31 
 18188      20323032 
 18189 52ca 202D6D66 	 .ascii " -mfloat-abi=hard -mfpu=fpv4-sp-d16 -mfix-cortex-m3"
 18189      6C6F6174 
 18189      2D616269 
 18189      3D686172 
 18189      64202D6D 
 18190 52fd 2D6C6472 	 .ascii "-ldrd -mthumb -mno-unaligned-access -mapcs-frame -m"
 18190      64202D6D 
 18190      7468756D 
 18190      62202D6D 
 18190      6E6F2D75 
 18191 5330 61726368 	 .ascii "arch=armv7e-m+fp -g -g -O0 -std=c++14 -std=c++14 -s"
ARM GAS   			page 381


 18191      3D61726D 
 18191      7637652D 
 18191      6D2B6670 
 18191      202D6720 
 18192 5363 74643D67 	 .ascii "td=gnu++11 -std=c++14 -fsingle-precision-constant -"
 18192      6E752B2B 
 18192      3131202D 
 18192      7374643D 
 18192      632B2B31 
 18193 5396 66756E73 	 .ascii "funsigned-char -ffunction-sections -fdata-sections "
 18193      69676E65 
 18193      642D6368 
 18193      6172202D 
 18193      6666756E 
 18194 53c9 2D666E6F 	 .ascii "-fno-rtti -fno-exceptions -finline-limit=20\000"
 18194      2D727474 
 18194      69202D66 
 18194      6E6F2D65 
 18194      78636570 
 18195              	.LASF69:
 18196 53f5 5F5F7346 	 .ascii "__sFILE\000"
 18196      494C4500 
 18197              	.LASF180:
 18198 53fd 5F4D5F73 	 .ascii "_M_string_length\000"
 18198      7472696E 
 18198      675F6C65 
 18198      6E677468 
 18198      00
 18199              	.LASF915:
 18200 540e 696E745F 	 .ascii "int_n_cs_precedes\000"
 18200      6E5F6373 
 18200      5F707265 
 18200      63656465 
 18200      7300
 18201              	.LASF346:
 18202 5420 65726173 	 .ascii "erase\000"
 18202      6500
 18203              	.LASF808:
 18204 5426 646F7562 	 .ascii "double\000"
 18204      6C6500
 18205              	.LASF65:
 18206 542d 5F666E73 	 .ascii "_fns\000"
 18206      00
 18207              	.LASF1013:
 18208 5432 5F5A4E31 	 .ascii "_ZN10StdTaakMsgILj16EEC4Ev\000"
 18208      30537464 
 18208      5461616B 
 18208      4D736749 
 18208      4C6A3136 
 18209              	.LASF574:
 18210 544d 5F5A5374 	 .ascii "_ZSt4fmaxff\000"
 18210      34666D61 
 18210      78666600 
 18211              	.LASF39:
 18212 5459 5F6D6273 	 .ascii "_mbstate_t\000"
 18212      74617465 
 18212      5F7400
ARM GAS   			page 382


 18213              	.LASF105:
 18214 5464 5F685F65 	 .ascii "_h_errno\000"
 18214      72726E6F 
 18214      00
 18215              	.LASF1048:
 18216 546d 77616368 	 .ascii "wachtOpBericht\000"
 18216      744F7042 
 18216      65726963 
 18216      687400
 18217              	.LASF830:
 18218 547c 52657365 	 .ascii "ReserveFoutCode\000"
 18218      72766546 
 18218      6F757443 
 18218      6F646500 
 18219              	.LASF530:
 18220 548c 5F5A5374 	 .ascii "_ZSt11islessequalee\000"
 18220      31316973 
 18220      6C657373 
 18220      65717561 
 18220      6C656500 
 18221              	.LASF23:
 18222 54a0 5F5F7569 	 .ascii "__uint_least64_t\000"
 18222      6E745F6C 
 18222      65617374 
 18222      36345F74 
 18222      00
 18223              	.LASF596:
 18224 54b1 6C6F6732 	 .ascii "log2\000"
 18224      00
 18225              	.LASF228:
 18226 54b6 5F5A4E53 	 .ascii "_ZNSt7__cxx1112basic_stringIcSt11char_traitsIcESaIc"
 18226      74375F5F 
 18226      63787831 
 18226      31313262 
 18226      61736963 
 18227 54e9 45453133 	 .ascii "EE13_S_copy_charsEPcN9__gnu_cxx17__normal_iteratorI"
 18227      5F535F63 
 18227      6F70795F 
 18227      63686172 
 18227      73455063 
 18228 551c 504B6353 	 .ascii "PKcS4_EESA_\000"
 18228      345F4545 
 18228      53415F00 
 18229              	.LASF175:
 18230 5528 5F4D5F6C 	 .ascii "_M_local_buf\000"
 18230      6F63616C 
 18230      5F627566 
 18230      00
 18231              	.LASF424:
 18232 5535 5F5F6973 	 .ascii "__is_integer<long double>\000"
 18232      5F696E74 
 18232      65676572 
 18232      3C6C6F6E 
 18232      6720646F 
 18233              	.LASF797:
 18234 554f 5F5A4E4B 	 .ascii "_ZNK9__gnu_cxx17__normal_iteratorIPKcNSt7__cxx1112b"
 18234      395F5F67 
ARM GAS   			page 383


 18234      6E755F63 
 18234      78783137 
 18234      5F5F6E6F 
 18235 5582 61736963 	 .ascii "asic_stringIcSt11char_traitsIcESaIcEEEEptEv\000"
 18235      5F737472 
 18235      696E6749 
 18235      63537431 
 18235      31636861 
 18236              	.LASF344:
 18237 55ae 5F5A4E53 	 .ascii "_ZNSt7__cxx1112basic_stringIcSt11char_traitsIcESaIc"
 18237      74375F5F 
 18237      63787831 
 18237      31313262 
 18237      61736963 
 18238 55e1 45453669 	 .ascii "EE6insertEN9__gnu_cxx17__normal_iteratorIPKcS4_EEc\000"
 18238      6E736572 
 18238      74454E39 
 18238      5F5F676E 
 18238      755F6378 
 18239              	.LASF790:
 18240 5614 5F497465 	 .ascii "_Iterator\000"
 18240      7261746F 
 18240      7200
 18241              	.LASF8:
 18242 561e 5F5F696E 	 .ascii "__int32_t\000"
 18242      7433325F 
 18242      7400
 18243              	.LASF614:
 18244 5628 6E657874 	 .ascii "nexttoward\000"
 18244      746F7761 
 18244      726400
 18245              	.LASF10:
 18246 5633 5F5F7569 	 .ascii "__uint32_t\000"
 18246      6E743332 
 18246      5F7400
 18247              	.LASF936:
 18248 563e 71736F72 	 .ascii "qsort\000"
 18248      7400
 18249              	.LASF1029:
 18250 5644 5F5A4E37 	 .ascii "_ZN7StdTaakC4EOS_\000"
 18250      53746454 
 18250      61616B43 
 18250      34454F53 
 18250      5F00
 18251              	.LASF548:
 18252 5656 5F5A5374 	 .ascii "_ZSt5atanhe\000"
 18252      35617461 
 18252      6E686500 
 18253              	.LASF18:
 18254 5662 5F5F696E 	 .ascii "__int_least16_t\000"
 18254      745F6C65 
 18254      61737431 
 18254      365F7400 
 18255              	.LASF379:
 18256 5672 64617461 	 .ascii "data\000"
 18256      00
 18257              	.LASF599:
ARM GAS   			page 384


 18258 5677 6C6F6762 	 .ascii "logb\000"
 18258      00
 18259              	.LASF882:
 18260 567c 776D656D 	 .ascii "wmemcmp\000"
 18260      636D7000 
 18261              	.LASF802:
 18262 5684 5F5A4E4B 	 .ascii "_ZNK9__gnu_cxx17__normal_iteratorIPKcNSt7__cxx1112b"
 18262      395F5F67 
 18262      6E755F63 
 18262      78783137 
 18262      5F5F6E6F 
 18263 56b7 61736963 	 .ascii "asic_stringIcSt11char_traitsIcESaIcEEEEixEi\000"
 18263      5F737472 
 18263      696E6749 
 18263      63537431 
 18263      31636861 
 18264              	.LASF862:
 18265 56e3 77637274 	 .ascii "wcrtomb\000"
 18265      6F6D6200 
 18266              	.LASF369:
 18267 56eb 5F4D5F72 	 .ascii "_M_replace\000"
 18267      65706C61 
 18267      636500
 18268              	.LASF38:
 18269 56f6 5F5F7661 	 .ascii "__value\000"
 18269      6C756500 
 18270              	.LASF451:
 18271 56fe 636F7368 	 .ascii "cosh\000"
 18271      00
 18272              	.LASF457:
 18273 5703 74616E68 	 .ascii "tanh\000"
 18273      00
 18274              	.LASF225:
 18275 5708 5F535F63 	 .ascii "_S_copy_chars\000"
 18275      6F70795F 
 18275      63686172 
 18275      7300
 18276              	.LASF532:
 18277 5716 5F5A5374 	 .ascii "_ZSt11islessequalff\000"
 18277      31316973 
 18277      6C657373 
 18277      65717561 
 18277      6C666600 
 18278              	.LASF62:
 18279 572a 5F69735F 	 .ascii "_is_cxa\000"
 18279      63786100 
 18280              	.LASF888:
 18281 5732 77637363 	 .ascii "wcschr\000"
 18281      687200
 18282              	.LASF725:
 18283 5739 6C697465 	 .ascii "literals\000"
 18283      72616C73 
 18283      00
 18284              	.LASF776:
 18285 5742 5F5A4E39 	 .ascii "_ZN9__gnu_cxx17__normal_iteratorIPcNSt7__cxx1112bas"
 18285      5F5F676E 
 18285      755F6378 
ARM GAS   			page 385


 18285      7831375F 
 18285      5F6E6F72 
 18286 5775 69635F73 	 .ascii "ic_stringIcSt11char_traitsIcESaIcEEEEppEi\000"
 18286      7472696E 
 18286      67496353 
 18286      74313163 
 18286      6861725F 
 18287              	.LASF775:
 18288 579f 5F5A4E39 	 .ascii "_ZN9__gnu_cxx17__normal_iteratorIPcNSt7__cxx1112bas"
 18288      5F5F676E 
 18288      755F6378 
 18288      7831375F 
 18288      5F6E6F72 
 18289 57d2 69635F73 	 .ascii "ic_stringIcSt11char_traitsIcESaIcEEEEppEv\000"
 18289      7472696E 
 18289      67496353 
 18289      74313163 
 18289      6861725F 
 18290              	.LASF983:
 18291 57fc 5F5A4E31 	 .ascii "_ZN12cpp_freertos6Thread11GetPriorityEv\000"
 18291      32637070 
 18291      5F667265 
 18291      6572746F 
 18291      73365468 
 18292              	.LASF121:
 18293 5824 5F703573 	 .ascii "_p5s\000"
 18293      00
 18294              	.LASF529:
 18295 5829 69736C65 	 .ascii "islessequal\000"
 18295      73736571 
 18295      75616C00 
 18296              	.LASF176:
 18297 5835 5F4D5F61 	 .ascii "_M_allocated_capacity\000"
 18297      6C6C6F63 
 18297      61746564 
 18297      5F636170 
 18297      61636974 
 18298              	.LASF788:
 18299 584b 62617365 	 .ascii "base\000"
 18299      00
 18300              	.LASF654:
 18301 5850 5F5A4E53 	 .ascii "_ZNSt15__exception_ptr13exception_ptrC4EOS0_\000"
 18301      7431355F 
 18301      5F657863 
 18301      65707469 
 18301      6F6E5F70 
 18302              	.LASF1070:
 18303 587d 7469636B 	 .ascii "ticksInMsecsPeriode\000"
 18303      73496E4D 
 18303      73656373 
 18303      50657269 
 18303      6F646500 
 18304              	.LASF905:
 18305 5891 706F7369 	 .ascii "positive_sign\000"
 18305      74697665 
 18305      5F736967 
 18305      6E00
ARM GAS   			page 386


 18306              	.LASF971:
 18307 589f 73657476 	 .ascii "setvbuf\000"
 18307      62756600 
 18308              	.LASF554:
 18309 58a7 5F5A5374 	 .ascii "_ZSt8copysignee\000"
 18309      38636F70 
 18309      79736967 
 18309      6E656500 
 18310              	.LASF590:
 18311 58b7 6C6C726F 	 .ascii "llround\000"
 18311      756E6400 
 18312              	.LASF1081:
 18313 58bf 7072696F 	 .ascii "prioriteit\000"
 18313      72697465 
 18313      697400
 18314              	.LASF1068:
 18315 58ca 616E7477 	 .ascii "antwoord\000"
 18315      6F6F7264 
 18315      00
 18316              	.LASF571:
 18317 58d3 5F5A5374 	 .ascii "_ZSt3fmafff\000"
 18317      33666D61 
 18317      66666600 
 18318              	.LASF805:
 18319 58df 5F5A4E39 	 .ascii "_ZN9__gnu_cxx17__normal_iteratorIPKcNSt7__cxx1112ba"
 18319      5F5F676E 
 18319      755F6378 
 18319      7831375F 
 18319      5F6E6F72 
 18320 5912 7369635F 	 .ascii "sic_stringIcSt11char_traitsIcESaIcEEEEmIEi\000"
 18320      73747269 
 18320      6E674963 
 18320      53743131 
 18320      63686172 
 18321              	.LASF813:
 18322 593d 35646976 	 .ascii "5div_t\000"
 18322      5F7400
 18323              	.LASF998:
 18324 5944 5461616B 	 .ascii "Taak1\000"
 18324      3100
 18325              	.LASF1000:
 18326 594a 5461616B 	 .ascii "Taak3\000"
 18326      3300
 18327              	.LASF1001:
 18328 5950 5461616B 	 .ascii "Taak4\000"
 18328      3400
 18329              	.LASF815:
 18330 5956 6469765F 	 .ascii "div_t\000"
 18330      7400
 18331              	.LASF272:
 18332 595c 5F5A4E53 	 .ascii "_ZNSt7__cxx1112basic_stringIcSt11char_traitsIcESaIc"
 18332      74375F5F 
 18332      63787831 
 18332      31313262 
 18332      61736963 
 18333 598f 45453472 	 .ascii "EE4rendEv\000"
 18333      656E6445 
ARM GAS   			page 387


 18333      7600
 18334              	.LASF382:
 18335 5999 5F5A4E4B 	 .ascii "_ZNKSt7__cxx1112basic_stringIcSt11char_traitsIcESaI"
 18335      5374375F 
 18335      5F637878 
 18335      31313132 
 18335      62617369 
 18336 59cc 63454531 	 .ascii "cEE13get_allocatorEv\000"
 18336      33676574 
 18336      5F616C6C 
 18336      6F636174 
 18336      6F724576 
 18337              	.LASF299:
 18338 59e1 656D7074 	 .ascii "empty\000"
 18338      7900
 18339              	.LASF555:
 18340 59e7 5F5A5374 	 .ascii "_ZSt8copysignff\000"
 18340      38636F70 
 18340      79736967 
 18340      6E666600 
 18341              	.LASF861:
 18342 59f7 76777363 	 .ascii "vwscanf\000"
 18342      616E6600 
 18343              	.LASF934:
 18344 59ff 6D62746F 	 .ascii "mbtowc\000"
 18344      776300
 18345              	.LASF627:
 18346 5a06 5F5A5374 	 .ascii "_ZSt5rounde\000"
 18346      35726F75 
 18346      6E646500 
 18347              	.LASF628:
 18348 5a12 5F5A5374 	 .ascii "_ZSt5roundf\000"
 18348      35726F75 
 18348      6E646600 
 18349              	.LASF490:
 18350 5a1e 666D6F64 	 .ascii "fmod\000"
 18350      00
 18351              	.LASF920:
 18352 5a23 696E745F 	 .ascii "int_p_sign_posn\000"
 18352      705F7369 
 18352      676E5F70 
 18352      6F736E00 
 18353              	.LASF198:
 18354 5a33 5F4D5F64 	 .ascii "_M_dispose\000"
 18354      6973706F 
 18354      736500
 18355              	.LASF463:
 18356 5a3e 5F5A5374 	 .ascii "_ZSt5frexpePi\000"
 18356      35667265 
 18356      78706550 
 18356      6900
 18357              	.LASF757:
 18358 5a4c 5F535F70 	 .ascii "_S_propagate_on_swap\000"
 18358      726F7061 
 18358      67617465 
 18358      5F6F6E5F 
 18358      73776170 
ARM GAS   			page 388


 18359              	.LASF427:
 18360 5a61 5F5F6973 	 .ascii "__is_integer<float>\000"
 18360      5F696E74 
 18360      65676572 
 18360      3C666C6F 
 18360      61743E00 
 18361              	.LASF15:
 18362 5a75 6C6F6E67 	 .ascii "long long unsigned int\000"
 18362      206C6F6E 
 18362      6720756E 
 18362      7369676E 
 18362      65642069 
 18363              	.LASF848:
 18364 5a8c 6D627274 	 .ascii "mbrtowc\000"
 18364      6F776300 
 18365              	.LASF273:
 18366 5a94 5F5A4E4B 	 .ascii "_ZNKSt7__cxx1112basic_stringIcSt11char_traitsIcESaI"
 18366      5374375F 
 18366      5F637878 
 18366      31313132 
 18366      62617369 
 18367 5ac7 63454534 	 .ascii "cEE4rendEv\000"
 18367      72656E64 
 18367      457600
 18368              	.LASF667:
 18369 5ad2 5F5A4E53 	 .ascii "_ZNSt21piecewise_construct_tC4Ev\000"
 18369      74323170 
 18369      69656365 
 18369      77697365 
 18369      5F636F6E 
 18370              	.LASF1023:
 18371 5af3 5F5A4E4B 	 .ascii "_ZNK10StdTaakMsgILj16EE10geefZenderEv\000"
 18371      31305374 
 18371      64546161 
 18371      6B4D7367 
 18371      494C6A31 
 18372              	.LASF262:
 18373 5b19 5F5A4E53 	 .ascii "_ZNSt7__cxx1112basic_stringIcSt11char_traitsIcESaIc"
 18373      74375F5F 
 18373      63787831 
 18373      31313262 
 18373      61736963 
 18374 5b4c 45453562 	 .ascii "EE5beginEv\000"
 18374      6567696E 
 18374      457600
 18375              	.LASF421:
 18376 5b57 5F5A4E4B 	 .ascii "_ZNKSt7__cxx1112basic_stringIcSt11char_traitsIcESaI"
 18376      5374375F 
 18376      5F637878 
 18376      31313132 
 18376      62617369 
 18377 5b8a 63454537 	 .ascii "cEE7compareEjjPKcj\000"
 18377      636F6D70 
 18377      61726545 
 18377      6A6A504B 
 18377      636A00
 18378              	.LASF820:
ARM GAS   			page 389


 18379 5b9d 5F5F636F 	 .ascii "__compar_fn_t\000"
 18379      6D706172 
 18379      5F666E5F 
 18379      7400
 18380              	.LASF326:
 18381 5bab 70757368 	 .ascii "push_back\000"
 18381      5F626163 
 18381      6B00
 18382              	.LASF349:
 18383 5bb5 5F5A4E53 	 .ascii "_ZNSt7__cxx1112basic_stringIcSt11char_traitsIcESaIc"
 18383      74375F5F 
 18383      63787831 
 18383      31313262 
 18383      61736963 
 18384 5be8 45453565 	 .ascii "EE5eraseEN9__gnu_cxx17__normal_iteratorIPKcS4_EES9_"
 18384      72617365 
 18384      454E395F 
 18384      5F676E75 
 18384      5F637878 
 18385 5c1b 00       	 .ascii "\000"
 18386              	.LASF1004:
 18387 5c1c 41444347 	 .ascii "ADCGebeurd\000"
 18387      65626575 
 18387      726400
 18388              	.LASF91:
 18389 5c27 5F67616D 	 .ascii "_gamma_signgam\000"
 18389      6D615F73 
 18389      69676E67 
 18389      616D00
 18390              	.LASF719:
 18391 5c36 5F5A4E4B 	 .ascii "_ZNKSt16initializer_listIcE5beginEv\000"
 18391      53743136 
 18391      696E6974 
 18391      69616C69 
 18391      7A65725F 
 18392              	.LASF883:
 18393 5c5a 776D656D 	 .ascii "wmemcpy\000"
 18393      63707900 
 18394              	.LASF686:
 18395 5c62 5F5A4E53 	 .ascii "_ZNSt11char_traitsIcE11to_int_typeERKc\000"
 18395      74313163 
 18395      6861725F 
 18395      74726169 
 18395      74734963 
 18396              	.LASF474:
 18397 5c89 5F5A5374 	 .ascii "_ZSt4modfePe\000"
 18397      346D6F64 
 18397      66655065 
 18397      00
 18398              	.LASF1065:
 18399 5c96 76657274 	 .ascii "vertraging\000"
 18399      72616769 
 18399      6E6700
 18400              	.LASF1014:
 18401 5ca1 5F5A4E31 	 .ascii "_ZN10StdTaakMsgILj16EEC4E8TaakPrioS1_7MsgType\000"
 18401      30537464 
 18401      5461616B 
ARM GAS   			page 390


 18401      4D736749 
 18401      4C6A3136 
 18402              	.LASF870:
 18403 5ccf 7763736E 	 .ascii "wcsncat\000"
 18403      63617400 
 18404              	.LASF958:
 18405 5cd7 666F7065 	 .ascii "fopen\000"
 18405      6E00
 18406              	.LASF290:
 18407 5cdd 5F5A4E53 	 .ascii "_ZNSt7__cxx1112basic_stringIcSt11char_traitsIcESaIc"
 18407      74375F5F 
 18407      63787831 
 18407      31313262 
 18407      61736963 
 18408 5d10 45453672 	 .ascii "EE6resizeEj\000"
 18408      6573697A 
 18408      65456A00 
 18409              	.LASF711:
 18410 5d1c 72656269 	 .ascii "rebind_alloc\000"
 18410      6E645F61 
 18410      6C6C6F63 
 18410      00
 18411              	.LASF916:
 18412 5d29 696E745F 	 .ascii "int_n_sep_by_space\000"
 18412      6E5F7365 
 18412      705F6279 
 18412      5F737061 
 18412      636500
 18413              	.LASF693:
 18414 5d3c 616C6C6F 	 .ascii "allocator\000"
 18414      6361746F 
 18414      7200
 18415              	.LASF205:
 18416 5d46 5F5A4E53 	 .ascii "_ZNSt7__cxx1112basic_stringIcSt11char_traitsIcESaIc"
 18416      74375F5F 
 18416      63787831 
 18416      31313262 
 18416      61736963 
 18417 5d79 45453132 	 .ascii "EE12_M_constructEjc\000"
 18417      5F4D5F63 
 18417      6F6E7374 
 18417      72756374 
 18417      456A6300 
 18418              	.LASF619:
 18419 5d8d 5F5A5374 	 .ascii "_ZSt9remainderff\000"
 18419      3972656D 
 18419      61696E64 
 18419      65726666 
 18419      00
 18420              	.LASF567:
 18421 5d9e 6664696D 	 .ascii "fdim\000"
 18421      00
 18422              	.LASF115:
 18423 5da3 5F756E73 	 .ascii "_unspecified_locale_info\000"
 18423      70656369 
 18423      66696564 
 18423      5F6C6F63 
ARM GAS   			page 391


 18423      616C655F 
 18424              	.LASF720:
 18425 5dbc 74797065 	 .ascii "type_info\000"
 18425      5F696E66 
 18425      6F00
 18426              	.LASF1061:
 18427 5dc6 5F5A4E31 	 .ascii "_ZN12cpp_freertos5DequeD4Ev\000"
 18427      32637070 
 18427      5F667265 
 18427      6572746F 
 18427      73354465 
 18428              	.LASF163:
 18429 5de2 696E745F 	 .ascii "int_fast8_t\000"
 18429      66617374 
 18429      385F7400 
 18430              	.LASF439:
 18431 5dee 6174616E 	 .ascii "atan\000"
 18431      00
 18432              	.LASF930:
 18433 5df3 67657465 	 .ascii "getenv\000"
 18433      6E7600
 18434              	.LASF839:
 18435 5dfa 66676574 	 .ascii "fgetwc\000"
 18435      776300
 18436              	.LASF117:
 18437 5e01 5F5F7364 	 .ascii "__sdidinit\000"
 18437      6964696E 
 18437      697400
 18438              	.LASF533:
 18439 5e0c 69736C65 	 .ascii "islessgreater\000"
 18439      73736772 
 18439      65617465 
 18439      7200
 18440              	.LASF449:
 18441 5e1a 5F5A5374 	 .ascii "_ZSt3tane\000"
 18441      3374616E 
 18441      6500
 18442              	.LASF1089:
 18443 5e24 5F5F6170 	 .ascii "__ap\000"
 18443      00
 18444              	.LASF303:
 18445 5e29 5F5A4E4B 	 .ascii "_ZNKSt7__cxx1112basic_stringIcSt11char_traitsIcESaI"
 18445      5374375F 
 18445      5F637878 
 18445      31313132 
 18445      62617369 
 18446 5e5c 63454569 	 .ascii "cEEixEj\000"
 18446      78456A00 
 18447              	.LASF549:
 18448 5e64 5F5A5374 	 .ascii "_ZSt5atanhf\000"
 18448      35617461 
 18448      6E686600 
 18449              	.LASF605:
 18450 5e70 6C726F75 	 .ascii "lround\000"
 18450      6E6400
 18451              	.LASF372:
 18452 5e77 5F5A4E53 	 .ascii "_ZNSt7__cxx1112basic_stringIcSt11char_traitsIcESaIc"
ARM GAS   			page 392


 18452      74375F5F 
 18452      63787831 
 18452      31313262 
 18452      61736963 
 18453 5eaa 4545395F 	 .ascii "EE9_M_appendEPKcj\000"
 18453      4D5F6170 
 18453      70656E64 
 18453      45504B63 
 18453      6A00
 18454              	.LASF935:
 18455 5ebc 72616E64 	 .ascii "rand\000"
 18455      00
 18456              	.LASF240:
 18457 5ec1 62617369 	 .ascii "basic_string\000"
 18457      635F7374 
 18457      72696E67 
 18457      00
 18458              	.LASF840:
 18459 5ece 66676574 	 .ascii "fgetws\000"
 18459      777300
 18460              	.LASF1069:
 18461 5ed5 6D736563 	 .ascii "msecs\000"
 18461      7300
 18462              	.LASF287:
 18463 5edb 5F5A4E4B 	 .ascii "_ZNKSt7__cxx1112basic_stringIcSt11char_traitsIcESaI"
 18463      5374375F 
 18463      5F637878 
 18463      31313132 
 18463      62617369 
 18464 5f0e 63454538 	 .ascii "cEE8max_sizeEv\000"
 18464      6D61785F 
 18464      73697A65 
 18464      457600
 18465              	.LASF42:
 18466 5f1d 5F666C6F 	 .ascii "_flock_t\000"
 18466      636B5F74 
 18466      00
 18467              	.LASF365:
 18468 5f26 5F5A4E53 	 .ascii "_ZNSt7__cxx1112basic_stringIcSt11char_traitsIcESaIc"
 18468      74375F5F 
 18468      63787831 
 18468      31313262 
 18468      61736963 
 18469 5f59 45453772 	 .ascii "EE7replaceEN9__gnu_cxx17__normal_iteratorIPKcS4_EES"
 18469      65706C61 
 18469      6365454E 
 18469      395F5F67 
 18469      6E755F63 
 18470 5f8c 395F5339 	 .ascii "9_S9_S9_\000"
 18470      5F53395F 
 18470      00
 18471              	.LASF730:
 18472 5f95 5F5F6578 	 .ascii "__exception_ptr\000"
 18472      63657074 
 18472      696F6E5F 
 18472      70747200 
 18473              	.LASF766:
ARM GAS   			page 393


 18474 5fa5 5F5F6E6F 	 .ascii "__normal_iterator\000"
 18474      726D616C 
 18474      5F697465 
 18474      7261746F 
 18474      7200
 18475              	.LASF580:
 18476 5fb7 5F5A5374 	 .ascii "_ZSt5hypotff\000"
 18476      35687970 
 18476      6F746666 
 18476      00
 18477              	.LASF910:
 18478 5fc4 705F7365 	 .ascii "p_sep_by_space\000"
 18478      705F6279 
 18478      5F737061 
 18478      636500
 18479              	.LASF525:
 18480 5fd3 69736C65 	 .ascii "isless\000"
 18480      737300
 18481              	.LASF865:
 18482 5fda 77637363 	 .ascii "wcscoll\000"
 18482      6F6C6C00 
 18483              	.LASF584:
 18484 5fe2 6C67616D 	 .ascii "lgamma\000"
 18484      6D6100
 18485              	.LASF829:
 18486 5fe9 52616D70 	 .ascii "Rampzalig\000"
 18486      7A616C69 
 18486      6700
 18487              	.LASF482:
 18488 5ff3 5F5A5374 	 .ascii "_ZSt4ceile\000"
 18488      34636569 
 18488      6C6500
 18489              	.LASF483:
 18490 5ffe 5F5A5374 	 .ascii "_ZSt4ceilf\000"
 18490      34636569 
 18490      6C6600
 18491              	.LASF678:
 18492 6009 6D6F7665 	 .ascii "move\000"
 18492      00
 18493              	.LASF259:
 18494 600e 5F5A4E53 	 .ascii "_ZNSt7__cxx1112basic_stringIcSt11char_traitsIcESaIc"
 18494      74375F5F 
 18494      63787831 
 18494      31313262 
 18494      61736963 
 18495 6041 45456153 	 .ascii "EEaSEOS4_\000"
 18495      454F5334 
 18495      5F00
 18496              	.LASF1086:
 18497 604b 433A5C55 	 .ascii "C:\\Users\\niels\\Documents\\GitHub\\DSP\\software\\"
 18497      73657273 
 18497      5C6E6965 
 18497      6C735C44 
 18497      6F63756D 
 18498 6078 53544D33 	 .ascii "STM32Basis\\gemeenschappelijk\\ESEFreeRTOS\\stdTaak"
 18498      32426173 
 18498      69735C67 
ARM GAS   			page 394


 18498      656D6565 
 18498      6E736368 
 18499 60a8 2E637070 	 .ascii ".cpp\000"
 18499      00
 18500              	.LASF913:
 18501 60ad 705F7369 	 .ascii "p_sign_posn\000"
 18501      676E5F70 
 18501      6F736E00 
 18502              	.LASF890:
 18503 60b9 77637372 	 .ascii "wcsrchr\000"
 18503      63687200 
 18504              	.LASF415:
 18505 60c1 636F6D70 	 .ascii "compare\000"
 18505      61726500 
 18506              	.LASF406:
 18507 60c9 5F5A4E4B 	 .ascii "_ZNKSt7__cxx1112basic_stringIcSt11char_traitsIcESaI"
 18507      5374375F 
 18507      5F637878 
 18507      31313132 
 18507      62617369 
 18508 60fc 63454531 	 .ascii "cEE17find_first_not_ofEPKcj\000"
 18508      3766696E 
 18508      645F6669 
 18508      7273745F 
 18508      6E6F745F 
 18509              	.LASF13:
 18510 6118 6C6F6E67 	 .ascii "long long int\000"
 18510      206C6F6E 
 18510      6720696E 
 18510      7400
 18511              	.LASF233:
 18512 6126 5F5A4E53 	 .ascii "_ZNSt7__cxx1112basic_stringIcSt11char_traitsIcESaIc"
 18512      74375F5F 
 18512      63787831 
 18512      31313262 
 18512      61736963 
 18513 6159 45453130 	 .ascii "EE10_S_compareEjj\000"
 18513      5F535F63 
 18513      6F6D7061 
 18513      7265456A 
 18513      6A00
 18514              	.LASF85:
 18515 616b 5F666C61 	 .ascii "_flags2\000"
 18515      67733200 
 18516              	.LASF787:
 18517 6173 5F5A4E4B 	 .ascii "_ZNK9__gnu_cxx17__normal_iteratorIPcNSt7__cxx1112ba"
 18517      395F5F67 
 18517      6E755F63 
 18517      78783137 
 18517      5F5F6E6F 
 18518 61a6 7369635F 	 .ascii "sic_stringIcSt11char_traitsIcESaIcEEEEmiEi\000"
 18518      73747269 
 18518      6E674963 
 18518      53743131 
 18518      63686172 
 18519              	.LASF392:
 18520 61d1 5F5A4E4B 	 .ascii "_ZNKSt7__cxx1112basic_stringIcSt11char_traitsIcESaI"
ARM GAS   			page 395


 18520      5374375F 
 18520      5F637878 
 18520      31313132 
 18520      62617369 
 18521 6204 63454535 	 .ascii "cEE5rfindEcj\000"
 18521      7266696E 
 18521      6445636A 
 18521      00
 18522              	.LASF195:
 18523 6211 5F5A4E4B 	 .ascii "_ZNKSt7__cxx1112basic_stringIcSt11char_traitsIcESaI"
 18523      5374375F 
 18523      5F637878 
 18523      31313132 
 18523      62617369 
 18524 6244 63454531 	 .ascii "cEE11_M_is_localEv\000"
 18524      315F4D5F 
 18524      69735F6C 
 18524      6F63616C 
 18524      457600
 18525              	.LASF436:
 18526 6257 6173696E 	 .ascii "asin\000"
 18526      00
 18527              	.LASF367:
 18528 625c 5F4D5F72 	 .ascii "_M_replace_aux\000"
 18528      65706C61 
 18528      63655F61 
 18528      757800
 18529              	.LASF366:
 18530 626b 5F5A4E53 	 .ascii "_ZNSt7__cxx1112basic_stringIcSt11char_traitsIcESaIc"
 18530      74375F5F 
 18530      63787831 
 18530      31313262 
 18530      61736963 
 18531 629e 45453772 	 .ascii "EE7replaceEN9__gnu_cxx17__normal_iteratorIPKcS4_EES"
 18531      65706C61 
 18531      6365454E 
 18531      395F5F67 
 18531      6E755F63 
 18532 62d1 395F5374 	 .ascii "9_St16initializer_listIcE\000"
 18532      3136696E 
 18532      69746961 
 18532      6C697A65 
 18532      725F6C69 
 18533              	.LASF965:
 18534 62eb 67657463 	 .ascii "getchar\000"
 18534      68617200 
 18535              	.LASF378:
 18536 62f3 5F5A4E4B 	 .ascii "_ZNKSt7__cxx1112basic_stringIcSt11char_traitsIcESaI"
 18536      5374375F 
 18536      5F637878 
 18536      31313132 
 18536      62617369 
 18537 6326 63454535 	 .ascii "cEE5c_strEv\000"
 18537      635F7374 
 18537      72457600 
 18538              	.LASF116:
 18539 6332 5F6C6F63 	 .ascii "_locale\000"
ARM GAS   			page 396


 18539      616C6500 
 18540              	.LASF211:
 18541 633a 5F4D5F63 	 .ascii "_M_check\000"
 18541      6865636B 
 18541      00
 18542              	.LASF445:
 18543 6343 5F5A5374 	 .ascii "_ZSt3cose\000"
 18543      33636F73 
 18543      6500
 18544              	.LASF446:
 18545 634d 5F5A5374 	 .ascii "_ZSt3cosf\000"
 18545      33636F73 
 18545      6600
 18546              	.LASF665:
 18547 6357 6E756C6C 	 .ascii "nullptr_t\000"
 18547      7074725F 
 18547      7400
 18548              	.LASF229:
 18549 6361 636F6E73 	 .ascii "const_iterator\000"
 18549      745F6974 
 18549      65726174 
 18549      6F7200
 18550              	.LASF748:
 18551 6370 5F5A4E39 	 .ascii "_ZN9__gnu_cxx3divExx\000"
 18551      5F5F676E 
 18551      755F6378 
 18551      78336469 
 18551      76457878 
 18552              	.LASF761:
 18553 6385 5F535F6E 	 .ascii "_S_nothrow_move\000"
 18553      6F746872 
 18553      6F775F6D 
 18553      6F766500 
 18554              	.LASF855:
 18555 6395 756E6765 	 .ascii "ungetwc\000"
 18555      74776300 
 18556              	.LASF1083:
 18557 639d 5F5A4E37 	 .ascii "_ZN7StdTaakC2ERKNSt7__cxx1112basic_stringIcSt11char"
 18557      53746454 
 18557      61616B43 
 18557      3245524B 
 18557      4E537437 
 18558 63d0 5F747261 	 .ascii "_traitsIcESaIcEEEt8TaakPrio\000"
 18558      69747349 
 18558      63455361 
 18558      49634545 
 18558      45743854 
 18559              	.LASF754:
 18560 63ec 5F535F70 	 .ascii "_S_propagate_on_move_assign\000"
 18560      726F7061 
 18560      67617465 
 18560      5F6F6E5F 
 18560      6D6F7665 
 18561              	.LASF715:
 18562 6408 696E6974 	 .ascii "initializer_list\000"
 18562      69616C69 
 18562      7A65725F 
ARM GAS   			page 397


 18562      6C697374 
 18562      00
 18563              	.LASF398:
 18564 6419 66696E64 	 .ascii "find_last_of\000"
 18564      5F6C6173 
 18564      745F6F66 
 18564      00
 18565              	.LASF324:
 18566 6426 5F5A4E53 	 .ascii "_ZNSt7__cxx1112basic_stringIcSt11char_traitsIcESaIc"
 18566      74375F5F 
 18566      63787831 
 18566      31313262 
 18566      61736963 
 18567 6459 45453661 	 .ascii "EE6appendEjc\000"
 18567      7070656E 
 18567      64456A63 
 18567      00
 18568              	.LASF157:
 18569 6466 696E745F 	 .ascii "int_least16_t\000"
 18569      6C656173 
 18569      7431365F 
 18569      7400
 18570              	.LASF467:
 18571 6474 5F5A5374 	 .ascii "_ZSt5ldexpfi\000"
 18571      356C6465 
 18571      78706669 
 18571      00
 18572              	.LASF307:
 18573 6481 5F5A4E53 	 .ascii "_ZNSt7__cxx1112basic_stringIcSt11char_traitsIcESaIc"
 18573      74375F5F 
 18573      63787831 
 18573      31313262 
 18573      61736963 
 18574 64b4 45453261 	 .ascii "EE2atEj\000"
 18574      74456A00 
 18575              	.LASF911:
 18576 64bc 6E5F6373 	 .ascii "n_cs_precedes\000"
 18576      5F707265 
 18576      63656465 
 18576      7300
 18577              	.LASF464:
 18578 64ca 5F5A5374 	 .ascii "_ZSt5frexpfPi\000"
 18578      35667265 
 18578      78706650 
 18578      6900
 18579              	.LASF221:
 18580 64d8 5F5A4E53 	 .ascii "_ZNSt7__cxx1112basic_stringIcSt11char_traitsIcESaIc"
 18580      74375F5F 
 18580      63787831 
 18580      31313262 
 18580      61736963 
 18581 650b 4545375F 	 .ascii "EE7_S_copyEPcPKcj\000"
 18581      535F636F 
 18581      70794550 
 18581      63504B63 
 18581      6A00
 18582              	.LASF1007:
ARM GAS   			page 398


 18583 651d 5369676E 	 .ascii "SignaalKeuzeVeranderd\000"
 18583      61616C4B 
 18583      65757A65 
 18583      56657261 
 18583      6E646572 
 18584              	.LASF980:
 18585 6533 44656C61 	 .ascii "Delay\000"
 18585      7900
 18586              	.LASF806:
 18587 6539 5F5A4E4B 	 .ascii "_ZNK9__gnu_cxx17__normal_iteratorIPKcNSt7__cxx1112b"
 18587      395F5F67 
 18587      6E755F63 
 18587      78783137 
 18587      5F5F6E6F 
 18588 656c 61736963 	 .ascii "asic_stringIcSt11char_traitsIcESaIcEEEEmiEi\000"
 18588      5F737472 
 18588      696E6749 
 18588      63537431 
 18588      31636861 
 18589              	.LASF425:
 18590 6598 5F436861 	 .ascii "_CharT\000"
 18590      725400
 18591              	.LASF1012:
 18592 659f 53746454 	 .ascii "StdTaakMsg\000"
 18592      61616B4D 
 18592      736700
 18593              	.LASF184:
 18594 65aa 5F5A4E53 	 .ascii "_ZNSt7__cxx1112basic_stringIcSt11char_traitsIcESaIc"
 18594      74375F5F 
 18594      63787831 
 18594      31313262 
 18594      61736963 
 18595 65dd 4545395F 	 .ascii "EE9_M_lengthEj\000"
 18595      4D5F6C65 
 18595      6E677468 
 18595      456A00
 18596              	.LASF923:
 18597 65ec 6C6F6361 	 .ascii "localeconv\000"
 18597      6C65636F 
 18597      6E7600
 18598              	.LASF304:
 18599 65f7 72656665 	 .ascii "reference\000"
 18599      72656E63 
 18599      6500
 18600              	.LASF405:
 18601 6601 5F5A4E4B 	 .ascii "_ZNKSt7__cxx1112basic_stringIcSt11char_traitsIcESaI"
 18601      5374375F 
 18601      5F637878 
 18601      31313132 
 18601      62617369 
 18602 6634 63454531 	 .ascii "cEE17find_first_not_ofEPKcjj\000"
 18602      3766696E 
 18602      645F6669 
 18602      7273745F 
 18602      6E6F745F 
 18603              	.LASF131:
 18604 6651 5F5F4649 	 .ascii "__FILE\000"
ARM GAS   			page 399


 18604      4C4500
 18605              	.LASF834:
 18606 6658 63686172 	 .ascii "char16_t\000"
 18606      31365F74 
 18606      00
 18607              	.LASF310:
 18608 6661 5F5A4E4B 	 .ascii "_ZNKSt7__cxx1112basic_stringIcSt11char_traitsIcESaI"
 18608      5374375F 
 18608      5F637878 
 18608      31313132 
 18608      62617369 
 18609 6694 63454535 	 .ascii "cEE5frontEv\000"
 18609      66726F6E 
 18609      74457600 
 18610              	.LASF354:
 18611 66a0 5F5A4E53 	 .ascii "_ZNSt7__cxx1112basic_stringIcSt11char_traitsIcESaIc"
 18611      74375F5F 
 18611      63787831 
 18611      31313262 
 18611      61736963 
 18612 66d3 45453772 	 .ascii "EE7replaceEjjRKS4_jj\000"
 18612      65706C61 
 18612      6365456A 
 18612      6A524B53 
 18612      345F6A6A 
 18613              	.LASF386:
 18614 66e8 5F5A4E4B 	 .ascii "_ZNKSt7__cxx1112basic_stringIcSt11char_traitsIcESaI"
 18614      5374375F 
 18614      5F637878 
 18614      31313132 
 18614      62617369 
 18615 671b 63454534 	 .ascii "cEE4findEPKcj\000"
 18615      66696E64 
 18615      45504B63 
 18615      6A00
 18616              	.LASF45:
 18617 6729 5F736967 	 .ascii "_sign\000"
 18617      6E00
 18618              	.LASF769:
 18619 672f 5F5A4E39 	 .ascii "_ZN9__gnu_cxx17__normal_iteratorIPcNSt7__cxx1112bas"
 18619      5F5F676E 
 18619      755F6378 
 18619      7831375F 
 18619      5F6E6F72 
 18620 6762 69635F73 	 .ascii "ic_stringIcSt11char_traitsIcESaIcEEEEC4ERKS1_\000"
 18620      7472696E 
 18620      67496353 
 18620      74313163 
 18620      6861725F 
 18621              	.LASF475:
 18622 6790 5F5A5374 	 .ascii "_ZSt4modffPf\000"
 18622      346D6F64 
 18622      66665066 
 18622      00
 18623              	.LASF0:
 18624 679d 5F5F696E 	 .ascii "__int8_t\000"
 18624      74385F74 
ARM GAS   			page 400


 18624      00
 18625              	.LASF612:
 18626 67a6 5F5A5374 	 .ascii "_ZSt9nextafteree\000"
 18626      396E6578 
 18626      74616674 
 18626      65726565 
 18626      00
 18627              	.LASF348:
 18628 67b7 5F5A4E53 	 .ascii "_ZNSt7__cxx1112basic_stringIcSt11char_traitsIcESaIc"
 18628      74375F5F 
 18628      63787831 
 18628      31313262 
 18628      61736963 
 18629 67ea 45453565 	 .ascii "EE5eraseEN9__gnu_cxx17__normal_iteratorIPKcS4_EE\000"
 18629      72617365 
 18629      454E395F 
 18629      5F676E75 
 18629      5F637878 
 18630              	.LASF50:
 18631 681b 5F5F746D 	 .ascii "__tm_min\000"
 18631      5F6D696E 
 18631      00
 18632              	.LASF223:
 18633 6824 5F535F61 	 .ascii "_S_assign\000"
 18633      73736967 
 18633      6E00
 18634              	.LASF291:
 18635 682e 73687269 	 .ascii "shrink_to_fit\000"
 18635      6E6B5F74 
 18635      6F5F6669 
 18635      7400
 18636              	.LASF1003:
 18637 683c 546F7563 	 .ascii "TouchGebeurd\000"
 18637      68476562 
 18637      65757264 
 18637      00
 18638              	.LASF556:
 18639 6849 5F5A5374 	 .ascii "_ZSt3erfe\000"
 18639      33657266 
 18639      6500
 18640              	.LASF557:
 18641 6853 5F5A5374 	 .ascii "_ZSt3erff\000"
 18641      33657266 
 18641      6600
 18642              	.LASF856:
 18643 685d 76667770 	 .ascii "vfwprintf\000"
 18643      72696E74 
 18643      6600
 18644              	.LASF497:
 18645 6867 69736669 	 .ascii "isfinite\000"
 18645      6E697465 
 18645      00
 18646              	.LASF239:
 18647 6870 5F5A4E53 	 .ascii "_ZNSt7__cxx1112basic_stringIcSt11char_traitsIcESaIc"
 18647      74375F5F 
 18647      63787831 
 18647      31313262 
ARM GAS   			page 401


 18647      61736963 
 18648 68a3 4545385F 	 .ascii "EE8_M_eraseEjj\000"
 18648      4D5F6572 
 18648      61736545 
 18648      6A6A00
 18649              	.LASF217:
 18650 68b2 5F4D5F64 	 .ascii "_M_disjunct\000"
 18650      69736A75 
 18650      6E637400 
 18651              	.LASF330:
 18652 68be 5F5A4E53 	 .ascii "_ZNSt7__cxx1112basic_stringIcSt11char_traitsIcESaIc"
 18652      74375F5F 
 18652      63787831 
 18652      31313262 
 18652      61736963 
 18653 68f1 45453661 	 .ascii "EE6assignEOS4_\000"
 18653      73736967 
 18653      6E454F53 
 18653      345F00
 18654              	.LASF1084:
 18655 6900 5F5F6B65 	 .ascii "__key\000"
 18655      7900
 18656              	.LASF28:
 18657 6906 756E7369 	 .ascii "unsigned int\000"
 18657      676E6564 
 18657      20696E74 
 18657      00
 18658              	.LASF93:
 18659 6913 5F723438 	 .ascii "_r48\000"
 18659      00
 18660              	.LASF767:
 18661 6918 5F5A4E39 	 .ascii "_ZN9__gnu_cxx17__normal_iteratorIPcNSt7__cxx1112bas"
 18661      5F5F676E 
 18661      755F6378 
 18661      7831375F 
 18661      5F6E6F72 
 18662 694b 69635F73 	 .ascii "ic_stringIcSt11char_traitsIcESaIcEEEEC4Ev\000"
 18662      7472696E 
 18662      67496353 
 18662      74313163 
 18662      6861725F 
 18663              	.LASF316:
 18664 6975 5F5A4E53 	 .ascii "_ZNSt7__cxx1112basic_stringIcSt11char_traitsIcESaIc"
 18664      74375F5F 
 18664      63787831 
 18664      31313262 
 18664      61736963 
 18665 69a8 4545704C 	 .ascii "EEpLEPKc\000"
 18665      45504B63 
 18665      00
 18666              	.LASF613:
 18667 69b1 5F5A5374 	 .ascii "_ZSt9nextafterff\000"
 18667      396E6578 
 18667      74616674 
 18667      65726666 
 18667      00
 18668              	.LASF997:
ARM GAS   			page 402


 18669 69c2 5461616B 	 .ascii "TaakPrio\000"
 18669      5072696F 
 18669      00
 18670              	.LASF724:
 18671 69cb 5F5F6378 	 .ascii "__cxx11\000"
 18671      78313100 
 18672              	.LASF642:
 18673 69d3 65786365 	 .ascii "exception_ptr\000"
 18673      7074696F 
 18673      6E5F7074 
 18673      7200
 18674              	.LASF447:
 18675 69e1 5F5A5374 	 .ascii "_ZSt3sine\000"
 18675      3373696E 
 18675      6500
 18676              	.LASF448:
 18677 69eb 5F5A5374 	 .ascii "_ZSt3sinf\000"
 18677      3373696E 
 18677      6600
 18678              	.LASF988:
 18679 69f5 5F5A4E31 	 .ascii "_ZN12cpp_freertos5DequeC4ERKS0_\000"
 18679      32637070 
 18679      5F667265 
 18679      6572746F 
 18679      73354465 
 18680              	.LASF164:
 18681 6a15 75696E74 	 .ascii "uint_fast8_t\000"
 18681      5F666173 
 18681      74385F74 
 18681      00
 18682              	.LASF402:
 18683 6a22 5F5A4E4B 	 .ascii "_ZNKSt7__cxx1112basic_stringIcSt11char_traitsIcESaI"
 18683      5374375F 
 18683      5F637878 
 18683      31313132 
 18683      62617369 
 18684 6a55 63454531 	 .ascii "cEE12find_last_ofEcj\000"
 18684      3266696E 
 18684      645F6C61 
 18684      73745F6F 
 18684      6645636A 
 18685              	.LASF306:
 18686 6a6a 5F5A4E4B 	 .ascii "_ZNKSt7__cxx1112basic_stringIcSt11char_traitsIcESaI"
 18686      5374375F 
 18686      5F637878 
 18686      31313132 
 18686      62617369 
 18687 6a9d 63454532 	 .ascii "cEE2atEj\000"
 18687      6174456A 
 18687      00
 18688              	.LASF643:
 18689 6aa6 5F4D5F65 	 .ascii "_M_exception_object\000"
 18689      78636570 
 18689      74696F6E 
 18689      5F6F626A 
 18689      65637400 
 18690              	.LASF712:
ARM GAS   			page 403


 18691 6aba 696E6974 	 .ascii "initializer_list<char>\000"
 18691      69616C69 
 18691      7A65725F 
 18691      6C697374 
 18691      3C636861 
 18692              	.LASF5:
 18693 6ad1 73686F72 	 .ascii "short int\000"
 18693      7420696E 
 18693      7400
 18694              	.LASF261:
 18695 6adb 62656769 	 .ascii "begin\000"
 18695      6E00
 18696              	.LASF918:
 18697 6ae1 696E745F 	 .ascii "int_p_cs_precedes\000"
 18697      705F6373 
 18697      5F707265 
 18697      63656465 
 18697      7300
 18698              	.LASF192:
 18699 6af3 5F4D5F73 	 .ascii "_M_set_length\000"
 18699      65745F6C 
 18699      656E6774 
 18699      6800
 18700              	.LASF74:
 18701 6b01 5F726561 	 .ascii "_read\000"
 18701      6400
 18702              	.LASF478:
 18703 6b07 73717274 	 .ascii "sqrt\000"
 18703      00
 18704              	.LASF1035:
 18705 6b0c 51756575 	 .ascii "QueueAantal\000"
 18705      6541616E 
 18705      74616C00 
 18706              	.LASF135:
 18707 6b18 5F72616E 	 .ascii "_rand48\000"
 18707      64343800 
 18708              	.LASF1090:
 18709 6b20 6E706F73 	 .ascii "npos\000"
 18709      00
 18710              	.LASF264:
 18711 6b25 5F5A4E53 	 .ascii "_ZNSt7__cxx1112basic_stringIcSt11char_traitsIcESaIc"
 18711      74375F5F 
 18711      63787831 
 18711      31313262 
 18711      61736963 
 18712 6b58 45453365 	 .ascii "EE3endEv\000"
 18712      6E644576 
 18712      00
 18713              	.LASF312:
 18714 6b61 5F5A4E53 	 .ascii "_ZNSt7__cxx1112basic_stringIcSt11char_traitsIcESaIc"
 18714      74375F5F 
 18714      63787831 
 18714      31313262 
 18714      61736963 
 18715 6b94 45453462 	 .ascii "EE4backEv\000"
 18715      61636B45 
 18715      7600
ARM GAS   			page 404


 18716              	.LASF756:
 18717 6b9e 5F5A4E39 	 .ascii "_ZN9__gnu_cxx14__alloc_traitsISaIcEcE27_S_propagate"
 18717      5F5F676E 
 18717      755F6378 
 18717      7831345F 
 18717      5F616C6C 
 18718 6bd1 5F6F6E5F 	 .ascii "_on_move_assignEv\000"
 18718      6D6F7665 
 18718      5F617373 
 18718      69676E45 
 18718      7600
 18719              	.LASF318:
 18720 6be3 5F5A4E53 	 .ascii "_ZNSt7__cxx1112basic_stringIcSt11char_traitsIcESaIc"
 18720      74375F5F 
 18720      63787831 
 18720      31313262 
 18720      61736963 
 18721 6c16 4545704C 	 .ascii "EEpLESt16initializer_listIcE\000"
 18721      45537431 
 18721      36696E69 
 18721      7469616C 
 18721      697A6572 
 18722              	.LASF728:
 18723 6c33 5F5F7661 	 .ascii "__va_list\000"
 18723      5F6C6973 
 18723      7400
 18724              	.LASF801:
 18725 6c3d 5F5A4E39 	 .ascii "_ZN9__gnu_cxx17__normal_iteratorIPKcNSt7__cxx1112ba"
 18725      5F5F676E 
 18725      755F6378 
 18725      7831375F 
 18725      5F6E6F72 
 18726 6c70 7369635F 	 .ascii "sic_stringIcSt11char_traitsIcESaIcEEEEmmEi\000"
 18726      73747269 
 18726      6E674963 
 18726      53743131 
 18726      63686172 
 18727              	.LASF698:
 18728 6c9b 7E616C6C 	 .ascii "~allocator\000"
 18728      6F636174 
 18728      6F7200
 18729              	.LASF207:
 18730 6ca6 5F436861 	 .ascii "_Char_alloc_type\000"
 18730      725F616C 
 18730      6C6F635F 
 18730      74797065 
 18730      00
 18731              	.LASF800:
 18732 6cb7 5F5A4E39 	 .ascii "_ZN9__gnu_cxx17__normal_iteratorIPKcNSt7__cxx1112ba"
 18732      5F5F676E 
 18732      755F6378 
 18732      7831375F 
 18732      5F6E6F72 
 18733 6cea 7369635F 	 .ascii "sic_stringIcSt11char_traitsIcESaIcEEEEmmEv\000"
 18733      73747269 
 18733      6E674963 
 18733      53743131 
ARM GAS   			page 405


 18733      63686172 
 18734              	.LASF755:
 18735 6d15 5F5A4E39 	 .ascii "_ZN9__gnu_cxx14__alloc_traitsISaIcEcE27_S_propagate"
 18735      5F5F676E 
 18735      755F6378 
 18735      7831345F 
 18735      5F616C6C 
 18736 6d48 5F6F6E5F 	 .ascii "_on_copy_assignEv\000"
 18736      636F7079 
 18736      5F617373 
 18736      69676E45 
 18736      7600
 18737              	.LASF434:
 18738 6d5a 5F5A5374 	 .ascii "_ZSt4acose\000"
 18738      3461636F 
 18738      736500
 18739              	.LASF435:
 18740 6d65 5F5A5374 	 .ascii "_ZSt4acosf\000"
 18740      3461636F 
 18740      736600
 18741              	.LASF714:
 18742 6d70 5F4D5F6C 	 .ascii "_M_len\000"
 18742      656E00
 18743              	.LASF393:
 18744 6d77 66696E64 	 .ascii "find_first_of\000"
 18744      5F666972 
 18744      73745F6F 
 18744      6600
 18745              	 .ident "GCC: (GNU Arm Embedded Toolchain 10.3-2021.10) 10.3.1 20210824 (release)"
